 RobotAnnihilation

 Timestamp is 5cae221f (Wed Apr 10 13:04:31 2019)

 Preferred load address is 0000000140000000

 Start         Length     Name                   Class
 0001:00000000 000006f0H .text$di                CODE
 0001:000006f0 000292d0H .text$mn                CODE
 0001:000299c0 00000020H .text$mn$00             CODE
 0001:000299e0 00001520H .text$x                 CODE
 0001:0002af00 000000fcH .text$yd                CODE
 0002:00000000 00000620H .idata$5                DATA
 0002:00000620 00000010H .00cfg                  DATA
 0002:00000630 00000008H .CRT$XCA                DATA
 0002:00000638 00000008H .CRT$XCAA               DATA
 0002:00000640 00000008H .CRT$XCL                DATA
 0002:00000648 00000030H .CRT$XCU                DATA
 0002:00000678 00000008H .CRT$XCZ                DATA
 0002:00000680 00000008H .CRT$XIA                DATA
 0002:00000688 00000008H .CRT$XIAA               DATA
 0002:00000690 00000008H .CRT$XIAC               DATA
 0002:00000698 00000008H .CRT$XIC                DATA
 0002:000006a0 00000008H .CRT$XIZ                DATA
 0002:000006a8 00000008H .CRT$XLA                DATA
 0002:000006b0 00000008H .CRT$XLZ                DATA
 0002:000006b8 00000008H .CRT$XPA                DATA
 0002:000006c0 00000008H .CRT$XPZ                DATA
 0002:000006c8 00000008H .CRT$XTA                DATA
 0002:000006d0 00000010H .CRT$XTZ                DATA
 0002:000006d8 00000000H .gfids$y                DATA
 0002:000006e0 000040a0H .rdata                  DATA
 0002:00004780 00000030H .rdata$T                DATA
 0002:000047b0 000019e8H .rdata$r                DATA
 0002:00006198 00000000H .rdata$zETW0            DATA
 0002:00006198 00000000H .rdata$zETW9            DATA
 0002:00006198 00000438H .rdata$zzzdbg           DATA
 0002:000065d0 00000008H .rtc$IAA                DATA
 0002:000065d8 00000008H .rtc$IZZ                DATA
 0002:000065e0 00000008H .rtc$TAA                DATA
 0002:000065e8 00000008H .rtc$TZZ                DATA
 0002:000065f0 00000004H .tls                    DATA
 0002:000065f4 00000004H .tls$                   DATA
 0002:000065f8 00000008H .tls$ZZZ                DATA
 0002:00006600 00004498H .xdata                  DATA
 0002:0000aa98 00000270H .xdata$x                DATA
 0002:0000ad08 00000000H minATL$__a              DATA
 0002:0000ad08 00000000H minATL$__m              DATA
 0002:0000ad08 00000000H minATL$__z              DATA
 0002:0000ad08 00000000H .edata                  DATA
 0002:0000ad08 000001ccH .idata$2                DATA
 0002:0000aed4 00000014H .idata$3                DATA
 0002:0000aee8 00000620H .idata$4                DATA
 0002:0000b508 000013e2H .idata$6                DATA
 0003:00000000 000002e0H .data                   DATA
 0003:000002e0 00001240H .data$r                 DATA
 0003:00001520 00000df0H .bss                    DATA
 0004:00000000 00001a88H .pdata                  DATA
 0005:00000000 00000570H .rsrc$01                DATA
 0005:00000570 00016cc0H .rsrc$02                DATA

  Address         Publics by Value              Rva+Base               Lib:Object

 0000:00000000       __hybrid_code_map_count    0000000000000000     <absolute>
 0000:00000000       __guard_fids_count         0000000000000000     <absolute>
 0000:00000000       __guard_iat_count          0000000000000000     <absolute>
 0000:00000000       __volatile_metadata        0000000000000000     <absolute>
 0000:00000000       __guard_longjmp_count      0000000000000000     <absolute>
 0000:00000000       __guard_longjmp_table      0000000000000000     <absolute>
 0000:00000000       __guard_iat_table          0000000000000000     <absolute>
 0000:00000000       __hybrid_code_map          0000000000000000     <absolute>
 0000:00000000       ___safe_se_handler_count   0000000000000000     <absolute>
 0000:00000000       __enclave_config           0000000000000000     <absolute>
 0000:00000000       ___safe_se_handler_table   0000000000000000     <absolute>
 0000:00000000       __guard_fids_table         0000000000000000     <absolute>
 0000:00000000       __hybrid_auxiliary_iat     0000000000000000     <absolute>
 0000:00000000       __dynamic_value_reloc_table 0000000000000000     <absolute>
 0000:00000100       __guard_flags              0000000000000100     <absolute>
 0000:00000000       __ImageBase                0000000140000000     <linker-defined>
 0001:000006f0       ??0exception@std@@QEAA@AEBV01@@Z 00000001400016f0 f i Animation.obj
 0001:00000730       ??1exception@std@@UEAA@XZ  0000000140001730 f i Animation.obj
 0001:00000730       ??1bad_cast@std@@UEAA@XZ   0000000140001730 f i Animation.obj
 0001:00000750       ?what@exception@std@@UEBAPEBDXZ 0000000140001750 f i Animation.obj
 0001:00000770       ??_Eexception@std@@UEAAPEAXI@Z 0000000140001770 f i * CIL library *:* CIL module *
 0001:00000770       ??_Ebad_cast@std@@UEAAPEAXI@Z 0000000140001770 f i * CIL library *:* CIL module *
 0001:00000770       ??_Gexception@std@@UEAAPEAXI@Z 0000000140001770 f i Animation.obj
 0001:00000770       ??_Gbad_cast@std@@UEAAPEAXI@Z 0000000140001770 f i Animation.obj
 0001:000007c0       ??0bad_cast@std@@QEAA@XZ   00000001400017c0 f i Animation.obj
 0001:000007f0       ??1locale@std@@QEAA@XZ     00000001400017f0 f i Animation.obj
 0001:00000830       ?XMVectorSin@DirectX@@YQ?AT__m128@@T2@@Z 0000000140001830 f i Animation.obj
 0001:00000910       ?XMVectorATan@DirectX@@YQ?AT__m128@@T2@@Z 0000000140001910 f i Animation.obj
 0001:00000a30       ?XMVectorATan2@DirectX@@YQ?AT__m128@@T2@0@Z 0000000140001a30 f i Animation.obj
 0001:00000bd0       ?XMMatrixMultiply@DirectX@@YQ?AUXMMATRIX@1@U21@AEBU21@@Z 0000000140001bd0 f i Animation.obj
 0001:00000d20       ?XMMatrixInverse@DirectX@@YQ?AUXMMATRIX@1@PEAT__m128@@U21@@Z 0000000140001d20 f i Animation.obj
 0001:00001020       ?XMQuaternionSlerpV@DirectX@@YQ?AT__m128@@T2@00@Z 0000000140002020 f i Animation.obj
 0001:00001140       ?XMQuaternionRotationMatrix@DirectX@@YQ?AT__m128@@UXMMATRIX@1@@Z 0000000140002140 f i Animation.obj
 0001:000012c0       ??1anim_clip@@QEAA@XZ      00000001400022c0 f i Animation.obj
 0001:00001380       ?RecursiveJointCalc@Animation@@QEAA?AV?$array@Ufloat4@@$03@std@@IAEAV?$vector@V?$array@Ufloat4@@$03@std@@V?$allocator@V?$array@Ufloat4@@$03@std@@@2@@3@AEAV?$vector@HV?$allocator@H@std@@@3@@Z 0000000140002380 f   Animation.obj
 0001:00001550       ?Flatten@Animation@@QEAA?AV?$vector@V?$array@Ufloat4@@$03@std@@V?$allocator@V?$array@Ufloat4@@$03@std@@@2@@std@@V23@V?$vector@HV?$allocator@H@std@@@3@@Z 0000000140002550 f   Animation.obj
 0001:00001700       ??0Animation@@QEAA@PEBDPEAUID3D11Device@@@Z 0000000140002700 f   Animation.obj
 0001:00001940       ?ReadAnimFile@Animation@@QEAAXPEBDPEAUID3D11Device@@@Z 0000000140002940 f   Animation.obj
 0001:00002200       ??_D?$basic_fstream@DU?$char_traits@D@std@@@std@@QEAAXXZ 0000000140003200 f i Animation.obj
 0001:00002270       ?LerpJoints@Animation@@QEAA?AV?$vector@V?$array@Ufloat4@@$03@std@@V?$allocator@V?$array@Ufloat4@@$03@std@@@2@@std@@V23@0MV?$vector@HV?$allocator@H@std@@@3@@Z 0000000140003270 f   Animation.obj
 0001:00002900       ?SetJoints@Animation@@QEAAXM@Z 0000000140003900 f   Animation.obj
 0001:00002d00       ?SetFrameTime@Animation@@QEAAXM@Z 0000000140003d00 f   Animation.obj
 0001:00002d40       ??1?$vector@IV?$allocator@I@std@@@std@@QEAA@XZ 0000000140003d40 f i graphicsclass.obj
 0001:00002d40       ??1?$vector@HV?$allocator@H@std@@@std@@QEAA@XZ 0000000140003d40 f i Animation.obj
 0001:00002da0       ??0?$vector@IV?$allocator@I@std@@@std@@QEAA@AEBV01@@Z 0000000140003da0 f i Model.obj
 0001:00002da0       ??0?$vector@HV?$allocator@H@std@@@std@@QEAA@AEBV01@@Z 0000000140003da0 f i Animation.obj
 0001:00002e90       ??1?$vector@Ukeyframe@@V?$allocator@Ukeyframe@@@std@@@std@@QEAA@XZ 0000000140003e90 f i Animation.obj
 0001:00002ea0       ?_Tidy@?$vector@V?$array@Ufloat4@@$03@std@@V?$allocator@V?$array@Ufloat4@@$03@std@@@2@@std@@AEAAXXZ 0000000140003ea0 f i Animation.obj
 0001:00002ea0       ??1?$vector@V?$array@Ufloat4@@$03@std@@V?$allocator@V?$array@Ufloat4@@$03@std@@@2@@std@@QEAA@XZ 0000000140003ea0 f i Animation.obj
 0001:00002f00       ??0?$vector@V?$array@Ufloat4@@$03@std@@V?$allocator@V?$array@Ufloat4@@$03@std@@@2@@std@@QEAA@AEBV01@@Z 0000000140003f00 f i Animation.obj
 0001:00002f70       ?_Tidy_deallocate@?$basic_string@DU?$char_traits@D@std@@V?$allocator@D@2@@std@@QEAAXXZ 0000000140003f70 f i Animation.obj
 0001:00002f70       ??1?$basic_string@DU?$char_traits@D@std@@V?$allocator@D@2@@std@@QEAA@XZ 0000000140003f70 f i Animation.obj
 0001:00002fd0       ??0?$basic_fstream@DU?$char_traits@D@std@@@std@@QEAA@PEBDHH@Z 0000000140003fd0 f i Animation.obj
 0001:000030d0       ?imbue@?$basic_filebuf@DU?$char_traits@D@std@@@std@@MEAAXAEBVlocale@2@@Z 00000001400040d0 f i Animation.obj
 0001:00003120       ?sync@?$basic_filebuf@DU?$char_traits@D@std@@@std@@MEAAHXZ 0000000140004120 f i Animation.obj
 0001:00003170       ?setbuf@?$basic_filebuf@DU?$char_traits@D@std@@@std@@MEAAPEAV?$basic_streambuf@DU?$char_traits@D@std@@@2@PEAD_J@Z 0000000140004170 f i Animation.obj
 0001:000031d0       ?seekpos@?$basic_filebuf@DU?$char_traits@D@std@@@std@@MEAA?AV?$fpos@U_Mbstatet@@@2@V32@H@Z 00000001400041d0 f i Animation.obj
 0001:000032b0       ?seekoff@?$basic_filebuf@DU?$char_traits@D@std@@@std@@MEAA?AV?$fpos@U_Mbstatet@@@2@_JHH@Z 00000001400042b0 f i Animation.obj
 0001:00003390       ?xsputn@?$basic_filebuf@DU?$char_traits@D@std@@@std@@MEAA_JPEBD_J@Z 0000000140004390 f i Animation.obj
 0001:00003470       ?xsgetn@?$basic_filebuf@DU?$char_traits@D@std@@@std@@MEAA_JPEAD_J@Z 0000000140004470 f i Animation.obj
 0001:00003560       ?uflow@?$basic_filebuf@DU?$char_traits@D@std@@@std@@MEAAHXZ 0000000140004560 f i Animation.obj
 0001:00003840       ?underflow@?$basic_filebuf@DU?$char_traits@D@std@@@std@@MEAAHXZ 0000000140004840 f i Animation.obj
 0001:000038b0       ?pbackfail@?$basic_filebuf@DU?$char_traits@D@std@@@std@@MEAAHH@Z 00000001400048b0 f i Animation.obj
 0001:000039b0       ?overflow@?$basic_filebuf@DU?$char_traits@D@std@@@std@@MEAAHH@Z 00000001400049b0 f i Animation.obj
 0001:00003b50       ?_Unlock@?$basic_filebuf@DU?$char_traits@D@std@@@std@@UEAAXXZ 0000000140004b50 f i Animation.obj
 0001:00003b70       ?_Lock@?$basic_filebuf@DU?$char_traits@D@std@@@std@@UEAAXXZ 0000000140004b70 f i Animation.obj
 0001:00003b90       ??1?$basic_filebuf@DU?$char_traits@D@std@@@std@@UEAA@XZ 0000000140004b90 f i Animation.obj
 0001:00003c10       ??_G?$basic_fstream@DU?$char_traits@D@std@@@std@@UEAAPEAXI@Z 0000000140004c10 f i Animation.obj
 0001:00003c10       ??_E?$basic_fstream@DU?$char_traits@D@std@@@std@@UEAAPEAXI@Z 0000000140004c10 f i * CIL library *:* CIL module *
 0001:00003c50       ??_G?$basic_filebuf@DU?$char_traits@D@std@@@std@@UEAAPEAXI@Z 0000000140004c50 f i Animation.obj
 0001:00003c50       ??_E?$basic_filebuf@DU?$char_traits@D@std@@@std@@UEAAPEAXI@Z 0000000140004c50 f i * CIL library *:* CIL module *
 0001:00003c90       ?_Tidy@?$vector@Ukeyframe@@V?$allocator@Ukeyframe@@@std@@@std@@AEAAXXZ 0000000140004c90 f i Animation.obj
 0001:00003d00       ?_Buy@?$vector@V?$array@Ufloat4@@$03@std@@V?$allocator@V?$array@Ufloat4@@$03@std@@@2@@std@@AEAA_N_K@Z 0000000140004d00 f i Animation.obj
 0001:00003db0       ?_Reset_back@?$basic_filebuf@DU?$char_traits@D@std@@@std@@AEAAXXZ 0000000140004db0 f i Animation.obj
 0001:00003de0       ?_Endwrite@?$basic_filebuf@DU?$char_traits@D@std@@@std@@IEAA_NXZ 0000000140004de0 f i Animation.obj
 0001:00003eb0       ?_Init@?$basic_filebuf@DU?$char_traits@D@std@@@std@@IEAAXPEAU_iobuf@@W4_Initfl@12@@Z 0000000140004eb0 f i Animation.obj
 0001:00003f70       ?close@?$basic_filebuf@DU?$char_traits@D@std@@@std@@QEAAPEAV12@XZ 0000000140004f70 f i Animation.obj
 0001:00003ff0       ?open@?$basic_filebuf@DU?$char_traits@D@std@@@std@@QEAAPEAV12@PEBDHH@Z 0000000140004ff0 f i Animation.obj
 0001:000040d0       ?_Xlength@?$vector@PEAVGun@@V?$allocator@PEAVGun@@@std@@@std@@CAXXZ 00000001400050d0 f i GameManager.obj
 0001:000040d0       ?_Xlength@?$vector@V?$array@Ufloat4@@$03@std@@V?$allocator@V?$array@Ufloat4@@$03@std@@@2@@std@@CAXXZ 00000001400050d0 f i Animation.obj
 0001:000040d0       ?_Xlength@?$vector@PEAVGameObject@@V?$allocator@PEAVGameObject@@@std@@@std@@CAXXZ 00000001400050d0 f i EnemyManager.obj
 0001:000040d0       ?_Xlength@?$vector@V?$array@D$0BAE@@std@@V?$allocator@V?$array@D$0BAE@@std@@@2@@std@@CAXXZ 00000001400050d0 f i Model.obj
 0001:000040d0       ?_Xlength@?$vector@PEAVBullet@@V?$allocator@PEAVBullet@@@std@@@std@@CAXXZ 00000001400050d0 f i GameManager.obj
 0001:000040d0       ?_Xlength@?$vector@PEAVSound@@V?$allocator@PEAVSound@@@std@@@std@@CAXXZ 00000001400050d0 f i Enemy.obj
 0001:000040d0       ?_Xlength@?$vector@HV?$allocator@H@std@@@std@@CAXXZ 00000001400050d0 f i Animation.obj
 0001:000040d0       ?_Xlength@?$vector@Umaterial_t@@V?$allocator@Umaterial_t@@@std@@@std@@CAXXZ 00000001400050d0 f i Model.obj
 0001:000040d0       ?_Xlength@?$vector@Ukeyframe@@V?$allocator@Ukeyframe@@@std@@@std@@CAXXZ 00000001400050d0 f i Animation.obj
 0001:000040d0       ?_Xlength@?$vector@UVertex@@V?$allocator@UVertex@@@std@@@std@@CAXXZ 00000001400050d0 f i Model.obj
 0001:000040d0       ?_Xlength@?$vector@PEAVPickup@@V?$allocator@PEAVPickup@@@std@@@std@@CAXXZ 00000001400050d0 f i GameManager.obj
 0001:000040d0       ?_Xlength@?$vector@USphere@@V?$allocator@USphere@@@std@@@std@@CAXXZ 00000001400050d0 f i GameObject.obj
 0001:000040d0       ?_Xlength@?$vector@PEAVEnemy@@V?$allocator@PEAVEnemy@@@std@@@std@@CAXXZ 00000001400050d0 f i EnemyManager.obj
 0001:000040d0       ?_Xlength@?$vector@PEAVAnimation@@V?$allocator@PEAVAnimation@@@std@@@std@@CAXXZ 00000001400050d0 f i GameObject.obj
 0001:000040d0       ?_Xlength@?$vector@PEAVUIElement@@V?$allocator@PEAVUIElement@@@std@@@std@@CAXXZ 00000001400050d0 f i UIManager.obj
 0001:000040d0       ?_Xlength@?$vector@IV?$allocator@I@std@@@std@@CAXXZ 00000001400050d0 f i Model.obj
 0001:000040f0       ??$_Emplace_reallocate@AEBH@?$vector@HV?$allocator@H@std@@@std@@QEAAPEAHQEAHAEBH@Z 00000001400050f0 f i Animation.obj
 0001:000040f0       ??$_Emplace_reallocate@H@?$vector@HV?$allocator@H@std@@@std@@QEAAPEAHQEAH$$QEAH@Z 00000001400050f0 f i GameObject.obj
 0001:00004290       ??$_Resize@V<lambda_753cb66179afa6340adadd7109f91d2f>@@@?$vector@Ukeyframe@@V?$allocator@Ukeyframe@@@std@@@std@@AEAAX_KV<lambda_753cb66179afa6340adadd7109f91d2f>@@@Z 0000000140005290 f i Animation.obj
 0001:00004520       ??$_Resize@V<lambda_3bf83ccb702bae8a49d568d66998a612>@@@?$vector@V?$array@Ufloat4@@$03@std@@V?$allocator@V?$array@Ufloat4@@$03@std@@@2@@std@@AEAAX_KV<lambda_3bf83ccb702bae8a49d568d66998a612>@@@Z 0000000140005520 f i Animation.obj
 0001:000046a0       ??$_Emplace_reallocate@V?$array@Ufloat4@@$03@std@@@?$vector@V?$array@Ufloat4@@$03@std@@V?$allocator@V?$array@Ufloat4@@$03@std@@@2@@std@@QEAAPEAV?$array@Ufloat4@@$03@1@QEAV21@$$QEAV21@@Z 00000001400056a0 f i Animation.obj
 0001:000046a0       ??$_Emplace_reallocate@AEBV?$array@Ufloat4@@$03@std@@@?$vector@V?$array@Ufloat4@@$03@std@@V?$allocator@V?$array@Ufloat4@@$03@std@@@2@@std@@QEAAPEAV?$array@Ufloat4@@$03@1@QEAV21@AEBV21@@Z 00000001400056a0 f i Animation.obj
 0001:00004820       ??$use_facet@V?$codecvt@DDU_Mbstatet@@@std@@@std@@YAAEBV?$codecvt@DDU_Mbstatet@@@0@AEBVlocale@0@@Z 0000000140005820 f i Animation.obj
 0001:00004940       ??$_Reallocate_grow_by@V<lambda_319d5e083f45f90dcdce5dce53cbb275>@@D@?$basic_string@DU?$char_traits@D@std@@V?$allocator@D@2@@std@@QEAAAEAV01@_KV<lambda_319d5e083f45f90dcdce5dce53cbb275>@@D@Z 0000000140005940 f i Animation.obj
 0001:00004aa0       ??$_Destroy_range@V?$allocator@Ukeyframe@@@std@@@std@@YAXPEAUkeyframe@@0AEAV?$allocator@Ukeyframe@@@0@@Z 0000000140005aa0 f i Animation.obj
 0001:00004b30       ??0bad_cast@std@@QEAA@AEBV01@@Z 0000000140005b30 f i Animation.obj
 0001:00004b70       ??1?$unique_ptr@V_Facet_base@std@@U?$default_delete@V_Facet_base@std@@@2@@std@@QEAA@XZ 0000000140005b70 f i Animation.obj
 0001:00004ba0       ?_Change_array@?$vector@V?$array@Ufloat4@@$03@std@@V?$allocator@V?$array@Ufloat4@@$03@std@@@2@@std@@AEAAXQEAV?$array@Ufloat4@@$03@2@_K1@Z 0000000140005ba0 f i Animation.obj
 0001:00004c30       ?_Xlen@?$basic_string@DU?$char_traits@D@std@@V?$allocator@D@2@@std@@SAXXZ 0000000140005c30 f i Animation.obj
 0001:00004c50       ??$_Assign_range@PEAV?$array@Ufloat4@@$03@std@@@?$vector@V?$array@Ufloat4@@$03@std@@V?$allocator@V?$array@Ufloat4@@$03@std@@@2@@std@@AEAAXPEAV?$array@Ufloat4@@$03@1@0Uforward_iterator_tag@1@@Z 0000000140005c50 f i Animation.obj
 0001:00004da0       ??1?$_Uninitialized_backout_al@PEAUkeyframe@@V?$allocator@Ukeyframe@@@std@@@std@@QEAA@XZ 0000000140005da0 f i Animation.obj
 0001:00004dac       ??_E?$basic_fstream@DU?$char_traits@D@std@@@std@@$4PPPPPPPM@A@EAAPEAXI@Z 0000000140005dac f i Animation.obj
 0001:00004dc0       ??0Bullet@@QEAA@M@Z        0000000140005dc0 f   Bullet.obj
 0001:00004e50       ?Initialize@Bullet@@QEAA_NPEAUID3D11Device@@PEBDUfloat3@@2V?$basic_string@DU?$char_traits@D@std@@V?$allocator@D@2@@std@@M@Z 0000000140005e50 f   Bullet.obj
 0001:000050a0       ?Update@Bullet@@UEAAXM@Z   00000001400060a0 f   Bullet.obj
 0001:00005100       ??0?$basic_string@DU?$char_traits@D@std@@V?$allocator@D@2@@std@@QEAA@AEBV01@@Z 0000000140006100 f i Bullet.obj
 0001:000051d0       ?assign@?$basic_string@DU?$char_traits@D@std@@V?$allocator@D@2@@std@@QEAAAEAV12@QEBD_K@Z 00000001400061d0 f i Bullet.obj
 0001:00005330       ?XMVectorSinCos@DirectX@@YQXPEAT__m128@@0T2@@Z 0000000140006330 f i DebugCamera.obj
 0001:00005490       ?XMMatrixRotationRollPitchYawFromVector@DirectX@@YQ?AUXMMATRIX@1@T__m128@@@Z 0000000140006490 f i DebugCamera.obj
 0001:00005540       ?XMMatrixLookToLH@DirectX@@YQ?AUXMMATRIX@1@T__m128@@00@Z 0000000140006540 f i DebugCamera.obj
 0001:00005750       ?XMQuaternionRotationRollPitchYawFromVector@DirectX@@YQ?AT__m128@@T2@@Z 0000000140006750 f i DebugCamera.obj
 0001:00005890       ?XMScalarSinCos@DirectX@@YAXPEAM0M@Z 0000000140006890 f i DebugCamera.obj
 0001:000059d0       ?Update@DebugCamera@@QEAAXXZ 00000001400069d0 f   DebugCamera.obj
 0001:00005c80       __acrt_initialize          0000000140006c80 f i MSVCRT:ucrt_stubs.obj
 0001:00005c80       __scrt_stub_for_acrt_uninitialize 0000000140006c80 f i MSVCRT:ucrt_stubs.obj
 0001:00005c80       _should_initialize_environment 0000000140006c80 f i MSVCRT:env_mode.obj
 0001:00005c80       __vcrt_uninitialize        0000000140006c80 f i MSVCRT:ucrt_stubs.obj
 0001:00005c80       __scrt_stub_for_acrt_initialize 0000000140006c80 f i MSVCRT:ucrt_stubs.obj
 0001:00005c80       __vcrt_initialize          0000000140006c80 f i MSVCRT:ucrt_stubs.obj
 0001:00005c80       __acrt_uninitialize        0000000140006c80 f i MSVCRT:ucrt_stubs.obj
 0001:00005c80       ?Initialize@Enemy@@UEAA_NPEAUID3D11Device@@PEBDUfloat3@@@Z 0000000140006c80 f i Enemy.obj
 0001:00005c90       _initialize_invalid_parameter_handler 0000000140006c90 f i MSVCRT:invalid_parameter_handler.obj
 0001:00005c90       ?Update@Enemy@@UEAAXMPEAVPlayer@@AEAV?$vector@PEAVBullet@@V?$allocator@PEAVBullet@@@std@@@std@@PEAUID3D11Device@@@Z 0000000140006c90 f i Enemy.obj
 0001:00005c90       ?Update@ImageElement@@UEAAXXZ 0000000140006c90 f i UIElement.obj
 0001:00005c90       ?Update@TextElement@@UEAAXXZ 0000000140006c90 f i UIElement.obj
 0001:00005c90       _guard_check_icall_nop     0000000140006c90 f i MSVCRT:guard_support.obj
 0001:00005c90       ?Render@UIElement@@UEAAXXZ 0000000140006c90 f i UIElement.obj
 0001:00005c90       _initialize_denormal_control 0000000140006c90 f i MSVCRT:denormal_control.obj
 0001:00005c90       ?Update@UIElement@@UEAAXXZ 0000000140006c90 f i UIElement.obj
 0001:00005ca0       ?SubHealth@Enemy@@QEAAXMW4DamageType@1@PEAUHWND__@@@Z 0000000140006ca0 f   Enemy.obj
 0001:00006160       ??1?$vector@PEAVAnimation@@V?$allocator@PEAVAnimation@@@std@@@std@@QEAA@XZ 0000000140007160 f i GameObject.obj
 0001:00006160       ??1?$vector@PEAVPickup@@V?$allocator@PEAVPickup@@@std@@@std@@QEAA@XZ 0000000140007160 f i graphicsclass.obj
 0001:00006160       ??1?$vector@PEBUSpriteInfo@Impl@SpriteBatch@DirectX@@V?$allocator@PEBUSpriteInfo@Impl@SpriteBatch@DirectX@@@std@@@std@@QEAA@XZ 0000000140007160 f i DirectXTK:SpriteBatch.obj
 0001:00006160       ??1?$vector@PEAVSound@@V?$allocator@PEAVSound@@@std@@@std@@QEAA@XZ 0000000140007160 f i Enemy.obj
 0001:00006160       ??1?$vector@PEAVGameObject@@V?$allocator@PEAVGameObject@@@std@@@std@@QEAA@XZ 0000000140007160 f i EnemyManager.obj
 0001:00006160       ??1?$vector@PEAVBullet@@V?$allocator@PEAVBullet@@@std@@@std@@QEAA@XZ 0000000140007160 f i graphicsclass.obj
 0001:00006160       ??1?$vector@PEAVGun@@V?$allocator@PEAVGun@@@std@@@std@@QEAA@XZ 0000000140007160 f i Player.obj
 0001:00006160       ??1?$vector@PEAVEnemy@@V?$allocator@PEAVEnemy@@@std@@@std@@QEAA@XZ 0000000140007160 f i EnemyManager.obj
 0001:000061c0       ??0?$vector@PEAVPickup@@V?$allocator@PEAVPickup@@@std@@@std@@QEAA@AEBV01@@Z 00000001400071c0 f i GameManager.obj
 0001:000061c0       ??0?$vector@PEAVBullet@@V?$allocator@PEAVBullet@@@std@@@std@@QEAA@AEBV01@@Z 00000001400071c0 f i GameManager.obj
 0001:000061c0       ??0?$vector@PEAVSound@@V?$allocator@PEAVSound@@@std@@@std@@QEAA@AEBV01@@Z 00000001400071c0 f i Enemy.obj
 0001:000061c0       ??0?$vector@PEAVEnemy@@V?$allocator@PEAVEnemy@@@std@@@std@@QEAA@AEBV01@@Z 00000001400071c0 f i EnemyManager.obj
 0001:000061c0       ??0?$vector@PEAVGameObject@@V?$allocator@PEAVGameObject@@@std@@@std@@QEAA@AEBV01@@Z 00000001400071c0 f i EnemyManager.obj
 0001:000062b0       ??$_Emplace_reallocate@AEBQEAVGun@@@?$vector@PEAVGun@@V?$allocator@PEAVGun@@@std@@@std@@QEAAPEAPEAVGun@@QEAPEAV2@AEBQEAV2@@Z 00000001400072b0 f i GameManager.obj
 0001:000062b0       ??$_Emplace_reallocate@AEBQEAVPickup@@@?$vector@PEAVPickup@@V?$allocator@PEAVPickup@@@std@@@std@@QEAAPEAPEAVPickup@@QEAPEAV2@AEBQEAV2@@Z 00000001400072b0 f i GameManager.obj
 0001:000062b0       ??$_Emplace_reallocate@PEAVBullet@@@?$vector@PEAVBullet@@V?$allocator@PEAVBullet@@@std@@@std@@QEAAPEAPEAVBullet@@QEAPEAV2@$$QEAPEAV2@@Z 00000001400072b0 f i GameManager.obj
 0001:000062b0       ??$_Emplace_reallocate@PEAVGameObject@@@?$vector@PEAVGameObject@@V?$allocator@PEAVGameObject@@@std@@@std@@QEAAPEAPEAVGameObject@@QEAPEAV2@$$QEAPEAV2@@Z 00000001400072b0 f i GameManager.obj
 0001:000062b0       ??$_Emplace_reallocate@AEBQEAVUIElement@@@?$vector@PEAVUIElement@@V?$allocator@PEAVUIElement@@@std@@@std@@QEAAPEAPEAVUIElement@@QEAPEAV2@AEBQEAV2@@Z 00000001400072b0 f i UIManager.obj
 0001:000062b0       ??$_Emplace_reallocate@PEAVEnemy@@@?$vector@PEAVEnemy@@V?$allocator@PEAVEnemy@@@std@@@std@@QEAAPEAPEAVEnemy@@QEAPEAV2@$$QEAPEAV2@@Z 00000001400072b0 f i EnemyManager.obj
 0001:000062b0       ??$_Emplace_reallocate@AEBQEAVSound@@@?$vector@PEAVSound@@V?$allocator@PEAVSound@@@std@@@std@@QEAAPEAPEAVSound@@QEAPEAV2@AEBQEAV2@@Z 00000001400072b0 f i Enemy.obj
 0001:00006450       ?Initialize@EnemyManager@@QEAAXPEAUID3D11Device@@@Z 0000000140007450 f   EnemyManager.obj
 0001:00006880       ??1Enemy@@QEAA@XZ          0000000140007880 f i EnemyManager.obj
 0001:00006890       ?Update@EnemyManager@@QEAAXMPEAVPlayer@@V?$vector@PEAVGameObject@@V?$allocator@PEAVGameObject@@@std@@@std@@AEAV?$vector@PEAVBullet@@V?$allocator@PEAVBullet@@@std@@@4@PEAUID3D11Device@@@Z 0000000140007890 f   EnemyManager.obj
 0001:000070a0       ?CalculateObstacleSeperation@EnemyManager@@QEAA?AUfloat3@@AEAVTarget@@V?$vector@PEAVGameObject@@V?$allocator@PEAVGameObject@@@std@@@std@@@Z 00000001400080a0 f   EnemyManager.obj
 0001:00007360       ?StartNewRound@EnemyManager@@QEAAXXZ 0000000140008360 f   EnemyManager.obj
 0001:000073b0       ?Construct@Frustum@@QEAAXMUXMMATRIX@DirectX@@0@Z 00000001400083b0 f   Frustum.obj
 0001:000077b0       ??0GameObject@@QEAA@XZ     00000001400087b0 f   GameObject.obj
 0001:00007900       ??1GameObject@@QEAA@XZ     0000000140008900 f   GameObject.obj
 0001:00007ab0       ?GetParent@GameObject@@QEAAHHV?$vector@HV?$allocator@H@std@@@std@@@Z 0000000140008ab0 f   GameObject.obj
 0001:00007c10       ?Update@GameObject@@UEAAXM@Z 0000000140008c10 f   GameObject.obj
 0001:00007cb0       ?AddAninimation@GameObject@@QEAAXPEBDPEAUID3D11Device@@H@Z 0000000140008cb0 f   GameObject.obj
 0001:00007fc0       ?Initialize@GameObject@@UEAA_NPEBDPEAUID3D11Device@@@Z 0000000140008fc0 f   GameObject.obj
 0001:00007fd0       ?Render@GameObject@@UEAAXPEAUID3D11DeviceContext@@@Z 0000000140008fd0 f   GameObject.obj
 0001:00007fd0       ?Render@Player@@UEAAXPEAUID3D11DeviceContext@@@Z 0000000140008fd0 f   Player.obj
 0001:00007fe0       ?Shutdown@GameObject@@UEAAXXZ 0000000140008fe0 f   GameObject.obj
 0001:000081b0       ??1?$vector@USphere@@V?$allocator@USphere@@@std@@@std@@QEAA@XZ 00000001400091b0 f i GameObject.obj
 0001:00008210       ??0?$vector@Ukeyframe@@V?$allocator@Ukeyframe@@@std@@@std@@QEAA@AEBV01@@Z 0000000140009210 f i GameObject.obj
 0001:00008350       ??$_Emplace_reallocate@AEBUSphere@@@?$vector@USphere@@V?$allocator@USphere@@@std@@@std@@QEAAPEAUSphere@@QEAU2@AEBU2@@Z 0000000140009350 f i GameObject.obj
 0001:000084e0       ??$_Resize@V<lambda_5faba587ae6cafb8bb5bc4a9224fce8d>@@@?$vector@PEAVAnimation@@V?$allocator@PEAVAnimation@@@std@@@std@@AEAAX_KV<lambda_5faba587ae6cafb8bb5bc4a9224fce8d>@@@Z 00000001400094e0 f i GameObject.obj
 0001:00008690       ?Initialize@DX@@QEAA_NHH_NPEAUHWND__@@0MM@Z 0000000140009690 f   dxstuff.obj
 0001:00008cd0       ??1?$function@$$A6AXXZ@std@@QEAA@XZ 0000000140009cd0 f i graphicsclass.obj
 0001:00008cd0       ??1?$_Func_class@X$$V@std@@QEAA@XZ 0000000140009cd0 f i graphicsclass.obj
 0001:00008d10       ?Initialize@Graphics@@QEAA_NHHPEAUHWND__@@PEAVInputManager@@@Z 0000000140009d10 f   graphicsclass.obj
 0001:000094b0       ?Shutdown@Graphics@@QEAAXXZ 000000014000a4b0 f   graphicsclass.obj
 0001:00009720       ?Render@Graphics@@QEAA_NPEAVInputManager@@PEAVPlayer@@V?$vector@PEAVBullet@@V?$allocator@PEAVBullet@@@std@@@std@@V?$vector@PEAVEnemy@@V?$allocator@PEAVEnemy@@@std@@@5@V?$vector@PEAVGameObject@@V?$allocator@PEAVGameObject@@@std@@@5@V?$vector@PEAVPickup@@V?$allocator@PEAVPickup@@@std@@@5@@Z 000000014000a720 f   graphicsclass.obj
 0001:0000b950       ?to_string@std@@YA?AV?$basic_string@DU?$char_traits@D@std@@V?$allocator@D@2@@1@H@Z 000000014000c950 f i GameManager.obj
 0001:0000ba30       ?to_string@std@@YA?AV?$basic_string@DU?$char_traits@D@std@@V?$allocator@D@2@@1@I@Z 000000014000ca30 f i GameManager.obj
 0001:0000bad0       ?MovingSphereToSphere@@YA_NAEBUSphere@@AEBUfloat3@@0AEAM@Z 000000014000cad0 f i GameManager.obj
 0001:0000bc50       ?SetText@TextElement@@QEAAXV?$basic_string@DU?$char_traits@D@std@@V?$allocator@D@2@@std@@@Z 000000014000cc50 f i GameManager.obj
 0001:0000bd20       ??0GameManager@@QEAA@XZ    000000014000cd20 f   GameManager.obj
 0001:0000bf80       ?UpdateScoreText@GameManager@@QEAAXXZ 000000014000cf80 f   GameManager.obj
 0001:0000c290       ?UpdateHealthText@GameManager@@QEAAXXZ 000000014000d290 f   GameManager.obj
 0001:0000c5a0       ?UpdateTimerText@GameManager@@QEAAXM@Z 000000014000d5a0 f   GameManager.obj
 0001:0000c720       ?UpdateDamageTimerText@GameManager@@QEAAXXZ 000000014000d720 f   GameManager.obj
 0001:0000c8b0       ?ShootBullets@GameManager@@QEAAXXZ 000000014000d8b0 f   GameManager.obj
 0001:0000ccd0       ?SpawnHealthPickup@GameManager@@QEAAXUfloat3@@@Z 000000014000dcd0 f   GameManager.obj
 0001:0000ce10       ?SpawnDamagePickup@GameManager@@QEAAXUfloat3@@@Z 000000014000de10 f   GameManager.obj
 0001:0000cf50       ?Update@GameManager@@QEAAXMM@Z 000000014000df50 f   GameManager.obj
 0001:0000f2f0       ?Initialize@GameManager@@QEAA_NHHPEAUHWND__@@@Z 00000001400102f0 f   GameManager.obj
 0001:0000fb40       ?ShutDown@GameManager@@QEAAXXZ 0000000140010b40 f   GameManager.obj
 0001:0000fdc0       ??0?$vector@USphere@@V?$allocator@USphere@@@std@@@std@@QEAA@AEBV01@@Z 0000000140010dc0 f i GameManager.obj
 0001:0000fea0       ??$?HDU?$char_traits@D@std@@V?$allocator@D@1@@std@@YA?AV?$basic_string@DU?$char_traits@D@std@@V?$allocator@D@2@@0@QEBD$$QEAV10@@Z 0000000140010ea0 f i GameManager.obj
 0001:0000ffc0       ??$_Reallocate_grow_by@V<lambda_f3a66ab6a0570788f31503db83886f49>@@_KPEBD_K@?$basic_string@DU?$char_traits@D@std@@V?$allocator@D@2@@std@@QEAAAEAV01@_KV<lambda_f3a66ab6a0570788f31503db83886f49>@@_KPEBD2@Z 0000000140010fc0 f i GameManager.obj
 0001:00010130       ?XMVectorACos@DirectX@@YQ?AT__m128@@T2@@Z 0000000140011130 f i Camera.obj
 0001:000101f0       ?Update@Camera@@QEAAXUXMFLOAT3@DirectX@@@Z 00000001400111f0 f   Camera.obj
 0001:00010470       ?GetInput@Camera@@QEAAXPEAVInputManager@@MAEAUXMMATRIX@DirectX@@PEAVPlayer@@@Z 0000000140011470 f   Camera.obj
 0001:000106e0       ?SetCharacterPosition@Camera@@QEAAXNAEAT__m128@@AEAUXMMATRIX@DirectX@@@Z 00000001400116e0 f   Camera.obj
 0001:00010980       ?ReadMeshFile@Model@@AEAAXPEBDPEAUID3D11Device@@@Z 0000000140011980 f   Model.obj
 0001:00011020       ?Initialize@Model@@QEAA_NPEBDPEAUID3D11Device@@@Z 0000000140012020 f   Model.obj
 0001:00011110       ?Render@Model@@QEAAXPEAUID3D11DeviceContext@@@Z 0000000140012110 f   Model.obj
 0001:000111b0       ?Shutdown@Model@@QEAAXXZ   00000001400121b0 f   Model.obj
 0001:00011220       ??1?$vector@Umaterial_t@@V?$allocator@Umaterial_t@@@std@@@std@@QEAA@XZ 0000000140012220 f i Model.obj
 0001:000112a0       ??1?$vector@V?$array@D$0BAE@@std@@V?$allocator@V?$array@D$0BAE@@std@@@2@@std@@QEAA@XZ 00000001400122a0 f i Model.obj
 0001:00011320       ?_Tidy@?$vector@UVertex@@V?$allocator@UVertex@@@std@@@std@@AEAAXXZ 0000000140012320 f i Model.obj
 0001:000113a0       ??$_Resize@V<lambda_3dc4585328ffa41edbf28992c66dc9db>@@@?$vector@Umaterial_t@@V?$allocator@Umaterial_t@@@std@@@std@@AEAAX_KV<lambda_3dc4585328ffa41edbf28992c66dc9db>@@@Z 00000001400123a0 f i Model.obj
 0001:00011690       ??$_Resize@V<lambda_90a86d33119e9cefaad228fe3fc3f04c>@@@?$vector@V?$array@D$0BAE@@std@@V?$allocator@V?$array@D$0BAE@@std@@@2@@std@@AEAAX_KV<lambda_90a86d33119e9cefaad228fe3fc3f04c>@@@Z 0000000140012690 f i Model.obj
 0001:000118a0       ??$_Resize@V<lambda_a3e9ab7309acaaa5a225906574bbc117>@@@?$vector@IV?$allocator@I@std@@@std@@AEAAX_KV<lambda_a3e9ab7309acaaa5a225906574bbc117>@@@Z 00000001400128a0 f i Model.obj
 0001:00011a50       ??$_Resize@V<lambda_189af720543607fa3630bc45f408d767>@@@?$vector@UVertex@@V?$allocator@UVertex@@@std@@@std@@AEAAX_KV<lambda_189af720543607fa3630bc45f408d767>@@@Z 0000000140012a50 f i Model.obj
 0001:00011c40       ?Run@MyWindow@@AEAA_NXZ    0000000140012c40 f   MyWindow.obj
 0001:000120a0       ?Initialize@MyWindow@@QEAA_NXZ 00000001400130a0 f   MyWindow.obj
 0001:000136c0       ?Render@MyWindow@@QEAAXXZ  00000001400146c0 f   MyWindow.obj
 0001:00013a70       ??4?$basic_string@DU?$char_traits@D@std@@V?$allocator@D@2@@std@@QEAAAEAV01@$$QEAV01@@Z 0000000140014a70 f i MyWindow.obj
 0001:00013ac0       ??$?HDU?$char_traits@D@std@@V?$allocator@D@1@@std@@YA?AV?$basic_string@DU?$char_traits@D@std@@V?$allocator@D@2@@0@QEBDAEBV10@@Z 0000000140014ac0 f i MyWindow.obj
 0001:00013c80       ??$_Reallocate_grow_by@V<lambda_65e615be2a453ca0576c979606f46740>@@PEBD_K@?$basic_string@DU?$char_traits@D@std@@V?$allocator@D@2@@std@@QEAAAEAV01@_KV<lambda_65e615be2a453ca0576c979606f46740>@@PEBD_K@Z 0000000140014c80 f i MyWindow.obj
 0001:00013e10       ?_Reset_move@?$_Func_class@X$$V@std@@IEAAX$$QEAV12@@Z 0000000140014e10 f i MyWindow.obj
 0001:00013e90       ??$_Reallocate_grow_by@V<lambda_9013ee9e23efe4882b67eff5b0ecf103>@@$$V@?$basic_string@DU?$char_traits@D@std@@V?$allocator@D@2@@std@@QEAAAEAV01@_KV<lambda_9013ee9e23efe4882b67eff5b0ecf103>@@@Z 0000000140014e90 f i MyWindow.obj
 0001:000143b0       ?Update@PhysicsComponent@@QEAAXM@Z 00000001400153b0 f   PhysicsComponent.obj
 0001:00014510       ?Initialize@Player@@UEAA_NPEBDPEAUID3D11Device@@@Z 0000000140015510 f   Player.obj
 0001:00014650       ?Shutdown@Player@@UEAAXXZ  0000000140015650 f   Player.obj
 0001:00014660       ?Update@Player@@UEAAXM@Z   0000000140015660 f   Player.obj
 0001:00014c50       ?LerpJoint@@YA?AV?$array@Ufloat4@@$03@std@@V12@0M@Z 0000000140015c50 f   Player.obj
 0001:00014f00       ?SetSkeletonLines@Player@@QEAA?AV?$vector@V?$array@Ufloat4@@$03@std@@V?$allocator@V?$array@Ufloat4@@$03@std@@@2@@std@@Uanim_clip@@0MM@Z 0000000140015f00 f   Player.obj
 0001:00016e90       ??0RangedEnemy@@QEAA@XZ    0000000140017e90 f   RangedEnemy.obj
 0001:00016f70       ?Initialize@RangedEnemy@@UEAA_NPEAUID3D11Device@@PEBDUfloat3@@@Z 0000000140017f70 f   RangedEnemy.obj
 0001:00017040       ?Update@RangedEnemy@@UEAAXMPEAVPlayer@@AEAV?$vector@PEAVBullet@@V?$allocator@PEAVBullet@@@std@@@std@@PEAUID3D11Device@@@Z 0000000140018040 f   RangedEnemy.obj
 0001:00017250       ?Attack@RangedEnemy@@QEAAXPEAVPlayer@@AEAV?$vector@PEAVBullet@@V?$allocator@PEAVBullet@@@std@@@std@@PEAUID3D11Device@@@Z 0000000140018250 f   RangedEnemy.obj
 0001:00017600       ?errorFunc@@YAJPEAU_EXCEPTION_POINTERS@@@Z 0000000140018600 f   RobotAnnihilation.obj
 0001:00017730       WinMain                    0000000140018730 f   RobotAnnihilation.obj
 0001:000179a0       ?Shutdown@ShaderManager@@QEAAXXZ 00000001400189a0 f   ShaderManager.obj
 0001:00017b70       ??0Item@Shop@@QEAA@W4WEAPONTYPE@1@MMMMV?$basic_string@DU?$char_traits@D@std@@V?$allocator@D@2@@std@@@Z 0000000140018b70 f i Shop.obj
 0001:00017c80       ??1?$map@V?$basic_string@DU?$char_traits@D@std@@V?$allocator@D@2@@std@@PEAVUIElement@@U?$less@V?$basic_string@DU?$char_traits@D@std@@V?$allocator@D@2@@std@@@2@V?$allocator@U?$pair@$$CBV?$basic_string@DU?$char_traits@D@std@@V?$allocator@D@2@@std@@PEAVUIElement@@@std@@@2@@std@@QEAA@XZ 0000000140018c80 f i Shop.obj
 0001:00017cb0       ?Initialize@Shop@@QEAA_NXZ 0000000140018cb0 f   Shop.obj
 0001:00019860       ?ShowARStats@Shop@@QEAAXXZ 000000014001a860 f   Shop.obj
 0001:000199e0       ?ShowSMGStats@Shop@@QEAAXXZ 000000014001a9e0 f   Shop.obj
 0001:00019b60       ?ShowPistolStats@Shop@@QEAAXXZ 000000014001ab60 f   Shop.obj
 0001:00019ce0       ?ShowMeleStats@Shop@@QEAAXXZ 000000014001ace0 f   Shop.obj
 0001:00019e60       ?Update@Shop@@QEAAXXZ      000000014001ae60 f   Shop.obj
 0001:00019fe0       ??1Shop@@QEAA@XZ           000000014001afe0 f   Shop.obj
 0001:0001a340       ??A?$map@V?$basic_string@DU?$char_traits@D@std@@V?$allocator@D@2@@std@@PEAVUIElement@@U?$less@V?$basic_string@DU?$char_traits@D@std@@V?$allocator@D@2@@std@@@2@V?$allocator@U?$pair@$$CBV?$basic_string@DU?$char_traits@D@std@@V?$allocator@D@2@@std@@PEAVUIElement@@@std@@@2@@std@@QEAAAEAPEAVUIElement@@$$QEAV?$basic_string@DU?$char_traits@D@std@@V?$allocator@D@2@@1@@Z 000000014001b340 f i Shop.obj
 0001:0001a340       ??A?$map@V?$basic_string@DU?$char_traits@D@std@@V?$allocator@D@2@@std@@PEAUItem@Shop@@U?$less@V?$basic_string@DU?$char_traits@D@std@@V?$allocator@D@2@@std@@@2@V?$allocator@U?$pair@$$CBV?$basic_string@DU?$char_traits@D@std@@V?$allocator@D@2@@std@@PEAUItem@Shop@@@std@@@2@@std@@QEAAAEAPEAUItem@Shop@@$$QEAV?$basic_string@DU?$char_traits@D@std@@V?$allocator@D@2@@1@@Z 000000014001b340 f i Shop.obj
 0001:0001a480       ?_Erase@?$_Tree@V?$_Tmap_traits@V?$basic_string@DU?$char_traits@D@std@@V?$allocator@D@2@@std@@PEAUItem@Shop@@U?$less@V?$basic_string@DU?$char_traits@D@std@@V?$allocator@D@2@@std@@@2@V?$allocator@U?$pair@$$CBV?$basic_string@DU?$char_traits@D@std@@V?$allocator@D@2@@std@@PEAUItem@Shop@@@std@@@2@$0A@@std@@@std@@IEAAXPEAU?$_Tree_node@U?$pair@$$CBV?$basic_string@DU?$char_traits@D@std@@V?$allocator@D@2@@std@@PEAUItem@Shop@@@std@@PEAX@2@@Z 000000014001b480 f i Shop.obj
 0001:0001a480       ?_Erase@?$_Tree@V?$_Tmap_traits@V?$basic_string@DU?$char_traits@D@std@@V?$allocator@D@2@@std@@PEAVUIElement@@U?$less@V?$basic_string@DU?$char_traits@D@std@@V?$allocator@D@2@@std@@@2@V?$allocator@U?$pair@$$CBV?$basic_string@DU?$char_traits@D@std@@V?$allocator@D@2@@std@@PEAVUIElement@@@std@@@2@$0A@@std@@@std@@IEAAXPEAU?$_Tree_node@U?$pair@$$CBV?$basic_string@DU?$char_traits@D@std@@V?$allocator@D@2@@std@@PEAVUIElement@@@std@@PEAX@2@@Z 000000014001b480 f i Shop.obj
 0001:0001a520       ?erase@?$_Tree@V?$_Tmap_traits@V?$basic_string@DU?$char_traits@D@std@@V?$allocator@D@2@@std@@PEAUItem@Shop@@U?$less@V?$basic_string@DU?$char_traits@D@std@@V?$allocator@D@2@@std@@@2@V?$allocator@U?$pair@$$CBV?$basic_string@DU?$char_traits@D@std@@V?$allocator@D@2@@std@@PEAUItem@Shop@@@std@@@2@$0A@@std@@@std@@QEAA?AV?$_Tree_iterator@V?$_Tree_val@U?$_Tree_simple_types@U?$pair@$$CBV?$basic_string@DU?$char_traits@D@std@@V?$allocator@D@2@@std@@PEAUItem@Shop@@@std@@@std@@@std@@@2@V?$_Tree_const_iterator@V?$_Tree_val@U?$_Tree_simple_types@U?$pair@$$CBV?$basic_string@DU?$char_traits@D@std@@V?$allocator@D@2@@std@@PEAUItem@Shop@@@std@@@std@@@std@@@2@0@Z 000000014001b520 f i Shop.obj
 0001:0001a520       ?erase@?$_Tree@V?$_Tmap_traits@V?$basic_string@DU?$char_traits@D@std@@V?$allocator@D@2@@std@@PEAVUIElement@@U?$less@V?$basic_string@DU?$char_traits@D@std@@V?$allocator@D@2@@std@@@2@V?$allocator@U?$pair@$$CBV?$basic_string@DU?$char_traits@D@std@@V?$allocator@D@2@@std@@PEAVUIElement@@@std@@@2@$0A@@std@@@std@@QEAA?AV?$_Tree_iterator@V?$_Tree_val@U?$_Tree_simple_types@U?$pair@$$CBV?$basic_string@DU?$char_traits@D@std@@V?$allocator@D@2@@std@@PEAVUIElement@@@std@@@std@@@std@@@2@V?$_Tree_const_iterator@V?$_Tree_val@U?$_Tree_simple_types@U?$pair@$$CBV?$basic_string@DU?$char_traits@D@std@@V?$allocator@D@2@@std@@PEAVUIElement@@@std@@@std@@@std@@@2@0@Z 000000014001b520 f i Shop.obj
 0001:0001a6c0       ?_Extract@?$_Tree_val@U?$_Tree_simple_types@U?$pair@$$CBV?$basic_string@DU?$char_traits@D@std@@V?$allocator@D@2@@std@@PEAUItem@Shop@@@std@@@std@@@std@@QEAAPEAU?$_Tree_node@U?$pair@$$CBV?$basic_string@DU?$char_traits@D@std@@V?$allocator@D@2@@std@@PEAUItem@Shop@@@std@@PEAX@2@V?$_Tree_const_iterator@V?$_Tree_val@U?$_Tree_simple_types@U?$pair@$$CBV?$basic_string@DU?$char_traits@D@std@@V?$allocator@D@2@@std@@PEAUItem@Shop@@@std@@@std@@@std@@@2@@Z 000000014001b6c0 f i Shop.obj
 0001:0001a6c0       ?_Extract@?$_Tree_val@U?$_Tree_simple_types@U?$pair@$$CBV?$basic_string@DU?$char_traits@D@std@@V?$allocator@D@2@@std@@PEAVUIElement@@@std@@@std@@@std@@QEAAPEAU?$_Tree_node@U?$pair@$$CBV?$basic_string@DU?$char_traits@D@std@@V?$allocator@D@2@@std@@PEAVUIElement@@@std@@PEAX@2@V?$_Tree_const_iterator@V?$_Tree_val@U?$_Tree_simple_types@U?$pair@$$CBV?$basic_string@DU?$char_traits@D@std@@V?$allocator@D@2@@std@@PEAVUIElement@@@std@@@std@@@std@@@2@@Z 000000014001b6c0 f i Shop.obj
 0001:0001ab50       ?_Buyheadnode@?$_Tree_comp_alloc@V?$_Tmap_traits@V?$basic_string@DU?$char_traits@D@std@@V?$allocator@D@2@@std@@PEAUItem@Shop@@U?$less@V?$basic_string@DU?$char_traits@D@std@@V?$allocator@D@2@@std@@@2@V?$allocator@U?$pair@$$CBV?$basic_string@DU?$char_traits@D@std@@V?$allocator@D@2@@std@@PEAUItem@Shop@@@std@@@2@$0A@@std@@@std@@QEAAPEAU?$_Tree_node@U?$pair@$$CBV?$basic_string@DU?$char_traits@D@std@@V?$allocator@D@2@@std@@PEAUItem@Shop@@@std@@PEAX@2@XZ 000000014001bb50 f i Shop.obj
 0001:0001ab50       ?_Buyheadnode@?$_Tree_comp_alloc@V?$_Tmap_traits@V?$basic_string@DU?$char_traits@D@std@@V?$allocator@D@2@@std@@PEAVUIElement@@U?$less@V?$basic_string@DU?$char_traits@D@std@@V?$allocator@D@2@@std@@@2@V?$allocator@U?$pair@$$CBV?$basic_string@DU?$char_traits@D@std@@V?$allocator@D@2@@std@@PEAVUIElement@@@std@@@2@$0A@@std@@@std@@QEAAPEAU?$_Tree_node@U?$pair@$$CBV?$basic_string@DU?$char_traits@D@std@@V?$allocator@D@2@@std@@PEAVUIElement@@@std@@PEAX@2@XZ 000000014001bb50 f i Shop.obj
 0001:0001acf0       ??$_Buynode@AEBUpiecewise_construct_t@std@@V?$tuple@$$QEAV?$basic_string@DU?$char_traits@D@std@@V?$allocator@D@2@@std@@@2@V?$tuple@$$V@2@@?$_Tree_comp_alloc@V?$_Tmap_traits@V?$basic_string@DU?$char_traits@D@std@@V?$allocator@D@2@@std@@PEAVUIElement@@U?$less@V?$basic_string@DU?$char_traits@D@std@@V?$allocator@D@2@@std@@@2@V?$allocator@U?$pair@$$CBV?$basic_string@DU?$char_traits@D@std@@V?$allocator@D@2@@std@@PEAVUIElement@@@std@@@2@$0A@@std@@@std@@QEAAPEAU?$_Tree_node@U?$pair@$$CBV?$basic_string@DU?$char_traits@D@std@@V?$allocator@D@2@@std@@PEAVUIElement@@@std@@PEAX@1@AEBUpiecewise_construct_t@1@$$QEAV?$tuple@$$QEAV?$basic_string@DU?$char_traits@D@std@@V?$allocator@D@2@@std@@@1@$$QEAV?$tuple@$$V@1@@Z 000000014001bcf0 f i Shop.obj
 0001:0001acf0       ??$_Buynode@AEBUpiecewise_construct_t@std@@V?$tuple@$$QEAV?$basic_string@DU?$char_traits@D@std@@V?$allocator@D@2@@std@@@2@V?$tuple@$$V@2@@?$_Tree_comp_alloc@V?$_Tmap_traits@V?$basic_string@DU?$char_traits@D@std@@V?$allocator@D@2@@std@@PEAUItem@Shop@@U?$less@V?$basic_string@DU?$char_traits@D@std@@V?$allocator@D@2@@std@@@2@V?$allocator@U?$pair@$$CBV?$basic_string@DU?$char_traits@D@std@@V?$allocator@D@2@@std@@PEAUItem@Shop@@@std@@@2@$0A@@std@@@std@@QEAAPEAU?$_Tree_node@U?$pair@$$CBV?$basic_string@DU?$char_traits@D@std@@V?$allocator@D@2@@std@@PEAUItem@Shop@@@std@@PEAX@1@AEBUpiecewise_construct_t@1@$$QEAV?$tuple@$$QEAV?$basic_string@DU?$char_traits@D@std@@V?$allocator@D@2@@std@@@1@$$QEAV?$tuple@$$V@1@@Z 000000014001bcf0 f i Shop.obj
 0001:0001ad40       ??$_Insert_hint@AEAU?$pair@$$CBV?$basic_string@DU?$char_traits@D@std@@V?$allocator@D@2@@std@@PEAUItem@Shop@@@std@@PEAU?$_Tree_node@U?$pair@$$CBV?$basic_string@DU?$char_traits@D@std@@V?$allocator@D@2@@std@@PEAUItem@Shop@@@std@@PEAX@2@@?$_Tree@V?$_Tmap_traits@V?$basic_string@DU?$char_traits@D@std@@V?$allocator@D@2@@std@@PEAUItem@Shop@@U?$less@V?$basic_string@DU?$char_traits@D@std@@V?$allocator@D@2@@std@@@2@V?$allocator@U?$pair@$$CBV?$basic_string@DU?$char_traits@D@std@@V?$allocator@D@2@@std@@PEAUItem@Shop@@@std@@@2@$0A@@std@@@std@@IEAA?AV?$_Tree_iterator@V?$_Tree_val@U?$_Tree_simple_types@U?$pair@$$CBV?$basic_string@DU?$char_traits@D@std@@V?$allocator@D@2@@std@@PEAUItem@Shop@@@std@@@std@@@std@@@1@V?$_Tree_const_iterator@V?$_Tree_val@U?$_Tree_simple_types@U?$pair@$$CBV?$basic_string@DU?$char_traits@D@std@@V?$allocator@D@2@@std@@PEAUItem@Shop@@@std@@@std@@@std@@@1@AEAU?$pair@$$CBV?$basic_string@DU?$char_traits@D@std@@V?$allocator@D@2@@std@@PEAUItem@Shop@@@1@PEAU?$_Tree_node@U?$pair@$$CBV?$basic_string@DU?$char_traits@D@std@@V?$allocator@D@2@@std@@PEAUItem@Shop@@@std@@PEAX@1@@Z 000000014001bd40 f i Shop.obj
 0001:0001ad40       ??$_Insert_hint@AEAU?$pair@$$CBV?$basic_string@DU?$char_traits@D@std@@V?$allocator@D@2@@std@@PEAVUIElement@@@std@@PEAU?$_Tree_node@U?$pair@$$CBV?$basic_string@DU?$char_traits@D@std@@V?$allocator@D@2@@std@@PEAVUIElement@@@std@@PEAX@2@@?$_Tree@V?$_Tmap_traits@V?$basic_string@DU?$char_traits@D@std@@V?$allocator@D@2@@std@@PEAVUIElement@@U?$less@V?$basic_string@DU?$char_traits@D@std@@V?$allocator@D@2@@std@@@2@V?$allocator@U?$pair@$$CBV?$basic_string@DU?$char_traits@D@std@@V?$allocator@D@2@@std@@PEAVUIElement@@@std@@@2@$0A@@std@@@std@@IEAA?AV?$_Tree_iterator@V?$_Tree_val@U?$_Tree_simple_types@U?$pair@$$CBV?$basic_string@DU?$char_traits@D@std@@V?$allocator@D@2@@std@@PEAVUIElement@@@std@@@std@@@std@@@1@V?$_Tree_const_iterator@V?$_Tree_val@U?$_Tree_simple_types@U?$pair@$$CBV?$basic_string@DU?$char_traits@D@std@@V?$allocator@D@2@@std@@PEAVUIElement@@@std@@@std@@@std@@@1@AEAU?$pair@$$CBV?$basic_string@DU?$char_traits@D@std@@V?$allocator@D@2@@std@@PEAVUIElement@@@1@PEAU?$_Tree_node@U?$pair@$$CBV?$basic_string@DU?$char_traits@D@std@@V?$allocator@D@2@@std@@PEAVUIElement@@@std@@PEAX@1@@Z 000000014001bd40 f i Shop.obj
 0001:0001b1a0       ?_Buynode0@?$_Tree_comp_alloc@V?$_Tmap_traits@V?$basic_string@DU?$char_traits@D@std@@V?$allocator@D@2@@std@@PEAUItem@Shop@@U?$less@V?$basic_string@DU?$char_traits@D@std@@V?$allocator@D@2@@std@@@2@V?$allocator@U?$pair@$$CBV?$basic_string@DU?$char_traits@D@std@@V?$allocator@D@2@@std@@PEAUItem@Shop@@@std@@@2@$0A@@std@@@std@@QEAAPEAU?$_Tree_node@U?$pair@$$CBV?$basic_string@DU?$char_traits@D@std@@V?$allocator@D@2@@std@@PEAUItem@Shop@@@std@@PEAX@2@XZ 000000014001c1a0 f i Shop.obj
 0001:0001b1a0       ?_Buynode0@?$_Tree_comp_alloc@V?$_Tmap_traits@V?$basic_string@DU?$char_traits@D@std@@V?$allocator@D@2@@std@@PEAVUIElement@@U?$less@V?$basic_string@DU?$char_traits@D@std@@V?$allocator@D@2@@std@@@2@V?$allocator@U?$pair@$$CBV?$basic_string@DU?$char_traits@D@std@@V?$allocator@D@2@@std@@PEAVUIElement@@@std@@@2@$0A@@std@@@std@@QEAAPEAU?$_Tree_node@U?$pair@$$CBV?$basic_string@DU?$char_traits@D@std@@V?$allocator@D@2@@std@@PEAVUIElement@@@std@@PEAX@2@XZ 000000014001c1a0 f i Shop.obj
 0001:0001b1d0       ?_Destroy_if_node@?$_Tree@V?$_Tmap_traits@V?$basic_string@DU?$char_traits@D@std@@V?$allocator@D@2@@std@@PEAVUIElement@@U?$less@V?$basic_string@DU?$char_traits@D@std@@V?$allocator@D@2@@std@@@2@V?$allocator@U?$pair@$$CBV?$basic_string@DU?$char_traits@D@std@@V?$allocator@D@2@@std@@PEAVUIElement@@@std@@@2@$0A@@std@@@std@@IEAAXPEAU?$_Tree_node@U?$pair@$$CBV?$basic_string@DU?$char_traits@D@std@@V?$allocator@D@2@@std@@PEAVUIElement@@@std@@PEAX@2@@Z 000000014001c1d0 f i Shop.obj
 0001:0001b1d0       ?_Destroy_if_node@?$_Tree@V?$_Tmap_traits@V?$basic_string@DU?$char_traits@D@std@@V?$allocator@D@2@@std@@PEAUItem@Shop@@U?$less@V?$basic_string@DU?$char_traits@D@std@@V?$allocator@D@2@@std@@@2@V?$allocator@U?$pair@$$CBV?$basic_string@DU?$char_traits@D@std@@V?$allocator@D@2@@std@@PEAUItem@Shop@@@std@@@2@$0A@@std@@@std@@IEAAXPEAU?$_Tree_node@U?$pair@$$CBV?$basic_string@DU?$char_traits@D@std@@V?$allocator@D@2@@std@@PEAUItem@Shop@@@std@@PEAX@2@@Z 000000014001c1d0 f i Shop.obj
 0001:0001b240       ??$_Insert_at@AEAU?$pair@$$CBV?$basic_string@DU?$char_traits@D@std@@V?$allocator@D@2@@std@@PEAUItem@Shop@@@std@@PEAU?$_Tree_node@U?$pair@$$CBV?$basic_string@DU?$char_traits@D@std@@V?$allocator@D@2@@std@@PEAUItem@Shop@@@std@@PEAX@2@@?$_Tree@V?$_Tmap_traits@V?$basic_string@DU?$char_traits@D@std@@V?$allocator@D@2@@std@@PEAUItem@Shop@@U?$less@V?$basic_string@DU?$char_traits@D@std@@V?$allocator@D@2@@std@@@2@V?$allocator@U?$pair@$$CBV?$basic_string@DU?$char_traits@D@std@@V?$allocator@D@2@@std@@PEAUItem@Shop@@@std@@@2@$0A@@std@@@std@@IEAA?AV?$_Tree_iterator@V?$_Tree_val@U?$_Tree_simple_types@U?$pair@$$CBV?$basic_string@DU?$char_traits@D@std@@V?$allocator@D@2@@std@@PEAUItem@Shop@@@std@@@std@@@std@@@1@_NPEAU?$_Tree_node@U?$pair@$$CBV?$basic_string@DU?$char_traits@D@std@@V?$allocator@D@2@@std@@PEAUItem@Shop@@@std@@PEAX@1@AEAU?$pair@$$CBV?$basic_string@DU?$char_traits@D@std@@V?$allocator@D@2@@std@@PEAUItem@Shop@@@1@1@Z 000000014001c240 f i Shop.obj
 0001:0001b240       ??$_Insert_at@AEAU?$pair@$$CBV?$basic_string@DU?$char_traits@D@std@@V?$allocator@D@2@@std@@PEAVUIElement@@@std@@PEAU?$_Tree_node@U?$pair@$$CBV?$basic_string@DU?$char_traits@D@std@@V?$allocator@D@2@@std@@PEAVUIElement@@@std@@PEAX@2@@?$_Tree@V?$_Tmap_traits@V?$basic_string@DU?$char_traits@D@std@@V?$allocator@D@2@@std@@PEAVUIElement@@U?$less@V?$basic_string@DU?$char_traits@D@std@@V?$allocator@D@2@@std@@@2@V?$allocator@U?$pair@$$CBV?$basic_string@DU?$char_traits@D@std@@V?$allocator@D@2@@std@@PEAVUIElement@@@std@@@2@$0A@@std@@@std@@IEAA?AV?$_Tree_iterator@V?$_Tree_val@U?$_Tree_simple_types@U?$pair@$$CBV?$basic_string@DU?$char_traits@D@std@@V?$allocator@D@2@@std@@PEAVUIElement@@@std@@@std@@@std@@@1@_NPEAU?$_Tree_node@U?$pair@$$CBV?$basic_string@DU?$char_traits@D@std@@V?$allocator@D@2@@std@@PEAVUIElement@@@std@@PEAX@1@AEAU?$pair@$$CBV?$basic_string@DU?$char_traits@D@std@@V?$allocator@D@2@@std@@PEAVUIElement@@@1@1@Z 000000014001c240 f i Shop.obj
 0001:0001b4f0       ??$_Insert_nohint@AEAU?$pair@$$CBV?$basic_string@DU?$char_traits@D@std@@V?$allocator@D@2@@std@@PEAUItem@Shop@@@std@@PEAU?$_Tree_node@U?$pair@$$CBV?$basic_string@DU?$char_traits@D@std@@V?$allocator@D@2@@std@@PEAUItem@Shop@@@std@@PEAX@2@@?$_Tree@V?$_Tmap_traits@V?$basic_string@DU?$char_traits@D@std@@V?$allocator@D@2@@std@@PEAUItem@Shop@@U?$less@V?$basic_string@DU?$char_traits@D@std@@V?$allocator@D@2@@std@@@2@V?$allocator@U?$pair@$$CBV?$basic_string@DU?$char_traits@D@std@@V?$allocator@D@2@@std@@PEAUItem@Shop@@@std@@@2@$0A@@std@@@std@@IEAA?AU?$pair@V?$_Tree_iterator@V?$_Tree_val@U?$_Tree_simple_types@U?$pair@$$CBV?$basic_string@DU?$char_traits@D@std@@V?$allocator@D@2@@std@@PEAUItem@Shop@@@std@@@std@@@std@@@std@@_N@1@_NAEAU?$pair@$$CBV?$basic_string@DU?$char_traits@D@std@@V?$allocator@D@2@@std@@PEAUItem@Shop@@@1@PEAU?$_Tree_node@U?$pair@$$CBV?$basic_string@DU?$char_traits@D@std@@V?$allocator@D@2@@std@@PEAUItem@Shop@@@std@@PEAX@1@@Z 000000014001c4f0 f i Shop.obj
 0001:0001b4f0       ??$_Insert_nohint@AEAU?$pair@$$CBV?$basic_string@DU?$char_traits@D@std@@V?$allocator@D@2@@std@@PEAVUIElement@@@std@@PEAU?$_Tree_node@U?$pair@$$CBV?$basic_string@DU?$char_traits@D@std@@V?$allocator@D@2@@std@@PEAVUIElement@@@std@@PEAX@2@@?$_Tree@V?$_Tmap_traits@V?$basic_string@DU?$char_traits@D@std@@V?$allocator@D@2@@std@@PEAVUIElement@@U?$less@V?$basic_string@DU?$char_traits@D@std@@V?$allocator@D@2@@std@@@2@V?$allocator@U?$pair@$$CBV?$basic_string@DU?$char_traits@D@std@@V?$allocator@D@2@@std@@PEAVUIElement@@@std@@@2@$0A@@std@@@std@@IEAA?AU?$pair@V?$_Tree_iterator@V?$_Tree_val@U?$_Tree_simple_types@U?$pair@$$CBV?$basic_string@DU?$char_traits@D@std@@V?$allocator@D@2@@std@@PEAVUIElement@@@std@@@std@@@std@@@std@@_N@1@_NAEAU?$pair@$$CBV?$basic_string@DU?$char_traits@D@std@@V?$allocator@D@2@@std@@PEAVUIElement@@@1@PEAU?$_Tree_node@U?$pair@$$CBV?$basic_string@DU?$char_traits@D@std@@V?$allocator@D@2@@std@@PEAVUIElement@@@std@@PEAX@1@@Z 000000014001c4f0 f i Shop.obj
 0001:0001b720       ?CompileShaders@SkyboxShader@@AEAA_NPEAUID3D11Device@@PEA_W1@Z 000000014001c720 f   SkyboxShader.obj
 0001:0001ba80       ?ProcessShaderErrors@StaticShader@@AEAAXPEAUID3D10Blob@@@Z 000000014001ca80 f   StaticShader.obj
 0001:0001ba80       ?ProcessShaderErrors@AnimatedShader@@AEAAXPEAUID3D10Blob@@@Z 000000014001ca80 f   shaderstuff.obj
 0001:0001ba80       ?ProcessShaderErrors@SkyboxShader@@AEAAXPEAUID3D10Blob@@@Z 000000014001ca80 f   SkyboxShader.obj
 0001:0001bc00       ??_D?$basic_ofstream@DU?$char_traits@D@std@@@std@@QEAAXXZ 000000014001cc00 f i SkyboxShader.obj
 0001:0001bc70       ?UpdateShaderBuffers@SkyboxShader@@AEAA_NPEAUID3D11DeviceContext@@UXMMATRIX@DirectX@@11PEAUID3D11ShaderResourceView@@@Z 000000014001cc70 f   SkyboxShader.obj
 0001:0001bec0       ??0?$basic_ofstream@DU?$char_traits@D@std@@@std@@QEAA@XZ 000000014001cec0 f i SkyboxShader.obj
 0001:0001bf80       ??_E?$basic_ofstream@DU?$char_traits@D@std@@@std@@UEAAPEAXI@Z 000000014001cf80 f i * CIL library *:* CIL module *
 0001:0001bf80       ??_G?$basic_ofstream@DU?$char_traits@D@std@@@std@@UEAAPEAXI@Z 000000014001cf80 f i SkyboxShader.obj
 0001:0001bfc0       ??$?6U?$char_traits@D@std@@@std@@YAAEAV?$basic_ostream@DU?$char_traits@D@std@@@0@AEAV10@D@Z 000000014001cfc0 f i SkyboxShader.obj
 0001:0001c180       ??1sentry@?$basic_ostream@DU?$char_traits@D@std@@@std@@QEAA@XZ 000000014001d180 f i SkyboxShader.obj
 0001:0001c1d0       ??1_Sentry_base@?$basic_ostream@DU?$char_traits@D@std@@@std@@QEAA@XZ 000000014001d1d0 f i SkyboxShader.obj
 0001:0001c200       ??_E?$basic_ofstream@DU?$char_traits@D@std@@@std@@$4PPPPPPPM@A@EAAPEAXI@Z 000000014001d200 f i SkyboxShader.obj
 0001:0001c210       ?Initialize@Sound@@QEAA_NPEAUHWND__@@@Z 000000014001d210 f   Sound.obj
 0001:0001c2d0       ?LoadWaveFile@Sound@@AEAA_NPEBDPEAPEAUIDirectSoundBuffer8@@@Z 000000014001d2d0 f   Sound.obj
 0001:0001c570       ?Render@StaticShader@@QEAA_NPEAUID3D11DeviceContext@@HUXMMATRIX@DirectX@@11PEAUID3D11ShaderResourceView@@UXMFLOAT3@4@UXMFLOAT4@4@QEAU74@54444444@Z 000000014001d570 f   StaticShader.obj
 0001:0001ca00       ?CompileShaders@StaticShader@@AEAA_NPEAUID3D11Device@@PEA_W1@Z 000000014001da00 f   StaticShader.obj
 0001:0001cda0       ?GetPos@UIElement@@QEAA?AUfloat2@@XZ 000000014001dda0 f i UIElement.obj
 0001:0001cdc0       ??1UIElement@@QEAA@XZ      000000014001ddc0 f   UIElement.obj
 0001:0001ce30       ??0TextElement@@QEAA@UtagRECT@@_N1Ufloat2@@HPEAD@Z 000000014001de30 f   UIElement.obj
 0001:0001cf10       ?Update@ButtonElement@@UEAAXXZ 000000014001df10 f   UIElement.obj
 0001:0001cfa0       ?SetDefaultTexture@ButtonElement@@QEAAXPEBD@Z 000000014001dfa0 f   UIElement.obj
 0001:0001d120       ?SetMouseOverTexture@ButtonElement@@QEAAXPEBD@Z 000000014001e120 f   UIElement.obj
 0001:0001d190       ?SetMouseClickTexture@ButtonElement@@QEAAXPEBD@Z 000000014001e190 f   UIElement.obj
 0001:0001d200       ??0Target@@QEAA@XZ         000000014001e200 f   Target.obj
 0001:0001d2e0       ?Initialize@Target@@UEAA_NPEAUID3D11Device@@PEBDUfloat3@@@Z 000000014001e2e0 f   Target.obj
 0001:0001d3d0       ?Update@Target@@UEAAXMPEAVPlayer@@AEAV?$vector@PEAVBullet@@V?$allocator@PEAVBullet@@@std@@@std@@PEAUID3D11Device@@@Z 000000014001e3d0 f   Target.obj
 0001:0001d620       ?Render@UIManager@@QEAAXAEAV?$unique_ptr@VSpriteBatch@DirectX@@U?$default_delete@VSpriteBatch@DirectX@@@std@@@std@@AEAV?$unique_ptr@VSpriteFont@DirectX@@U?$default_delete@VSpriteFont@DirectX@@@std@@@3@1@Z 000000014001e620 f   UIManager.obj
 0001:0001d900       ?CreateText@UIManager@@QEAAPEAVUIElement@@UtagRECT@@_N1Ufloat2@@HPEBD@Z 000000014001e900 f   UIManager.obj
 0001:0001da20       ?CreateText@UIManager@@QEAAPEAVUIElement@@UtagRECT@@_N1Ufloat2@@HV?$basic_string@DU?$char_traits@D@std@@V?$allocator@D@2@@std@@@Z 000000014001ea20 f   UIManager.obj
 0001:0001dbc0       ?CreateImage@UIManager@@QEAAPEAVUIElement@@UtagRECT@@_N1Ufloat2@@PEBDPEAUID3D11Device@@@Z 000000014001ebc0 f   UIManager.obj
 0001:0001dde0       ?CreateButton@UIManager@@QEAAPEAVUIElement@@UtagRECT@@_N1Ufloat2@@PEAUID3D11Device@@HPEBD@Z 000000014001ede0 f   UIManager.obj
 0001:0001ea60       ?CreateWICTextureFromFileEx@DirectX@@YAJPEAUID3D11Device@@PEAUID3D11DeviceContext@@PEB_W_KW4D3D11_USAGE@@IIIIPEAPEAUID3D11Resource@@PEAPEAUID3D11ShaderResourceView@@@Z 000000014001fa60 f   WICTextureLoader.obj
 0001:0001ebd0       ??1?$ComPtr@UID3D11Device@@@WRL@Microsoft@@QEAA@XZ 000000014001fbd0 f i DirectXTK:SpriteBatch.obj
 0001:0001ebd0       ??1?$ComPtr@UID3D11Texture2D@@@WRL@Microsoft@@QEAA@XZ 000000014001fbd0 f i DirectXTK:SpriteBatch.obj
 0001:0001ebd0       ??1?$ComPtr@UID3D11PixelShader@@@WRL@Microsoft@@QEAA@XZ 000000014001fbd0 f i DirectXTK:SpriteBatch.obj
 0001:0001ebd0       ??1?$ComPtr@UID3D11Buffer@@@WRL@Microsoft@@QEAA@XZ 000000014001fbd0 f i DirectXTK:SpriteBatch.obj
 0001:0001ebd0       ??1?$ComPtr@UIWICMetadataQueryReader@@@WRL@Microsoft@@QEAA@XZ 000000014001fbd0 f i WICTextureLoader.obj
 0001:0001ebd0       ??1?$ComPtr@UIWICBitmapScaler@@@WRL@Microsoft@@QEAA@XZ 000000014001fbd0 f i WICTextureLoader.obj
 0001:0001ebd0       ??1?$ComPtr@UID3D11BlendState@@@WRL@Microsoft@@QEAA@XZ 000000014001fbd0 f i DirectXTK:SpriteBatch.obj
 0001:0001ebd0       ??1?$ComPtr@UIWICBitmapDecoder@@@WRL@Microsoft@@QEAA@XZ 000000014001fbd0 f i WICTextureLoader.obj
 0001:0001ebd0       ??1?$ComPtr@UID3D11ShaderResourceView@@@WRL@Microsoft@@QEAA@XZ 000000014001fbd0 f i DirectXTK:SpriteFont.obj
 0001:0001ebd0       ??1?$ComPtr@UIWICPixelFormatInfo@@@WRL@Microsoft@@QEAA@XZ 000000014001fbd0 f i WICTextureLoader.obj
 0001:0001ebd0       ??1?$ComPtr@UIWICFormatConverter@@@WRL@Microsoft@@QEAA@XZ 000000014001fbd0 f i WICTextureLoader.obj
 0001:0001ebd0       ??1?$ComPtr@UIWICBitmapFrameDecode@@@WRL@Microsoft@@QEAA@XZ 000000014001fbd0 f i WICTextureLoader.obj
 0001:0001ebd0       ??1?$ComPtr@UID3D11RasterizerState@@@WRL@Microsoft@@QEAA@XZ 000000014001fbd0 f i DirectXTK:SpriteBatch.obj
 0001:0001ebd0       ??1?$ComPtr@UID3D11Resource@@@WRL@Microsoft@@QEAA@XZ 000000014001fbd0 f i DirectXTK:SpriteBatch.obj
 0001:0001ebd0       ??1?$ComPtr@UID3D11InputLayout@@@WRL@Microsoft@@QEAA@XZ 000000014001fbd0 f i DirectXTK:SpriteBatch.obj
 0001:0001ebd0       ??1?$ComPtr@UID3D11SamplerState@@@WRL@Microsoft@@QEAA@XZ 000000014001fbd0 f i DirectXTK:SpriteBatch.obj
 0001:0001ebd0       ??1?$ComPtr@UIWICComponentInfo@@@WRL@Microsoft@@QEAA@XZ 000000014001fbd0 f i WICTextureLoader.obj
 0001:0001ebd0       ??1?$ComPtr@UID3D11DepthStencilState@@@WRL@Microsoft@@QEAA@XZ 000000014001fbd0 f i DirectXTK:SpriteBatch.obj
 0001:0001ebd0       ??1?$ComPtr@UID3D11VertexShader@@@WRL@Microsoft@@QEAA@XZ 000000014001fbd0 f i DirectXTK:SpriteBatch.obj
 0001:0001ebd0       ??1?$ComPtr@UID3D11DeviceContext@@@WRL@Microsoft@@QEAA@XZ 000000014001fbd0 f i DirectXTK:SpriteBatch.obj
 0001:0001ebf0       ??1?$unique_ptr@$$BY0A@_WU?$default_delete@$$BY0A@_W@std@@@std@@QEAA@XZ 000000014001fbf0 f i DirectXTK:SpriteFont.obj
 0001:0001ebf0       ??1?$unique_ptr@$$BY0A@UD3D11_SUBRESOURCE_DATA@@U?$default_delete@$$BY0A@UD3D11_SUBRESOURCE_DATA@@@std@@@std@@QEAA@XZ 000000014001fbf0 f i DirectXTK:DDSTextureLoader.obj
 0001:0001ebf0       ??1?$unique_ptr@$$BY0A@EU?$default_delete@$$BY0A@E@std@@@std@@QEAA@XZ 000000014001fbf0 f i WICTextureLoader.obj
 0001:0001ec00       ?CompileShaders@AnimatedShader@@AEAA_NPEAUID3D11Device@@PEA_W1@Z 000000014001fc00 f   shaderstuff.obj
 0001:0001efa0       ?UpdateShaderBuffers@AnimatedShader@@AEAA_NPEAUID3D11DeviceContext@@UXMMATRIX@DirectX@@11PEAUID3D11ShaderResourceView@@UXMFLOAT3@4@UXMFLOAT4@4@V?$vector@V?$array@Ufloat4@@$03@std@@V?$allocator@V?$array@Ufloat4@@$03@std@@@2@@std@@QEAU74@64444444@Z 000000014001ffa0 f   shaderstuff.obj
 0001:0001f490       _get_startup_new_mode      0000000140020490 f i MSVCRT:new_mode.obj
 0001:0001f490       __scrt_exe_initialize_mta  0000000140020490 f i MSVCRT:utility_desktop.obj
 0001:0001f490       _matherr                   0000000140020490 f i MSVCRT:matherr.obj
 0001:0001f490       ?_Get_deleter@_Ref_count_base@std@@UEBAPEAXAEBVtype_info@@@Z 0000000140020490 f i DirectXTK:SpriteBatch.obj
 0001:0001f490       __scrt_initialize_winrt    0000000140020490 f i MSVCRT:utility_desktop.obj
 0001:0001f490       _get_startup_commit_mode   0000000140020490 f i MSVCRT:commit_mode.obj
 0001:0001f490       __scrt_stub_for_initialize_mta 0000000140020490 f i MSVCRT:utility_desktop.obj
 0001:0001f490       _get_startup_thread_locale_mode 0000000140020490 f i MSVCRT:thread_locale.obj
 0001:0001f4a0       ?_Destroy@?$_Ref_count_obj@UResourceMap@?$SharedResourcePool@PEAUID3D11DeviceContext@@UContextResources@Impl@SpriteBatch@DirectX@@$$V@DirectX@@@std@@EEAAXXZ 00000001400204a0 f i DirectXTK:SpriteBatch.obj
 0001:0001f4a0       ?_Destroy@?$_Ref_count_obj@UResourceMap@?$SharedResourcePool@PEAUID3D11Device@@VImpl@CommonStates@DirectX@@$$V@DirectX@@@std@@EEAAXXZ 00000001400204a0 f i DirectXTK:CommonStates.obj
 0001:0001f4a0       ?_Destroy@?$_Ref_count_obj@UResourceMap@?$SharedResourcePool@PEAUID3D11Device@@UDeviceResources@Impl@SpriteBatch@DirectX@@$$V@DirectX@@@std@@EEAAXXZ 00000001400204a0 f i DirectXTK:SpriteBatch.obj
 0001:0001f4f0       ?_Delete_this@?$_Ref_count_obj@UWrappedData@?$SharedResourcePool@PEAUID3D11Device@@VImpl@CommonStates@DirectX@@$$V@DirectX@@@std@@EEAAXXZ 00000001400204f0 f i DirectXTK:CommonStates.obj
 0001:0001f4f0       ?_Delete_this@?$_Ref_count_obj@UResourceMap@?$SharedResourcePool@PEAUID3D11Device@@UDeviceResources@Impl@SpriteBatch@DirectX@@$$V@DirectX@@@std@@EEAAXXZ 00000001400204f0 f i DirectXTK:SpriteBatch.obj
 0001:0001f4f0       ?_Delete_this@?$_Ref_count_obj@UResourceMap@?$SharedResourcePool@PEAUID3D11Device@@VImpl@CommonStates@DirectX@@$$V@DirectX@@@std@@EEAAXXZ 00000001400204f0 f i DirectXTK:CommonStates.obj
 0001:0001f4f0       ?_Delete_this@?$_Ref_count_obj@UWrappedData@?$SharedResourcePool@PEAUID3D11DeviceContext@@UContextResources@Impl@SpriteBatch@DirectX@@$$V@DirectX@@@std@@EEAAXXZ 00000001400204f0 f i DirectXTK:SpriteBatch.obj
 0001:0001f4f0       ?_Delete_this@?$_Ref_count_obj@UWrappedData@?$SharedResourcePool@PEAUID3D11Device@@UDeviceResources@Impl@SpriteBatch@DirectX@@$$V@DirectX@@@std@@EEAAXXZ 00000001400204f0 f i DirectXTK:SpriteBatch.obj
 0001:0001f4f0       ?_Delete_this@?$_Ref_count_obj@UResourceMap@?$SharedResourcePool@PEAUID3D11DeviceContext@@UContextResources@Impl@SpriteBatch@DirectX@@$$V@DirectX@@@std@@EEAAXXZ 00000001400204f0 f i DirectXTK:SpriteBatch.obj
 0001:0001f510       ??_G?$_Ref_count_obj@UResourceMap@?$SharedResourcePool@PEAUID3D11Device@@UDeviceResources@Impl@SpriteBatch@DirectX@@$$V@DirectX@@@std@@UEAAPEAXI@Z 0000000140020510 f i DirectXTK:SpriteBatch.obj
 0001:0001f510       ??_E?$_Ref_count_obj@UResourceMap@?$SharedResourcePool@PEAUID3D11Device@@VImpl@CommonStates@DirectX@@$$V@DirectX@@@std@@UEAAPEAXI@Z 0000000140020510 f i DirectXTK:CommonStates.obj
 0001:0001f510       ??_G?$_Ref_count_obj@UResourceMap@?$SharedResourcePool@PEAUID3D11DeviceContext@@UContextResources@Impl@SpriteBatch@DirectX@@$$V@DirectX@@@std@@UEAAPEAXI@Z 0000000140020510 f i DirectXTK:SpriteBatch.obj
 0001:0001f510       ??_G?$_Ref_count_obj@UResourceMap@?$SharedResourcePool@PEAUID3D11Device@@VImpl@CommonStates@DirectX@@$$V@DirectX@@@std@@UEAAPEAXI@Z 0000000140020510 f i DirectXTK:CommonStates.obj
 0001:0001f510       ??_E?$_Ref_count_obj@UResourceMap@?$SharedResourcePool@PEAUID3D11Device@@UDeviceResources@Impl@SpriteBatch@DirectX@@$$V@DirectX@@@std@@UEAAPEAXI@Z 0000000140020510 f i DirectXTK:SpriteBatch.obj
 0001:0001f510       ??_E?$_Ref_count_obj@UResourceMap@?$SharedResourcePool@PEAUID3D11DeviceContext@@UContextResources@Impl@SpriteBatch@DirectX@@$$V@DirectX@@@std@@UEAAPEAXI@Z 0000000140020510 f i DirectXTK:SpriteBatch.obj
 0001:0001f540       ??$_Buynode@AEAU?$pair@PEAUID3D11Device@@V?$shared_ptr@UWrappedData@?$SharedResourcePool@PEAUID3D11Device@@VImpl@CommonStates@DirectX@@$$V@DirectX@@@std@@@std@@@?$_Tree_comp_alloc@V?$_Tmap_traits@PEAUID3D11Device@@V?$weak_ptr@VImpl@CommonStates@DirectX@@@std@@U?$less@PEAUID3D11Device@@@3@V?$allocator@U?$pair@QEAUID3D11Device@@V?$weak_ptr@VImpl@CommonStates@DirectX@@@std@@@std@@@3@$0A@@std@@@std@@QEAAPEAU?$_Tree_node@U?$pair@QEAUID3D11Device@@V?$weak_ptr@VImpl@CommonStates@DirectX@@@std@@@std@@PEAX@1@AEAU?$pair@PEAUID3D11Device@@V?$shared_ptr@UWrappedData@?$SharedResourcePool@PEAUID3D11Device@@VImpl@CommonStates@DirectX@@$$V@DirectX@@@std@@@1@@Z 0000000140020540 f i DirectXTK:CommonStates.obj
 0001:0001f540       ??$_Buynode@AEAU?$pair@PEAUID3D11DeviceContext@@V?$shared_ptr@UWrappedData@?$SharedResourcePool@PEAUID3D11DeviceContext@@UContextResources@Impl@SpriteBatch@DirectX@@$$V@DirectX@@@std@@@std@@@?$_Tree_comp_alloc@V?$_Tmap_traits@PEAUID3D11DeviceContext@@V?$weak_ptr@UContextResources@Impl@SpriteBatch@DirectX@@@std@@U?$less@PEAUID3D11DeviceContext@@@3@V?$allocator@U?$pair@QEAUID3D11DeviceContext@@V?$weak_ptr@UContextResources@Impl@SpriteBatch@DirectX@@@std@@@std@@@3@$0A@@std@@@std@@QEAAPEAU?$_Tree_node@U?$pair@QEAUID3D11DeviceContext@@V?$weak_ptr@UContextResources@Impl@SpriteBatch@DirectX@@@std@@@std@@PEAX@1@AEAU?$pair@PEAUID3D11DeviceContext@@V?$shared_ptr@UWrappedData@?$SharedResourcePool@PEAUID3D11DeviceContext@@UContextResources@Impl@SpriteBatch@DirectX@@$$V@DirectX@@@std@@@1@@Z 0000000140020540 f i DirectXTK:SpriteBatch.obj
 0001:0001f540       ??$_Buynode@AEAU?$pair@PEAUID3D11Device@@V?$shared_ptr@UWrappedData@?$SharedResourcePool@PEAUID3D11Device@@UDeviceResources@Impl@SpriteBatch@DirectX@@$$V@DirectX@@@std@@@std@@@?$_Tree_comp_alloc@V?$_Tmap_traits@PEAUID3D11Device@@V?$weak_ptr@UDeviceResources@Impl@SpriteBatch@DirectX@@@std@@U?$less@PEAUID3D11Device@@@3@V?$allocator@U?$pair@QEAUID3D11Device@@V?$weak_ptr@UDeviceResources@Impl@SpriteBatch@DirectX@@@std@@@std@@@3@$0A@@std@@@std@@QEAAPEAU?$_Tree_node@U?$pair@QEAUID3D11Device@@V?$weak_ptr@UDeviceResources@Impl@SpriteBatch@DirectX@@@std@@@std@@PEAX@1@AEAU?$pair@PEAUID3D11Device@@V?$shared_ptr@UWrappedData@?$SharedResourcePool@PEAUID3D11Device@@UDeviceResources@Impl@SpriteBatch@DirectX@@$$V@DirectX@@@std@@@1@@Z 0000000140020540 f i DirectXTK:SpriteBatch.obj
 0001:0001f5a0       ??$_Emplace_reallocate@AEAPEAUID3D11ShaderResourceView@@@?$vector@V?$ComPtr@UID3D11ShaderResourceView@@@WRL@Microsoft@@V?$allocator@V?$ComPtr@UID3D11ShaderResourceView@@@WRL@Microsoft@@@std@@@std@@QEAAPEAV?$ComPtr@UID3D11ShaderResourceView@@@WRL@Microsoft@@QEAV234@AEAPEAUID3D11ShaderResourceView@@@Z 00000001400205a0 f i DirectXTK:SpriteBatch.obj
 0001:0001f830       ??$_Emplace_reallocate@AEBF@?$vector@FV?$allocator@F@std@@@std@@QEAAPEAFQEAFAEBF@Z 0000000140020830 f i DirectXTK:SpriteBatch.obj
 0001:0001f830       ??$_Emplace_reallocate@F@?$vector@FV?$allocator@F@std@@@std@@QEAAPEAFQEAF$$QEAF@Z 0000000140020830 f i DirectXTK:SpriteBatch.obj
 0001:0001fe70       ??$_Insert_at@AEAU?$pair@QEAUID3D11DeviceContext@@V?$weak_ptr@UContextResources@Impl@SpriteBatch@DirectX@@@std@@@std@@PEAU?$_Tree_node@U?$pair@QEAUID3D11DeviceContext@@V?$weak_ptr@UContextResources@Impl@SpriteBatch@DirectX@@@std@@@std@@PEAX@2@@?$_Tree@V?$_Tmap_traits@PEAUID3D11DeviceContext@@V?$weak_ptr@UContextResources@Impl@SpriteBatch@DirectX@@@std@@U?$less@PEAUID3D11DeviceContext@@@3@V?$allocator@U?$pair@QEAUID3D11DeviceContext@@V?$weak_ptr@UContextResources@Impl@SpriteBatch@DirectX@@@std@@@std@@@3@$0A@@std@@@std@@IEAA?AV?$_Tree_iterator@V?$_Tree_val@U?$_Tree_simple_types@U?$pair@QEAUID3D11DeviceContext@@V?$weak_ptr@UContextResources@Impl@SpriteBatch@DirectX@@@std@@@std@@@std@@@std@@@1@_NPEAU?$_Tree_node@U?$pair@QEAUID3D11DeviceContext@@V?$weak_ptr@UContextResources@Impl@SpriteBatch@DirectX@@@std@@@std@@PEAX@1@AEAU?$pair@QEAUID3D11DeviceContext@@V?$weak_ptr@UContextResources@Impl@SpriteBatch@DirectX@@@std@@@1@1@Z 0000000140020e70 f i DirectXTK:SpriteBatch.obj
 0001:0001fe70       ??$_Insert_at@AEAU?$pair@QEAUID3D11Device@@V?$weak_ptr@UDeviceResources@Impl@SpriteBatch@DirectX@@@std@@@std@@PEAU?$_Tree_node@U?$pair@QEAUID3D11Device@@V?$weak_ptr@UDeviceResources@Impl@SpriteBatch@DirectX@@@std@@@std@@PEAX@2@@?$_Tree@V?$_Tmap_traits@PEAUID3D11Device@@V?$weak_ptr@UDeviceResources@Impl@SpriteBatch@DirectX@@@std@@U?$less@PEAUID3D11Device@@@3@V?$allocator@U?$pair@QEAUID3D11Device@@V?$weak_ptr@UDeviceResources@Impl@SpriteBatch@DirectX@@@std@@@std@@@3@$0A@@std@@@std@@IEAA?AV?$_Tree_iterator@V?$_Tree_val@U?$_Tree_simple_types@U?$pair@QEAUID3D11Device@@V?$weak_ptr@UDeviceResources@Impl@SpriteBatch@DirectX@@@std@@@std@@@std@@@std@@@1@_NPEAU?$_Tree_node@U?$pair@QEAUID3D11Device@@V?$weak_ptr@UDeviceResources@Impl@SpriteBatch@DirectX@@@std@@@std@@PEAX@1@AEAU?$pair@QEAUID3D11Device@@V?$weak_ptr@UDeviceResources@Impl@SpriteBatch@DirectX@@@std@@@1@1@Z 0000000140020e70 f i DirectXTK:SpriteBatch.obj
 0001:0001fe70       ??$_Insert_at@AEAU?$pair@QEAUID3D11Device@@V?$weak_ptr@VImpl@CommonStates@DirectX@@@std@@@std@@PEAU?$_Tree_node@U?$pair@QEAUID3D11Device@@V?$weak_ptr@VImpl@CommonStates@DirectX@@@std@@@std@@PEAX@2@@?$_Tree@V?$_Tmap_traits@PEAUID3D11Device@@V?$weak_ptr@VImpl@CommonStates@DirectX@@@std@@U?$less@PEAUID3D11Device@@@3@V?$allocator@U?$pair@QEAUID3D11Device@@V?$weak_ptr@VImpl@CommonStates@DirectX@@@std@@@std@@@3@$0A@@std@@@std@@IEAA?AV?$_Tree_iterator@V?$_Tree_val@U?$_Tree_simple_types@U?$pair@QEAUID3D11Device@@V?$weak_ptr@VImpl@CommonStates@DirectX@@@std@@@std@@@std@@@std@@@1@_NPEAU?$_Tree_node@U?$pair@QEAUID3D11Device@@V?$weak_ptr@VImpl@CommonStates@DirectX@@@std@@@std@@PEAX@1@AEAU?$pair@QEAUID3D11Device@@V?$weak_ptr@VImpl@CommonStates@DirectX@@@std@@@1@1@Z 0000000140020e70 f i DirectXTK:CommonStates.obj
 0001:000200f0       ??$_Insert_nohint@AEAU?$pair@QEAUID3D11Device@@V?$weak_ptr@UDeviceResources@Impl@SpriteBatch@DirectX@@@std@@@std@@PEAU?$_Tree_node@U?$pair@QEAUID3D11Device@@V?$weak_ptr@UDeviceResources@Impl@SpriteBatch@DirectX@@@std@@@std@@PEAX@2@@?$_Tree@V?$_Tmap_traits@PEAUID3D11Device@@V?$weak_ptr@UDeviceResources@Impl@SpriteBatch@DirectX@@@std@@U?$less@PEAUID3D11Device@@@3@V?$allocator@U?$pair@QEAUID3D11Device@@V?$weak_ptr@UDeviceResources@Impl@SpriteBatch@DirectX@@@std@@@std@@@3@$0A@@std@@@std@@IEAA?AU?$pair@V?$_Tree_iterator@V?$_Tree_val@U?$_Tree_simple_types@U?$pair@QEAUID3D11Device@@V?$weak_ptr@UDeviceResources@Impl@SpriteBatch@DirectX@@@std@@@std@@@std@@@std@@@std@@_N@1@_NAEAU?$pair@QEAUID3D11Device@@V?$weak_ptr@UDeviceResources@Impl@SpriteBatch@DirectX@@@std@@@1@PEAU?$_Tree_node@U?$pair@QEAUID3D11Device@@V?$weak_ptr@UDeviceResources@Impl@SpriteBatch@DirectX@@@std@@@std@@PEAX@1@@Z 00000001400210f0 f i DirectXTK:SpriteBatch.obj
 0001:000200f0       ??$_Insert_nohint@AEAU?$pair@QEAUID3D11DeviceContext@@V?$weak_ptr@UContextResources@Impl@SpriteBatch@DirectX@@@std@@@std@@PEAU?$_Tree_node@U?$pair@QEAUID3D11DeviceContext@@V?$weak_ptr@UContextResources@Impl@SpriteBatch@DirectX@@@std@@@std@@PEAX@2@@?$_Tree@V?$_Tmap_traits@PEAUID3D11DeviceContext@@V?$weak_ptr@UContextResources@Impl@SpriteBatch@DirectX@@@std@@U?$less@PEAUID3D11DeviceContext@@@3@V?$allocator@U?$pair@QEAUID3D11DeviceContext@@V?$weak_ptr@UContextResources@Impl@SpriteBatch@DirectX@@@std@@@std@@@3@$0A@@std@@@std@@IEAA?AU?$pair@V?$_Tree_iterator@V?$_Tree_val@U?$_Tree_simple_types@U?$pair@QEAUID3D11DeviceContext@@V?$weak_ptr@UContextResources@Impl@SpriteBatch@DirectX@@@std@@@std@@@std@@@std@@@std@@_N@1@_NAEAU?$pair@QEAUID3D11DeviceContext@@V?$weak_ptr@UContextResources@Impl@SpriteBatch@DirectX@@@std@@@1@PEAU?$_Tree_node@U?$pair@QEAUID3D11DeviceContext@@V?$weak_ptr@UContextResources@Impl@SpriteBatch@DirectX@@@std@@@std@@PEAX@1@@Z 00000001400210f0 f i DirectXTK:SpriteBatch.obj
 0001:000200f0       ??$_Insert_nohint@AEAU?$pair@QEAUID3D11Device@@V?$weak_ptr@VImpl@CommonStates@DirectX@@@std@@@std@@PEAU?$_Tree_node@U?$pair@QEAUID3D11Device@@V?$weak_ptr@VImpl@CommonStates@DirectX@@@std@@@std@@PEAX@2@@?$_Tree@V?$_Tmap_traits@PEAUID3D11Device@@V?$weak_ptr@VImpl@CommonStates@DirectX@@@std@@U?$less@PEAUID3D11Device@@@3@V?$allocator@U?$pair@QEAUID3D11Device@@V?$weak_ptr@VImpl@CommonStates@DirectX@@@std@@@std@@@3@$0A@@std@@@std@@IEAA?AU?$pair@V?$_Tree_iterator@V?$_Tree_val@U?$_Tree_simple_types@U?$pair@QEAUID3D11Device@@V?$weak_ptr@VImpl@CommonStates@DirectX@@@std@@@std@@@std@@@std@@@std@@_N@1@_NAEAU?$pair@QEAUID3D11Device@@V?$weak_ptr@VImpl@CommonStates@DirectX@@@std@@@1@PEAU?$_Tree_node@U?$pair@QEAUID3D11Device@@V?$weak_ptr@VImpl@CommonStates@DirectX@@@std@@@std@@PEAX@1@@Z 00000001400210f0 f i DirectXTK:CommonStates.obj
 0001:00020ad0       ??$_Resize@V<lambda_e8c6c8b564571a11716b943a92ab7d7d>@@@?$vector@PEBUSpriteInfo@Impl@SpriteBatch@DirectX@@V?$allocator@PEBUSpriteInfo@Impl@SpriteBatch@DirectX@@@std@@@std@@AEAAX_KV<lambda_e8c6c8b564571a11716b943a92ab7d7d>@@@Z 0000000140021ad0 f i DirectXTK:SpriteBatch.obj
 0001:000215e0       ??$make_unique@VImpl@SpriteBatch@DirectX@@AEAPEAUID3D11DeviceContext@@$0A@@std@@YA?AV?$unique_ptr@VImpl@SpriteBatch@DirectX@@U?$default_delete@VImpl@SpriteBatch@DirectX@@@std@@@0@AEAPEAUID3D11DeviceContext@@@Z 00000001400225e0 f i DirectXTK:SpriteBatch.obj
 0001:00021750       ??$sprintf_s@$0EA@@@YAHAEAY0EA@DPEBDZZ 0000000140022750 f i DirectXTK:SpriteBatch.obj
 0001:000217b0       ??0ContextResources@Impl@SpriteBatch@DirectX@@QEAA@PEAUID3D11DeviceContext@@@Z 00000001400227b0 f   DirectXTK:SpriteBatch.obj
 0001:00021970       ??0DeviceResources@Impl@SpriteBatch@DirectX@@QEAA@PEAUID3D11Device@@@Z 0000000140022970 f   DirectXTK:SpriteBatch.obj
 0001:00021bd0       ??0SpriteBatch@DirectX@@QEAA@PEAUID3D11DeviceContext@@@Z 0000000140022bd0 f   DirectXTK:SpriteBatch.obj
 0001:00021c20       ??0bad_alloc@std@@QEAA@AEBV01@@Z 0000000140022c20 f i DirectXTK:SpriteBatch.obj
 0001:00021c60       ??0bad_alloc@std@@QEAA@XZ  0000000140022c60 f i DirectXTK:SpriteBatch.obj
 0001:00021c90       ??0com_exception@DirectX@@QEAA@AEBV01@@Z 0000000140022c90 f i DirectXTK:SpriteBatch.obj
 0001:00021ce0       ??0com_exception@DirectX@@QEAA@J@Z 0000000140022ce0 f i DirectXTK:SpriteBatch.obj
 0001:00021d00       ??0exception@std@@QEAA@QEBD@Z 0000000140022d00 f i DirectXTK:SpriteBatch.obj
 0001:00021d60       ??1?$ConstantBuffer@UXMMATRIX@DirectX@@@DirectX@@QEAA@XZ 0000000140022d60 f i DirectXTK:SpriteBatch.obj
 0001:00021d90       ??1?$lock_guard@Vmutex@std@@@std@@QEAA@XZ 0000000140022d90 f i DirectXTK:SpriteBatch.obj
 0001:00021dc0       ??1?$pair@PEAUID3D11Device@@V?$shared_ptr@UWrappedData@?$SharedResourcePool@PEAUID3D11Device@@VImpl@CommonStates@DirectX@@$$V@DirectX@@@std@@@std@@QEAA@XZ 0000000140022dc0 f i DirectXTK:CommonStates.obj
 0001:00021dc0       ??1?$pair@PEAUID3D11DeviceContext@@V?$shared_ptr@UWrappedData@?$SharedResourcePool@PEAUID3D11DeviceContext@@UContextResources@Impl@SpriteBatch@DirectX@@$$V@DirectX@@@std@@@std@@QEAA@XZ 0000000140022dc0 f i DirectXTK:SpriteBatch.obj
 0001:00021dc0       ??1?$pair@PEAUID3D11Device@@V?$shared_ptr@UWrappedData@?$SharedResourcePool@PEAUID3D11Device@@UDeviceResources@Impl@SpriteBatch@DirectX@@$$V@DirectX@@@std@@@std@@QEAA@XZ 0000000140022dc0 f i DirectXTK:SpriteBatch.obj
 0001:00021e10       ??1?$shared_ptr@UWrappedData@?$SharedResourcePool@PEAUID3D11Device@@VImpl@CommonStates@DirectX@@$$V@DirectX@@@std@@QEAA@XZ 0000000140022e10 f i DirectXTK:CommonStates.obj
 0001:00021e10       ??1?$shared_ptr@UDeviceResources@Impl@SpriteBatch@DirectX@@@std@@QEAA@XZ 0000000140022e10 f i DirectXTK:SpriteBatch.obj
 0001:00021e10       ??1?$shared_ptr@UWrappedData@?$SharedResourcePool@PEAUID3D11Device@@UDeviceResources@Impl@SpriteBatch@DirectX@@$$V@DirectX@@@std@@QEAA@XZ 0000000140022e10 f i DirectXTK:SpriteBatch.obj
 0001:00021e10       ??1?$shared_ptr@UWrappedData@?$SharedResourcePool@PEAUID3D11DeviceContext@@UContextResources@Impl@SpriteBatch@DirectX@@$$V@DirectX@@@std@@QEAA@XZ 0000000140022e10 f i DirectXTK:SpriteBatch.obj
 0001:00021e60       ??1?$unique_ptr@$$BY0A@USpriteInfo@Impl@SpriteBatch@DirectX@@U?$default_delete@$$BY0A@USpriteInfo@Impl@SpriteBatch@DirectX@@@std@@@std@@QEAA@XZ 0000000140022e60 f i DirectXTK:SpriteBatch.obj
 0001:00021e70       ??1?$vector@FV?$allocator@F@std@@@std@@QEAA@XZ 0000000140022e70 f i DirectXTK:SpriteBatch.obj
 0001:00021ed0       ??1?$vector@V?$ComPtr@UID3D11ShaderResourceView@@@WRL@Microsoft@@V?$allocator@V?$ComPtr@UID3D11ShaderResourceView@@@WRL@Microsoft@@@std@@@std@@QEAA@XZ 0000000140022ed0 f i DirectXTK:SpriteBatch.obj
 0001:00021f80       ??1DeviceResources@Impl@SpriteBatch@DirectX@@QEAA@XZ 0000000140022f80 f i DirectXTK:SpriteBatch.obj
 0001:00022000       ??1Impl@SpriteBatch@DirectX@@QEAA@XZ 0000000140023000 f i DirectXTK:SpriteBatch.obj
 0001:00022190       ??1WrappedData@?$SharedResourcePool@PEAUID3D11DeviceContext@@UContextResources@Impl@SpriteBatch@DirectX@@$$V@DirectX@@QEAA@XZ 0000000140023190 f i DirectXTK:SpriteBatch.obj
 0001:000222d0       ??1overflow_error@std@@UEAA@XZ 00000001400232d0 f i DirectXTK:SpriteFont.obj
 0001:000222d0       ??1bad_alloc@std@@UEAA@XZ  00000001400232d0 f i DirectXTK:SpriteBatch.obj
 0001:000222d0       ??1bad_array_new_length@std@@UEAA@XZ 00000001400232d0 f i MSVCRT:throw_bad_alloc.obj
 0001:000222d0       ??1com_exception@DirectX@@UEAA@XZ 00000001400232d0 f i DirectXTK:SpriteBatch.obj
 0001:000222f0       ??3?$AlignedNew@VImpl@SpriteBatch@DirectX@@@DirectX@@SAXPEAX@Z 00000001400232f0 f i DirectXTK:SpriteBatch.obj
 0001:00022300       ??_G?$_Ref_count_obj@UWrappedData@?$SharedResourcePool@PEAUID3D11Device@@UDeviceResources@Impl@SpriteBatch@DirectX@@$$V@DirectX@@@std@@UEAAPEAXI@Z 0000000140023300 f i DirectXTK:SpriteBatch.obj
 0001:00022300       ??_E?$_Ref_count_obj@UWrappedData@?$SharedResourcePool@PEAUID3D11Device@@UDeviceResources@Impl@SpriteBatch@DirectX@@$$V@DirectX@@@std@@UEAAPEAXI@Z 0000000140023300 f i DirectXTK:SpriteBatch.obj
 0001:00022330       ??_G?$_Ref_count_obj@UWrappedData@?$SharedResourcePool@PEAUID3D11DeviceContext@@UContextResources@Impl@SpriteBatch@DirectX@@$$V@DirectX@@@std@@UEAAPEAXI@Z 0000000140023330 f i DirectXTK:SpriteBatch.obj
 0001:00022330       ??_E?$_Ref_count_obj@UWrappedData@?$SharedResourcePool@PEAUID3D11DeviceContext@@UContextResources@Impl@SpriteBatch@DirectX@@$$V@DirectX@@@std@@UEAAPEAXI@Z 0000000140023330 f i DirectXTK:SpriteBatch.obj
 0001:00022360       ??_ESpriteBatch@DirectX@@UEAAPEAXI@Z 0000000140023360 f i DirectXTK:SpriteBatch.obj
 0001:00022360       ??_GSpriteBatch@DirectX@@UEAAPEAXI@Z 0000000140023360 f i DirectXTK:SpriteBatch.obj
 0001:000223c0       ??_Eruntime_error@std@@UEAAPEAXI@Z 00000001400233c0 f i DirectXTK:SpriteFont.obj
 0001:000223c0       ??_Eoverflow_error@std@@UEAAPEAXI@Z 00000001400233c0 f i DirectXTK:SpriteFont.obj
 0001:000223c0       ??_Goverflow_error@std@@UEAAPEAXI@Z 00000001400233c0 f i DirectXTK:SpriteFont.obj
 0001:000223c0       ??_Ebad_array_new_length@std@@UEAAPEAXI@Z 00000001400233c0 f i MSVCRT:throw_bad_alloc.obj
 0001:000223c0       ??_Gbad_alloc@std@@UEAAPEAXI@Z 00000001400233c0 f i DirectXTK:SpriteBatch.obj
 0001:000223c0       ??_Ebad_alloc@std@@UEAAPEAXI@Z 00000001400233c0 f i DirectXTK:SpriteBatch.obj
 0001:000223c0       ??_Gruntime_error@std@@UEAAPEAXI@Z 00000001400233c0 f i DirectXTK:SpriteFont.obj
 0001:000223c0       ??_Gbad_array_new_length@std@@UEAAPEAXI@Z 00000001400233c0 f i MSVCRT:throw_bad_alloc.obj
 0001:00022410       ??_Gcom_exception@DirectX@@UEAAPEAXI@Z 0000000140023410 f i DirectXTK:SpriteBatch.obj
 0001:00022410       ??_Ecom_exception@DirectX@@UEAAPEAXI@Z 0000000140023410 f i DirectXTK:SpriteBatch.obj
 0001:00022460       ?Begin@Impl@SpriteBatch@DirectX@@QEAQXW4SpriteSortMode@3@PEAUID3D11BlendState@@PEAUID3D11SamplerState@@PEAUID3D11DepthStencilState@@PEAUID3D11RasterizerState@@AEAV?$function@$$A6AXXZ@std@@UXMMATRIX@3@@Z 0000000140023460 f   DirectXTK:SpriteBatch.obj
 0001:00022730       ?Begin@SpriteBatch@DirectX@@QEAQXW4SpriteSortMode@2@PEAUID3D11BlendState@@PEAUID3D11SamplerState@@PEAUID3D11DepthStencilState@@PEAUID3D11RasterizerState@@V?$function@$$A6AXXZ@std@@UXMMATRIX@2@@Z 0000000140023730 f   DirectXTK:SpriteBatch.obj
 0001:00022790       ?CreateIndexValues@DeviceResources@Impl@SpriteBatch@DirectX@@CA?AV?$vector@FV?$allocator@F@std@@@std@@XZ 0000000140023790 f   DirectXTK:SpriteBatch.obj
 0001:00022910       ?DemandCreate@?$SharedResourcePool@PEAUID3D11Device@@UDeviceResources@Impl@SpriteBatch@DirectX@@$$V@DirectX@@QEAA?AV?$shared_ptr@UDeviceResources@Impl@SpriteBatch@DirectX@@@std@@PEAUID3D11Device@@@Z 0000000140023910 f i DirectXTK:SpriteBatch.obj
 0001:00022bb0       ?DemandCreate@?$SharedResourcePool@PEAUID3D11DeviceContext@@UContextResources@Impl@SpriteBatch@DirectX@@$$V@DirectX@@QEAA?AV?$shared_ptr@UContextResources@Impl@SpriteBatch@DirectX@@@std@@PEAUID3D11DeviceContext@@@Z 0000000140023bb0 f i DirectXTK:SpriteBatch.obj
 0001:00022e50       ?Draw@Impl@SpriteBatch@DirectX@@QEAQXPEAUID3D11ShaderResourceView@@T__m128@@PEBUtagRECT@@11H@Z 0000000140023e50 f   DirectXTK:SpriteBatch.obj
 0001:00023100       ?Draw@SpriteBatch@DirectX@@QEAQXPEAUID3D11ShaderResourceView@@AEBUtagRECT@@T__m128@@@Z 0000000140024100 f   DirectXTK:SpriteBatch.obj
 0001:00023140       ?Draw@SpriteBatch@DirectX@@QEAQXPEAUID3D11ShaderResourceView@@T__m128@@PEBUtagRECT@@1M11W4SpriteEffects@2@M@Z 0000000140024140 f   DirectXTK:SpriteBatch.obj
 0001:00023190       ?End@SpriteBatch@DirectX@@QEAAXXZ 0000000140024190 f   DirectXTK:SpriteBatch.obj
 0001:00023250       ?FlushBatch@Impl@SpriteBatch@DirectX@@AEAAXXZ 0000000140024250 f   DirectXTK:SpriteBatch.obj
 0001:000233f0       ?GetViewportTransform@Impl@SpriteBatch@DirectX@@AEAA?AUXMMATRIX@3@PEAUID3D11DeviceContext@@W4DXGI_MODE_ROTATION@@@Z 00000001400243f0 f   DirectXTK:SpriteBatch.obj
 0001:000235a0       ?PrepareForRendering@Impl@SpriteBatch@DirectX@@AEAAXXZ 00000001400245a0 f   DirectXTK:SpriteBatch.obj
 0001:00023900       ?RenderBatch@Impl@SpriteBatch@DirectX@@AEAAXPEAUID3D11ShaderResourceView@@PEBQEBUSpriteInfo@123@_K@Z 0000000140024900 f   DirectXTK:SpriteBatch.obj
 0001:00023bb0       ?RenderSprite@Impl@SpriteBatch@DirectX@@CQXPEBUSpriteInfo@123@PEAUVertexPositionColorTexture@3@T__m128@@2@Z 0000000140024bb0 f   DirectXTK:SpriteBatch.obj
 0001:00023e60       ?_Buyheadnode@?$_Tree_comp_alloc@V?$_Tmap_traits@PEAUID3D11Device@@V?$weak_ptr@UDeviceResources@Impl@SpriteBatch@DirectX@@@std@@U?$less@PEAUID3D11Device@@@3@V?$allocator@U?$pair@QEAUID3D11Device@@V?$weak_ptr@UDeviceResources@Impl@SpriteBatch@DirectX@@@std@@@std@@@3@$0A@@std@@@std@@QEAAPEAU?$_Tree_node@U?$pair@QEAUID3D11Device@@V?$weak_ptr@UDeviceResources@Impl@SpriteBatch@DirectX@@@std@@@std@@PEAX@2@XZ 0000000140024e60 f i DirectXTK:SpriteBatch.obj
 0001:00023e60       ?_Buyheadnode@?$_Tree_comp_alloc@V?$_Tmap_traits@PEAUID3D11DeviceContext@@V?$weak_ptr@UContextResources@Impl@SpriteBatch@DirectX@@@std@@U?$less@PEAUID3D11DeviceContext@@@3@V?$allocator@U?$pair@QEAUID3D11DeviceContext@@V?$weak_ptr@UContextResources@Impl@SpriteBatch@DirectX@@@std@@@std@@@3@$0A@@std@@@std@@QEAAPEAU?$_Tree_node@U?$pair@QEAUID3D11DeviceContext@@V?$weak_ptr@UContextResources@Impl@SpriteBatch@DirectX@@@std@@@std@@PEAX@2@XZ 0000000140024e60 f i DirectXTK:SpriteBatch.obj
 0001:00023e60       ?_Buyheadnode@?$_Tree_comp_alloc@V?$_Tmap_traits@PEAUID3D11Device@@V?$weak_ptr@VImpl@CommonStates@DirectX@@@std@@U?$less@PEAUID3D11Device@@@3@V?$allocator@U?$pair@QEAUID3D11Device@@V?$weak_ptr@VImpl@CommonStates@DirectX@@@std@@@std@@@3@$0A@@std@@@std@@QEAAPEAU?$_Tree_node@U?$pair@QEAUID3D11Device@@V?$weak_ptr@VImpl@CommonStates@DirectX@@@std@@@std@@PEAX@2@XZ 0000000140024e60 f i DirectXTK:CommonStates.obj
 0001:00023ea0       ?_Buynode0@?$_Tree_comp_alloc@V?$_Tmap_traits@PEAUID3D11Device@@V?$weak_ptr@VImpl@CommonStates@DirectX@@@std@@U?$less@PEAUID3D11Device@@@3@V?$allocator@U?$pair@QEAUID3D11Device@@V?$weak_ptr@VImpl@CommonStates@DirectX@@@std@@@std@@@3@$0A@@std@@@std@@QEAAPEAU?$_Tree_node@U?$pair@QEAUID3D11Device@@V?$weak_ptr@VImpl@CommonStates@DirectX@@@std@@@std@@PEAX@2@XZ 0000000140024ea0 f i DirectXTK:CommonStates.obj
 0001:00023ea0       ?_Buynode0@?$_Tree_comp_alloc@V?$_Tmap_traits@PEAUID3D11Device@@V?$weak_ptr@UDeviceResources@Impl@SpriteBatch@DirectX@@@std@@U?$less@PEAUID3D11Device@@@3@V?$allocator@U?$pair@QEAUID3D11Device@@V?$weak_ptr@UDeviceResources@Impl@SpriteBatch@DirectX@@@std@@@std@@@3@$0A@@std@@@std@@QEAAPEAU?$_Tree_node@U?$pair@QEAUID3D11Device@@V?$weak_ptr@UDeviceResources@Impl@SpriteBatch@DirectX@@@std@@@std@@PEAX@2@XZ 0000000140024ea0 f i DirectXTK:SpriteBatch.obj
 0001:00023ea0       ?_Buynode0@?$_Tree_comp_alloc@V?$_Tmap_traits@PEAUID3D11DeviceContext@@V?$weak_ptr@UContextResources@Impl@SpriteBatch@DirectX@@@std@@U?$less@PEAUID3D11DeviceContext@@@3@V?$allocator@U?$pair@QEAUID3D11DeviceContext@@V?$weak_ptr@UContextResources@Impl@SpriteBatch@DirectX@@@std@@@std@@@3@$0A@@std@@@std@@QEAAPEAU?$_Tree_node@U?$pair@QEAUID3D11DeviceContext@@V?$weak_ptr@UContextResources@Impl@SpriteBatch@DirectX@@@std@@@std@@PEAX@2@XZ 0000000140024ea0 f i DirectXTK:SpriteBatch.obj
 0001:00023ee0       ?_Change_array@?$vector@FV?$allocator@F@std@@@std@@AEAAXQEAF_K1@Z 0000000140024ee0 f i DirectXTK:SpriteBatch.obj
 0001:00023f70       ?_Destroy@?$_Ref_count_obj@UWrappedData@?$SharedResourcePool@PEAUID3D11Device@@UDeviceResources@Impl@SpriteBatch@DirectX@@$$V@DirectX@@@std@@EEAAXXZ 0000000140024f70 f i DirectXTK:SpriteBatch.obj
 0001:00024070       ?_Destroy@?$_Ref_count_obj@UWrappedData@?$SharedResourcePool@PEAUID3D11DeviceContext@@UContextResources@Impl@SpriteBatch@DirectX@@$$V@DirectX@@@std@@EEAAXXZ 0000000140025070 f i DirectXTK:SpriteBatch.obj
 0001:00024080       ?_Destroy@?$vector@V?$ComPtr@UID3D11ShaderResourceView@@@WRL@Microsoft@@V?$allocator@V?$ComPtr@UID3D11ShaderResourceView@@@WRL@Microsoft@@@std@@@std@@AEAAXPEAV?$ComPtr@UID3D11ShaderResourceView@@@WRL@Microsoft@@0@Z 0000000140025080 f i DirectXTK:SpriteBatch.obj
 0001:000240d0       ?_Destroy_if_node@?$_Tree@V?$_Tmap_traits@PEAUID3D11Device@@V?$weak_ptr@VImpl@CommonStates@DirectX@@@std@@U?$less@PEAUID3D11Device@@@3@V?$allocator@U?$pair@QEAUID3D11Device@@V?$weak_ptr@VImpl@CommonStates@DirectX@@@std@@@std@@@3@$0A@@std@@@std@@IEAAXPEAU?$_Tree_node@U?$pair@QEAUID3D11Device@@V?$weak_ptr@VImpl@CommonStates@DirectX@@@std@@@std@@PEAX@2@@Z 00000001400250d0 f i DirectXTK:CommonStates.obj
 0001:000240d0       ?_Destroy_if_node@?$_Tree@V?$_Tmap_traits@PEAUID3D11DeviceContext@@V?$weak_ptr@UContextResources@Impl@SpriteBatch@DirectX@@@std@@U?$less@PEAUID3D11DeviceContext@@@3@V?$allocator@U?$pair@QEAUID3D11DeviceContext@@V?$weak_ptr@UContextResources@Impl@SpriteBatch@DirectX@@@std@@@std@@@3@$0A@@std@@@std@@IEAAXPEAU?$_Tree_node@U?$pair@QEAUID3D11DeviceContext@@V?$weak_ptr@UContextResources@Impl@SpriteBatch@DirectX@@@std@@@std@@PEAX@2@@Z 00000001400250d0 f i DirectXTK:SpriteBatch.obj
 0001:000240d0       ?_Destroy_if_node@?$_Tree@V?$_Tmap_traits@PEAUID3D11Device@@V?$weak_ptr@UDeviceResources@Impl@SpriteBatch@DirectX@@@std@@U?$less@PEAUID3D11Device@@@3@V?$allocator@U?$pair@QEAUID3D11Device@@V?$weak_ptr@UDeviceResources@Impl@SpriteBatch@DirectX@@@std@@@std@@@3@$0A@@std@@@std@@IEAAXPEAU?$_Tree_node@U?$pair@QEAUID3D11Device@@V?$weak_ptr@UDeviceResources@Impl@SpriteBatch@DirectX@@@std@@@std@@PEAX@2@@Z 00000001400250d0 f i DirectXTK:SpriteBatch.obj
 0001:00024110       ?_Erase@?$_Tree@V?$_Tmap_traits@PEAUID3D11DeviceContext@@V?$weak_ptr@UContextResources@Impl@SpriteBatch@DirectX@@@std@@U?$less@PEAUID3D11DeviceContext@@@3@V?$allocator@U?$pair@QEAUID3D11DeviceContext@@V?$weak_ptr@UContextResources@Impl@SpriteBatch@DirectX@@@std@@@std@@@3@$0A@@std@@@std@@IEAAXPEAU?$_Tree_node@U?$pair@QEAUID3D11DeviceContext@@V?$weak_ptr@UContextResources@Impl@SpriteBatch@DirectX@@@std@@@std@@PEAX@2@@Z 0000000140025110 f i DirectXTK:SpriteBatch.obj
 0001:00024110       ?_Erase@?$_Tree@V?$_Tmap_traits@PEAUID3D11Device@@V?$weak_ptr@VImpl@CommonStates@DirectX@@@std@@U?$less@PEAUID3D11Device@@@3@V?$allocator@U?$pair@QEAUID3D11Device@@V?$weak_ptr@VImpl@CommonStates@DirectX@@@std@@@std@@@3@$0A@@std@@@std@@IEAAXPEAU?$_Tree_node@U?$pair@QEAUID3D11Device@@V?$weak_ptr@VImpl@CommonStates@DirectX@@@std@@@std@@PEAX@2@@Z 0000000140025110 f i DirectXTK:CommonStates.obj
 0001:00024110       ?_Erase@?$_Tree@V?$_Tmap_traits@PEAUID3D11Device@@V?$weak_ptr@UDeviceResources@Impl@SpriteBatch@DirectX@@@std@@U?$less@PEAUID3D11Device@@@3@V?$allocator@U?$pair@QEAUID3D11Device@@V?$weak_ptr@UDeviceResources@Impl@SpriteBatch@DirectX@@@std@@@std@@@3@$0A@@std@@@std@@IEAAXPEAU?$_Tree_node@U?$pair@QEAUID3D11Device@@V?$weak_ptr@UDeviceResources@Impl@SpriteBatch@DirectX@@@std@@@std@@PEAX@2@@Z 0000000140025110 f i DirectXTK:SpriteBatch.obj
 0001:00024190       ?_Extract@?$_Tree_val@U?$_Tree_simple_types@U?$pair@QEAUID3D11Device@@V?$weak_ptr@UDeviceResources@Impl@SpriteBatch@DirectX@@@std@@@std@@@std@@@std@@QEAAPEAU?$_Tree_node@U?$pair@QEAUID3D11Device@@V?$weak_ptr@UDeviceResources@Impl@SpriteBatch@DirectX@@@std@@@std@@PEAX@2@V?$_Tree_const_iterator@V?$_Tree_val@U?$_Tree_simple_types@U?$pair@QEAUID3D11Device@@V?$weak_ptr@UDeviceResources@Impl@SpriteBatch@DirectX@@@std@@@std@@@std@@@std@@@2@@Z 0000000140025190 f i DirectXTK:SpriteBatch.obj
 0001:00024190       ?_Extract@?$_Tree_val@U?$_Tree_simple_types@U?$pair@QEAUID3D11Device@@V?$weak_ptr@VImpl@CommonStates@DirectX@@@std@@@std@@@std@@@std@@QEAAPEAU?$_Tree_node@U?$pair@QEAUID3D11Device@@V?$weak_ptr@VImpl@CommonStates@DirectX@@@std@@@std@@PEAX@2@V?$_Tree_const_iterator@V?$_Tree_val@U?$_Tree_simple_types@U?$pair@QEAUID3D11Device@@V?$weak_ptr@VImpl@CommonStates@DirectX@@@std@@@std@@@std@@@std@@@2@@Z 0000000140025190 f i DirectXTK:CommonStates.obj
 0001:00024190       ?_Extract@?$_Tree_val@U?$_Tree_simple_types@U?$pair@QEAUID3D11DeviceContext@@V?$weak_ptr@UContextResources@Impl@SpriteBatch@DirectX@@@std@@@std@@@std@@@std@@QEAAPEAU?$_Tree_node@U?$pair@QEAUID3D11DeviceContext@@V?$weak_ptr@UContextResources@Impl@SpriteBatch@DirectX@@@std@@@std@@PEAX@2@V?$_Tree_const_iterator@V?$_Tree_val@U?$_Tree_simple_types@U?$pair@QEAUID3D11DeviceContext@@V?$weak_ptr@UContextResources@Impl@SpriteBatch@DirectX@@@std@@@std@@@std@@@std@@@2@@Z 0000000140025190 f i DirectXTK:SpriteBatch.obj
 0001:000244f0       ?_Freenode0@?$_Tree_comp_alloc@V?$_Tmap_traits@PEAUID3D11Device@@V?$weak_ptr@UDeviceResources@Impl@SpriteBatch@DirectX@@@std@@U?$less@PEAUID3D11Device@@@3@V?$allocator@U?$pair@QEAUID3D11Device@@V?$weak_ptr@UDeviceResources@Impl@SpriteBatch@DirectX@@@std@@@std@@@3@$0A@@std@@@std@@QEAAXPEAU?$_Tree_node@U?$pair@QEAUID3D11Device@@V?$weak_ptr@UDeviceResources@Impl@SpriteBatch@DirectX@@@std@@@std@@PEAX@2@@Z 00000001400254f0 f i DirectXTK:SpriteBatch.obj
 0001:000244f0       ?_Freenode0@?$_Tree_comp_alloc@V?$_Tmap_traits@PEAUID3D11Device@@V?$weak_ptr@VImpl@CommonStates@DirectX@@@std@@U?$less@PEAUID3D11Device@@@3@V?$allocator@U?$pair@QEAUID3D11Device@@V?$weak_ptr@VImpl@CommonStates@DirectX@@@std@@@std@@@3@$0A@@std@@@std@@QEAAXPEAU?$_Tree_node@U?$pair@QEAUID3D11Device@@V?$weak_ptr@VImpl@CommonStates@DirectX@@@std@@@std@@PEAX@2@@Z 00000001400254f0 f i DirectXTK:CommonStates.obj
 0001:000244f0       ?_Freenode0@?$_Tree_comp_alloc@V?$_Tmap_traits@PEAUID3D11DeviceContext@@V?$weak_ptr@UContextResources@Impl@SpriteBatch@DirectX@@@std@@U?$less@PEAUID3D11DeviceContext@@@3@V?$allocator@U?$pair@QEAUID3D11DeviceContext@@V?$weak_ptr@UContextResources@Impl@SpriteBatch@DirectX@@@std@@@std@@@3@$0A@@std@@@std@@QEAAXPEAU?$_Tree_node@U?$pair@QEAUID3D11DeviceContext@@V?$weak_ptr@UContextResources@Impl@SpriteBatch@DirectX@@@std@@@std@@PEAX@2@@Z 00000001400254f0 f i DirectXTK:SpriteBatch.obj
 0001:00024500       ?_Getal@?$_Vector_alloc@U?$_Vec_base_types@FV?$allocator@F@std@@@std@@@std@@QEAAAEAV?$allocator@F@2@XZ 0000000140025500 f i DirectXTK:SpriteBatch.obj
 0001:00024500       ?_Getal@?$_Vector_alloc@U?$_Vec_base_types@PEBUSpriteInfo@Impl@SpriteBatch@DirectX@@V?$allocator@PEBUSpriteInfo@Impl@SpriteBatch@DirectX@@@std@@@std@@@std@@QEAAAEAV?$allocator@PEBUSpriteInfo@Impl@SpriteBatch@DirectX@@@2@XZ 0000000140025500 f i DirectXTK:SpriteBatch.obj
 0001:00024510       ?_Lrotate@?$_Tree_val@U?$_Tree_simple_types@U?$pair@QEAUID3D11DeviceContext@@V?$weak_ptr@UContextResources@Impl@SpriteBatch@DirectX@@@std@@@std@@@std@@@std@@QEAAXPEAU?$_Tree_node@U?$pair@QEAUID3D11DeviceContext@@V?$weak_ptr@UContextResources@Impl@SpriteBatch@DirectX@@@std@@@std@@PEAX@2@@Z 0000000140025510 f i DirectXTK:SpriteBatch.obj
 0001:00024510       ?_Lrotate@?$_Tree_val@U?$_Tree_simple_types@U?$pair@QEAUID3D11Device@@V?$weak_ptr@VImpl@CommonStates@DirectX@@@std@@@std@@@std@@@std@@QEAAXPEAU?$_Tree_node@U?$pair@QEAUID3D11Device@@V?$weak_ptr@VImpl@CommonStates@DirectX@@@std@@@std@@PEAX@2@@Z 0000000140025510 f i DirectXTK:CommonStates.obj
 0001:00024510       ?_Lrotate@?$_Tree_val@U?$_Tree_simple_types@U?$pair@QEAUID3D11Device@@V?$weak_ptr@UDeviceResources@Impl@SpriteBatch@DirectX@@@std@@@std@@@std@@@std@@QEAAXPEAU?$_Tree_node@U?$pair@QEAUID3D11Device@@V?$weak_ptr@UDeviceResources@Impl@SpriteBatch@DirectX@@@std@@@std@@PEAX@2@@Z 0000000140025510 f i DirectXTK:SpriteBatch.obj
 0001:00024570       ?_Reallocate_exactly@?$vector@FV?$allocator@F@std@@@std@@AEAAX_K@Z 0000000140025570 f i DirectXTK:SpriteBatch.obj
 0001:000245e0       ?_Rrotate@?$_Tree_val@U?$_Tree_simple_types@U?$pair@QEAUID3D11Device@@V?$weak_ptr@UDeviceResources@Impl@SpriteBatch@DirectX@@@std@@@std@@@std@@@std@@QEAAXPEAU?$_Tree_node@U?$pair@QEAUID3D11Device@@V?$weak_ptr@UDeviceResources@Impl@SpriteBatch@DirectX@@@std@@@std@@PEAX@2@@Z 00000001400255e0 f i DirectXTK:SpriteBatch.obj
 0001:000245e0       ?_Rrotate@?$_Tree_val@U?$_Tree_simple_types@U?$pair@QEAUID3D11DeviceContext@@V?$weak_ptr@UContextResources@Impl@SpriteBatch@DirectX@@@std@@@std@@@std@@@std@@QEAAXPEAU?$_Tree_node@U?$pair@QEAUID3D11DeviceContext@@V?$weak_ptr@UContextResources@Impl@SpriteBatch@DirectX@@@std@@@std@@PEAX@2@@Z 00000001400255e0 f i DirectXTK:SpriteBatch.obj
 0001:000245e0       ?_Rrotate@?$_Tree_val@U?$_Tree_simple_types@U?$pair@QEAUID3D11Device@@V?$weak_ptr@VImpl@CommonStates@DirectX@@@std@@@std@@@std@@@std@@QEAAXPEAU?$_Tree_node@U?$pair@QEAUID3D11Device@@V?$weak_ptr@VImpl@CommonStates@DirectX@@@std@@@std@@PEAX@2@@Z 00000001400255e0 f i DirectXTK:CommonStates.obj
 0001:00024640       ?_Xlength@?$vector@UGlyph@SpriteFont@DirectX@@V?$allocator@UGlyph@SpriteFont@DirectX@@@std@@@std@@CAXXZ 0000000140025640 f i DirectXTK:SpriteFont.obj
 0001:00024640       ?_Xlength@?$vector@PEBUSpriteInfo@Impl@SpriteBatch@DirectX@@V?$allocator@PEBUSpriteInfo@Impl@SpriteBatch@DirectX@@@std@@@std@@CAXXZ 0000000140025640 f i DirectXTK:SpriteBatch.obj
 0001:00024640       ?_Xlength@?$vector@V?$ComPtr@UID3D11ShaderResourceView@@@WRL@Microsoft@@V?$allocator@V?$ComPtr@UID3D11ShaderResourceView@@@WRL@Microsoft@@@std@@@std@@CAXXZ 0000000140025640 f i DirectXTK:SpriteBatch.obj
 0001:00024640       ?_Xlength@?$vector@FV?$allocator@F@std@@@std@@CAXXZ 0000000140025640 f i DirectXTK:SpriteBatch.obj
 0001:00024660       ?allocate@?$allocator@F@std@@QEAAPEAF_K@Z 0000000140025660 f i DirectXTK:SpriteBatch.obj
 0001:000246e0       ?deallocate@?$allocator@F@std@@QEAAXQEAF_K@Z 00000001400256e0 f i DirectXTK:SpriteBatch.obj
 0001:00024720       ?deallocate@?$allocator@V?$ComPtr@UID3D11ShaderResourceView@@@WRL@Microsoft@@@std@@QEAAXQEAV?$ComPtr@UID3D11ShaderResourceView@@@WRL@Microsoft@@_K@Z 0000000140025720 f i DirectXTK:SpriteBatch.obj
 0001:00024720       ?deallocate@?$allocator@PEBUSpriteInfo@Impl@SpriteBatch@DirectX@@@std@@QEAAXQEAPEBUSpriteInfo@Impl@SpriteBatch@DirectX@@_K@Z 0000000140025720 f i DirectXTK:SpriteBatch.obj
 0001:00024770       ?deallocate@?$allocator@U?$_Tree_node@U?$pair@QEAUID3D11Device@@V?$weak_ptr@VImpl@CommonStates@DirectX@@@std@@@std@@PEAX@std@@@std@@QEAAXQEAU?$_Tree_node@U?$pair@QEAUID3D11Device@@V?$weak_ptr@VImpl@CommonStates@DirectX@@@std@@@std@@PEAX@2@_K@Z 0000000140025770 f i DirectXTK:CommonStates.obj
 0001:00024770       ?deallocate@?$allocator@U?$_Tree_node@U?$pair@QEAUID3D11Device@@V?$weak_ptr@UDeviceResources@Impl@SpriteBatch@DirectX@@@std@@@std@@PEAX@std@@@std@@QEAAXQEAU?$_Tree_node@U?$pair@QEAUID3D11Device@@V?$weak_ptr@UDeviceResources@Impl@SpriteBatch@DirectX@@@std@@@std@@PEAX@2@_K@Z 0000000140025770 f i DirectXTK:SpriteBatch.obj
 0001:00024770       ?deallocate@?$allocator@U?$_Tree_node@U?$pair@QEAUID3D11DeviceContext@@V?$weak_ptr@UContextResources@Impl@SpriteBatch@DirectX@@@std@@@std@@PEAX@std@@@std@@QEAAXQEAU?$_Tree_node@U?$pair@QEAUID3D11DeviceContext@@V?$weak_ptr@UContextResources@Impl@SpriteBatch@DirectX@@@std@@@std@@PEAX@2@_K@Z 0000000140025770 f i DirectXTK:SpriteBatch.obj
 0001:000247b0       ?erase@?$_Tree@V?$_Tmap_traits@PEAUID3D11DeviceContext@@V?$weak_ptr@UContextResources@Impl@SpriteBatch@DirectX@@@std@@U?$less@PEAUID3D11DeviceContext@@@3@V?$allocator@U?$pair@QEAUID3D11DeviceContext@@V?$weak_ptr@UContextResources@Impl@SpriteBatch@DirectX@@@std@@@std@@@3@$0A@@std@@@std@@QEAA?AV?$_Tree_iterator@V?$_Tree_val@U?$_Tree_simple_types@U?$pair@QEAUID3D11DeviceContext@@V?$weak_ptr@UContextResources@Impl@SpriteBatch@DirectX@@@std@@@std@@@std@@@std@@@2@V?$_Tree_const_iterator@V?$_Tree_val@U?$_Tree_simple_types@U?$pair@QEAUID3D11DeviceContext@@V?$weak_ptr@UContextResources@Impl@SpriteBatch@DirectX@@@std@@@std@@@std@@@std@@@2@0@Z 00000001400257b0 f i DirectXTK:SpriteBatch.obj
 0001:000247b0       ?erase@?$_Tree@V?$_Tmap_traits@PEAUID3D11Device@@V?$weak_ptr@UDeviceResources@Impl@SpriteBatch@DirectX@@@std@@U?$less@PEAUID3D11Device@@@3@V?$allocator@U?$pair@QEAUID3D11Device@@V?$weak_ptr@UDeviceResources@Impl@SpriteBatch@DirectX@@@std@@@std@@@3@$0A@@std@@@std@@QEAA?AV?$_Tree_iterator@V?$_Tree_val@U?$_Tree_simple_types@U?$pair@QEAUID3D11Device@@V?$weak_ptr@UDeviceResources@Impl@SpriteBatch@DirectX@@@std@@@std@@@std@@@std@@@2@V?$_Tree_const_iterator@V?$_Tree_val@U?$_Tree_simple_types@U?$pair@QEAUID3D11Device@@V?$weak_ptr@UDeviceResources@Impl@SpriteBatch@DirectX@@@std@@@std@@@std@@@std@@@2@0@Z 00000001400257b0 f i DirectXTK:SpriteBatch.obj
 0001:000247b0       ?erase@?$_Tree@V?$_Tmap_traits@PEAUID3D11Device@@V?$weak_ptr@VImpl@CommonStates@DirectX@@@std@@U?$less@PEAUID3D11Device@@@3@V?$allocator@U?$pair@QEAUID3D11Device@@V?$weak_ptr@VImpl@CommonStates@DirectX@@@std@@@std@@@3@$0A@@std@@@std@@QEAA?AV?$_Tree_iterator@V?$_Tree_val@U?$_Tree_simple_types@U?$pair@QEAUID3D11Device@@V?$weak_ptr@VImpl@CommonStates@DirectX@@@std@@@std@@@std@@@std@@@2@V?$_Tree_const_iterator@V?$_Tree_val@U?$_Tree_simple_types@U?$pair@QEAUID3D11Device@@V?$weak_ptr@VImpl@CommonStates@DirectX@@@std@@@std@@@std@@@std@@@2@0@Z 00000001400257b0 f i DirectXTK:CommonStates.obj
 0001:00024930       ?erase@?$_Tree@V?$_Tmap_traits@PEAUID3D11DeviceContext@@V?$weak_ptr@UContextResources@Impl@SpriteBatch@DirectX@@@std@@U?$less@PEAUID3D11DeviceContext@@@3@V?$allocator@U?$pair@QEAUID3D11DeviceContext@@V?$weak_ptr@UContextResources@Impl@SpriteBatch@DirectX@@@std@@@std@@@3@$0A@@std@@@std@@QEAA?AV?$_Tree_iterator@V?$_Tree_val@U?$_Tree_simple_types@U?$pair@QEAUID3D11DeviceContext@@V?$weak_ptr@UContextResources@Impl@SpriteBatch@DirectX@@@std@@@std@@@std@@@std@@@2@V?$_Tree_const_iterator@V?$_Tree_val@U?$_Tree_simple_types@U?$pair@QEAUID3D11DeviceContext@@V?$weak_ptr@UContextResources@Impl@SpriteBatch@DirectX@@@std@@@std@@@std@@@std@@@2@@Z 0000000140025930 f i DirectXTK:SpriteBatch.obj
 0001:00024930       ?erase@?$_Tree@V?$_Tmap_traits@PEAUID3D11Device@@V?$weak_ptr@VImpl@CommonStates@DirectX@@@std@@U?$less@PEAUID3D11Device@@@3@V?$allocator@U?$pair@QEAUID3D11Device@@V?$weak_ptr@VImpl@CommonStates@DirectX@@@std@@@std@@@3@$0A@@std@@@std@@QEAA?AV?$_Tree_iterator@V?$_Tree_val@U?$_Tree_simple_types@U?$pair@QEAUID3D11Device@@V?$weak_ptr@VImpl@CommonStates@DirectX@@@std@@@std@@@std@@@std@@@2@V?$_Tree_const_iterator@V?$_Tree_val@U?$_Tree_simple_types@U?$pair@QEAUID3D11Device@@V?$weak_ptr@VImpl@CommonStates@DirectX@@@std@@@std@@@std@@@std@@@2@@Z 0000000140025930 f i DirectXTK:CommonStates.obj
 0001:00024930       ?erase@?$_Tree@V?$_Tmap_traits@PEAUID3D11Device@@V?$weak_ptr@UDeviceResources@Impl@SpriteBatch@DirectX@@@std@@U?$less@PEAUID3D11Device@@@3@V?$allocator@U?$pair@QEAUID3D11Device@@V?$weak_ptr@UDeviceResources@Impl@SpriteBatch@DirectX@@@std@@@std@@@3@$0A@@std@@@std@@QEAA?AV?$_Tree_iterator@V?$_Tree_val@U?$_Tree_simple_types@U?$pair@QEAUID3D11Device@@V?$weak_ptr@UDeviceResources@Impl@SpriteBatch@DirectX@@@std@@@std@@@std@@@std@@@2@V?$_Tree_const_iterator@V?$_Tree_val@U?$_Tree_simple_types@U?$pair@QEAUID3D11Device@@V?$weak_ptr@UDeviceResources@Impl@SpriteBatch@DirectX@@@std@@@std@@@std@@@std@@@2@@Z 0000000140025930 f i DirectXTK:SpriteBatch.obj
 0001:000249e0       ?what@com_exception@DirectX@@UEBAPEBDXZ 00000001400259e0 f i DirectXTK:SpriteBatch.obj
 0001:00024a10       __local_stdio_printf_options 0000000140025a10 f i DirectXTK:SpriteBatch.obj
 0001:00024c10       ??$Read@I@BinaryReader@DirectX@@QEAAAEBIXZ 0000000140025c10 f i DirectXTK:SpriteFont.obj
 0001:00024c80       ??0Impl@SpriteFont@DirectX@@QEAA@PEAUID3D11Device@@PEAVBinaryReader@2@_N@Z 0000000140025c80 f   DirectXTK:SpriteFont.obj
 0001:00025270       ??0SpriteFont@DirectX@@QEAA@PEAUID3D11Device@@PEB_W_N@Z 0000000140026270 f   DirectXTK:SpriteFont.obj
 0001:00025380       ??0overflow_error@std@@QEAA@AEBV01@@Z 0000000140026380 f i DirectXTK:SpriteFont.obj
 0001:000253c0       ??0overflow_error@std@@QEAA@PEBD@Z 00000001400263c0 f i DirectXTK:SpriteFont.obj
 0001:00025430       ??0runtime_error@std@@QEAA@AEBV01@@Z 0000000140026430 f i DirectXTK:SpriteFont.obj
 0001:00025470       ??1?$unique_ptr@VImpl@SpriteFont@DirectX@@U?$default_delete@VImpl@SpriteFont@DirectX@@@std@@@std@@QEAA@XZ 0000000140026470 f i DirectXTK:SpriteFont.obj
 0001:00025480       ??1?$vector@UGlyph@SpriteFont@DirectX@@V?$allocator@UGlyph@SpriteFont@DirectX@@@std@@@std@@QEAA@XZ 0000000140026480 f i DirectXTK:SpriteFont.obj
 0001:000254e0       ??1BinaryReader@DirectX@@QEAA@XZ 00000001400264e0 f i DirectXTK:SpriteFont.obj
 0001:000254f0       ??R?$default_delete@VImpl@SpriteFont@DirectX@@@std@@QEBAXPEAVImpl@SpriteFont@DirectX@@@Z 00000001400264f0 f i DirectXTK:SpriteFont.obj
 0001:000255a0       ??_GSpriteFont@DirectX@@UEAAPEAXI@Z 00000001400265a0 f i DirectXTK:SpriteFont.obj
 0001:000255a0       ??_ESpriteFont@DirectX@@UEAAPEAXI@Z 00000001400265a0 f i DirectXTK:SpriteFont.obj
 0001:000255f0       ?ConvertUTF8@Impl@SpriteFont@DirectX@@QEAAPEB_WPEBD@Z 00000001400265f0 f   DirectXTK:SpriteFont.obj
 0001:00025740       ?DrawString@SpriteFont@DirectX@@QEBQXPEAVSpriteBatch@2@PEBDAEBUXMFLOAT2@2@T__m128@@M2MW4SpriteEffects@2@M@Z 0000000140026740 f   DirectXTK:SpriteFont.obj
 0001:000258c0       ?FindGlyph@Impl@SpriteFont@DirectX@@QEBAPEBUGlyph@23@_W@Z 00000001400268c0 f   DirectXTK:SpriteFont.obj
 0001:00025960       ?MeasureString@SpriteFont@DirectX@@QEBQ?AT__m128@@PEB_W@Z 0000000140026960 f   DirectXTK:SpriteFont.obj
 0001:00025ae0       ?_Buy@?$vector@UGlyph@SpriteFont@DirectX@@V?$allocator@UGlyph@SpriteFont@DirectX@@@std@@@std@@AEAA_N_K@Z 0000000140026ae0 f i DirectXTK:SpriteFont.obj
 0001:00025b90       ?BitsPerPixel@LoaderHelpers@DirectX@@YA_KW4DXGI_FORMAT@@@Z 0000000140026b90 f i DirectXTK:DDSTextureLoader.obj
 0001:000260b0       ?CreateDDSTextureFromFile@DirectX@@YAJPEAUID3D11Device@@PEB_WPEAPEAUID3D11Resource@@PEAPEAUID3D11ShaderResourceView@@_KPEAW4DDS_ALPHA_MODE@1@@Z 00000001400270b0 f   DirectXTK:DDSTextureLoader.obj
 0001:00026e90       ?GetAlphaMode@LoaderHelpers@DirectX@@YA?AW4DDS_ALPHA_MODE@2@PEBUDDS_HEADER@2@@Z 0000000140027e90 f i DirectXTK:DDSTextureLoader.obj
 0001:00026ed0       ?GetDXGIFormat@LoaderHelpers@DirectX@@YA?AW4DXGI_FORMAT@@AEBUDDS_PIXELFORMAT@2@@Z 0000000140027ed0 f i DirectXTK:DDSTextureLoader.obj
 0001:000273b0       ?GetSurfaceInfo@LoaderHelpers@DirectX@@YAJ_K0W4DXGI_FORMAT@@PEA_K22@Z 00000001400283b0 f i DirectXTK:DDSTextureLoader.obj
 0001:000275a0       ?LoadTextureDataFromFile@LoaderHelpers@DirectX@@YAJPEB_WAEAV?$unique_ptr@$$BY0A@EU?$default_delete@$$BY0A@E@std@@@std@@PEAPEBUDDS_HEADER@2@PEAPEBEPEA_K@Z 00000001400285a0 f i DirectXTK:DDSTextureLoader.obj
 0001:00027770       ??0CommonStates@DirectX@@QEAA@PEAUID3D11Device@@@Z 0000000140028770 f   DirectXTK:CommonStates.obj
 0001:000277a0       ??1CommonStates@DirectX@@UEAA@XZ 00000001400287a0 f   DirectXTK:CommonStates.obj
 0001:00027800       ??1Impl@CommonStates@DirectX@@QEAA@XZ 0000000140028800 f i DirectXTK:CommonStates.obj
 0001:000279b0       ??_G?$_Ref_count_obj@UWrappedData@?$SharedResourcePool@PEAUID3D11Device@@VImpl@CommonStates@DirectX@@$$V@DirectX@@@std@@UEAAPEAXI@Z 00000001400289b0 f i DirectXTK:CommonStates.obj
 0001:000279b0       ??_E?$_Ref_count_obj@UWrappedData@?$SharedResourcePool@PEAUID3D11Device@@VImpl@CommonStates@DirectX@@$$V@DirectX@@@std@@UEAAPEAXI@Z 00000001400289b0 f i DirectXTK:CommonStates.obj
 0001:000279e0       ??_GCommonStates@DirectX@@UEAAPEAXI@Z 00000001400289e0 f i DirectXTK:CommonStates.obj
 0001:000279e0       ??_ECommonStates@DirectX@@UEAAPEAXI@Z 00000001400289e0 f i DirectXTK:CommonStates.obj
 0001:00027a70       ?AlphaBlend@CommonStates@DirectX@@QEBAPEAUID3D11BlendState@@XZ 0000000140028a70 f   DirectXTK:CommonStates.obj
 0001:00027bf0       ?CullCounterClockwise@CommonStates@DirectX@@QEBAPEAUID3D11RasterizerState@@XZ 0000000140028bf0 f   DirectXTK:CommonStates.obj
 0001:00027d40       ?DemandCreate@?$SharedResourcePool@PEAUID3D11Device@@VImpl@CommonStates@DirectX@@$$V@DirectX@@QEAA?AV?$shared_ptr@VImpl@CommonStates@DirectX@@@std@@PEAUID3D11Device@@@Z 0000000140028d40 f i DirectXTK:CommonStates.obj
 0001:00028050       ?DepthNone@CommonStates@DirectX@@QEBAPEAUID3D11DepthStencilState@@XZ 0000000140029050 f   DirectXTK:CommonStates.obj
 0001:000281b0       ?LinearClamp@CommonStates@DirectX@@QEBAPEAUID3D11SamplerState@@XZ 00000001400291b0 f   DirectXTK:CommonStates.obj
 0001:00028330       ?_Destroy@?$_Ref_count_obj@UWrappedData@?$SharedResourcePool@PEAUID3D11Device@@VImpl@CommonStates@DirectX@@$$V@DirectX@@@std@@EEAAXXZ 0000000140029330 f i DirectXTK:CommonStates.obj
 0001:00028440       ??0BinaryReader@DirectX@@QEAA@PEB_W@Z 0000000140029440 f   DirectXTK:BinaryReader.obj
 0001:000284f0       ??1?$unique_ptr@XUhandle_closer@DirectX@@@std@@QEAA@XZ 00000001400294f0 f i DirectXTK:BinaryReader.obj
 0001:00028500       ?DebugTrace@DirectX@@YAXPEBDZZ 0000000140029500 f i DirectXTK:BinaryReader.obj
 0001:00028510       ?ReadEntireFile@BinaryReader@DirectX@@SAJPEB_WAEAV?$unique_ptr@$$BY0A@EU?$default_delete@$$BY0A@E@std@@@std@@PEA_K@Z 0000000140029510 f   DirectXTK:BinaryReader.obj
 0001:00028638       ??1_Fac_tidy_reg_t@std@@QEAA@XZ 0000000140029638 f i msvcprt:locale0_implib.obj
 0001:000286a0       ?_Facet_Register@std@@YAXPEAV_Facet_base@1@@Z 00000001400296a0 f   msvcprt:locale0_implib.obj
 0001:000286d8       ?_Xlength_error@std@@YAXPEBD@Z 00000001400296d8 f   msvcprt:MSVCP140.dll
 0001:000286de       ?showmanyc@?$basic_streambuf@DU?$char_traits@D@std@@@std@@MEAA_JXZ 00000001400296de f   msvcprt:MSVCP140.dll
 0001:000286e4       _Mtx_init_in_situ          00000001400296e4 f   msvcprt:MSVCP140.dll
 0001:000286ea       _Mtx_destroy_in_situ       00000001400296ea f   msvcprt:MSVCP140.dll
 0001:000286f0       _Mtx_lock                  00000001400296f0 f   msvcprt:MSVCP140.dll
 0001:000286f6       _Mtx_unlock                00000001400296f6 f   msvcprt:MSVCP140.dll
 0001:000286fc       ?_Throw_C_error@std@@YAXH@Z 00000001400296fc f   msvcprt:MSVCP140.dll
 0001:00028720       __security_check_cookie    0000000140029720 f   MSVCRT:amdsecgs.obj
 0001:00028744       ??2@YAPEAX_K@Z             0000000140029744 f   MSVCRT:new_scalar.obj
 0001:00028780       ??3@YAXPEAX_K@Z            0000000140029780 f   MSVCRT:delete_scalar_size.obj
 0001:00028780       ??_V@YAXPEAX@Z             0000000140029780 f   MSVCRT:delete_array.obj
 0001:00028788       ??_Etype_info@@UEAAPEAXI@Z 0000000140029788 f i MSVCRT:std_type_info_static.obj
 0001:00028788       ??_Gtype_info@@UEAAPEAXI@Z 0000000140029788 f i MSVCRT:std_type_info_static.obj
 0001:000287b4       ??_U@YAPEAX_K@Z            00000001400297b4 f   MSVCRT:new_array.obj
 0001:00028944       _Init_thread_footer        0000000140029944 f   MSVCRT:thread_safe_statics.obj
 0001:000289a4       _Init_thread_header        00000001400299a4 f   MSVCRT:thread_safe_statics.obj
 0001:00028a0c       _Init_thread_notify        0000000140029a0c f   MSVCRT:thread_safe_statics.obj
 0001:00028a5c       _Init_thread_wait          0000000140029a5c f   MSVCRT:thread_safe_statics.obj
 0001:00028ad4       ??_U@YAPEAX_KAEBUnothrow_t@std@@@Z 0000000140029ad4 f   MSVCRT:new_array_nothrow.obj
 0001:00028d34       WinMainCRTStartup          0000000140029d34 f   MSVCRT:exe_winmain.obj
 0001:00028d48       __scrt_acquire_startup_lock 0000000140029d48 f   MSVCRT:utility.obj
 0001:00028d84       __scrt_initialize_crt      0000000140029d84 f   MSVCRT:utility.obj
 0001:00028dd0       __scrt_initialize_onexit_tables 0000000140029dd0 f   MSVCRT:utility.obj
 0001:00028ea8       __scrt_is_nonwritable_in_current_image 0000000140029ea8 f   MSVCRT:utility.obj
 0001:00028f44       __scrt_release_startup_lock 0000000140029f44 f   MSVCRT:utility.obj
 0001:00028f68       __scrt_uninitialize_crt    0000000140029f68 f   MSVCRT:utility.obj
 0001:00028f94       _onexit                    0000000140029f94 f   MSVCRT:utility.obj
 0001:00028fe4       atexit                     0000000140029fe4 f   MSVCRT:utility.obj
 0001:00028ffc       __GSHandlerCheck           0000000140029ffc f   MSVCRT:gshandler.obj
 0001:0002901c       __GSHandlerCheckCommon     000000014002a01c f   MSVCRT:gshandler.obj
 0001:00029078       __GSHandlerCheck_EH        000000014002a078 f   MSVCRT:gshandlereh.obj
 0001:000290f8       __raise_securityfailure    000000014002a0f8 f   MSVCRT:gs_report.obj
 0001:0002912c       __report_gsfailure         000000014002a12c f   MSVCRT:gs_report.obj
 0001:00029274       ??0bad_array_new_length@std@@QEAA@AEBV01@@Z 000000014002a274 f i MSVCRT:throw_bad_alloc.obj
 0001:000292b4       ??0bad_array_new_length@std@@QEAA@XZ 000000014002a2b4 f i MSVCRT:throw_bad_alloc.obj
 0001:000292d4       ?__scrt_throw_std_bad_alloc@@YAXXZ 000000014002a2d4 f   MSVCRT:throw_bad_alloc.obj
 0001:000292f4       ?__scrt_throw_std_bad_array_new_length@@YAXXZ 000000014002a2f4 f   MSVCRT:throw_bad_alloc.obj
 0001:00029314       ??3@YAXPEAX@Z              000000014002a314 f   MSVCRT:delete_scalar.obj
 0001:0002931c       __crt_debugger_hook        000000014002a31c f   MSVCRT:utility_desktop.obj
 0001:00029324       __scrt_fastfail            000000014002a324 f   MSVCRT:utility_desktop.obj
 0001:00029470       __scrt_get_show_window_mode 000000014002a470 f   MSVCRT:utility_desktop.obj
 0001:000294ac       __scrt_initialize_mta      000000014002a4ac f   MSVCRT:utility_desktop.obj
 0001:000294b4       __scrt_is_managed_app      000000014002a4b4 f   MSVCRT:utility_desktop.obj
 0001:00029508       __scrt_set_unhandled_exception_filter 000000014002a508 f   MSVCRT:utility_desktop.obj
 0001:00029518       __scrt_unhandled_exception_filter 000000014002a518 f   MSVCRT:utility_desktop.obj
 0001:00029550       ??2@YAPEAX_KAEBUnothrow_t@std@@@Z 000000014002a550 f   MSVCRT:new_scalar_nothrow.obj
 0001:00029570       __security_init_cookie     000000014002a570 f   MSVCRT:gs_support.obj
 0001:0002961c       _get_startup_argv_mode     000000014002a61c f   MSVCRT:argv_mode.obj
 0001:00029624       _get_startup_file_mode     000000014002a624 f   MSVCRT:file_mode.obj
 0001:0002962c       ?__scrt_initialize_type_info@@YAXXZ 000000014002a62c f   MSVCRT:tncleanup.obj
 0001:0002963c       __local_stdio_scanf_options 000000014002a63c f i MSVCRT:default_local_stdio_options.obj
 0001:00029644       __scrt_initialize_default_local_stdio_options 000000014002a644 f   MSVCRT:default_local_stdio_options.obj
 0001:00029660       __scrt_is_user_matherr_present 000000014002a660 f   MSVCRT:matherr_detection.obj
 0001:0002966c       __scrt_get_dyn_tls_init_callback 000000014002a66c f   MSVCRT:dyn_tls_init.obj
 0001:00029674       __scrt_get_dyn_tls_dtor_callback 000000014002a674 f   MSVCRT:dyn_tls_dtor.obj
 0001:0002967c       _RTC_Initialize            000000014002a67c f   MSVCRT:initsect.obj
 0001:000296b8       _RTC_Terminate             000000014002a6b8 f   MSVCRT:initsect.obj
 0001:000296f4       __isa_available_init       000000014002a6f4 f   MSVCRT:cpu_disp.obj
 0001:000298b0       __scrt_is_ucrt_dll_in_use  000000014002a8b0 f   MSVCRT:ucrt_detection.obj
 0001:000298c0       __CxxFrameHandler3         000000014002a8c0 f   vcruntime:VCRUNTIME140.dll
 0001:000298c6       __std_exception_destroy    000000014002a8c6 f   vcruntime:VCRUNTIME140.dll
 0001:000298cc       __std_exception_copy       000000014002a8cc f   vcruntime:VCRUNTIME140.dll
 0001:000298d2       __std_terminate            000000014002a8d2 f   vcruntime:VCRUNTIME140.dll
 0001:000298d8       _CxxThrowException         000000014002a8d8 f   vcruntime:VCRUNTIME140.dll
 0001:000298de       memmove                    000000014002a8de f   vcruntime:VCRUNTIME140.dll
 0001:000298e4       memset                     000000014002a8e4 f   vcruntime:VCRUNTIME140.dll
 0001:000298ea       __C_specific_handler       000000014002a8ea f   vcruntime:VCRUNTIME140.dll
 0001:000298f0       _callnewh                  000000014002a8f0 f   ucrt:api-ms-win-crt-heap-l1-1-0.dll
 0001:000298f6       malloc                     000000014002a8f6 f   ucrt:api-ms-win-crt-heap-l1-1-0.dll
 0001:000298fc       _seh_filter_exe            000000014002a8fc f   ucrt:api-ms-win-crt-runtime-l1-1-0.dll
 0001:00029902       _set_app_type              000000014002a902 f   ucrt:api-ms-win-crt-runtime-l1-1-0.dll
 0001:00029908       __setusermatherr           000000014002a908 f   ucrt:api-ms-win-crt-math-l1-1-0.dll
 0001:0002990e       _configure_narrow_argv     000000014002a90e f   ucrt:api-ms-win-crt-runtime-l1-1-0.dll
 0001:00029914       _initialize_narrow_environment 000000014002a914 f   ucrt:api-ms-win-crt-runtime-l1-1-0.dll
 0001:0002991a       _get_narrow_winmain_command_line 000000014002a91a f   ucrt:api-ms-win-crt-runtime-l1-1-0.dll
 0001:00029920       _initterm                  000000014002a920 f   ucrt:api-ms-win-crt-runtime-l1-1-0.dll
 0001:00029926       _initterm_e                000000014002a926 f   ucrt:api-ms-win-crt-runtime-l1-1-0.dll
 0001:0002992c       exit                       000000014002a92c f   ucrt:api-ms-win-crt-runtime-l1-1-0.dll
 0001:00029932       _exit                      000000014002a932 f   ucrt:api-ms-win-crt-runtime-l1-1-0.dll
 0001:00029938       _set_fmode                 000000014002a938 f   ucrt:api-ms-win-crt-stdio-l1-1-0.dll
 0001:0002993e       _cexit                     000000014002a93e f   ucrt:api-ms-win-crt-runtime-l1-1-0.dll
 0001:00029944       _c_exit                    000000014002a944 f   ucrt:api-ms-win-crt-runtime-l1-1-0.dll
 0001:0002994a       _register_thread_local_exe_atexit_callback 000000014002a94a f   ucrt:api-ms-win-crt-runtime-l1-1-0.dll
 0001:00029950       _configthreadlocale        000000014002a950 f   ucrt:api-ms-win-crt-locale-l1-1-0.dll
 0001:00029956       _set_new_mode              000000014002a956 f   ucrt:api-ms-win-crt-heap-l1-1-0.dll
 0001:0002995c       __p__commode               000000014002a95c f   ucrt:api-ms-win-crt-stdio-l1-1-0.dll
 0001:00029962       _initialize_onexit_table   000000014002a962 f   ucrt:api-ms-win-crt-runtime-l1-1-0.dll
 0001:00029968       _register_onexit_function  000000014002a968 f   ucrt:api-ms-win-crt-runtime-l1-1-0.dll
 0001:0002996e       _crt_atexit                000000014002a96e f   ucrt:api-ms-win-crt-runtime-l1-1-0.dll
 0001:00029974       terminate                  000000014002a974 f   ucrt:api-ms-win-crt-runtime-l1-1-0.dll
 0001:0002997a       free                       000000014002a97a f   ucrt:api-ms-win-crt-heap-l1-1-0.dll
 0001:00029980       IsProcessorFeaturePresent  000000014002a980 f   kernel32:KERNEL32.dll
 0001:00029986       __RTDynamicCast            000000014002a986 f   vcruntime:VCRUNTIME140.dll
 0001:0002998c       memcmp                     000000014002a98c f   vcruntime:VCRUNTIME140.dll
 0001:00029992       memcpy                     000000014002a992 f   vcruntime:VCRUNTIME140.dll
 0001:00029998       cosf                       000000014002a998 f   ucrt:api-ms-win-crt-math-l1-1-0.dll
 0001:0002999e       powf                       000000014002a99e f   ucrt:api-ms-win-crt-math-l1-1-0.dll
 0001:000299a4       sin                        000000014002a9a4 f   ucrt:api-ms-win-crt-math-l1-1-0.dll
 0001:000299aa       sinf                       000000014002a9aa f   ucrt:api-ms-win-crt-math-l1-1-0.dll
 0001:000299b0       sqrtf                      000000014002a9b0 f   ucrt:api-ms-win-crt-math-l1-1-0.dll
 0001:000299d0       _guard_dispatch_icall_nop  000000014002a9d0 f   MSVCRT:guard_dispatch.obj
 0002:00000000       __imp_D3DCompileFromFile   000000014002c000     D3DCompiler:D3DCOMPILER_47.dll
 0002:00000008       \177D3DCOMPILER_47_NULL_THUNK_DATA 000000014002c008     D3DCompiler:D3DCOMPILER_47.dll
 0002:00000010       __imp_DirectInput8Create   000000014002c010     dinput8:DINPUT8.dll
 0002:00000018       \177DINPUT8_NULL_THUNK_DATA 000000014002c018     dinput8:DINPUT8.dll
 0002:00000020       __imp_DirectSoundCreate8   000000014002c020     dsound:DSOUND.dll
 0002:00000028       \177DSOUND_NULL_THUNK_DATA 000000014002c028     dsound:DSOUND.dll
 0002:00000030       __imp_GetStockObject       000000014002c030     gdi32:GDI32.dll
 0002:00000038       \177GDI32_NULL_THUNK_DATA  000000014002c038     gdi32:GDI32.dll
 0002:00000040       __imp_InitOnceExecuteOnce  000000014002c040     kernel32:KERNEL32.dll
 0002:00000048       __imp_QueryPerformanceFrequency 000000014002c048     kernel32:KERNEL32.dll
 0002:00000050       __imp_QueryPerformanceCounter 000000014002c050     kernel32:KERNEL32.dll
 0002:00000058       __imp_InitializeSListHead  000000014002c058     kernel32:KERNEL32.dll
 0002:00000060       __imp_GetSystemTimeAsFileTime 000000014002c060     kernel32:KERNEL32.dll
 0002:00000068       __imp_GetStartupInfoW      000000014002c068     kernel32:KERNEL32.dll
 0002:00000070       __imp_IsDebuggerPresent    000000014002c070     kernel32:KERNEL32.dll
 0002:00000078       __imp_IsProcessorFeaturePresent 000000014002c078     kernel32:KERNEL32.dll
 0002:00000080       __imp_TerminateProcess     000000014002c080     kernel32:KERNEL32.dll
 0002:00000088       __imp_UnhandledExceptionFilter 000000014002c088     kernel32:KERNEL32.dll
 0002:00000090       __imp_SetUnhandledExceptionFilter 000000014002c090     kernel32:KERNEL32.dll
 0002:00000098       __imp_RtlLookupFunctionEntry 000000014002c098     kernel32:KERNEL32.dll
 0002:000000a0       __imp_RtlCaptureContext    000000014002c0a0     kernel32:KERNEL32.dll
 0002:000000a8       __imp_GetCurrentThreadId   000000014002c0a8     kernel32:KERNEL32.dll
 0002:000000b0       __imp_CreateEventW         000000014002c0b0     kernel32:KERNEL32.dll
 0002:000000b8       __imp_WaitForSingleObjectEx 000000014002c0b8     kernel32:KERNEL32.dll
 0002:000000c0       __imp_ResetEvent           000000014002c0c0     kernel32:KERNEL32.dll
 0002:000000c8       __imp_SetEvent             000000014002c0c8     kernel32:KERNEL32.dll
 0002:000000d0       __imp_DeleteCriticalSection 000000014002c0d0     kernel32:KERNEL32.dll
 0002:000000d8       __imp_InitializeCriticalSectionAndSpinCount 000000014002c0d8     kernel32:KERNEL32.dll
 0002:000000e0       __imp_LeaveCriticalSection 000000014002c0e0     kernel32:KERNEL32.dll
 0002:000000e8       __imp_EnterCriticalSection 000000014002c0e8     kernel32:KERNEL32.dll
 0002:000000f0       __imp_GetFileInformationByHandleEx 000000014002c0f0     kernel32:KERNEL32.dll
 0002:000000f8       __imp_GetCurrentProcessId  000000014002c0f8     kernel32:KERNEL32.dll
 0002:00000100       __imp_RtlVirtualUnwind     000000014002c100     kernel32:KERNEL32.dll
 0002:00000108       __imp_CreateFile2          000000014002c108     kernel32:KERNEL32.dll
 0002:00000110       __imp_ReadFile             000000014002c110     kernel32:KERNEL32.dll
 0002:00000118       __imp_MultiByteToWideChar  000000014002c118     kernel32:KERNEL32.dll
 0002:00000120       __imp_GetLastError         000000014002c120     kernel32:KERNEL32.dll
 0002:00000128       __imp_GetModuleHandleW     000000014002c128     kernel32:KERNEL32.dll
 0002:00000130       __imp_GetTickCount         000000014002c130     kernel32:KERNEL32.dll
 0002:00000138       __imp_CloseHandle          000000014002c138     kernel32:KERNEL32.dll
 0002:00000140       __imp_GetCurrentProcess    000000014002c140     kernel32:KERNEL32.dll
 0002:00000148       __imp_CreateFileW          000000014002c148     kernel32:KERNEL32.dll
 0002:00000150       __imp_GetProcAddress       000000014002c150     kernel32:KERNEL32.dll
 0002:00000158       \177KERNEL32_NULL_THUNK_DATA 000000014002c158     kernel32:KERNEL32.dll
 0002:00000160       __imp_??0?$basic_streambuf@DU?$char_traits@D@std@@@std@@IEAA@XZ 000000014002c160     msvcprt:MSVCP140.dll
 0002:00000168       __imp_?getloc@?$basic_streambuf@DU?$char_traits@D@std@@@std@@QEBA?AVlocale@2@XZ 000000014002c168     msvcprt:MSVCP140.dll
 0002:00000170       __imp_?_Init@?$basic_streambuf@DU?$char_traits@D@std@@@std@@IEAAXXZ 000000014002c170     msvcprt:MSVCP140.dll
 0002:00000178       __imp_?unshift@?$codecvt@DDU_Mbstatet@@@std@@QEBAHAEAU_Mbstatet@@PEAD1AEAPEAD@Z 000000014002c178     msvcprt:MSVCP140.dll
 0002:00000180       __imp_?setstate@?$basic_ios@DU?$char_traits@D@std@@@std@@QEAAXH_N@Z 000000014002c180     msvcprt:MSVCP140.dll
 0002:00000188       __imp_??0?$basic_ios@DU?$char_traits@D@std@@@std@@IEAA@XZ 000000014002c188     msvcprt:MSVCP140.dll
 0002:00000190       __imp_?_Pninc@?$basic_streambuf@DU?$char_traits@D@std@@@std@@IEAAPEADXZ 000000014002c190     msvcprt:MSVCP140.dll
 0002:00000198       __imp_??0?$basic_iostream@DU?$char_traits@D@std@@@std@@QEAA@PEAV?$basic_streambuf@DU?$char_traits@D@std@@@1@@Z 000000014002c198     msvcprt:MSVCP140.dll
 0002:000001a0       __imp_?in@?$codecvt@DDU_Mbstatet@@@std@@QEBAHAEAU_Mbstatet@@PEBD1AEAPEBDPEAD3AEAPEAD@Z 000000014002c1a0     msvcprt:MSVCP140.dll
 0002:000001a8       __imp_?out@?$codecvt@DDU_Mbstatet@@@std@@QEBAHAEAU_Mbstatet@@PEBD1AEAPEBDPEAD3AEAPEAD@Z 000000014002c1a8     msvcprt:MSVCP140.dll
 0002:000001b0       __imp_??1?$basic_ios@DU?$char_traits@D@std@@@std@@UEAA@XZ 000000014002c1b0     msvcprt:MSVCP140.dll
 0002:000001b8       __imp_??1?$basic_streambuf@DU?$char_traits@D@std@@@std@@UEAA@XZ 000000014002c1b8     msvcprt:MSVCP140.dll
 0002:000001c0       __imp_?showmanyc@?$basic_streambuf@DU?$char_traits@D@std@@@std@@MEAA_JXZ 000000014002c1c0     msvcprt:MSVCP140.dll
 0002:000001c8       __imp_?xsgetn@?$basic_streambuf@DU?$char_traits@D@std@@@std@@MEAA_JPEAD_J@Z 000000014002c1c8     msvcprt:MSVCP140.dll
 0002:000001d0       __imp_?xsputn@?$basic_streambuf@DU?$char_traits@D@std@@@std@@MEAA_JPEBD_J@Z 000000014002c1d0     msvcprt:MSVCP140.dll
 0002:000001d8       __imp_?read@?$basic_istream@DU?$char_traits@D@std@@@std@@QEAAAEAV12@PEAD_J@Z 000000014002c1d8     msvcprt:MSVCP140.dll
 0002:000001e0       __imp_??1?$basic_iostream@DU?$char_traits@D@std@@@std@@UEAA@XZ 000000014002c1e0     msvcprt:MSVCP140.dll
 0002:000001e8       __imp_?always_noconv@codecvt_base@std@@QEBA_NXZ 000000014002c1e8     msvcprt:MSVCP140.dll
 0002:000001f0       __imp_??Bid@locale@std@@QEAA_KXZ 000000014002c1f0     msvcprt:MSVCP140.dll
 0002:000001f8       __imp_?cout@std@@3V?$basic_ostream@DU?$char_traits@D@std@@@1@A 000000014002c1f8     msvcprt:MSVCP140.dll
 0002:00000200       __imp_??6?$basic_ostream@DU?$char_traits@D@std@@@std@@QEAAAEAV01@I@Z 000000014002c200     msvcprt:MSVCP140.dll
 0002:00000208       __imp_?uncaught_exception@std@@YA_NXZ 000000014002c208     msvcprt:MSVCP140.dll
 0002:00000210       __imp_?_Osfx@?$basic_ostream@DU?$char_traits@D@std@@@std@@QEAAXXZ 000000014002c210     msvcprt:MSVCP140.dll
 0002:00000218       __imp_?flush@?$basic_ostream@DU?$char_traits@D@std@@@std@@QEAAAEAV12@XZ 000000014002c218     msvcprt:MSVCP140.dll
 0002:00000220       __imp_?sputc@?$basic_streambuf@DU?$char_traits@D@std@@@std@@QEAAHD@Z 000000014002c220     msvcprt:MSVCP140.dll
 0002:00000228       __imp_?clear@?$basic_ios@DU?$char_traits@D@std@@@std@@QEAAXH_N@Z 000000014002c228     msvcprt:MSVCP140.dll
 0002:00000230       __imp_??0?$basic_ostream@DU?$char_traits@D@std@@@std@@QEAA@PEAV?$basic_streambuf@DU?$char_traits@D@std@@@1@_N@Z 000000014002c230     msvcprt:MSVCP140.dll
 0002:00000238       __imp_??1?$basic_ostream@DU?$char_traits@D@std@@@std@@UEAA@XZ 000000014002c238     msvcprt:MSVCP140.dll
 0002:00000240       __imp__Mtx_init_in_situ    000000014002c240     msvcprt:MSVCP140.dll
 0002:00000248       __imp__Mtx_destroy_in_situ 000000014002c248     msvcprt:MSVCP140.dll
 0002:00000250       __imp__Mtx_lock            000000014002c250     msvcprt:MSVCP140.dll
 0002:00000258       __imp__Mtx_unlock          000000014002c258     msvcprt:MSVCP140.dll
 0002:00000260       __imp_?_Throw_C_error@std@@YAXH@Z 000000014002c260     msvcprt:MSVCP140.dll
 0002:00000268       __imp_?id@?$codecvt@DDU_Mbstatet@@@std@@2V0locale@2@A 000000014002c268     msvcprt:MSVCP140.dll
 0002:00000270       __imp_??1_Lockit@std@@QEAA@XZ 000000014002c270     msvcprt:MSVCP140.dll
 0002:00000278       __imp_?_Getcat@?$codecvt@DDU_Mbstatet@@@std@@SA_KPEAPEBVfacet@locale@2@PEBV42@@Z 000000014002c278     msvcprt:MSVCP140.dll
 0002:00000280       __imp_??0_Lockit@std@@QEAA@H@Z 000000014002c280     msvcprt:MSVCP140.dll
 0002:00000288       __imp_?_Getgloballocale@locale@std@@CAPEAV_Locimp@12@XZ 000000014002c288     msvcprt:MSVCP140.dll
 0002:00000290       __imp_?_Xlength_error@std@@YAXPEBD@Z 000000014002c290     msvcprt:MSVCP140.dll
 0002:00000298       __imp_?_Fiopen@std@@YAPEAU_iobuf@@PEBDHH@Z 000000014002c298     msvcprt:MSVCP140.dll
 0002:000002a0       \177MSVCP140_NULL_THUNK_DATA 000000014002c2a0     msvcprt:MSVCP140.dll
 0002:000002a8       __imp_LoadIconW            000000014002c2a8     user32:USER32.dll
 0002:000002b0       __imp_ShowWindow           000000014002c2b0     user32:USER32.dll
 0002:000002b8       __imp_PtInRect             000000014002c2b8     user32:USER32.dll
 0002:000002c0       __imp_DefWindowProcW       000000014002c2c0     user32:USER32.dll
 0002:000002c8       __imp_DispatchMessageW     000000014002c2c8     user32:USER32.dll
 0002:000002d0       __imp_PeekMessageW         000000014002c2d0     user32:USER32.dll
 0002:000002d8       __imp_SetFocus             000000014002c2d8     user32:USER32.dll
 0002:000002e0       __imp_TranslateMessage     000000014002c2e0     user32:USER32.dll
 0002:000002e8       __imp_UnregisterClassW     000000014002c2e8     user32:USER32.dll
 0002:000002f0       __imp_LoadCursorW          000000014002c2f0     user32:USER32.dll
 0002:000002f8       __imp_PostQuitMessage      000000014002c2f8     user32:USER32.dll
 0002:00000300       __imp_GetSystemMetrics     000000014002c300     user32:USER32.dll
 0002:00000308       __imp_CreateWindowExW      000000014002c308     user32:USER32.dll
 0002:00000310       __imp_SetForegroundWindow  000000014002c310     user32:USER32.dll
 0002:00000318       __imp_ShowCursor           000000014002c318     user32:USER32.dll
 0002:00000320       __imp_RegisterClassExW     000000014002c320     user32:USER32.dll
 0002:00000328       __imp_DestroyWindow        000000014002c328     user32:USER32.dll
 0002:00000330       \177USER32_NULL_THUNK_DATA 000000014002c330     user32:USER32.dll
 0002:00000338       __imp___C_specific_handler 000000014002c338     vcruntime:VCRUNTIME140.dll
 0002:00000340       __imp_memset               000000014002c340     vcruntime:VCRUNTIME140.dll
 0002:00000348       __imp_memmove              000000014002c348     vcruntime:VCRUNTIME140.dll
 0002:00000350       __imp__CxxThrowException   000000014002c350     vcruntime:VCRUNTIME140.dll
 0002:00000358       __imp___std_terminate      000000014002c358     vcruntime:VCRUNTIME140.dll
 0002:00000360       __imp___RTDynamicCast      000000014002c360     vcruntime:VCRUNTIME140.dll
 0002:00000368       __imp___std_exception_copy 000000014002c368     vcruntime:VCRUNTIME140.dll
 0002:00000370       __imp___std_exception_destroy 000000014002c370     vcruntime:VCRUNTIME140.dll
 0002:00000378       __imp___CxxFrameHandler3   000000014002c378     vcruntime:VCRUNTIME140.dll
 0002:00000380       __imp_memcmp               000000014002c380     vcruntime:VCRUNTIME140.dll
 0002:00000388       __imp_memcpy               000000014002c388     vcruntime:VCRUNTIME140.dll
 0002:00000390       \177VCRUNTIME140_NULL_THUNK_DATA 000000014002c390     vcruntime:VCRUNTIME140.dll
 0002:00000398       __imp_timeGetTime          000000014002c398     winmm:WINMM.dll
 0002:000003a0       \177WINMM_NULL_THUNK_DATA  000000014002c3a0     winmm:WINMM.dll
 0002:000003a8       __imp_mbstowcs             000000014002c3a8     ucrt:api-ms-win-crt-convert-l1-1-0.dll
 0002:000003b0       __imp__itoa_s              000000014002c3b0     ucrt:api-ms-win-crt-convert-l1-1-0.dll
 0002:000003b8       __imp_wcstombs_s           000000014002c3b8     ucrt:api-ms-win-crt-convert-l1-1-0.dll
 0002:000003c0       \177api-ms-win-crt-convert-l1-1-0_NULL_THUNK_DATA 000000014002c3c0     ucrt:api-ms-win-crt-convert-l1-1-0.dll
 0002:000003c8       __imp__unlock_file         000000014002c3c8     ucrt:api-ms-win-crt-filesystem-l1-1-0.dll
 0002:000003d0       __imp__lock_file           000000014002c3d0     ucrt:api-ms-win-crt-filesystem-l1-1-0.dll
 0002:000003d8       \177api-ms-win-crt-filesystem-l1-1-0_NULL_THUNK_DATA 000000014002c3d8     ucrt:api-ms-win-crt-filesystem-l1-1-0.dll
 0002:000003e0       __imp_malloc               000000014002c3e0     ucrt:api-ms-win-crt-heap-l1-1-0.dll
 0002:000003e8       __imp_free                 000000014002c3e8     ucrt:api-ms-win-crt-heap-l1-1-0.dll
 0002:000003f0       __imp__aligned_free        000000014002c3f0     ucrt:api-ms-win-crt-heap-l1-1-0.dll
 0002:000003f8       __imp__aligned_malloc      000000014002c3f8     ucrt:api-ms-win-crt-heap-l1-1-0.dll
 0002:00000400       __imp__set_new_mode        000000014002c400     ucrt:api-ms-win-crt-heap-l1-1-0.dll
 0002:00000408       __imp__callnewh            000000014002c408     ucrt:api-ms-win-crt-heap-l1-1-0.dll
 0002:00000410       \177api-ms-win-crt-heap-l1-1-0_NULL_THUNK_DATA 000000014002c410     ucrt:api-ms-win-crt-heap-l1-1-0.dll
 0002:00000418       __imp__configthreadlocale  000000014002c418     ucrt:api-ms-win-crt-locale-l1-1-0.dll
 0002:00000420       \177api-ms-win-crt-locale-l1-1-0_NULL_THUNK_DATA 000000014002c420     ucrt:api-ms-win-crt-locale-l1-1-0.dll
 0002:00000428       __imp___setusermatherr     000000014002c428     ucrt:api-ms-win-crt-math-l1-1-0.dll
 0002:00000430       __imp_powf                 000000014002c430     ucrt:api-ms-win-crt-math-l1-1-0.dll
 0002:00000438       __imp_sin                  000000014002c438     ucrt:api-ms-win-crt-math-l1-1-0.dll
 0002:00000440       __imp_sinf                 000000014002c440     ucrt:api-ms-win-crt-math-l1-1-0.dll
 0002:00000448       __imp_cosf                 000000014002c448     ucrt:api-ms-win-crt-math-l1-1-0.dll
 0002:00000450       __imp_sqrtf                000000014002c450     ucrt:api-ms-win-crt-math-l1-1-0.dll
 0002:00000458       \177api-ms-win-crt-math-l1-1-0_NULL_THUNK_DATA 000000014002c458     ucrt:api-ms-win-crt-math-l1-1-0.dll
 0002:00000460       __imp_exit                 000000014002c460     ucrt:api-ms-win-crt-runtime-l1-1-0.dll
 0002:00000468       __imp__exit                000000014002c468     ucrt:api-ms-win-crt-runtime-l1-1-0.dll
 0002:00000470       __imp__invalid_parameter_noinfo 000000014002c470     ucrt:api-ms-win-crt-runtime-l1-1-0.dll
 0002:00000478       __imp__cexit               000000014002c478     ucrt:api-ms-win-crt-runtime-l1-1-0.dll
 0002:00000480       __imp__c_exit              000000014002c480     ucrt:api-ms-win-crt-runtime-l1-1-0.dll
 0002:00000488       __imp__register_thread_local_exe_atexit_callback 000000014002c488     ucrt:api-ms-win-crt-runtime-l1-1-0.dll
 0002:00000490       __imp__initterm            000000014002c490     ucrt:api-ms-win-crt-runtime-l1-1-0.dll
 0002:00000498       __imp__get_narrow_winmain_command_line 000000014002c498     ucrt:api-ms-win-crt-runtime-l1-1-0.dll
 0002:000004a0       __imp__errno               000000014002c4a0     ucrt:api-ms-win-crt-runtime-l1-1-0.dll
 0002:000004a8       __imp__initialize_onexit_table 000000014002c4a8     ucrt:api-ms-win-crt-runtime-l1-1-0.dll
 0002:000004b0       __imp__register_onexit_function 000000014002c4b0     ucrt:api-ms-win-crt-runtime-l1-1-0.dll
 0002:000004b8       __imp__crt_atexit          000000014002c4b8     ucrt:api-ms-win-crt-runtime-l1-1-0.dll
 0002:000004c0       __imp_terminate            000000014002c4c0     ucrt:api-ms-win-crt-runtime-l1-1-0.dll
 0002:000004c8       __imp__initialize_narrow_environment 000000014002c4c8     ucrt:api-ms-win-crt-runtime-l1-1-0.dll
 0002:000004d0       __imp__initterm_e          000000014002c4d0     ucrt:api-ms-win-crt-runtime-l1-1-0.dll
 0002:000004d8       __imp__configure_narrow_argv 000000014002c4d8     ucrt:api-ms-win-crt-runtime-l1-1-0.dll
 0002:000004e0       __imp__invalid_parameter_noinfo_noreturn 000000014002c4e0     ucrt:api-ms-win-crt-runtime-l1-1-0.dll
 0002:000004e8       __imp__seh_filter_exe      000000014002c4e8     ucrt:api-ms-win-crt-runtime-l1-1-0.dll
 0002:000004f0       __imp__set_app_type        000000014002c4f0     ucrt:api-ms-win-crt-runtime-l1-1-0.dll
 0002:000004f8       \177api-ms-win-crt-runtime-l1-1-0_NULL_THUNK_DATA 000000014002c4f8     ucrt:api-ms-win-crt-runtime-l1-1-0.dll
 0002:00000500       __imp_fflush               000000014002c500     ucrt:api-ms-win-crt-stdio-l1-1-0.dll
 0002:00000508       __imp_fgetc                000000014002c508     ucrt:api-ms-win-crt-stdio-l1-1-0.dll
 0002:00000510       __imp_fputc                000000014002c510     ucrt:api-ms-win-crt-stdio-l1-1-0.dll
 0002:00000518       __imp_fwrite               000000014002c518     ucrt:api-ms-win-crt-stdio-l1-1-0.dll
 0002:00000520       __imp___stdio_common_vsprintf_s 000000014002c520     ucrt:api-ms-win-crt-stdio-l1-1-0.dll
 0002:00000528       __imp_fgetpos              000000014002c528     ucrt:api-ms-win-crt-stdio-l1-1-0.dll
 0002:00000530       __imp_ungetc               000000014002c530     ucrt:api-ms-win-crt-stdio-l1-1-0.dll
 0002:00000538       __imp_setvbuf              000000014002c538     ucrt:api-ms-win-crt-stdio-l1-1-0.dll
 0002:00000540       __imp___p__commode         000000014002c540     ucrt:api-ms-win-crt-stdio-l1-1-0.dll
 0002:00000548       __imp__set_fmode           000000014002c548     ucrt:api-ms-win-crt-stdio-l1-1-0.dll
 0002:00000550       __imp_fopen_s              000000014002c550     ucrt:api-ms-win-crt-stdio-l1-1-0.dll
 0002:00000558       __imp_fseek                000000014002c558     ucrt:api-ms-win-crt-stdio-l1-1-0.dll
 0002:00000560       __imp_fsetpos              000000014002c560     ucrt:api-ms-win-crt-stdio-l1-1-0.dll
 0002:00000568       __imp_fread                000000014002c568     ucrt:api-ms-win-crt-stdio-l1-1-0.dll
 0002:00000570       __imp__fseeki64            000000014002c570     ucrt:api-ms-win-crt-stdio-l1-1-0.dll
 0002:00000578       __imp_fclose               000000014002c578     ucrt:api-ms-win-crt-stdio-l1-1-0.dll
 0002:00000580       __imp__get_stream_buffer_pointers 000000014002c580     ucrt:api-ms-win-crt-stdio-l1-1-0.dll
 0002:00000588       \177api-ms-win-crt-stdio-l1-1-0_NULL_THUNK_DATA 000000014002c588     ucrt:api-ms-win-crt-stdio-l1-1-0.dll
 0002:00000590       __imp_iswspace             000000014002c590     ucrt:api-ms-win-crt-string-l1-1-0.dll
 0002:00000598       \177api-ms-win-crt-string-l1-1-0_NULL_THUNK_DATA 000000014002c598     ucrt:api-ms-win-crt-string-l1-1-0.dll
 0002:000005a0       __imp_wcsftime             000000014002c5a0     ucrt:api-ms-win-crt-time-l1-1-0.dll
 0002:000005a8       __imp__localtime64_s       000000014002c5a8     ucrt:api-ms-win-crt-time-l1-1-0.dll
 0002:000005b0       __imp__time64              000000014002c5b0     ucrt:api-ms-win-crt-time-l1-1-0.dll
 0002:000005b8       \177api-ms-win-crt-time-l1-1-0_NULL_THUNK_DATA 000000014002c5b8     ucrt:api-ms-win-crt-time-l1-1-0.dll
 0002:000005c0       __imp_rand                 000000014002c5c0     ucrt:api-ms-win-crt-utility-l1-1-0.dll
 0002:000005c8       __imp_srand                000000014002c5c8     ucrt:api-ms-win-crt-utility-l1-1-0.dll
 0002:000005d0       \177api-ms-win-crt-utility-l1-1-0_NULL_THUNK_DATA 000000014002c5d0     ucrt:api-ms-win-crt-utility-l1-1-0.dll
 0002:000005d8       __imp_D3D11CreateDeviceAndSwapChain 000000014002c5d8     d3d11:d3d11.dll
 0002:000005e0       \177d3d11_NULL_THUNK_DATA  000000014002c5e0     d3d11:d3d11.dll
 0002:000005e8       __imp_MiniDumpWriteDump    000000014002c5e8     dbghelp:dbghelp.dll
 0002:000005f0       \177dbghelp_NULL_THUNK_DATA 000000014002c5f0     dbghelp:dbghelp.dll
 0002:000005f8       __imp_CreateDXGIFactory    000000014002c5f8     DXGI:dxgi.dll
 0002:00000600       \177dxgi_NULL_THUNK_DATA   000000014002c600     DXGI:dxgi.dll
 0002:00000608       __imp_PropVariantClear     000000014002c608     ole32:ole32.dll
 0002:00000610       __imp_CoCreateInstance     000000014002c610     ole32:ole32.dll
 0002:00000618       \177ole32_NULL_THUNK_DATA  000000014002c618     ole32:ole32.dll
 0002:00000620       __guard_check_icall_fptr   000000014002c620     MSVCRT:guard_support.obj
 0002:00000628       __guard_dispatch_icall_fptr 000000014002c628     MSVCRT:guard_support.obj
 0002:00000630       __xc_a                     000000014002c630     MSVCRT:initializers.obj
 0002:00000678       __xc_z                     000000014002c678     MSVCRT:initializers.obj
 0002:00000680       __xi_a                     000000014002c680     MSVCRT:initializers.obj
 0002:000006a0       __xi_z                     000000014002c6a0     MSVCRT:initializers.obj
 0002:000006a8       __xl_a                     000000014002c6a8     MSVCRT:tlssup.obj
 0002:000006b0       __xl_z                     000000014002c6b0     MSVCRT:tlssup.obj
 0002:000006b8       __xp_a                     000000014002c6b8     MSVCRT:initializers.obj
 0002:000006c0       __xp_z                     000000014002c6c0     MSVCRT:initializers.obj
 0002:000006c8       __xt_a                     000000014002c6c8     MSVCRT:initializers.obj
 0002:000006d0       __xt_z                     000000014002c6d0     MSVCRT:initializers.obj
 0002:000006e0       GUID_NULL                  000000014002c6e0     uuid:cguid_i.obj
 0002:000006f0       CLSID_WICImagingFactory1   000000014002c6f0     uuid:wincodec_uuid.obj
 0002:00000700       CLSID_WICImagingFactory2   000000014002c700     uuid:wincodec_uuid.obj
 0002:00000710       GUID_ContainerFormatPng    000000014002c710     uuid:wincodec_uuid.obj
 0002:00000720       GUID_WICPixelFormat1bppIndexed 000000014002c720     uuid:wincodec_uuid.obj
 0002:00000730       GUID_WICPixelFormat2bppIndexed 000000014002c730     uuid:wincodec_uuid.obj
 0002:00000740       GUID_WICPixelFormat4bppIndexed 000000014002c740     uuid:wincodec_uuid.obj
 0002:00000750       GUID_WICPixelFormat8bppIndexed 000000014002c750     uuid:wincodec_uuid.obj
 0002:00000760       GUID_WICPixelFormatBlackWhite 000000014002c760     uuid:wincodec_uuid.obj
 0002:00000770       GUID_WICPixelFormat2bppGray 000000014002c770     uuid:wincodec_uuid.obj
 0002:00000780       GUID_WICPixelFormat4bppGray 000000014002c780     uuid:wincodec_uuid.obj
 0002:00000790       GUID_WICPixelFormat8bppGray 000000014002c790     uuid:wincodec_uuid.obj
 0002:000007a0       GUID_WICPixelFormat8bppAlpha 000000014002c7a0     uuid:wincodec_uuid.obj
 0002:000007b0       GUID_WICPixelFormat16bppBGR555 000000014002c7b0     uuid:wincodec_uuid.obj
 0002:000007c0       GUID_WICPixelFormat16bppBGR565 000000014002c7c0     uuid:wincodec_uuid.obj
 0002:000007d0       GUID_WICPixelFormat16bppBGRA5551 000000014002c7d0     uuid:wincodec_uuid.obj
 0002:000007e0       GUID_WICPixelFormat16bppGray 000000014002c7e0     uuid:wincodec_uuid.obj
 0002:000007f0       GUID_WICPixelFormat24bppBGR 000000014002c7f0     uuid:wincodec_uuid.obj
 0002:00000800       GUID_WICPixelFormat24bppRGB 000000014002c800     uuid:wincodec_uuid.obj
 0002:00000810       GUID_WICPixelFormat32bppBGR 000000014002c810     uuid:wincodec_uuid.obj
 0002:00000820       GUID_WICPixelFormat32bppBGRA 000000014002c820     uuid:wincodec_uuid.obj
 0002:00000830       GUID_WICPixelFormat32bppPBGRA 000000014002c830     uuid:wincodec_uuid.obj
 0002:00000840       GUID_WICPixelFormat32bppGrayFloat 000000014002c840     uuid:wincodec_uuid.obj
 0002:00000850       GUID_WICPixelFormat32bppRGB 000000014002c850     uuid:wincodec_uuid.obj
 0002:00000860       GUID_WICPixelFormat32bppRGBA 000000014002c860     uuid:wincodec_uuid.obj
 0002:00000870       GUID_WICPixelFormat32bppPRGBA 000000014002c870     uuid:wincodec_uuid.obj
 0002:00000880       GUID_WICPixelFormat48bppRGB 000000014002c880     uuid:wincodec_uuid.obj
 0002:00000890       GUID_WICPixelFormat48bppBGR 000000014002c890     uuid:wincodec_uuid.obj
 0002:000008a0       GUID_WICPixelFormat64bppRGB 000000014002c8a0     uuid:wincodec_uuid.obj
 0002:000008b0       GUID_WICPixelFormat64bppRGBA 000000014002c8b0     uuid:wincodec_uuid.obj
 0002:000008c0       GUID_WICPixelFormat64bppBGRA 000000014002c8c0     uuid:wincodec_uuid.obj
 0002:000008d0       GUID_WICPixelFormat64bppPRGBA 000000014002c8d0     uuid:wincodec_uuid.obj
 0002:000008e0       GUID_WICPixelFormat64bppPBGRA 000000014002c8e0     uuid:wincodec_uuid.obj
 0002:000008f0       GUID_WICPixelFormat16bppGrayFixedPoint 000000014002c8f0     uuid:wincodec_uuid.obj
 0002:00000900       GUID_WICPixelFormat32bppBGR101010 000000014002c900     uuid:wincodec_uuid.obj
 0002:00000910       GUID_WICPixelFormat48bppRGBFixedPoint 000000014002c910     uuid:wincodec_uuid.obj
 0002:00000920       GUID_WICPixelFormat48bppBGRFixedPoint 000000014002c920     uuid:wincodec_uuid.obj
 0002:00000930       GUID_WICPixelFormat96bppRGBFixedPoint 000000014002c930     uuid:wincodec_uuid.obj
 0002:00000940       GUID_WICPixelFormat96bppRGBFloat 000000014002c940     uuid:wincodec_uuid.obj
 0002:00000950       GUID_WICPixelFormat128bppRGBAFloat 000000014002c950     uuid:wincodec_uuid.obj
 0002:00000960       GUID_WICPixelFormat128bppPRGBAFloat 000000014002c960     uuid:wincodec_uuid.obj
 0002:00000970       GUID_WICPixelFormat128bppRGBFloat 000000014002c970     uuid:wincodec_uuid.obj
 0002:00000980       GUID_WICPixelFormat32bppCMYK 000000014002c980     uuid:wincodec_uuid.obj
 0002:00000990       GUID_WICPixelFormat64bppRGBAFixedPoint 000000014002c990     uuid:wincodec_uuid.obj
 0002:000009a0       GUID_WICPixelFormat64bppBGRAFixedPoint 000000014002c9a0     uuid:wincodec_uuid.obj
 0002:000009b0       GUID_WICPixelFormat64bppRGBFixedPoint 000000014002c9b0     uuid:wincodec_uuid.obj
 0002:000009c0       GUID_WICPixelFormat128bppRGBAFixedPoint 000000014002c9c0     uuid:wincodec_uuid.obj
 0002:000009d0       GUID_WICPixelFormat128bppRGBFixedPoint 000000014002c9d0     uuid:wincodec_uuid.obj
 0002:000009e0       GUID_WICPixelFormat64bppRGBAHalf 000000014002c9e0     uuid:wincodec_uuid.obj
 0002:000009f0       GUID_WICPixelFormat64bppPRGBAHalf 000000014002c9f0     uuid:wincodec_uuid.obj
 0002:00000a00       GUID_WICPixelFormat64bppRGBHalf 000000014002ca00     uuid:wincodec_uuid.obj
 0002:00000a10       GUID_WICPixelFormat48bppRGBHalf 000000014002ca10     uuid:wincodec_uuid.obj
 0002:00000a20       GUID_WICPixelFormat32bppRGBE 000000014002ca20     uuid:wincodec_uuid.obj
 0002:00000a30       GUID_WICPixelFormat16bppGrayHalf 000000014002ca30     uuid:wincodec_uuid.obj
 0002:00000a40       GUID_WICPixelFormat32bppGrayFixedPoint 000000014002ca40     uuid:wincodec_uuid.obj
 0002:00000a50       GUID_WICPixelFormat32bppRGBA1010102 000000014002ca50     uuid:wincodec_uuid.obj
 0002:00000a60       GUID_WICPixelFormat32bppRGBA1010102XR 000000014002ca60     uuid:wincodec_uuid.obj
 0002:00000a70       GUID_WICPixelFormat64bppCMYK 000000014002ca70     uuid:wincodec_uuid.obj
 0002:00000a80       GUID_WICPixelFormat40bppCMYKAlpha 000000014002ca80     uuid:wincodec_uuid.obj
 0002:00000a90       GUID_WICPixelFormat80bppCMYKAlpha 000000014002ca90     uuid:wincodec_uuid.obj
 0002:00000aa8       ??_7?$_Ref_count_obj@UResourceMap@?$SharedResourcePool@PEAUID3D11DeviceContext@@UContextResources@Impl@SpriteBatch@DirectX@@$$V@DirectX@@@std@@6B@ 000000014002caa8     DirectXTK:SpriteBatch.obj
 0002:00000ad0       ??_7?$_Ref_count_obj@UResourceMap@?$SharedResourcePool@PEAUID3D11Device@@UDeviceResources@Impl@SpriteBatch@DirectX@@$$V@DirectX@@@std@@6B@ 000000014002cad0     DirectXTK:SpriteBatch.obj
 0002:000017d8       ??_7exception@std@@6B@     000000014002d7d8     DirectXTK:SpriteBatch.obj
 0002:000017f0       ??_7bad_alloc@std@@6B@     000000014002d7f0     DirectXTK:SpriteBatch.obj
 0002:00001800       ??_C@_0P@GHFPNOJB@bad?5allocation@ 000000014002d800     DirectXTK:SpriteBatch.obj
 0002:00001818       ??_7SpriteBatch@DirectX@@6B@ 000000014002d818     DirectXTK:SpriteBatch.obj
 0002:00001828       ??_7com_exception@DirectX@@6B@ 000000014002d828     DirectXTK:SpriteBatch.obj
 0002:00001838       ??_C@_0BN@HGKPNCEI@Failure?5with?5HRESULT?5of?5?$CF08X@ 000000014002d838     DirectXTK:SpriteBatch.obj
 0002:00001858       ??_C@_0DA@KFELBPEI@Cannot?5nest?5Begin?5calls?5on?5a?5si@ 000000014002d858     DirectXTK:SpriteBatch.obj
 0002:00001890       ??_C@_0EA@BMIHCKMD@Only?5one?5SpriteBatch?5at?5a?5time?5@ 000000014002d890     DirectXTK:SpriteBatch.obj
 0002:000018d0       ??_C@_0CA@PIMDBKHN@Begin?5must?5be?5called?5before?5End@ 000000014002d8d0     DirectXTK:SpriteBatch.obj
 0002:000018f0       ??_C@_0EL@GDEIDHHC@Cannot?5end?5one?5SpriteBatch?5whil@ 000000014002d8f0     DirectXTK:SpriteBatch.obj
 0002:00001950       ??_C@_0BH@GBGNNAKH@Texture?5cannot?5be?5null@ 000000014002d950     DirectXTK:SpriteBatch.obj
 0002:00001968       ??_C@_0CB@GPFGCCNG@Begin?5must?5be?5called?5before?5Dra@ 000000014002d968     DirectXTK:SpriteBatch.obj
 0002:00001990       ??_C@_0CO@DNLOMOAB@SpriteBatch?5can?5only?5draw?5Textu@ 000000014002d990     DirectXTK:SpriteBatch.obj
 0002:000019c0       ??_C@_0BD@NLKICEDD@No?5viewport?5is?5set@ 000000014002d9c0     DirectXTK:SpriteBatch.obj
 0002:000019e0       ??_7?$_Ref_count_obj@UWrappedData@?$SharedResourcePool@PEAUID3D11DeviceContext@@UContextResources@Impl@SpriteBatch@DirectX@@$$V@DirectX@@@std@@6B@ 000000014002d9e0     DirectXTK:SpriteBatch.obj
 0002:00001a08       ??_7?$_Ref_count_obj@UWrappedData@?$SharedResourcePool@PEAUID3D11Device@@UDeviceResources@Impl@SpriteBatch@DirectX@@$$V@DirectX@@@std@@6B@ 000000014002da08     DirectXTK:SpriteBatch.obj
 0002:00001a30       __xmm@3f800000000000003f8000003f800000 000000014002da30     DirectXTK:SpriteBatch.obj
 0002:00001a40       __xmm@3f800000000000003f800000bf800000 000000014002da40     DirectXTK:SpriteBatch.obj
 0002:00001a50       __xmm@3f80000000000000bf8000003f800000 000000014002da50     DirectXTK:SpriteBatch.obj
 0002:00001a60       __xmm@3f80000000000000bf800000bf800000 000000014002da60     DirectXTK:SpriteBatch.obj
 0002:00001b00       ??_7runtime_error@std@@6B@ 000000014002db00     DirectXTK:SpriteFont.obj
 0002:00001b18       ??_7overflow_error@std@@6B@ 000000014002db18     DirectXTK:SpriteFont.obj
 0002:00001b30       ??_7SpriteFont@DirectX@@6B@ 000000014002db30     DirectXTK:SpriteFont.obj
 0002:00001b38       ??_C@_0CD@BHOGGEGB@Not?5a?5MakeSpriteFont?5output?5bin@ 000000014002db38     DirectXTK:SpriteFont.obj
 0002:00001b60       ??_C@_0BG@FOOFELFM@Character?5not?5in?5font@ 000000014002db60     DirectXTK:SpriteFont.obj
 0002:00001b78       ??_C@_0BE@HCIKGJGE@MultiByteToWideChar@ 000000014002db78     DirectXTK:SpriteFont.obj
 0002:00001b90       ??_C@_09OFBAKMBN@ReadArray@ 000000014002db90     DirectXTK:SpriteFont.obj
 0002:00001ba0       ??_C@_0M@JLKPDLNL@End?5of?5file@ 000000014002dba0     DirectXTK:SpriteFont.obj
 0002:00001c08       ??_7?$_Ref_count_obj@UResourceMap@?$SharedResourcePool@PEAUID3D11Device@@VImpl@CommonStates@DirectX@@$$V@DirectX@@@std@@6B@ 000000014002dc08     DirectXTK:CommonStates.obj
 0002:00001d70       ??_7CommonStates@DirectX@@6B@ 000000014002dd70     DirectXTK:CommonStates.obj
 0002:00001d80       ??_7?$_Ref_count_obj@UWrappedData@?$SharedResourcePool@PEAUID3D11Device@@VImpl@CommonStates@DirectX@@$$V@DirectX@@@std@@6B@ 000000014002dd80     DirectXTK:CommonStates.obj
 0002:00001da0       __xmm@00000000000000040000000000000000 000000014002dda0     DirectXTK:CommonStates.obj
 0002:00001db0       __xmm@00000003000000030000000300000015 000000014002ddb0     DirectXTK:CommonStates.obj
 0002:00001dc0       ?InputElements@VertexPosition@DirectX@@2QBUD3D11_INPUT_ELEMENT_DESC@@B 000000014002ddc0     DirectXTK:VertexTypes.obj
 0002:00001de0       ?InputElements@VertexPositionColor@DirectX@@2QBUD3D11_INPUT_ELEMENT_DESC@@B 000000014002dde0     DirectXTK:VertexTypes.obj
 0002:00001e20       ?InputElements@VertexPositionTexture@DirectX@@2QBUD3D11_INPUT_ELEMENT_DESC@@B 000000014002de20     DirectXTK:VertexTypes.obj
 0002:00001e60       ?InputElements@VertexPositionDualTexture@DirectX@@2QBUD3D11_INPUT_ELEMENT_DESC@@B 000000014002de60     DirectXTK:VertexTypes.obj
 0002:00001ec0       ?InputElements@VertexPositionNormal@DirectX@@2QBUD3D11_INPUT_ELEMENT_DESC@@B 000000014002dec0     DirectXTK:VertexTypes.obj
 0002:00001f00       ?InputElements@VertexPositionColorTexture@DirectX@@2QBUD3D11_INPUT_ELEMENT_DESC@@B 000000014002df00     DirectXTK:VertexTypes.obj
 0002:00001f60       ?InputElements@VertexPositionNormalColor@DirectX@@2QBUD3D11_INPUT_ELEMENT_DESC@@B 000000014002df60     DirectXTK:VertexTypes.obj
 0002:00001fc0       ?InputElements@VertexPositionNormalTexture@DirectX@@2QBUD3D11_INPUT_ELEMENT_DESC@@B 000000014002dfc0     DirectXTK:VertexTypes.obj
 0002:00002020       ?InputElements@VertexPositionNormalColorTexture@DirectX@@2QBUD3D11_INPUT_ELEMENT_DESC@@B 000000014002e020     DirectXTK:VertexTypes.obj
 0002:000020a0       ?InputElements@VertexPositionNormalTangentColorTexture@DirectX@@2QBUD3D11_INPUT_ELEMENT_DESC@@B 000000014002e0a0     DirectXTK:VertexTypes.obj
 0002:00002140       ?InputElements@VertexPositionNormalTangentColorTextureSkinning@DirectX@@2QBUD3D11_INPUT_ELEMENT_DESC@@B 000000014002e140     DirectXTK:VertexTypes.obj
 0002:00002220       ??_C@_0M@GMLACIDJ@SV_Position@ 000000014002e220     DirectXTK:VertexTypes.obj
 0002:0000222c       ??_C@_05DPNLPLKI@COLOR@    000000014002e22c     DirectXTK:VertexTypes.obj
 0002:00002238       ??_C@_0N@DBILKEJG@BLENDINDICES@ 000000014002e238     DirectXTK:VertexTypes.obj
 0002:00002248       ??_C@_0M@NKNBBMD@BLENDWEIGHT@ 000000014002e248     DirectXTK:VertexTypes.obj
 0002:000022a8       ??_C@_0DB@GOKNILKN@ERROR?3?5BinaryReader?5failed?5?$CI?$CF08@ 000000014002e2a8     DirectXTK:BinaryReader.obj
 0002:000022e0       ??_C@_0N@GGBMDCPN@BinaryReader@ 000000014002e2e0     DirectXTK:BinaryReader.obj
 0002:00002318       c_dfDIMouse                000000014002e318     dinput8:dilib1.obj
 0002:00002338       IID_IDirectInput8W         000000014002e338     dxguid:dxguid.obj
 0002:00002348       GUID_XAxis                 000000014002e348     dxguid:dxguid.obj
 0002:00002358       GUID_YAxis                 000000014002e358     dxguid:dxguid.obj
 0002:00002368       GUID_ZAxis                 000000014002e368     dxguid:dxguid.obj
 0002:00002378       GUID_SysMouse              000000014002e378     dxguid:dxguid.obj
 0002:00002388       IID_IDirectSoundBuffer8    000000014002e388     dxguid:dxguid.obj
 0002:000023a0       ??_7type_info@@6B@         000000014002e3a0     MSVCRT:std_type_info_static.obj
 0002:000023d0       ??_C@_1EC@JIJBPKFM@?$AAa?$AAp?$AAi?$AA?9?$AAm?$AAs?$AA?9?$AAw?$AAi?$AAn?$AA?9?$AAc?$AAo?$AAr?$AAe@ 000000014002e3d0     MSVCRT:thread_safe_statics.obj
 0002:00002418       ??_C@_1BK@MGMFAEKH@?$AAk?$AAe?$AAr?$AAn?$AAe?$AAl?$AA3?$AA2?$AA?4?$AAd?$AAl?$AAl@ 000000014002e418     MSVCRT:thread_safe_statics.obj
 0002:00002438       ??_C@_0BM@HLJJNPAH@InitializeConditionVariable@ 000000014002e438     MSVCRT:thread_safe_statics.obj
 0002:00002458       ??_C@_0BJ@JEBJOJFJ@SleepConditionVariableCS@ 000000014002e458     MSVCRT:thread_safe_statics.obj
 0002:00002478       ??_C@_0BJ@PGPPEPCC@WakeAllConditionVariable@ 000000014002e478     MSVCRT:thread_safe_statics.obj
 0002:000024b0       ??_7bad_array_new_length@std@@6B@ 000000014002e4b0     MSVCRT:throw_bad_alloc.obj
 0002:000024c0       ??_C@_0BF@KINCDENJ@bad?5array?5new?5length@ 000000014002e4c0     MSVCRT:throw_bad_alloc.obj
 0002:00002500       ??_C@_0BC@EOODALEL@Unknown?5exception@ 000000014002e500     Animation.obj
 0002:00002518       ??_C@_08EPJLHIJG@bad?5cast@ 000000014002e518     Animation.obj
 0002:00002528       ??_C@_0BD@OLBABOEK@vector?$DMT?$DO?5too?5long@ 000000014002e528     Animation.obj
 0002:00002540       ??_C@_0BA@JFNIOLAK@string?5too?5long@ 000000014002e540     Animation.obj
 0002:00002550       ?OneMinusEpsilon@?1??XMQuaternionSlerpV@DirectX@@YQ?AT__m128@@T3@00@Z@4UXMVECTORF32@2@B 000000014002e550     Animation.obj
 0002:00002560       ??_8?$basic_fstream@DU?$char_traits@D@std@@@std@@7B?$basic_ostream@DU?$char_traits@D@std@@@1@@ 000000014002e560     Animation.obj
 0002:00002560       ??_8?$basic_ofstream@DU?$char_traits@D@std@@@std@@7B@ 000000014002e560     SkyboxShader.obj
 0002:00002570       ?SignMask2@?1??XMQuaternionSlerpV@DirectX@@YQ?AT__m128@@T3@00@Z@4UXMVECTORU32@2@B 000000014002e570     Animation.obj
 0002:00002580       ?ATan2Constants@?1??XMVectorATan2@DirectX@@YQ?AT__m128@@T3@0@Z@4UXMVECTORF32@2@B 000000014002e580     Animation.obj
 0002:00002598       ??_7?$basic_filebuf@DU?$char_traits@D@std@@@std@@6B@ 000000014002e598     Animation.obj
 0002:00002618       ??_7bad_cast@std@@6B@      000000014002e618     Animation.obj
 0002:00002630       ?XMMMPP@?1??XMQuaternionRotationMatrix@DirectX@@YQ?AT__m128@@UXMMATRIX@2@@Z@4UXMVECTORF32@2@B 000000014002e630     Animation.obj
 0002:00002640       ?Sign@?1??XMQuaternionRotationRollPitchYawFromVector@DirectX@@YQ?AT__m128@@T3@@Z@4UXMVECTORF32@2@B 000000014002e640     DebugCamera.obj
 0002:00002640       ?XMPMMP@?1??XMQuaternionRotationMatrix@DirectX@@YQ?AT__m128@@UXMMATRIX@2@@Z@4UXMVECTORF32@2@B 000000014002e640     Animation.obj
 0002:00002658       ??_7?$basic_fstream@DU?$char_traits@D@std@@@std@@6B@ 000000014002e658     Animation.obj
 0002:00002660       ?g_XMArcCoefficients1@DirectX@@3UXMVECTORF32@1@B 000000014002e660     Animation.obj
 0002:00002670       ?g_XMInfinity@DirectX@@3UXMVECTORI32@1@B 000000014002e670     Animation.obj
 0002:00002680       ?g_XMIdentityR1@DirectX@@3UXMVECTORF32@1@B 000000014002e680     Animation.obj
 0002:00002690       ?g_XMCosCoefficients1@DirectX@@3UXMVECTORF32@1@B 000000014002e690     Animation.obj
 0002:000026a0       ?g_XMATanCoefficients1@DirectX@@3UXMVECTORF32@1@B 000000014002e6a0     Animation.obj
 0002:000026b0       ?g_XMQNaN@DirectX@@3UXMVECTORI32@1@B 000000014002e6b0     Animation.obj
 0002:000026c0       ?g_XMTwoPi@DirectX@@3UXMVECTORF32@1@B 000000014002e6c0     Animation.obj
 0002:000026d0       ?g_XMPi@DirectX@@3UXMVECTORF32@1@B 000000014002e6d0     Animation.obj
 0002:000026e0       ?g_XMIdentityR0@DirectX@@3UXMVECTORF32@1@B 000000014002e6e0     Animation.obj
 0002:000026f0       ?g_XMFixUnsigned@DirectX@@3UXMVECTORF32@1@B 000000014002e6f0     Animation.obj
 0002:00002700       ?g_XMIdentityR2@DirectX@@3UXMVECTORF32@1@B 000000014002e700     Animation.obj
 0002:00002710       ?g_XMMask3@DirectX@@3UXMVECTORU32@1@B 000000014002e710     Animation.obj
 0002:00002710       ?g_XMSelect1110@DirectX@@3UXMVECTORU32@1@B 000000014002e710     Animation.obj
 0002:00002720       ?g_XMAbsMask@DirectX@@3UXMVECTORI32@1@B 000000014002e720     Animation.obj
 0002:00002730       ?g_XMSinCoefficients0@DirectX@@3UXMVECTORF32@1@B 000000014002e730     Animation.obj
 0002:00002740       ?g_XMNegativeZero@DirectX@@3UXMVECTORU32@1@B 000000014002e740     Animation.obj
 0002:00002750       ?g_XMEpsilon@DirectX@@3UXMVECTORF32@1@B 000000014002e750     Animation.obj
 0002:00002760       ?g_XMSinCoefficients1@DirectX@@3UXMVECTORF32@1@B 000000014002e760     Animation.obj
 0002:00002770       ?g_XMNegativeOne@DirectX@@3UXMVECTORF32@1@B 000000014002e770     Animation.obj
 0002:00002780       ?g_XMMaskY@DirectX@@3UXMVECTORU32@1@B 000000014002e780     Animation.obj
 0002:00002790       ?g_XMATanCoefficients0@DirectX@@3UXMVECTORF32@1@B 000000014002e790     Animation.obj
 0002:000027a0       ?g_XMNoFraction@DirectX@@3UXMVECTORF32@1@B 000000014002e7a0     Animation.obj
 0002:000027b0       ?g_XMIdentityR3@DirectX@@3UXMVECTORF32@1@B 000000014002e7b0     Animation.obj
 0002:000027c0       ?g_XMOneHalf@DirectX@@3UXMVECTORF32@1@B 000000014002e7c0     Animation.obj
 0002:000027d0       ?g_XMReciprocalTwoPi@DirectX@@3UXMVECTORF32@1@B 000000014002e7d0     Animation.obj
 0002:000027e0       ?g_XMMaskXY@DirectX@@3UXMVECTORU32@1@B 000000014002e7e0     Animation.obj
 0002:000027f0       ?g_XMCosCoefficients0@DirectX@@3UXMVECTORF32@1@B 000000014002e7f0     Animation.obj
 0002:00002800       ?g_XMOne@DirectX@@3UXMVECTORF32@1@B 000000014002e800     Animation.obj
 0002:00002800       ?White@Colors@DirectX@@3UXMVECTORF32@2@B 000000014002e800     graphicsclass.obj
 0002:00002810       ?g_XMNegateZ@DirectX@@3UXMVECTORF32@1@B 000000014002e810     Animation.obj
 0002:00002820       ?g_XMZero@DirectX@@3UXMVECTORF32@1@B 000000014002e820     Animation.obj
 0002:00002830       ?g_XMHalfPi@DirectX@@3UXMVECTORF32@1@B 000000014002e830     Animation.obj
 0002:00002840       ?g_XMArcCoefficients0@DirectX@@3UXMVECTORF32@1@B 000000014002e840     Animation.obj
 0002:00002850       ??_8?$basic_fstream@DU?$char_traits@D@std@@@std@@7B?$basic_istream@DU?$char_traits@D@std@@@1@@ 000000014002e850     Animation.obj
 0002:00002860       ?Constant1110@?1??XMMatrixRotationQuaternion@DirectX@@YQ?AUXMMATRIX@2@T__m128@@@Z@4UXMVECTORF32@2@B 000000014002e860     Animation.obj
 0002:00002870       ?XMMPMP@?1??XMQuaternionRotationMatrix@DirectX@@YQ?AT__m128@@UXMMATRIX@2@@Z@4UXMVECTORF32@2@B 000000014002e870     Animation.obj
 0002:00002888       ??_7Bullet@@6B@            000000014002e888     Bullet.obj
 0002:000028b0       ?selectMask@?1??Permute@?$PermuteHelper@$0FF@$00$0A@$00$00@Internal@DirectX@@SQ?AT__m128@@T5@0@Z@4UXMVECTORU32@4@B 000000014002e8b0     DebugCamera.obj
 0002:000028c0       ?selectMask@?1??Permute@?$PermuteHelper@$0KK@$00$00$0A@$00@Internal@DirectX@@SQ?AT__m128@@T5@0@Z@4UXMVECTORU32@4@B 000000014002e8c0     DebugCamera.obj
 0002:000028d0       ?selectMask@?1??Permute@?$PermuteHelper@$0A@$0A@$00$00$00@Internal@DirectX@@SQ?AT__m128@@T5@0@Z@4UXMVECTORU32@4@B 000000014002e8d0     DebugCamera.obj
 0002:000028e0       ??_C@_0BE@IBEMHMEH@Assets?1HitSound?4wav@ 000000014002e8e0     Enemy.obj
 0002:00002900       ??_7Enemy@@6B@             000000014002e900     Enemy.obj
 0002:00002930       ??_C@_0BI@IKEFPPG@Assets?1RobotAttack?4mesh@ 000000014002e930     EnemyManager.obj
 0002:00002948       ??_C@_0BI@HGJDOHBF@Assets?1RobotAttack?4anim@ 000000014002e948     EnemyManager.obj
 0002:00002960       ??_C@_0BG@IIIGIPCL@Assets?1RobotMove?4anim@ 000000014002e960     EnemyManager.obj
 0002:00002980       ??_7GameObject@@6B@        000000014002e980     GameObject.obj
 0002:000029a0       _GUID_6f15aaf2_d208_4e89_9ab4_489535d34f9c 000000014002e9a0     dxstuff.obj
 0002:000029b0       _GUID_7b7166ec_21c7_44ae_b21a_c9ae321ae369 000000014002e9b0     dxstuff.obj
 0002:000029c0       ??_C@_0BD@PHPDAEF@Assets?1Ground?4mesh@ 000000014002e9c0     graphicsclass.obj
 0002:000029d8       ??_C@_0BD@NJOOLGBI@Assets?1SkyBox?4mesh@ 000000014002e9d8     graphicsclass.obj
 0002:000029f0       ??_C@_1DM@CMCNEDNG@?$AAD?$AAr?$AAa?$AAw?$AAi?$AAn?$AAg?$AAS?$AAt?$AAu?$AAf?$AAf?$AA?1?$AAA?$AAr@ 000000014002e9f0     graphicsclass.obj
 0002:00002a30       ??_C@_1EE@GLOJBGNP@?$AAD?$AAr?$AAa?$AAw?$AAi?$AAn?$AAg?$AAS?$AAt?$AAu?$AAf?$AAf?$AA?1?$AAC?$AAo@ 000000014002ea30     graphicsclass.obj
 0002:00002a78       ??_C@_0P@IKPNGNAF@Enemies?5Left?3?5@ 000000014002ea78     GameManager.obj
 0002:00002a88       ??_C@_08PIPILBOG@Health?3?5@ 000000014002ea88     GameManager.obj
 0002:00002a98       ??_C@_0BH@EENJLKIC@Current?5Weapon?3?5Pistol@ 000000014002ea98     GameManager.obj
 0002:00002ab0       ??_C@_0CA@DIFNKLOM@Current?5Weapon?3?5Sub?9Machine?5Gun@ 000000014002eab0     GameManager.obj
 0002:00002ad0       ??_C@_0BM@INAFNBDN@Current?5Weapon?3?5Machine?5Gun@ 000000014002ead0     GameManager.obj
 0002:00002af0       ??_C@_0N@HJMCCKCF@Total?5Time?3?5@ 000000014002eaf0     GameManager.obj
 0002:00002b00       ??_C@_0BC@JNFJDEC@Damage?5Increase?3?5@ 000000014002eb00     GameManager.obj
 0002:00002b14       ??_C@_06NPAAKFED@Player@   000000014002eb14     GameManager.obj
 0002:00002b20       ??_C@_0BD@JLHCCJNP@Assets?1Sphere?4mesh@ 000000014002eb20     GameManager.obj
 0002:00002b38       ??_C@_0M@BPIOOMHP@Gunshot?4wav@ 000000014002eb38     GameManager.obj
 0002:00002b48       ??_C@_0BJ@PMLIBGMN@Assets?1HealthPickup?4mesh@ 000000014002eb48     GameManager.obj
 0002:00002b68       ??_C@_0BJ@JFJKJAAF@Assets?1DamagePickup?4mesh@ 000000014002eb68     GameManager.obj
 0002:00002b84       ??_C@_05IFKAJBFC@Enemy@    000000014002eb84     GameManager.obj
 0002:00002b90       ??_C@_0M@MGGCPFLG@YOU?5LOSE?$CB?$CB?$CB@ 000000014002eb90     GameManager.obj
 0002:00002ba0       ??_C@_0BH@DOEGNCAA@Assets?1Teddy_Idle?4mesh@ 000000014002eba0     GameManager.obj
 0002:00002bb8       ??_C@_0BH@EAHBGKOD@Assets?1Teddy_Idle?4anim@ 000000014002ebb8     GameManager.obj
 0002:00002bd0       ??_C@_0BG@BCAFJCNP@Assets?1Teddy_Run?4anim@ 000000014002ebd0     GameManager.obj
 0002:00002be8       ??_C@_0BK@KIPAMEDN@Assets?1Teddy_Attack1?4anim@ 000000014002ebe8     GameManager.obj
 0002:00002c08       ??_C@_0BF@JKJOMCEG@Assets?1Obstacle?4mesh@ 000000014002ec08     GameManager.obj
 0002:00002da8       ??_C@_00CNPNBAHC@@         000000014002eda8     MyWindow.obj
 0002:00002db0       ??_C@_1CE@PKDEPIFG@?$AAR?$AAo?$AAb?$AAo?$AAt?$AAA?$AAn?$AAn?$AAi?$AAh?$AAi?$AAl?$AAa?$AAt?$AAi@ 000000014002edb0     MyWindow.obj
 0002:00002dd4       ??_C@_05MKOPJMEO@FPS?3?5@  000000014002edd4     MyWindow.obj
 0002:00002de0       ??_C@_0BD@JEILFCFE@Robot?5Annihilation@ 000000014002ede0     MyWindow.obj
 0002:00002df8       ??_C@_0BK@ODPCFCEA@DrawingStuff?1MainMenu?4dds@ 000000014002edf8     MyWindow.obj
 0002:00002e14       ??_C@_05FHMJPCKA@Start@    000000014002ee14     MyWindow.obj
 0002:00002e20       ??_C@_0BP@MEEGMAJH@DrawingStuff?1ButtonDefault?4dds@ 000000014002ee20     MyWindow.obj
 0002:00002e40       ??_C@_0CB@GFEEFPLK@DrawingStuff?1ButtonMouseOver?4dd@ 000000014002ee40     MyWindow.obj
 0002:00002e68       ??_C@_0CC@MOKIPAGO@DrawingStuff?1ButtonMouseClick?4d@ 000000014002ee68     MyWindow.obj
 0002:00002e90       ??_C@_07KHIHFBFN@Options@  000000014002ee90     MyWindow.obj
 0002:00002e98       ??_C@_04GMBKPCGK@Quit@     000000014002ee98     MyWindow.obj
 0002:00002ea0       ??_C@_06DEPGELNG@Resume@   000000014002eea0     MyWindow.obj
 0002:00002ea8       ??_C@_09JDDCPHDA@Main?5Menu@ 000000014002eea8     MyWindow.obj
 0002:00002eb8       ??_C@_09DJPGGPJI@Enemies?3?5@ 000000014002eeb8     MyWindow.obj
 0002:00002ec8       ??_C@_0BB@DPAJFKKK@Current?5Weapon?3?5@ 000000014002eec8     MyWindow.obj
 0002:00002edc       ??_C@_06KGOKPGFA@poopoo@   000000014002eedc     MyWindow.obj
 0002:00002ef0       ??_7Pickup@@6B@            000000014002eef0     Pickup.obj
 0002:00002f18       ??_7Player@@6B@            000000014002ef18     Player.obj
 0002:00002f40       ??_7RangedEnemy@@6B@       000000014002ef40     RangedEnemy.obj
 0002:00002f70       ??_C@_1CI@FINAKGGO@?$AA?$CF?$AAA?$AA_?$AA?$CF?$AAb?$AA?$CF?$AAd?$AA_?$AA?$CF?$AAI?$AA?$CF?$AAM?$AA?$CF?$AAp?$AA?4@ 000000014002ef70     RobotAnnihilation.obj
 0002:00002f98       ??_C@_1BM@PEAPHLJH@?$AAS?$AAk?$AAy?$AAb?$AAo?$AAx?$AAD?$AAD?$AAS?$AA?4?$AAd?$AAd?$AAs@ 000000014002ef98     ShaderManager.obj
 0002:00003028       ??_C@_03BLHALONB@M16@      000000014002f028     Shop.obj
 0002:00003030       ??_C@_09PFJHDHCD@FN?5Scar?9L@ 000000014002f030     Shop.obj
 0002:00003040       ??_C@_0BM@DFKIGMOA@M16?5Is?5A?5Basic?5Assult?5Rifle@ 000000014002f040     Shop.obj
 0002:0000305c       ??_C@_03HECBDPE@ACR@       000000014002f05c     Shop.obj
 0002:00003060       ??_C@_0CG@OOIKBJAK@FN?5Scar?9L?5Is?5An?5Upgraded?5Assult@ 000000014002f060     Shop.obj
 0002:00003088       ??_C@_03ELHOCOIH@MP7@      000000014002f088     Shop.obj
 0002:00003090       ??_C@_0CG@KPHPHEHJ@ACR?5Is?5An?5Ultra?5Upgraded?5Assult@ 000000014002f090     Shop.obj
 0002:000030b8       ??_C@_05DNFOMJO@PP?919@    000000014002f0b8     Shop.obj
 0002:000030c0       ??_C@_0BP@EMEDNAPN@MP7?5Is?5A?5Basic?5Sub?9Machine?5Gun@ 000000014002f0c0     Shop.obj
 0002:000030e0       ??_C@_03OBEKMHKN@P90@      000000014002f0e0     Shop.obj
 0002:000030e8       ??_C@_0CF@HGPPDECP@PP?919?5Is?5An?5Upgraded?5Sub?9Machin@ 000000014002f0e8     Shop.obj
 0002:00003110       ??_C@_02HGHILFME@M9@       000000014002f110     Shop.obj
 0002:00003118       ??_C@_0CJ@FILNMHMB@P90?5Is?5An?5Ultra?5Upgraded?5Sub?9Ma@ 000000014002f118     Shop.obj
 0002:00003148       ??_C@_08FJFDHDHA@Glock?918@ 000000014002f148     Shop.obj
 0002:00003158       ??_C@_0BH@JFCNLLKC@M9?5Is?5A?5Basic?5Hand?5Gun@ 000000014002f158     Shop.obj
 0002:00003170       ??_C@_0N@FAMDEIAF@Desert?5Eagle@ 000000014002f170     Shop.obj
 0002:00003180       ??_C@_0CC@DLBFKNNG@Glock?918?5?5Is?5An?5Upgraded?5Hand?5G@ 000000014002f180     Shop.obj
 0002:000031a8       ??_C@_0O@ENGDBMFC@Base?5Ball?5Bat@ 000000014002f1a8     Shop.obj
 0002:000031b8       ??_C@_0CL@OPCHLCNM@Desert?5Eagle?5Is?5An?5Ultra?5Upgrad@ 000000014002f1b8     Shop.obj
 0002:000031e8       ??_C@_08PIBFMDPB@Fire?5Axe@ 000000014002f1e8     Shop.obj
 0002:000031f8       ??_C@_0CG@JHKPJGKM@Base?5Ball?5Bat?5Is?5A?5Basic?5Melee?5@ 000000014002f1f8     Shop.obj
 0002:00003220       ??_C@_0L@PMMLIOHA@BroadSword@ 000000014002f220     Shop.obj
 0002:00003230       ??_C@_0CF@EBDEKKAL@Fire?5Axe?5Is?5An?5Upgraded?5Melee?5W@ 000000014002f230     Shop.obj
 0002:00003258       ??_C@_04HIBGFPH@NULL@      000000014002f258     Shop.obj
 0002:00003260       ??_C@_0CO@GIFAFAME@Broad?5Sword?5Is?5An?5Ultra?5Upgrade@ 000000014002f260     Shop.obj
 0002:00003290       ??_C@_09FMLLPGHB@desc?5text@ 000000014002f290     Shop.obj
 0002:0000329c       ??_C@_04IDNEMGLE@BLAH@     000000014002f29c     Shop.obj
 0002:000032a8       ??_C@_0L@MALGKGOF@Background@ 000000014002f2a8     Shop.obj
 0002:000032b8       ??_C@_0M@OHKMKKDH@Description@ 000000014002f2b8     Shop.obj
 0002:000032c8       ??_C@_08BPJNELHM@ARButton@ 000000014002f2c8     Shop.obj
 0002:000032d8       ??_C@_0BL@JJMBAAIG@DrawingStuff?1ShopBkrnd?4dds@ 000000014002f2d8     Shop.obj
 0002:000032f8       ??_C@_09JKFCMGLE@SMGButton@ 000000014002f2f8     Shop.obj
 0002:00003308       ??_C@_0N@HLHKLFIG@Assult?5Rifle@ 000000014002f308     Shop.obj
 0002:00003318       ??_C@_0N@IIHHBNG@PistolButton@ 000000014002f318     Shop.obj
 0002:00003328       ??_C@_0BG@MCNEBOPD@Sub?9Machine?5Gun?5Rifle@ 000000014002f328     Shop.obj
 0002:00003340       ??_C@_0M@JGMAHIOM@MeleeButton@ 000000014002f340     Shop.obj
 0002:00003350       ??_C@_0P@DLLBIDBM@Hand?5Gun?5Rifle@ 000000014002f350     Shop.obj
 0002:00003360       ??_C@_07CJFOONCK@Upgrade@  000000014002f360     Shop.obj
 0002:00003368       ??_C@_0N@PBIKEDED@Melee?5Weapon@ 000000014002f368     Shop.obj
 0002:00003378       ??_C@_07CNHFDDPI@UPGRADE@  000000014002f378     Shop.obj
 0002:00003380       ??_C@_0BE@JONHPENG@map?1set?$DMT?$DO?5too?5long@ 000000014002f380     Shop.obj
 0002:00003440       ??_C@_1BE@IFKMICJ@?$AAS?$AAk?$AAy?$AAb?$AAo?$AAx?$AA?4?$AAv?$AAs@ 000000014002f440     SkyboxShader.obj
 0002:00003458       ??_C@_1BE@NOADCLDE@?$AAS?$AAk?$AAy?$AAb?$AAo?$AAx?$AA?4?$AAp?$AAs@ 000000014002f458     SkyboxShader.obj
 0002:00003470       ??_C@_0N@GHJAGKJK@SkyboxVertex@ 000000014002f470     SkyboxShader.obj
 0002:00003480       ??_C@_06KFINLFAI@vs_5_0@   000000014002f480     SkyboxShader.obj
 0002:00003488       ??_C@_04GHJNJNPO@main@     000000014002f488     SkyboxShader.obj
 0002:00003490       ??_C@_06MGFNIADC@ps_5_0@   000000014002f490     SkyboxShader.obj
 0002:00003498       ??_C@_06IOJAGNKJ@NORMAL@   000000014002f498     SkyboxShader.obj
 0002:000034a0       ??_C@_08JPMAAECC@POSITION@ 000000014002f4a0     SkyboxShader.obj
 0002:000034b0       ??_C@_07HOFFNMLH@TANGENT@  000000014002f4b0     SkyboxShader.obj
 0002:000034b8       ??_C@_08CMDKBPJM@TEXCOORD@ 000000014002f4b8     SkyboxShader.obj
 0002:000034c8       ??_C@_07LFAKKHED@WEIGHTS@  000000014002f4c8     SkyboxShader.obj
 0002:000034d0       ??_C@_06KIONCPMC@JOINTS@   000000014002f4d0     SkyboxShader.obj
 0002:000034d8       ??_C@_0BB@CPLHHHAN@ShaderErrors?4txt@ 000000014002f4d8     SkyboxShader.obj
 0002:000034f8       ??_7?$basic_ofstream@DU?$char_traits@D@std@@@std@@6B@ 000000014002f4f8     SkyboxShader.obj
 0002:00003500       ??_C@_02JDPG@rb@           000000014002f500     Sound.obj
 0002:00003508       ??_C@_1BO@LHCOKABK@?$AAP?$AAi?$AAx?$AAe?$AAl?$AAS?$AAh?$AAa?$AAd?$AAe?$AAr?$AA?4?$AAp?$AAs@ 000000014002f508     StaticShader.obj
 0002:00003528       ??_C@_04KGFMLCPK@Main@     000000014002f528     StaticShader.obj
 0002:00003530       ??_C@_1CM@BBMBNGLM@?$AAV?$AAe?$AAr?$AAt?$AAe?$AAx?$AAS?$AAh?$AAa?$AAd?$AAe?$AAr?$AAS?$AAt?$AAa@ 000000014002f530     StaticShader.obj
 0002:00003568       ??_7TextElement@@6B@       000000014002f568     UIElement.obj
 0002:00003580       ??_7ButtonElement@@6B@     000000014002f580     UIElement.obj
 0002:00003598       ??_7UIElement@@6B@         000000014002f598     UIElement.obj
 0002:000035b0       ??_7ImageElement@@6B@      000000014002f5b0     UIElement.obj
 0002:000035c8       ??_7Target@@6B@            000000014002f5c8     Target.obj
 0002:000035f8       _GUID_7b816b45_1996_4476_b132_de9e247c8af0 000000014002f5f8     WICTextureLoader.obj
 0002:00003608       _GUID_ec5ec8a9_c395_4314_9c77_54d7a935ff70 000000014002f608     WICTextureLoader.obj
 0002:00003618       _GUID_e8eda601_3d48_431a_ab44_69059be88bbe 000000014002f618     WICTextureLoader.obj
 0002:00003628       ??_C@_1DA@BEBIPIPI@?$AAS?$AAy?$AAs?$AAt?$AAe?$AAm?$AA?4?$AAI?$AAm?$AAa?$AAg?$AAe?$AA?4?$AAC?$AAo@ 000000014002f628     WICTextureLoader.obj
 0002:00003658       ??_C@_1CM@MFDJCGCC@?$AA?1?$AAs?$AAR?$AAG?$AAB?$AA?1?$AAR?$AAe?$AAn?$AAd?$AAe?$AAr?$AAi?$AAn?$AAg@ 000000014002f658     WICTextureLoader.obj
 0002:00003688       ??_C@_1CA@JLBIJNHP@?$AAV?$AAe?$AAr?$AAt?$AAe?$AAx?$AAS?$AAh?$AAa?$AAd?$AAe?$AAr?$AA?4?$AAv?$AAs@ 000000014002f688     shaderstuff.obj
 0002:00003888       __real@32cd365b            000000014002f888     DebugCamera.obj
 0002:0000388c       __real@348bdd11            000000014002f88c     DebugCamera.obj
 0002:00003890       __real@3638b88e            000000014002f890     DebugCamera.obj
 0002:00003894       __real@37cfb4c2            000000014002f894     DebugCamera.obj
 0002:00003898       __real@39500bf1            000000014002f898     DebugCamera.obj
 0002:0000389c       __real@3ab609aa            000000014002f89c     DebugCamera.obj
 0002:000038a0       __real@3c088886            000000014002f8a0     DebugCamera.obj
 0002:000038a4       __real@3ccccccd            000000014002f8a4     GameObject.obj
 0002:000038a8       __real@3d2aaaa3            000000014002f8a8     DebugCamera.obj
 0002:000038ac       __real@3dcccccd            000000014002f8ac     Camera.obj
 0002:000038b0       __real@3e22f983            000000014002f8b0     DebugCamera.obj
 0002:000038b4       __real@3e2aaaab            000000014002f8b4     DebugCamera.obj
 0002:000038b8       __real@3e800000            000000014002f8b8     Player.obj
 0002:000038bc       __real@3e99999a            000000014002f8bc     DebugCamera.obj
 0002:000038c0       __real@3ec90fdb            000000014002f8c0     dxstuff.obj
 0002:000038c4       __real@3ecccccd            000000014002f8c4     Bullet.obj
 0002:000038c8       __real@3f000000            000000014002f8c8     DebugCamera.obj
 0002:000038cc       __real@3f333333            000000014002f8cc     Target.obj
 0002:000038d0       __real@3f400000            000000014002f8d0     Player.obj
 0002:000038d4       __real@3f4ccccd            000000014002f8d4     RangedEnemy.obj
 0002:000038d8       __real@3f800000            000000014002f8d8     graphicsclass.obj
 0002:000038e0       __real@3fb999999999999a    000000014002f8e0     MyWindow.obj
 0002:000038e8       __real@3fc00000            000000014002f8e8     GameManager.obj
 0002:000038ec       __real@3fc90fd0            000000014002f8ec     Player.obj
 0002:000038f0       __real@3fc90fdb            000000014002f8f0     DebugCamera.obj
 0002:000038f8       __real@3fd0000000000000    000000014002f8f8     graphicsclass.obj
 0002:00003900       __real@3ff0000000000000    000000014002f900     MyWindow.obj
 0002:00003908       __real@3ff8000000000000    000000014002f908     graphicsclass.obj
 0002:00003910       __real@40000000            000000014002f910     graphicsclass.obj
 0002:00003914       __real@40200000            000000014002f914     RangedEnemy.obj
 0002:00003918       __real@4034000000000000    000000014002f918     Camera.obj
 0002:00003920       __real@40400000            000000014002f920     Target.obj
 0002:00003924       __real@40490fdb            000000014002f924     DebugCamera.obj
 0002:00003928       __real@40800000            000000014002f928     GameManager.obj
 0002:0000392c       __real@40a00000            000000014002f92c     RangedEnemy.obj
 0002:00003930       __real@40c90fdb            000000014002f930     DebugCamera.obj
 0002:00003934       __real@40e00000            000000014002f934     GameManager.obj
 0002:00003938       __real@41000000            000000014002f938     GameManager.obj
 0002:0000393c       __real@41200000            000000014002f93c     graphicsclass.obj
 0002:00003940       __real@41400000            000000014002f940     Shop.obj
 0002:00003944       __real@41700000            000000014002f944     DebugCamera.obj
 0002:00003948       __real@41900000            000000014002f948     Shop.obj
 0002:0000394c       __real@41980000            000000014002f94c     Shop.obj
 0002:00003950       __real@41a00000            000000014002f950     Shop.obj
 0002:00003954       __real@41c80000            000000014002f954     Shop.obj
 0002:00003958       __real@41f00000            000000014002f958     Shop.obj
 0002:0000395c       __real@420c0000            000000014002f95c     Shop.obj
 0002:00003960       __real@42200000            000000014002f960     Shop.obj
 0002:00003964       __real@42480000            000000014002f964     Shop.obj
 0002:00003968       __real@42700000            000000014002f968     MyWindow.obj
 0002:0000396c       __real@428c0000            000000014002f96c     Shop.obj
 0002:00003970       __real@42c80000            000000014002f970     RangedEnemy.obj
 0002:00003974       __real@43160000            000000014002f974     Shop.obj
 0002:00003978       __real@43200000            000000014002f978     Shop.obj
 0002:0000397c       __real@43480000            000000014002f97c     Shop.obj
 0002:00003980       __real@43610000            000000014002f980     Shop.obj
 0002:00003984       __real@43960000            000000014002f984     graphicsclass.obj
 0002:00003988       __real@43b40000            000000014002f988     GameManager.obj
 0002:0000398c       __real@43cd0000            000000014002f98c     MyWindow.obj
 0002:00003990       __real@43e60000            000000014002f990     MyWindow.obj
 0002:00003994       __real@43fa0000            000000014002f994     Shop.obj
 0002:00003998       __real@43ff0000            000000014002f998     MyWindow.obj
 0002:0000399c       __real@44138000            000000014002f99c     MyWindow.obj
 0002:000039a0       __real@44160000            000000014002f9a0     MyWindow.obj
 0002:000039a4       __real@441b0000            000000014002f9a4     MyWindow.obj
 0002:000039a8       __real@44200000            000000014002f9a8     GameManager.obj
 0002:000039ac       __real@447a0000            000000014002f9ac     MyWindow.obj
 0002:000039b0       __real@44870000            000000014002f9b0     MyWindow.obj
 0002:000039b4       __real@44f00000            000000014002f9b4     MyWindow.obj
 0002:000039b8       __real@453b8000            000000014002f9b8     RangedEnemy.obj
 0002:000039bc       __real@461c4000            000000014002f9bc     graphicsclass.obj
 0002:000039c0       __real@46fffe00            000000014002f9c0     Target.obj
 0002:000039c4       __real@5f800000            000000014002f9c4     WICTextureLoader.obj
 0002:000039c8       __real@7f7fffff            000000014002f9c8     SkyboxShader.obj
 0002:000039cc       __real@be800000            000000014002f9cc     Camera.obj
 0002:000039d0       __real@be99999a            000000014002f9d0     DebugCamera.obj
 0002:000039d4       __real@bf000000            000000014002f9d4     GameManager.obj
 0002:000039d8       __real@bf4ccccd            000000014002f9d8     Target.obj
 0002:000039dc       __real@bf800000            000000014002f9dc     graphicsclass.obj
 0002:000039e0       __real@bfc90fd0            000000014002f9e0     Player.obj
 0002:000039e4       __real@bfc90fdb            000000014002f9e4     DebugCamera.obj
 0002:000039e8       __real@c0490fdb            000000014002f9e8     DebugCamera.obj
 0002:000039ec       __real@c2c80000            000000014002f9ec     GameManager.obj
 0002:000039f0       __xmm@00000000000000000000000000000001 000000014002f9f0     graphicsclass.obj
 0002:00003a00       __xmm@0000000000000000000000003d0f5c29 000000014002fa00     graphicsclass.obj
 0002:00003a10       __xmm@0000000000000000000000003e800000 000000014002fa10     graphicsclass.obj
 0002:00003a20       __xmm@0000000000000000000000003f800000 000000014002fa20     graphicsclass.obj
 0002:00003a30       __xmm@0000000000000000000000003fa00000 000000014002fa30     graphicsclass.obj
 0002:00003a40       __xmm@00000000000000000000000044610000 000000014002fa40     graphicsclass.obj
 0002:00003a50       __xmm@00000000000000000000000200000003 000000014002fa50     dxstuff.obj
 0002:00003a60       __xmm@00000000000000000000000300000003 000000014002fa60     graphicsclass.obj
 0002:00003a70       __xmm@00000000000000003d0f5c2900000000 000000014002fa70     graphicsclass.obj
 0002:00003a80       __xmm@00000000000000003e80000000000000 000000014002fa80     graphicsclass.obj
 0002:00003a90       __xmm@00000000000000003f80000000000000 000000014002fa90     graphicsclass.obj
 0002:00003aa0       __xmm@00000000000000003fa0000000000000 000000014002faa0     graphicsclass.obj
 0002:00003ab0       __xmm@00000000000000004040000000000000 000000014002fab0     graphicsclass.obj
 0002:00003ac0       __xmm@00000000000000004461000000000000 000000014002fac0     graphicsclass.obj
 0002:00003ad0       __xmm@00000000000000020000000100000001 000000014002fad0     graphicsclass.obj
 0002:00003ae0       __xmm@000000000000000f0000000000000000 000000014002fae0     GameManager.obj
 0002:00003af0       __xmm@000000003d0f5c290000000000000000 000000014002faf0     graphicsclass.obj
 0002:00003b00       __xmm@000000003e8000000000000000000000 000000014002fb00     graphicsclass.obj
 0002:00003b10       __xmm@000000003f8000000000000000000000 000000014002fb10     graphicsclass.obj
 0002:00003b20       __xmm@000000003fa000000000000000000000 000000014002fb20     graphicsclass.obj
 0002:00003b30       __xmm@00000000446100000000000000000000 000000014002fb30     graphicsclass.obj
 0002:00003b40       __xmm@00000000bf8000000000000000000000 000000014002fb40     Camera.obj
 0002:00003b50       __xmm@00000000c0a000004040000000000000 000000014002fb50     Camera.obj
 0002:00003b60       __xmm@00000001000000010000000100000015 000000014002fb60     shaderstuff.obj
 0002:00003b70       __xmm@00000001000000010000000100000055 000000014002fb70     SkyboxShader.obj
 0002:00003b80       __xmm@00000001000000010000000200000000 000000014002fb80     graphicsclass.obj
 0002:00003b90       __xmm@00000001000000020000000100000001 000000014002fb90     dxstuff.obj
 0002:00003ba0       __xmm@00000008000000010000000100000001 000000014002fba0     graphicsclass.obj
 0002:00003bb0       __xmm@00000008000000010000000700000001 000000014002fbb0     dxstuff.obj
 0002:00003bc0       __xmm@00000008000000010000000800000001 000000014002fbc0     dxstuff.obj
 0002:00003bd0       __xmm@3f80000000000000000000003f800000 000000014002fbd0     graphicsclass.obj
 0002:00003be0       __xmm@3f800000000000003f4000003f99999a 000000014002fbe0     graphicsclass.obj
 0002:00003bf0       __xmm@3f800000000000003f80000000000000 000000014002fbf0     graphicsclass.obj
 0002:00003c00       __xmm@3f8000000000000041c8000000000000 000000014002fc00     graphicsclass.obj
 0002:00003c10       __xmm@3f80000000000000bf400000bf99999a 000000014002fc10     graphicsclass.obj
 0002:00003c20       __xmm@3f80000000000000bf80000000000000 000000014002fc20     graphicsclass.obj
 0002:00003c30       __xmm@3f8000003f8000000000000000000000 000000014002fc30     graphicsclass.obj
 0002:00003c40       __xmm@3f8000003f8000003f8000003f800000 000000014002fc40     graphicsclass.obj
 0002:00003c50       __xmm@3f80000042c800003f7c6a7f3f7ced91 000000014002fc50     graphicsclass.obj
 0002:00003c60       __xmm@3f800000c12000004040000000000000 000000014002fc60     dxstuff.obj
 0002:00003c70       __xmm@40600000406000004060000040600000 000000014002fc70     Camera.obj
 0002:00003c80       __xmm@40a00000412000004040000000000000 000000014002fc80     graphicsclass.obj
 0002:00003c90       __xmm@40a00000c12000004040000000000000 000000014002fc90     graphicsclass.obj
 0002:00003ca0       __xmm@80000000800000008000000080000000 000000014002fca0     graphicsclass.obj
 0002:00003cb0       __xmm@bf800000412000000000000000000000 000000014002fcb0     dxstuff.obj
 0002:00003cc0       __xmm@ffffffffffffffffffffffffffffffff 000000014002fcc0     Animation.obj
 0002:00004680       _load_config_used          0000000140030680     MSVCRT:loadcfg.obj
 0002:00004780       _tls_used                  0000000140030780     MSVCRT:tlssup.obj
 0002:000047b0       ??_R4?$_Ref_count_obj@UResourceMap@?$SharedResourcePool@PEAUID3D11DeviceContext@@UContextResources@Impl@SpriteBatch@DirectX@@$$V@DirectX@@@std@@6B@ 00000001400307b0     DirectXTK:SpriteBatch.obj
 0002:000047d8       ??_R3?$_Ref_count_obj@UResourceMap@?$SharedResourcePool@PEAUID3D11DeviceContext@@UContextResources@Impl@SpriteBatch@DirectX@@$$V@DirectX@@@std@@8 00000001400307d8     DirectXTK:SpriteBatch.obj
 0002:000047f0       ??_R2?$_Ref_count_obj@UResourceMap@?$SharedResourcePool@PEAUID3D11DeviceContext@@UContextResources@Impl@SpriteBatch@DirectX@@$$V@DirectX@@@std@@8 00000001400307f0     DirectXTK:SpriteBatch.obj
 0002:00004808       ??_R1A@?0A@EA@?$_Ref_count_obj@UResourceMap@?$SharedResourcePool@PEAUID3D11DeviceContext@@UContextResources@Impl@SpriteBatch@DirectX@@$$V@DirectX@@@std@@8 0000000140030808     DirectXTK:SpriteBatch.obj
 0002:00004830       ??_R4?$_Ref_count_obj@UResourceMap@?$SharedResourcePool@PEAUID3D11Device@@UDeviceResources@Impl@SpriteBatch@DirectX@@$$V@DirectX@@@std@@6B@ 0000000140030830     DirectXTK:SpriteBatch.obj
 0002:00004858       ??_R3?$_Ref_count_obj@UResourceMap@?$SharedResourcePool@PEAUID3D11Device@@UDeviceResources@Impl@SpriteBatch@DirectX@@$$V@DirectX@@@std@@8 0000000140030858     DirectXTK:SpriteBatch.obj
 0002:00004870       ??_R2?$_Ref_count_obj@UResourceMap@?$SharedResourcePool@PEAUID3D11Device@@UDeviceResources@Impl@SpriteBatch@DirectX@@$$V@DirectX@@@std@@8 0000000140030870     DirectXTK:SpriteBatch.obj
 0002:00004888       ??_R1A@?0A@EA@?$_Ref_count_obj@UResourceMap@?$SharedResourcePool@PEAUID3D11Device@@UDeviceResources@Impl@SpriteBatch@DirectX@@$$V@DirectX@@@std@@8 0000000140030888     DirectXTK:SpriteBatch.obj
 0002:000048b0       ??_R3_Ref_count_base@std@@8 00000001400308b0     DirectXTK:SpriteBatch.obj
 0002:000048c8       ??_R2_Ref_count_base@std@@8 00000001400308c8     DirectXTK:SpriteBatch.obj
 0002:000048d8       ??_R1A@?0A@EA@_Ref_count_base@std@@8 00000001400308d8     DirectXTK:SpriteBatch.obj
 0002:00004900       ??_R4bad_alloc@std@@6B@    0000000140030900     DirectXTK:SpriteBatch.obj
 0002:00004928       ??_R3bad_alloc@std@@8      0000000140030928     DirectXTK:SpriteBatch.obj
 0002:00004940       ??_R2bad_alloc@std@@8      0000000140030940     DirectXTK:SpriteBatch.obj
 0002:00004958       ??_R1A@?0A@EA@bad_alloc@std@@8 0000000140030958     DirectXTK:SpriteBatch.obj
 0002:00004980       ??_R4SpriteBatch@DirectX@@6B@ 0000000140030980     DirectXTK:SpriteBatch.obj
 0002:000049a8       ??_R3SpriteBatch@DirectX@@8 00000001400309a8     DirectXTK:SpriteBatch.obj
 0002:000049c0       ??_R2SpriteBatch@DirectX@@8 00000001400309c0     DirectXTK:SpriteBatch.obj
 0002:000049d0       ??_R1A@?0A@EA@SpriteBatch@DirectX@@8 00000001400309d0     DirectXTK:SpriteBatch.obj
 0002:000049f8       ??_R4com_exception@DirectX@@6B@ 00000001400309f8     DirectXTK:SpriteBatch.obj
 0002:00004a20       ??_R3com_exception@DirectX@@8 0000000140030a20     DirectXTK:SpriteBatch.obj
 0002:00004a38       ??_R2com_exception@DirectX@@8 0000000140030a38     DirectXTK:SpriteBatch.obj
 0002:00004a50       ??_R1A@?0A@EA@com_exception@DirectX@@8 0000000140030a50     DirectXTK:SpriteBatch.obj
 0002:00004a78       ??_R4?$_Ref_count_obj@UWrappedData@?$SharedResourcePool@PEAUID3D11DeviceContext@@UContextResources@Impl@SpriteBatch@DirectX@@$$V@DirectX@@@std@@6B@ 0000000140030a78     DirectXTK:SpriteBatch.obj
 0002:00004aa0       ??_R3?$_Ref_count_obj@UWrappedData@?$SharedResourcePool@PEAUID3D11DeviceContext@@UContextResources@Impl@SpriteBatch@DirectX@@$$V@DirectX@@@std@@8 0000000140030aa0     DirectXTK:SpriteBatch.obj
 0002:00004ab8       ??_R2?$_Ref_count_obj@UWrappedData@?$SharedResourcePool@PEAUID3D11DeviceContext@@UContextResources@Impl@SpriteBatch@DirectX@@$$V@DirectX@@@std@@8 0000000140030ab8     DirectXTK:SpriteBatch.obj
 0002:00004ad0       ??_R1A@?0A@EA@?$_Ref_count_obj@UWrappedData@?$SharedResourcePool@PEAUID3D11DeviceContext@@UContextResources@Impl@SpriteBatch@DirectX@@$$V@DirectX@@@std@@8 0000000140030ad0     DirectXTK:SpriteBatch.obj
 0002:00004af8       ??_R4?$_Ref_count_obj@UWrappedData@?$SharedResourcePool@PEAUID3D11Device@@UDeviceResources@Impl@SpriteBatch@DirectX@@$$V@DirectX@@@std@@6B@ 0000000140030af8     DirectXTK:SpriteBatch.obj
 0002:00004b20       ??_R3?$_Ref_count_obj@UWrappedData@?$SharedResourcePool@PEAUID3D11Device@@UDeviceResources@Impl@SpriteBatch@DirectX@@$$V@DirectX@@@std@@8 0000000140030b20     DirectXTK:SpriteBatch.obj
 0002:00004b38       ??_R2?$_Ref_count_obj@UWrappedData@?$SharedResourcePool@PEAUID3D11Device@@UDeviceResources@Impl@SpriteBatch@DirectX@@$$V@DirectX@@@std@@8 0000000140030b38     DirectXTK:SpriteBatch.obj
 0002:00004b50       ??_R1A@?0A@EA@?$_Ref_count_obj@UWrappedData@?$SharedResourcePool@PEAUID3D11Device@@UDeviceResources@Impl@SpriteBatch@DirectX@@$$V@DirectX@@@std@@8 0000000140030b50     DirectXTK:SpriteBatch.obj
 0002:00004b78       ??_R4runtime_error@std@@6B@ 0000000140030b78     DirectXTK:SpriteFont.obj
 0002:00004ba0       ??_R3runtime_error@std@@8  0000000140030ba0     DirectXTK:SpriteFont.obj
 0002:00004bb8       ??_R2runtime_error@std@@8  0000000140030bb8     DirectXTK:SpriteFont.obj
 0002:00004bd0       ??_R1A@?0A@EA@runtime_error@std@@8 0000000140030bd0     DirectXTK:SpriteFont.obj
 0002:00004bf8       ??_R4overflow_error@std@@6B@ 0000000140030bf8     DirectXTK:SpriteFont.obj
 0002:00004c20       ??_R3overflow_error@std@@8 0000000140030c20     DirectXTK:SpriteFont.obj
 0002:00004c38       ??_R2overflow_error@std@@8 0000000140030c38     DirectXTK:SpriteFont.obj
 0002:00004c58       ??_R1A@?0A@EA@overflow_error@std@@8 0000000140030c58     DirectXTK:SpriteFont.obj
 0002:00004c80       ??_R4SpriteFont@DirectX@@6B@ 0000000140030c80     DirectXTK:SpriteFont.obj
 0002:00004ca8       ??_R3SpriteFont@DirectX@@8 0000000140030ca8     DirectXTK:SpriteFont.obj
 0002:00004cc0       ??_R2SpriteFont@DirectX@@8 0000000140030cc0     DirectXTK:SpriteFont.obj
 0002:00004cd0       ??_R1A@?0A@EA@SpriteFont@DirectX@@8 0000000140030cd0     DirectXTK:SpriteFont.obj
 0002:00004cf8       ??_R4?$_Ref_count_obj@UResourceMap@?$SharedResourcePool@PEAUID3D11Device@@VImpl@CommonStates@DirectX@@$$V@DirectX@@@std@@6B@ 0000000140030cf8     DirectXTK:CommonStates.obj
 0002:00004d20       ??_R3?$_Ref_count_obj@UResourceMap@?$SharedResourcePool@PEAUID3D11Device@@VImpl@CommonStates@DirectX@@$$V@DirectX@@@std@@8 0000000140030d20     DirectXTK:CommonStates.obj
 0002:00004d38       ??_R2?$_Ref_count_obj@UResourceMap@?$SharedResourcePool@PEAUID3D11Device@@VImpl@CommonStates@DirectX@@$$V@DirectX@@@std@@8 0000000140030d38     DirectXTK:CommonStates.obj
 0002:00004d50       ??_R1A@?0A@EA@?$_Ref_count_obj@UResourceMap@?$SharedResourcePool@PEAUID3D11Device@@VImpl@CommonStates@DirectX@@$$V@DirectX@@@std@@8 0000000140030d50     DirectXTK:CommonStates.obj
 0002:00004d78       ??_R4CommonStates@DirectX@@6B@ 0000000140030d78     DirectXTK:CommonStates.obj
 0002:00004da0       ??_R3CommonStates@DirectX@@8 0000000140030da0     DirectXTK:CommonStates.obj
 0002:00004db8       ??_R2CommonStates@DirectX@@8 0000000140030db8     DirectXTK:CommonStates.obj
 0002:00004dc8       ??_R1A@?0A@EA@CommonStates@DirectX@@8 0000000140030dc8     DirectXTK:CommonStates.obj
 0002:00004df0       ??_R4?$_Ref_count_obj@UWrappedData@?$SharedResourcePool@PEAUID3D11Device@@VImpl@CommonStates@DirectX@@$$V@DirectX@@@std@@6B@ 0000000140030df0     DirectXTK:CommonStates.obj
 0002:00004e18       ??_R3?$_Ref_count_obj@UWrappedData@?$SharedResourcePool@PEAUID3D11Device@@VImpl@CommonStates@DirectX@@$$V@DirectX@@@std@@8 0000000140030e18     DirectXTK:CommonStates.obj
 0002:00004e30       ??_R2?$_Ref_count_obj@UWrappedData@?$SharedResourcePool@PEAUID3D11Device@@VImpl@CommonStates@DirectX@@$$V@DirectX@@@std@@8 0000000140030e30     DirectXTK:CommonStates.obj
 0002:00004e48       ??_R1A@?0A@EA@?$_Ref_count_obj@UWrappedData@?$SharedResourcePool@PEAUID3D11Device@@VImpl@CommonStates@DirectX@@$$V@DirectX@@@std@@8 0000000140030e48     DirectXTK:CommonStates.obj
 0002:00004e70       ??_R4type_info@@6B@        0000000140030e70     MSVCRT:std_type_info_static.obj
 0002:00004e98       ??_R3type_info@@8          0000000140030e98     MSVCRT:std_type_info_static.obj
 0002:00004eb0       ??_R2type_info@@8          0000000140030eb0     MSVCRT:std_type_info_static.obj
 0002:00004ec0       ??_R1A@?0A@EA@type_info@@8 0000000140030ec0     MSVCRT:std_type_info_static.obj
 0002:00004ee8       ??_R4bad_array_new_length@std@@6B@ 0000000140030ee8     MSVCRT:throw_bad_alloc.obj
 0002:00004f10       ??_R3bad_array_new_length@std@@8 0000000140030f10     MSVCRT:throw_bad_alloc.obj
 0002:00004f28       ??_R2bad_array_new_length@std@@8 0000000140030f28     MSVCRT:throw_bad_alloc.obj
 0002:00004f48       ??_R1A@?0A@EA@bad_array_new_length@std@@8 0000000140030f48     MSVCRT:throw_bad_alloc.obj
 0002:00004f70       ??_R3?$basic_istream@DU?$char_traits@D@std@@@std@@8 0000000140030f70     Animation.obj
 0002:00004f88       ??_R3?$basic_iostream@DU?$char_traits@D@std@@@std@@8 0000000140030f88     Animation.obj
 0002:00004fa0       ??_R2?$basic_fstream@DU?$char_traits@D@std@@@std@@8 0000000140030fa0     Animation.obj
 0002:00004ff8       ??_R4exception@std@@6B@    0000000140030ff8     Animation.obj
 0002:00005020       ??_R1A@?0A@EA@?$basic_istream@DU?$char_traits@D@std@@@std@@8 0000000140031020     Animation.obj
 0002:00005048       ??_R1A@?0A@EA@bad_cast@std@@8 0000000140031048     Animation.obj
 0002:00005070       ??_R3?$basic_fstream@DU?$char_traits@D@std@@@std@@8 0000000140031070     Animation.obj
 0002:00005088       ??_R17A@3EA@?$_Iosb@H@std@@8 0000000140031088     Animation.obj
 0002:000050b0       ??_R1A@?0A@EA@?$basic_fstream@DU?$char_traits@D@std@@@std@@8 00000001400310b0     Animation.obj
 0002:000050d8       ??_R1A@?0A@EA@exception@std@@8 00000001400310d8     Animation.obj
 0002:00005100       ??_R1A@?0A@EA@?$basic_streambuf@DU?$char_traits@D@std@@@std@@8 0000000140031100     Animation.obj
 0002:00005128       ??_R2?$basic_istream@DU?$char_traits@D@std@@@std@@8 0000000140031128     Animation.obj
 0002:00005150       ??_R2bad_cast@std@@8       0000000140031150     Animation.obj
 0002:00005168       ??_R2exception@std@@8      0000000140031168     Animation.obj
 0002:00005178       ??_R2?$basic_ostream@DU?$char_traits@D@std@@@std@@8 0000000140031178     Animation.obj
 0002:000051a0       ??_R3?$basic_ios@DU?$char_traits@D@std@@@std@@8 00000001400311a0     Animation.obj
 0002:000051b8       ??_R1BA@?0A@EA@?$basic_ostream@DU?$char_traits@D@std@@@std@@8 00000001400311b8     Animation.obj
 0002:000051e0       ??_R1A@?0A@EA@ios_base@std@@8 00000001400311e0     Animation.obj
 0002:00005208       ??_R3exception@std@@8      0000000140031208     Animation.obj
 0002:00005220       ??_R1A@?0A@EA@?$basic_ostream@DU?$char_traits@D@std@@@std@@8 0000000140031220     Animation.obj
 0002:00005248       ??_R4?$basic_filebuf@DU?$char_traits@D@std@@@std@@6B@ 0000000140031248     Animation.obj
 0002:00005270       ??_R2?$basic_streambuf@DU?$char_traits@D@std@@@std@@8 0000000140031270     Animation.obj
 0002:00005280       ??_R1A@?0A@EA@?$_Iosb@H@std@@8 0000000140031280     Animation.obj
 0002:000052b0       ??_R2?$basic_iostream@DU?$char_traits@D@std@@@std@@8 00000001400312b0     Animation.obj
 0002:00005300       ??_R3bad_cast@std@@8       0000000140031300     Animation.obj
 0002:00005318       ??_R4bad_cast@std@@6B@     0000000140031318     Animation.obj
 0002:00005340       ??_R1A@?0A@EA@?$basic_filebuf@DU?$char_traits@D@std@@@std@@8 0000000140031340     Animation.obj
 0002:00005368       ??_R1A@A@3FA@?$basic_ios@DU?$char_traits@D@std@@@std@@8 0000000140031368     Animation.obj
 0002:00005390       ??_R3?$basic_filebuf@DU?$char_traits@D@std@@@std@@8 0000000140031390     Animation.obj
 0002:000053a8       ??_R2ios_base@std@@8       00000001400313a8     Animation.obj
 0002:000053c0       ??_R3?$basic_ostream@DU?$char_traits@D@std@@@std@@8 00000001400313c0     Animation.obj
 0002:000053d8       ??_R1A@?0A@EA@?$basic_iostream@DU?$char_traits@D@std@@@std@@8 00000001400313d8     Animation.obj
 0002:00005400       ??_R3ios_base@std@@8       0000000140031400     Animation.obj
 0002:00005418       ??_R2?$basic_filebuf@DU?$char_traits@D@std@@@std@@8 0000000140031418     Animation.obj
 0002:00005430       ??_R3?$basic_streambuf@DU?$char_traits@D@std@@@std@@8 0000000140031430     Animation.obj
 0002:00005448       ??_R2?$_Iosb@H@std@@8      0000000140031448     Animation.obj
 0002:00005458       ??_R1A@A@3EA@ios_base@std@@8 0000000140031458     Animation.obj
 0002:00005480       ??_R1A@?0A@EA@?$basic_ios@DU?$char_traits@D@std@@@std@@8 0000000140031480     Animation.obj
 0002:000054a8       ??_R4?$basic_fstream@DU?$char_traits@D@std@@@std@@6B@ 00000001400314a8     Animation.obj
 0002:000054d0       ??_R3?$_Iosb@H@std@@8      00000001400314d0     Animation.obj
 0002:000054e8       ??_R17?0A@EA@?$_Iosb@H@std@@8 00000001400314e8     Animation.obj
 0002:00005510       ??_R2?$basic_ios@DU?$char_traits@D@std@@@std@@8 0000000140031510     Animation.obj
 0002:00005530       ??_R3Bullet@@8             0000000140031530     Bullet.obj
 0002:00005548       ??_R2Bullet@@8             0000000140031548     Bullet.obj
 0002:00005560       ??_R1A@?0A@EA@Bullet@@8    0000000140031560     Bullet.obj
 0002:00005588       ??_R1A@?0A@EA@GameObject@@8 0000000140031588     Bullet.obj
 0002:000055b0       ??_R2GameObject@@8         00000001400315b0     Bullet.obj
 0002:000055c0       ??_R4Bullet@@6B@           00000001400315c0     Bullet.obj
 0002:000055e8       ??_R3GameObject@@8         00000001400315e8     Bullet.obj
 0002:00005600       ??_R1A@?0A@EA@Enemy@@8     0000000140031600     Enemy.obj
 0002:00005628       ??_R3Enemy@@8              0000000140031628     Enemy.obj
 0002:00005640       ??_R2Enemy@@8              0000000140031640     Enemy.obj
 0002:00005658       ??_R4Enemy@@6B@            0000000140031658     Enemy.obj
 0002:00005680       ??_R4GameObject@@6B@       0000000140031680     GameObject.obj
 0002:00005740       ??_R3?$_Func_base@X$$V@std@@8 0000000140031740     MyWindow.obj
 0002:00005858       ??_R2?$_Func_base@X$$V@std@@8 0000000140031858     MyWindow.obj
 0002:00005880       ??_R1A@?0A@EA@?$_Func_base@X$$V@std@@8 0000000140031880     MyWindow.obj
 0002:00005a78       ??_R3Pickup@@8             0000000140031a78     Pickup.obj
 0002:00005a90       ??_R4Pickup@@6B@           0000000140031a90     Pickup.obj
 0002:00005ab8       ??_R2Pickup@@8             0000000140031ab8     Pickup.obj
 0002:00005ad0       ??_R1A@?0A@EA@Pickup@@8    0000000140031ad0     Pickup.obj
 0002:00005af8       ??_R4Player@@6B@           0000000140031af8     Player.obj
 0002:00005b20       ??_R1A@?0A@EA@Player@@8    0000000140031b20     Player.obj
 0002:00005b48       ??_R2Player@@8             0000000140031b48     Player.obj
 0002:00005b60       ??_R3Player@@8             0000000140031b60     Player.obj
 0002:00005b78       ??_R1A@?0A@EA@RangedEnemy@@8 0000000140031b78     RangedEnemy.obj
 0002:00005ba0       ??_R2RangedEnemy@@8        0000000140031ba0     RangedEnemy.obj
 0002:00005bc0       ??_R4RangedEnemy@@6B@      0000000140031bc0     RangedEnemy.obj
 0002:00005be8       ??_R3RangedEnemy@@8        0000000140031be8     RangedEnemy.obj
 0002:00005e80       ??_R4?$basic_ofstream@DU?$char_traits@D@std@@@std@@6B@ 0000000140031e80     SkyboxShader.obj
 0002:00005ea8       ??_R3?$basic_ofstream@DU?$char_traits@D@std@@@std@@8 0000000140031ea8     SkyboxShader.obj
 0002:00005ec0       ??_R2?$basic_ofstream@DU?$char_traits@D@std@@@std@@8 0000000140031ec0     SkyboxShader.obj
 0002:00005ef0       ??_R1A@?0A@EA@?$basic_ofstream@DU?$char_traits@D@std@@@std@@8 0000000140031ef0     SkyboxShader.obj
 0002:00005f18       ??_R3ImageElement@@8       0000000140031f18     UIElement.obj
 0002:00005f30       ??_R3UIElement@@8          0000000140031f30     UIElement.obj
 0002:00005f48       ??_R3ButtonElement@@8      0000000140031f48     UIElement.obj
 0002:00005f60       ??_R1A@?0A@EA@ImageElement@@8 0000000140031f60     UIElement.obj
 0002:00005f88       ??_R4TextElement@@6B@      0000000140031f88     UIElement.obj
 0002:00005fb0       ??_R1A@?0A@EA@ButtonElement@@8 0000000140031fb0     UIElement.obj
 0002:00005fd8       ??_R3TextElement@@8        0000000140031fd8     UIElement.obj
 0002:00005ff0       ??_R2ImageElement@@8       0000000140031ff0     UIElement.obj
 0002:00006008       ??_R2UIElement@@8          0000000140032008     UIElement.obj
 0002:00006018       ??_R1A@?0A@EA@UIElement@@8 0000000140032018     UIElement.obj
 0002:00006040       ??_R2TextElement@@8        0000000140032040     UIElement.obj
 0002:00006058       ??_R1A@?0A@EA@TextElement@@8 0000000140032058     UIElement.obj
 0002:00006080       ??_R4ButtonElement@@6B@    0000000140032080     UIElement.obj
 0002:000060a8       ??_R4UIElement@@6B@        00000001400320a8     UIElement.obj
 0002:000060d0       ??_R2ButtonElement@@8      00000001400320d0     UIElement.obj
 0002:000060e8       ??_R4ImageElement@@6B@     00000001400320e8     UIElement.obj
 0002:00006110       ??_R2Target@@8             0000000140032110     Target.obj
 0002:00006130       ??_R1A@?0A@EA@Target@@8    0000000140032130     Target.obj
 0002:00006158       ??_R4Target@@6B@           0000000140032158     Target.obj
 0002:00006180       ??_R3Target@@8             0000000140032180     Target.obj
 0002:000065d0       __rtc_iaa                  00000001400325d0     MSVCRT:initsect.obj
 0002:000065d8       __rtc_izz                  00000001400325d8     MSVCRT:initsect.obj
 0002:000065e0       __rtc_taa                  00000001400325e0     MSVCRT:initsect.obj
 0002:000065e8       __rtc_tzz                  00000001400325e8     MSVCRT:initsect.obj
 0002:000065f0       _tls_start                 00000001400325f0     MSVCRT:tlssup.obj
 0002:000065f4       _Init_thread_epoch         00000001400325f4     MSVCRT:thread_safe_statics.obj
 0002:000065f8       _tls_end                   00000001400325f8     MSVCRT:tlssup.obj
 0002:0000aa98       _TI1?AVexception@std@@     0000000140036a98     DirectXTK:SpriteBatch.obj
 0002:0000aab8       _CTA1?AVexception@std@@    0000000140036ab8     DirectXTK:SpriteBatch.obj
 0002:0000aac8       _TI2?AVcom_exception@DirectX@@ 0000000140036ac8     DirectXTK:SpriteBatch.obj
 0002:0000aae8       _CTA2?AVcom_exception@DirectX@@ 0000000140036ae8     DirectXTK:SpriteBatch.obj
 0002:0000ab00       _CT??_R0?AVcom_exception@DirectX@@@8??0com_exception@DirectX@@QEAA@AEBV01@@Z32 0000000140036b00     DirectXTK:SpriteBatch.obj
 0002:0000ab28       _TI2?AVbad_alloc@std@@     0000000140036b28     DirectXTK:SpriteBatch.obj
 0002:0000ab48       _CTA2?AVbad_alloc@std@@    0000000140036b48     DirectXTK:SpriteBatch.obj
 0002:0000ab60       _CT??_R0?AVbad_alloc@std@@@8??0bad_alloc@std@@QEAA@AEBV01@@Z24 0000000140036b60     DirectXTK:SpriteBatch.obj
 0002:0000ab88       _CT??_R0?AVruntime_error@std@@@8??0runtime_error@std@@QEAA@AEBV01@@Z24 0000000140036b88     DirectXTK:SpriteFont.obj
 0002:0000abb0       _TI3?AVoverflow_error@std@@ 0000000140036bb0     DirectXTK:SpriteFont.obj
 0002:0000abd0       _CTA3?AVoverflow_error@std@@ 0000000140036bd0     DirectXTK:SpriteFont.obj
 0002:0000abf0       _CT??_R0?AVoverflow_error@std@@@8??0overflow_error@std@@QEAA@AEBV01@@Z24 0000000140036bf0     DirectXTK:SpriteFont.obj
 0002:0000ac18       _TI3?AVbad_array_new_length@std@@ 0000000140036c18     MSVCRT:throw_bad_alloc.obj
 0002:0000ac38       _CTA3?AVbad_array_new_length@std@@ 0000000140036c38     MSVCRT:throw_bad_alloc.obj
 0002:0000ac58       _CT??_R0?AVbad_array_new_length@std@@@8??0bad_array_new_length@std@@QEAA@AEBV01@@Z24 0000000140036c58     MSVCRT:throw_bad_alloc.obj
 0002:0000ac80       _CTA2?AVbad_cast@std@@     0000000140036c80     Animation.obj
 0002:0000ac98       _TI2?AVbad_cast@std@@      0000000140036c98     Animation.obj
 0002:0000acb8       _CT??_R0?AVbad_cast@std@@@8??0bad_cast@std@@QEAA@AEBV01@@Z24 0000000140036cb8     Animation.obj
 0002:0000ace0       _CT??_R0?AVexception@std@@@8??0exception@std@@QEAA@AEBV01@@Z24 0000000140036ce0     Animation.obj
 0002:0000ad08       __IMPORT_DESCRIPTOR_KERNEL32 0000000140036d08     kernel32:KERNEL32.dll
 0002:0000ad1c       __IMPORT_DESCRIPTOR_USER32 0000000140036d1c     user32:USER32.dll
 0002:0000ad30       __IMPORT_DESCRIPTOR_GDI32  0000000140036d30     gdi32:GDI32.dll
 0002:0000ad44       __IMPORT_DESCRIPTOR_ole32  0000000140036d44     ole32:ole32.dll
 0002:0000ad58       __IMPORT_DESCRIPTOR_MSVCP140 0000000140036d58     msvcprt:MSVCP140.dll
 0002:0000ad6c       __IMPORT_DESCRIPTOR_d3d11  0000000140036d6c     d3d11:d3d11.dll
 0002:0000ad80       __IMPORT_DESCRIPTOR_dxgi   0000000140036d80     DXGI:dxgi.dll
 0002:0000ad94       __IMPORT_DESCRIPTOR_DINPUT8 0000000140036d94     dinput8:DINPUT8.dll
 0002:0000ada8       __IMPORT_DESCRIPTOR_DSOUND 0000000140036da8     dsound:DSOUND.dll
 0002:0000adbc       __IMPORT_DESCRIPTOR_WINMM  0000000140036dbc     winmm:WINMM.dll
 0002:0000add0       __IMPORT_DESCRIPTOR_D3DCOMPILER_47 0000000140036dd0     D3DCompiler:D3DCOMPILER_47.dll
 0002:0000ade4       __IMPORT_DESCRIPTOR_dbghelp 0000000140036de4     dbghelp:dbghelp.dll
 0002:0000adf8       __IMPORT_DESCRIPTOR_VCRUNTIME140 0000000140036df8     vcruntime:VCRUNTIME140.dll
 0002:0000ae0c       __IMPORT_DESCRIPTOR_api-ms-win-crt-stdio-l1-1-0 0000000140036e0c     ucrt:api-ms-win-crt-stdio-l1-1-0.dll
 0002:0000ae20       __IMPORT_DESCRIPTOR_api-ms-win-crt-filesystem-l1-1-0 0000000140036e20     ucrt:api-ms-win-crt-filesystem-l1-1-0.dll
 0002:0000ae34       __IMPORT_DESCRIPTOR_api-ms-win-crt-runtime-l1-1-0 0000000140036e34     ucrt:api-ms-win-crt-runtime-l1-1-0.dll
 0002:0000ae48       __IMPORT_DESCRIPTOR_api-ms-win-crt-utility-l1-1-0 0000000140036e48     ucrt:api-ms-win-crt-utility-l1-1-0.dll
 0002:0000ae5c       __IMPORT_DESCRIPTOR_api-ms-win-crt-time-l1-1-0 0000000140036e5c     ucrt:api-ms-win-crt-time-l1-1-0.dll
 0002:0000ae70       __IMPORT_DESCRIPTOR_api-ms-win-crt-convert-l1-1-0 0000000140036e70     ucrt:api-ms-win-crt-convert-l1-1-0.dll
 0002:0000ae84       __IMPORT_DESCRIPTOR_api-ms-win-crt-heap-l1-1-0 0000000140036e84     ucrt:api-ms-win-crt-heap-l1-1-0.dll
 0002:0000ae98       __IMPORT_DESCRIPTOR_api-ms-win-crt-string-l1-1-0 0000000140036e98     ucrt:api-ms-win-crt-string-l1-1-0.dll
 0002:0000aeac       __IMPORT_DESCRIPTOR_api-ms-win-crt-math-l1-1-0 0000000140036eac     ucrt:api-ms-win-crt-math-l1-1-0.dll
 0002:0000aec0       __IMPORT_DESCRIPTOR_api-ms-win-crt-locale-l1-1-0 0000000140036ec0     ucrt:api-ms-win-crt-locale-l1-1-0.dll
 0002:0000aed4       __NULL_IMPORT_DESCRIPTOR   0000000140036ed4     kernel32:KERNEL32.dll
 0003:00000170       _Init_global_epoch         0000000140039170     MSVCRT:thread_safe_statics.obj
 0003:00000174       __scrt_native_dllmain_reason 0000000140039174     MSVCRT:utility.obj
 0003:00000178       __security_cookie_complement 0000000140039178     MSVCRT:gs_cookie.obj
 0003:00000180       __security_cookie          0000000140039180     MSVCRT:gs_cookie.obj
 0003:00000188       _fltused                   0000000140039188     MSVCRT:fltused.obj
 0003:0000018c       __scrt_default_matherr     000000014003918c     MSVCRT:matherr.obj
 0003:00000190       __isa_available            0000000140039190     MSVCRT:cpu_disp.obj
 0003:00000194       __isa_enabled              0000000140039194     MSVCRT:cpu_disp.obj
 0003:00000198       __memcpy_nt_iters          0000000140039198     MSVCRT:cpu_disp.obj
 0003:000001a0       __scrt_ucrt_dll_is_in_use  00000001400391a0     MSVCRT:ucrt_stubs.obj
 0003:000002e0       ??_R0?AV?$_Ref_count_obj@UResourceMap@?$SharedResourcePool@PEAUID3D11DeviceContext@@UContextResources@Impl@SpriteBatch@DirectX@@$$V@DirectX@@@std@@@8 00000001400392e0     DirectXTK:SpriteBatch.obj
 0003:00000380       ??_R0?AV?$_Ref_count_obj@UResourceMap@?$SharedResourcePool@PEAUID3D11Device@@UDeviceResources@Impl@SpriteBatch@DirectX@@$$V@DirectX@@@std@@@8 0000000140039380     DirectXTK:SpriteBatch.obj
 0003:00000418       ??_R0?AV_Ref_count_base@std@@@8 0000000140039418     DirectXTK:SpriteBatch.obj
 0003:00000448       ??_R0?AVbad_alloc@std@@@8  0000000140039448     DirectXTK:SpriteBatch.obj
 0003:00000470       ??_R0?AVcom_exception@DirectX@@@8 0000000140039470     DirectXTK:SpriteBatch.obj
 0003:000004a0       ??_R0?AVSpriteBatch@DirectX@@@8 00000001400394a0     DirectXTK:SpriteBatch.obj
 0003:000004d0       ??_R0?AV?$_Ref_count_obj@UWrappedData@?$SharedResourcePool@PEAUID3D11DeviceContext@@UContextResources@Impl@SpriteBatch@DirectX@@$$V@DirectX@@@std@@@8 00000001400394d0     DirectXTK:SpriteBatch.obj
 0003:00000570       ??_R0?AV?$_Ref_count_obj@UWrappedData@?$SharedResourcePool@PEAUID3D11Device@@UDeviceResources@Impl@SpriteBatch@DirectX@@$$V@DirectX@@@std@@@8 0000000140039570     DirectXTK:SpriteBatch.obj
 0003:00000608       ??_R0?AVruntime_error@std@@@8 0000000140039608     DirectXTK:SpriteFont.obj
 0003:00000630       ??_R0?AVoverflow_error@std@@@8 0000000140039630     DirectXTK:SpriteFont.obj
 0003:00000660       ??_R0?AVSpriteFont@DirectX@@@8 0000000140039660     DirectXTK:SpriteFont.obj
 0003:00000690       ??_R0?AV?$_Ref_count_obj@UResourceMap@?$SharedResourcePool@PEAUID3D11Device@@VImpl@CommonStates@DirectX@@$$V@DirectX@@@std@@@8 0000000140039690     DirectXTK:CommonStates.obj
 0003:00000720       ??_R0?AVCommonStates@DirectX@@@8 0000000140039720     DirectXTK:CommonStates.obj
 0003:00000750       ??_R0?AV?$_Ref_count_obj@UWrappedData@?$SharedResourcePool@PEAUID3D11Device@@VImpl@CommonStates@DirectX@@$$V@DirectX@@@std@@@8 0000000140039750     DirectXTK:CommonStates.obj
 0003:000007e0       ??_R0?AVtype_info@@@8      00000001400397e0     MSVCRT:std_type_info_static.obj
 0003:00000800       ??_R0?AVbad_array_new_length@std@@@8 0000000140039800     MSVCRT:throw_bad_alloc.obj
 0003:00000830       ??_R0?AV?$basic_filebuf@DU?$char_traits@D@std@@@std@@@8 0000000140039830     Animation.obj
 0003:00000880       ??_R0?AV?$basic_fstream@DU?$char_traits@D@std@@@std@@@8 0000000140039880     Animation.obj
 0003:000008c8       ??_R0?AVios_base@std@@@8   00000001400398c8     Animation.obj
 0003:000008f0       ??_R0?AV?$basic_iostream@DU?$char_traits@D@std@@@std@@@8 00000001400398f0     Animation.obj
 0003:00000938       ??_R0?AV?$_Iosb@H@std@@@8  0000000140039938     Animation.obj
 0003:00000960       ??_R0?AV?$basic_streambuf@DU?$char_traits@D@std@@@std@@@8 0000000140039960     Animation.obj
 0003:000009a8       ??_R0?AVbad_cast@std@@@8   00000001400399a8     Animation.obj
 0003:000009d0       ??_R0?AV?$basic_istream@DU?$char_traits@D@std@@@std@@@8 00000001400399d0     Animation.obj
 0003:00000a18       ??_R0?AV?$basic_ios@DU?$char_traits@D@std@@@std@@@8 0000000140039a18     Animation.obj
 0003:00000a60       ??_R0?AV?$basic_ostream@DU?$char_traits@D@std@@@std@@@8 0000000140039a60     Animation.obj
 0003:00000aa8       ??_R0?AVexception@std@@@8  0000000140039aa8     Animation.obj
 0003:00000ad0       ??_R0?AVGameObject@@@8     0000000140039ad0     Bullet.obj
 0003:00000af8       ??_R0?AVBullet@@@8         0000000140039af8     Bullet.obj
 0003:00000b18       ??_R0?AVEnemy@@@8          0000000140039b18     Enemy.obj
 0003:00000b38       ??_R0?AVTarget@@@8         0000000140039b38     EnemyManager.obj
 0003:00000b58       ??_R0?AVTextElement@@@8    0000000140039b58     GameManager.obj
 0003:00000b80       ??_R0?AVUIElement@@@8      0000000140039b80     GameManager.obj
 0003:00000cf8       ??_R0?AV?$_Func_base@X$$V@std@@@8 0000000140039cf8     MyWindow.obj
 0003:000010a0       ??_R0?AVPickup@@@8         000000014003a0a0     Pickup.obj
 0003:000010c0       ??_R0?AVPlayer@@@8         000000014003a0c0     Player.obj
 0003:000010e0       ??_R0?AVRangedEnemy@@@8    000000014003a0e0     RangedEnemy.obj
 0003:00001480       ??_R0?AV?$basic_ofstream@DU?$char_traits@D@std@@@std@@@8 000000014003a480     SkyboxShader.obj
 0003:000014c8       ??_R0?AVImageElement@@@8   000000014003a4c8     UIElement.obj
 0003:000014f0       ??_R0?AVButtonElement@@@8  000000014003a4f0     UIElement.obj
 0003:00001520       ?_OptionsStorage@?1??__local_stdio_printf_options@@9@4_KA 000000014003a520     DirectXTK:SpriteBatch.obj
 0003:00001530       ?deviceResourcesPool@Impl@SpriteBatch@DirectX@@0V?$SharedResourcePool@PEAUID3D11Device@@UDeviceResources@Impl@SpriteBatch@DirectX@@$$V@3@A 000000014003a530     DirectXTK:SpriteBatch.obj
 0003:00001540       ?contextResourcesPool@Impl@SpriteBatch@DirectX@@0V?$SharedResourcePool@PEAUID3D11DeviceContext@@UContextResources@Impl@SpriteBatch@DirectX@@$$V@3@A 000000014003a540     DirectXTK:SpriteBatch.obj
 0003:00001550       ?MatrixIdentity@SpriteBatch@DirectX@@0UXMMATRIX@2@B 000000014003a550     DirectXTK:SpriteBatch.obj
 0003:00001590       ?Float2Zero@SpriteBatch@DirectX@@0UXMFLOAT2@2@B 000000014003a590     DirectXTK:SpriteBatch.obj
 0003:000015a0       ?s_str@?1??what@com_exception@DirectX@@UEBAPEBDXZ@4PADA 000000014003a5a0     DirectXTK:SpriteBatch.obj
 0003:000015e0       ?Float2Zero@SpriteFont@DirectX@@0UXMFLOAT2@2@B 000000014003a5e0     DirectXTK:SpriteFont.obj
 0003:000015e8       ?instancePool@Impl@CommonStates@DirectX@@2V?$SharedResourcePool@PEAUID3D11Device@@VImpl@CommonStates@DirectX@@$$V@3@A 000000014003a5e8     DirectXTK:CommonStates.obj
 0003:000015f8       __@@_PchSym_@00@UfhvihUblfmtUlmvwirevUwlxfnvmghUufooLhzroUurmzokilqvxgivklhrglibUxfihvwRgfigovRhgfwrlhUilylgzmmrsrozgrlmUilylgzmmrsrozgrlmUwrivxgcglloprgUyrmUwvhpglkPCABHPdrmBAUcGEUivovzhvUkxsOlyq@4B2008FD98C1DD4 000000014003a5f8     DirectXTK:pch.obj
 0003:00001610       ?nothrow@std@@3Unothrow_t@1@B 000000014003a610     msvcprt:nothrow.obj
 0003:00001660       __scrt_current_native_startup_state 000000014003a660     MSVCRT:utility.obj
 0003:00001668       __scrt_native_startup_lock 000000014003a668     MSVCRT:utility.obj
 0003:00001c20       __scrt_debugger_hook_flag  000000014003ac20     MSVCRT:utility_desktop.obj
 0003:00001c24       _tls_index                 000000014003ac24     MSVCRT:tlssup.obj
 0003:00001c30       ?__type_info_root_node@@3U__type_info_node@@A 000000014003ac30     MSVCRT:tncleanup.obj
 0003:00001c40       ?_OptionsStorage@?1??__local_stdio_scanf_options@@9@4_KA 000000014003ac40     MSVCRT:default_local_stdio_options.obj
 0003:00001c48       __favor                    000000014003ac48     MSVCRT:cpu_disp.obj
 0003:00001c50       ?_Stinit@?1??_Init@?$basic_filebuf@DU?$char_traits@D@std@@@std@@IEAAXPEAU_iobuf@@W4_Initfl@23@@Z@4U_Mbstatet@@A 000000014003ac50     Animation.obj
 0003:00001c58       ?_Psave@?$_Facetptr@V?$codecvt@DDU_Mbstatet@@@std@@@std@@2PEBVfacet@locale@2@EB 000000014003ac58     Animation.obj
 0003:00001c70       ?g_WIC2@?A0x045efb5a@@3_NA 000000014003ac70     WICTextureLoader.obj
 0003:00002300       __dyn_tls_dtor_callback    000000014003b300     <common>
 0003:00002308       __dyn_tls_init_callback    000000014003b308     <common>

 entry point at        0001:00028d34

 Static symbols

 0000:fffa9000       .debug$S                   0000000140000000     kernel32:KERNEL32.dll
 0000:fffa9000       .debug$S                   0000000140000000     kernel32:KERNEL32.dll
 0000:fffa9000       .debug$S                   0000000140000000     kernel32:KERNEL32.dll
 0000:fffa9000       .debug$S                   0000000140000000     kernel32:KERNEL32.dll
 0000:fffa9000       .debug$S                   0000000140000000     kernel32:KERNEL32.dll
 0000:fffa9000       .debug$S                   0000000140000000     kernel32:KERNEL32.dll
 0000:fffa9000       .debug$S                   0000000140000000     kernel32:KERNEL32.dll
 0000:fffa9000       .debug$S                   0000000140000000     kernel32:KERNEL32.dll
 0000:fffa9000       .debug$S                   0000000140000000     kernel32:KERNEL32.dll
 0000:fffa9000       .debug$S                   0000000140000000     kernel32:KERNEL32.dll
 0000:fffa9000       .debug$S                   0000000140000000     kernel32:KERNEL32.dll
 0000:fffa9000       .debug$S                   0000000140000000     kernel32:KERNEL32.dll
 0000:fffa9000       .debug$S                   0000000140000000     kernel32:KERNEL32.dll
 0000:fffa9000       .debug$S                   0000000140000000     user32:USER32.dll
 0000:fffa9000       .debug$S                   0000000140000000     user32:USER32.dll
 0000:fffa9000       .debug$S                   0000000140000000     user32:USER32.dll
 0000:fffa9000       .debug$S                   0000000140000000     user32:USER32.dll
 0000:fffa9000       .debug$S                   0000000140000000     user32:USER32.dll
 0000:fffa9000       .debug$S                   0000000140000000     user32:USER32.dll
 0000:fffa9000       .debug$S                   0000000140000000     user32:USER32.dll
 0000:fffa9000       .debug$S                   0000000140000000     user32:USER32.dll
 0000:fffa9000       .debug$S                   0000000140000000     user32:USER32.dll
 0000:fffa9000       .debug$S                   0000000140000000     user32:USER32.dll
 0000:fffa9000       .debug$S                   0000000140000000     user32:USER32.dll
 0000:fffa9000       .debug$S                   0000000140000000     user32:USER32.dll
 0000:fffa9000       .debug$S                   0000000140000000     ucrt:api-ms-win-crt-math-l1-1-0.dll
 0000:fffa9000       .debug$S                   0000000140000000     ucrt:api-ms-win-crt-math-l1-1-0.dll
 0000:fffa9000       .debug$S                   0000000140000000     ucrt:api-ms-win-crt-math-l1-1-0.dll
 0000:fffa9000       .debug$S                   0000000140000000     ucrt:api-ms-win-crt-math-l1-1-0.dll
 0000:fffa9000       .debug$S                   0000000140000000     ucrt:api-ms-win-crt-math-l1-1-0.dll
 0000:fffa9000       .debug$S                   0000000140000000     vcruntime:VCRUNTIME140.dll
 0000:fffa9000       .debug$S                   0000000140000000     vcruntime:VCRUNTIME140.dll
 0000:fffa9000       .debug$S                   0000000140000000     vcruntime:VCRUNTIME140.dll
 0000:fffa9000       .debug$S                   0000000140000000     kernel32:KERNEL32.dll
 0000:fffa9000       .debug$S                   0000000140000000     user32:USER32.dll
 0000:fffa9000       .debug$S                   0000000140000000     kernel32:KERNEL32.dll
 0000:fffa9000       .debug$S                   0000000140000000     kernel32:KERNEL32.dll
 0000:fffa9000       .debug$S                   0000000140000000     kernel32:KERNEL32.dll
 0000:fffa9000       .debug$S                   0000000140000000     msvcprt:MSVCP140.dll
 0000:fffa9000       .debug$S                   0000000140000000     user32:USER32.dll
 0000:fffa9000       .debug$S                   0000000140000000     msvcprt:MSVCP140.dll
 0000:fffa9000       .debug$S                   0000000140000000     msvcprt:MSVCP140.dll
 0000:fffa9000       .debug$S                   0000000140000000     msvcprt:MSVCP140.dll
 0000:fffa9000       .debug$S                   0000000140000000     msvcprt:MSVCP140.dll
 0000:fffa9000       .debug$S                   0000000140000000     user32:USER32.dll
 0000:fffa9000       .debug$S                   0000000140000000     msvcprt:MSVCP140.dll
 0000:fffa9000       .debug$S                   0000000140000000     msvcprt:MSVCP140.dll
 0000:fffa9000       .debug$S                   0000000140000000     msvcprt:MSVCP140.dll
 0000:fffa9000       .debug$S                   0000000140000000     msvcprt:MSVCP140.dll
 0000:fffa9000       .debug$S                   0000000140000000     msvcprt:MSVCP140.dll
 0000:fffa9000       .debug$S                   0000000140000000     msvcprt:MSVCP140.dll
 0000:fffa9000       .debug$S                   0000000140000000     user32:USER32.dll
 0000:fffa9000       .debug$S                   0000000140000000     msvcprt:MSVCP140.dll
 0000:fffa9000       .debug$S                   0000000140000000     msvcprt:MSVCP140.dll
 0000:fffa9000       .debug$S                   0000000140000000     msvcprt:MSVCP140.dll
 0000:fffa9000       .debug$S                   0000000140000000     msvcprt:MSVCP140.dll
 0000:fffa9000       .debug$S                   0000000140000000     user32:USER32.dll
 0000:fffa9000       .debug$S                   0000000140000000     msvcprt:MSVCP140.dll
 0000:fffa9000       .debug$S                   0000000140000000     msvcprt:MSVCP140.dll
 0000:fffa9000       .debug$S                   0000000140000000     msvcprt:MSVCP140.dll
 0000:fffa9000       .debug$S                   0000000140000000     msvcprt:MSVCP140.dll
 0000:fffa9000       .debug$S                   0000000140000000     user32:USER32.dll
 0000:fffa9000       .debug$S                   0000000140000000     msvcprt:MSVCP140.dll
 0000:fffa9000       .debug$S                   0000000140000000     msvcprt:MSVCP140.dll
 0000:fffa9000       .debug$S                   0000000140000000     msvcprt:MSVCP140.dll
 0000:fffa9000       .debug$S                   0000000140000000     msvcprt:MSVCP140.dll
 0000:fffa9000       .debug$S                   0000000140000000     msvcprt:MSVCP140.dll
 0000:fffa9000       .debug$S                   0000000140000000     msvcprt:MSVCP140.dll
 0000:fffa9000       .debug$S                   0000000140000000     msvcprt:MSVCP140.dll
 0000:fffa9000       .debug$S                   0000000140000000     msvcprt:MSVCP140.dll
 0000:fffa9000       .debug$S                   0000000140000000     msvcprt:MSVCP140.dll
 0000:fffa9000       .debug$S                   0000000140000000     msvcprt:MSVCP140.dll
 0000:fffa9000       .debug$S                   0000000140000000     msvcprt:MSVCP140.dll
 0000:fffa9000       .debug$S                   0000000140000000     msvcprt:MSVCP140.dll
 0000:fffa9000       .debug$S                   0000000140000000     msvcprt:MSVCP140.dll
 0000:fffa9000       .debug$S                   0000000140000000     msvcprt:MSVCP140.dll
 0000:fffa9000       .debug$S                   0000000140000000     msvcprt:MSVCP140.dll
 0000:fffa9000       .debug$S                   0000000140000000     msvcprt:MSVCP140.dll
 0000:fffa9000       .debug$S                   0000000140000000     msvcprt:MSVCP140.dll
 0000:fffa9000       .debug$S                   0000000140000000     msvcprt:MSVCP140.dll
 0000:fffa9000       .debug$S                   0000000140000000     msvcprt:MSVCP140.dll
 0000:fffa9000       .debug$S                   0000000140000000     msvcprt:MSVCP140.dll
 0000:fffa9000       .debug$S                   0000000140000000     msvcprt:MSVCP140.dll
 0000:fffa9000       .debug$S                   0000000140000000     msvcprt:MSVCP140.dll
 0000:fffa9000       .debug$S                   0000000140000000     msvcprt:MSVCP140.dll
 0000:fffa9000       .debug$S                   0000000140000000     gdi32:GDI32.dll
 0000:fffa9000       .debug$S                   0000000140000000     msvcprt:MSVCP140.dll
 0000:fffa9000       .debug$S                   0000000140000000     msvcprt:MSVCP140.dll
 0000:fffa9000       .debug$S                   0000000140000000     msvcprt:MSVCP140.dll
 0000:fffa9000       .debug$S                   0000000140000000     ole32:ole32.dll
 0000:fffa9000       .debug$S                   0000000140000000     msvcprt:MSVCP140.dll
 0000:fffa9000       .debug$S                   0000000140000000     ole32:ole32.dll
 0000:fffa9000       .debug$S                   0000000140000000     kernel32:KERNEL32.dll
 0000:fffa9000       .debug$S                   0000000140000000     kernel32:KERNEL32.dll
 0000:fffa9000       .debug$S                   0000000140000000     kernel32:KERNEL32.dll
 0000:fffa9000       .debug$S                   0000000140000000     kernel32:KERNEL32.dll
 0000:fffa9000       .debug$S                   0000000140000000     kernel32:KERNEL32.dll
 0000:fffa9000       .debug$S                   0000000140000000     kernel32:KERNEL32.dll
 0000:fffa9000       .debug$S                   0000000140000000     kernel32:KERNEL32.dll
 0000:fffa9000       .debug$S                   0000000140000000     kernel32:KERNEL32.dll
 0000:fffa9000       .debug$S                   0000000140000000     kernel32:KERNEL32.dll
 0000:fffa9000       .debug$S                   0000000140000000     kernel32:KERNEL32.dll
 0000:fffa9000       .debug$S                   0000000140000000     kernel32:KERNEL32.dll
 0000:fffa9000       .debug$S                   0000000140000000     kernel32:KERNEL32.dll
 0000:fffa9000       .debug$S                   0000000140000000     kernel32:KERNEL32.dll
 0000:fffa9000       .debug$S                   0000000140000000     msvcprt:MSVCP140.dll
 0000:fffa9000       .debug$S                   0000000140000000     kernel32:KERNEL32.dll
 0000:fffa9000       .debug$S                   0000000140000000     kernel32:KERNEL32.dll
 0000:fffa9000       .debug$S                   0000000140000000     kernel32:KERNEL32.dll
 0000:fffa9000       .debug$S                   0000000140000000     kernel32:KERNEL32.dll
 0000:fffa9000       .debug$S                   0000000140000000     kernel32:KERNEL32.dll
 0000:fffa9000       .debug$S                   0000000140000000     kernel32:KERNEL32.dll
 0000:fffa9000       .debug$S                   0000000140000000     msvcprt:MSVCP140.dll
 0000:fffa9000       .debug$S                   0000000140000000     ucrt:api-ms-win-crt-heap-l1-1-0.dll
 0000:fffa9000       .debug$S                   0000000140000000     ucrt:api-ms-win-crt-runtime-l1-1-0.dll
 0000:fffa9000       .debug$S                   0000000140000000     ucrt:api-ms-win-crt-runtime-l1-1-0.dll
 0000:fffa9000       .debug$S                   0000000140000000     ucrt:api-ms-win-crt-runtime-l1-1-0.dll
 0000:fffa9000       .debug$S                   0000000140000000     ucrt:api-ms-win-crt-runtime-l1-1-0.dll
 0000:fffa9000       .debug$S                   0000000140000000     ucrt:api-ms-win-crt-runtime-l1-1-0.dll
 0000:fffa9000       .debug$S                   0000000140000000     msvcprt:MSVCP140.dll
 0000:fffa9000       .debug$S                   0000000140000000     ucrt:api-ms-win-crt-runtime-l1-1-0.dll
 0000:fffa9000       .debug$S                   0000000140000000     ucrt:api-ms-win-crt-runtime-l1-1-0.dll
 0000:fffa9000       .debug$S                   0000000140000000     ucrt:api-ms-win-crt-stdio-l1-1-0.dll
 0000:fffa9000       .debug$S                   0000000140000000     ucrt:api-ms-win-crt-heap-l1-1-0.dll
 0000:fffa9000       .debug$S                   0000000140000000     ucrt:api-ms-win-crt-locale-l1-1-0.dll
 0000:fffa9000       .debug$S                   0000000140000000     ucrt:api-ms-win-crt-runtime-l1-1-0.dll
 0000:fffa9000       .debug$S                   0000000140000000     ucrt:api-ms-win-crt-runtime-l1-1-0.dll
 0000:fffa9000       .debug$S                   0000000140000000     ucrt:api-ms-win-crt-runtime-l1-1-0.dll
 0000:fffa9000       .debug$S                   0000000140000000     ucrt:api-ms-win-crt-stdio-l1-1-0.dll
 0000:fffa9000       .debug$S                   0000000140000000     ucrt:api-ms-win-crt-runtime-l1-1-0.dll
 0000:fffa9000       .debug$S                   0000000140000000     ucrt:api-ms-win-crt-runtime-l1-1-0.dll
 0000:fffa9000       .debug$S                   0000000140000000     ucrt:api-ms-win-crt-runtime-l1-1-0.dll
 0000:fffa9000       .debug$S                   0000000140000000     ucrt:api-ms-win-crt-runtime-l1-1-0.dll
 0000:fffa9000       .debug$S                   0000000140000000     ucrt:api-ms-win-crt-runtime-l1-1-0.dll
 0000:fffa9000       .debug$S                   0000000140000000     ucrt:api-ms-win-crt-runtime-l1-1-0.dll
 0000:fffa9000       .debug$S                   0000000140000000     ucrt:api-ms-win-crt-runtime-l1-1-0.dll
 0000:fffa9000       .debug$S                   0000000140000000     ucrt:api-ms-win-crt-math-l1-1-0.dll
 0000:fffa9000       .debug$S                   0000000140000000     ucrt:api-ms-win-crt-runtime-l1-1-0.dll
 0000:fffa9000       .debug$S                   0000000140000000     ucrt:api-ms-win-crt-runtime-l1-1-0.dll
 0000:fffa9000       .debug$S                   0000000140000000     ucrt:api-ms-win-crt-heap-l1-1-0.dll
 0000:fffa9000       .debug$S                   0000000140000000     ucrt:api-ms-win-crt-heap-l1-1-0.dll
 0000:fffa9000       .debug$S                   0000000140000000     ucrt:api-ms-win-crt-string-l1-1-0.dll
 0000:fffa9000       .debug$S                   0000000140000000     ucrt:api-ms-win-crt-stdio-l1-1-0.dll
 0000:fffa9000       .debug$S                   0000000140000000     ucrt:api-ms-win-crt-heap-l1-1-0.dll
 0000:fffa9000       .debug$S                   0000000140000000     ucrt:api-ms-win-crt-heap-l1-1-0.dll
 0000:fffa9000       .debug$S                   0000000140000000     ucrt:api-ms-win-crt-runtime-l1-1-0.dll
 0000:fffa9000       .debug$S                   0000000140000000     ucrt:api-ms-win-crt-runtime-l1-1-0.dll
 0000:fffa9000       .debug$S                   0000000140000000     ucrt:api-ms-win-crt-stdio-l1-1-0.dll
 0000:fffa9000       .debug$S                   0000000140000000     ucrt:api-ms-win-crt-stdio-l1-1-0.dll
 0000:fffa9000       .debug$S                   0000000140000000     ucrt:api-ms-win-crt-time-l1-1-0.dll
 0000:fffa9000       .debug$S                   0000000140000000     ucrt:api-ms-win-crt-time-l1-1-0.dll
 0000:fffa9000       .debug$S                   0000000140000000     ucrt:api-ms-win-crt-convert-l1-1-0.dll
 0000:fffa9000       .debug$S                   0000000140000000     ucrt:api-ms-win-crt-convert-l1-1-0.dll
 0000:fffa9000       .debug$S                   0000000140000000     ucrt:api-ms-win-crt-convert-l1-1-0.dll
 0000:fffa9000       .debug$S                   0000000140000000     ucrt:api-ms-win-crt-time-l1-1-0.dll
 0000:fffa9000       .debug$S                   0000000140000000     ucrt:api-ms-win-crt-utility-l1-1-0.dll
 0000:fffa9000       .debug$S                   0000000140000000     ucrt:api-ms-win-crt-utility-l1-1-0.dll
 0000:fffa9000       .debug$S                   0000000140000000     ucrt:api-ms-win-crt-stdio-l1-1-0.dll
 0000:fffa9000       .debug$S                   0000000140000000     ucrt:api-ms-win-crt-runtime-l1-1-0.dll
 0000:fffa9000       .debug$S                   0000000140000000     ucrt:api-ms-win-crt-stdio-l1-1-0.dll
 0000:fffa9000       .debug$S                   0000000140000000     ucrt:api-ms-win-crt-stdio-l1-1-0.dll
 0000:fffa9000       .debug$S                   0000000140000000     ucrt:api-ms-win-crt-stdio-l1-1-0.dll
 0000:fffa9000       .debug$S                   0000000140000000     ucrt:api-ms-win-crt-stdio-l1-1-0.dll
 0000:fffa9000       .debug$S                   0000000140000000     ucrt:api-ms-win-crt-stdio-l1-1-0.dll
 0000:fffa9000       .debug$S                   0000000140000000     ucrt:api-ms-win-crt-stdio-l1-1-0.dll
 0000:fffa9000       .debug$S                   0000000140000000     ucrt:api-ms-win-crt-stdio-l1-1-0.dll
 0000:fffa9000       .debug$S                   0000000140000000     ucrt:api-ms-win-crt-filesystem-l1-1-0.dll
 0000:fffa9000       .debug$S                   0000000140000000     ucrt:api-ms-win-crt-filesystem-l1-1-0.dll
 0000:fffa9000       .debug$S                   0000000140000000     ucrt:api-ms-win-crt-stdio-l1-1-0.dll
 0000:fffa9000       .debug$S                   0000000140000000     ucrt:api-ms-win-crt-stdio-l1-1-0.dll
 0000:fffa9000       .debug$S                   0000000140000000     ucrt:api-ms-win-crt-stdio-l1-1-0.dll
 0000:fffa9000       .debug$S                   0000000140000000     ucrt:api-ms-win-crt-stdio-l1-1-0.dll
 0000:fffa9000       .debug$S                   0000000140000000     vcruntime:VCRUNTIME140.dll
 0000:fffa9000       .debug$S                   0000000140000000     vcruntime:VCRUNTIME140.dll
 0000:fffa9000       .debug$S                   0000000140000000     vcruntime:VCRUNTIME140.dll
 0000:fffa9000       .debug$S                   0000000140000000     vcruntime:VCRUNTIME140.dll
 0000:fffa9000       .debug$S                   0000000140000000     vcruntime:VCRUNTIME140.dll
 0000:fffa9000       .debug$S                   0000000140000000     vcruntime:VCRUNTIME140.dll
 0000:fffa9000       .debug$S                   0000000140000000     vcruntime:VCRUNTIME140.dll
 0000:fffa9000       .debug$S                   0000000140000000     vcruntime:VCRUNTIME140.dll
 0000:fffa9000       .debug$S                   0000000140000000     vcruntime:VCRUNTIME140.dll
 0000:fffa9000       .debug$S                   0000000140000000     msvcprt:MSVCP140.dll
 0000:fffa9000       .debug$S                   0000000140000000     msvcprt:MSVCP140.dll
 0000:fffa9000       .debug$S                   0000000140000000     msvcprt:MSVCP140.dll
 0000:fffa9000       .debug$S                   0000000140000000     msvcprt:MSVCP140.dll
 0000:fffa9000       .debug$S                   0000000140000000     msvcprt:MSVCP140.dll
 0000:fffa9000       .debug$S                   0000000140000000     msvcprt:MSVCP140.dll
 0000:fffa9000       .debug$S                   0000000140000000     msvcprt:MSVCP140.dll
 0000:fffa9000       .debug$S                   0000000140000000     msvcprt:MSVCP140.dll
 0000:fffa9000       .debug$S                   0000000140000000     msvcprt:MSVCP140.dll
 0000:fffa9000       .debug$S                   0000000140000000     msvcprt:MSVCP140.dll
 0000:fffa9000       .debug$S                   0000000140000000     msvcprt:MSVCP140.dll
 0000:fffa9000       .debug$S                   0000000140000000     msvcprt:MSVCP140.dll
 0000:fffa9000       .debug$S                   0000000140000000     msvcprt:MSVCP140.dll
 0000:fffa9000       .debug$S                   0000000140000000     msvcprt:MSVCP140.dll
 0000:fffa9000       .debug$S                   0000000140000000     dbghelp:dbghelp.dll
 0000:fffa9000       .debug$S                   0000000140000000     D3DCompiler:D3DCOMPILER_47.dll
 0000:fffa9000       .debug$S                   0000000140000000     winmm:WINMM.dll
 0000:fffa9000       .debug$S                   0000000140000000     dsound:DSOUND.dll
 0000:fffa9000       .debug$S                   0000000140000000     dinput8:DINPUT8.dll
 0000:fffa9000       .debug$S                   0000000140000000     DXGI:dxgi.dll
 0000:fffa9000       .debug$S                   0000000140000000     d3d11:d3d11.dll
 0000:fffa9000       .debug$S                   0000000140000000     msvcprt:MSVCP140.dll
 0001:00000000       ??__Eg_WICFormats@?A0x045efb5a@@YAXXZ 0000000140001000 f   WICTextureLoader.obj
 0001:000000e0       ??__Eg_WICConvert@?A0x045efb5a@@YAXXZ 00000001400010e0 f   WICTextureLoader.obj
 0001:00000460       ??__E?MatrixIdentity@SpriteBatch@DirectX@@0UXMMATRIX@2@B@@YAXXZ 0000000140001460 f   DirectXTK:SpriteBatch.obj
 0001:000004a0       ??__E?contextResourcesPool@Impl@SpriteBatch@DirectX@@0V?$SharedResourcePool@PEAUID3D11DeviceContext@@UContextResources@Impl@SpriteBatch@DirectX@@$$V@3@A@@YAXXZ 00000001400014a0 f   DirectXTK:SpriteBatch.obj
 0001:00000560       ??__E?deviceResourcesPool@Impl@SpriteBatch@DirectX@@0V?$SharedResourcePool@PEAUID3D11Device@@UDeviceResources@Impl@SpriteBatch@DirectX@@$$V@3@A@@YAXXZ 0000000140001560 f   DirectXTK:SpriteBatch.obj
 0001:00000620       ??__E?instancePool@Impl@CommonStates@DirectX@@2V?$SharedResourcePool@PEAUID3D11Device@@VImpl@CommonStates@DirectX@@$$V@3@A@@YAXXZ 0000000140001620 f   DirectXTK:CommonStates.obj
 0001:000006d8       ??__E_Fac_tidy_reg@std@@YAXXZ 00000001400016d8 f   msvcprt:locale0_implib.obj
 0001:00005c90       ?_Do_call@?$_Func_impl_no_alloc@V<lambda_1856210cd80753f453a720b271b36d84>@@X$$V@std@@EEAAXXZ 0000000140006c90 f i MyWindow.obj
 0001:00005c90       ?_Do_call@?$_Func_impl_no_alloc@V<lambda_5f9abd3739344823e020e2d1c2ef80c6>@@X$$V@std@@EEAAXXZ 0000000140006c90 f i MyWindow.obj
 0001:00013900       ?WndProc@@YA_JPEAUHWND__@@I_K_J@Z 0000000140014900 f   MyWindow.obj
 0001:00013fd0       ?_Delete_this@?$_Func_impl_no_alloc@V<lambda_3775f2d2be3acf40b03245c878d70ee1>@@X$$V@std@@EEAAX_N@Z 0000000140014fd0 f   MyWindow.obj
 0001:00013fd0       ?_Delete_this@?$_Func_impl_no_alloc@V<lambda_414998facd772942244f71127261ad86>@@X$$V@std@@EEAAX_N@Z 0000000140014fd0 f   Shop.obj
 0001:00013fd0       ?_Delete_this@?$_Func_impl_no_alloc@V<lambda_1856210cd80753f453a720b271b36d84>@@X$$V@std@@EEAAX_N@Z 0000000140014fd0 f   MyWindow.obj
 0001:00013fd0       ?_Delete_this@?$_Func_impl_no_alloc@V<lambda_d2a719c930d707c67105e86afa12be81>@@X$$V@std@@EEAAX_N@Z 0000000140014fd0 f   Shop.obj
 0001:00013fd0       ?_Delete_this@?$_Func_impl_no_alloc@V<lambda_f96e08f4b5f6c13e985e24a004212e97>@@X$$V@std@@EEAAX_N@Z 0000000140014fd0 f   MyWindow.obj
 0001:00013fd0       ?_Delete_this@?$_Func_impl_no_alloc@V<lambda_e15a1fae8d706ca9371bd1c03b271ef7>@@X$$V@std@@EEAAX_N@Z 0000000140014fd0 f   Shop.obj
 0001:00013fd0       ?_Delete_this@?$_Func_impl_no_alloc@V<lambda_5f9abd3739344823e020e2d1c2ef80c6>@@X$$V@std@@EEAAX_N@Z 0000000140014fd0 f   MyWindow.obj
 0001:00013fd0       ?_Delete_this@?$_Func_impl_no_alloc@V<lambda_e4cb84e2ef1f0348c8ad9af04ceb4c4f>@@X$$V@std@@EEAAX_N@Z 0000000140014fd0 f   Shop.obj
 0001:00013fd0       ?_Delete_this@?$_Func_impl_no_alloc@V<lambda_b08b30c21e5111fbb4fbffe517896bc0>@@X$$V@std@@EEAAX_N@Z 0000000140014fd0 f   MyWindow.obj
 0001:00013fd0       ?_Delete_this@?$_Func_impl_no_alloc@V<lambda_8428100451a99eadb03cdd6da5665923>@@X$$V@std@@EEAAX_N@Z 0000000140014fd0 f   MyWindow.obj
 0001:00013fd0       ?_Delete_this@?$_Func_impl_no_alloc@V<lambda_3de1022e0e4f3428918652e077d8319b>@@X$$V@std@@EEAAX_N@Z 0000000140014fd0 f   Shop.obj
 0001:00013fd0       ?_Delete_this@?$_Func_impl_no_alloc@V<lambda_b380b310eac20a0affe63a9a70f9138e>@@X$$V@std@@EEAAX_N@Z 0000000140014fd0 f   MyWindow.obj
 0001:00013fe0       ?_Get@?$_Func_impl_no_alloc@V<lambda_1856210cd80753f453a720b271b36d84>@@X$$V@std@@EEBAPEBXXZ 0000000140014fe0 f   MyWindow.obj
 0001:00013fe0       ?_Get@?$_Func_impl_no_alloc@V<lambda_d2a719c930d707c67105e86afa12be81>@@X$$V@std@@EEBAPEBXXZ 0000000140014fe0 f   Shop.obj
 0001:00013fe0       ?_Get@?$_Func_impl_no_alloc@V<lambda_b380b310eac20a0affe63a9a70f9138e>@@X$$V@std@@EEBAPEBXXZ 0000000140014fe0 f   MyWindow.obj
 0001:00013fe0       ?_Get@?$_Func_impl_no_alloc@V<lambda_f96e08f4b5f6c13e985e24a004212e97>@@X$$V@std@@EEBAPEBXXZ 0000000140014fe0 f   MyWindow.obj
 0001:00013fe0       ?_Get@?$_Func_impl_no_alloc@V<lambda_b08b30c21e5111fbb4fbffe517896bc0>@@X$$V@std@@EEBAPEBXXZ 0000000140014fe0 f   MyWindow.obj
 0001:00013fe0       ?_Get@?$_Func_impl_no_alloc@V<lambda_3de1022e0e4f3428918652e077d8319b>@@X$$V@std@@EEBAPEBXXZ 0000000140014fe0 f   Shop.obj
 0001:00013fe0       ?_Get@?$_Func_impl_no_alloc@V<lambda_8428100451a99eadb03cdd6da5665923>@@X$$V@std@@EEBAPEBXXZ 0000000140014fe0 f   MyWindow.obj
 0001:00013fe0       ?_Get@?$_Func_impl_no_alloc@V<lambda_5f9abd3739344823e020e2d1c2ef80c6>@@X$$V@std@@EEBAPEBXXZ 0000000140014fe0 f   MyWindow.obj
 0001:00013fe0       ?_Get@?$_Func_impl_no_alloc@V<lambda_414998facd772942244f71127261ad86>@@X$$V@std@@EEBAPEBXXZ 0000000140014fe0 f   Shop.obj
 0001:00013fe0       ?_Get@?$_Func_impl_no_alloc@V<lambda_e4cb84e2ef1f0348c8ad9af04ceb4c4f>@@X$$V@std@@EEBAPEBXXZ 0000000140014fe0 f   Shop.obj
 0001:00013fe0       ?_Get@?$_Func_impl_no_alloc@V<lambda_e15a1fae8d706ca9371bd1c03b271ef7>@@X$$V@std@@EEBAPEBXXZ 0000000140014fe0 f   Shop.obj
 0001:00013fe0       ?_Get@?$_Func_impl_no_alloc@V<lambda_3775f2d2be3acf40b03245c878d70ee1>@@X$$V@std@@EEBAPEBXXZ 0000000140014fe0 f   MyWindow.obj
 0001:00013ff0       ?_Target_type@?$_Func_impl_no_alloc@V<lambda_b08b30c21e5111fbb4fbffe517896bc0>@@X$$V@std@@EEBAAEBVtype_info@@XZ 0000000140014ff0 f   MyWindow.obj
 0001:00014000       ?_Move@?$_Func_impl_no_alloc@V<lambda_b08b30c21e5111fbb4fbffe517896bc0>@@X$$V@std@@EEAAPEAV?$_Func_base@X$$V@2@PEAX@Z 0000000140015000 f   MyWindow.obj
 0001:00014000       ?_Copy@?$_Func_impl_no_alloc@V<lambda_b08b30c21e5111fbb4fbffe517896bc0>@@X$$V@std@@EEBAPEAV?$_Func_base@X$$V@2@PEAX@Z 0000000140015000 f   MyWindow.obj
 0001:00014020       ?_Target_type@?$_Func_impl_no_alloc@V<lambda_b380b310eac20a0affe63a9a70f9138e>@@X$$V@std@@EEBAAEBVtype_info@@XZ 0000000140015020 f   MyWindow.obj
 0001:00014030       ?_Move@?$_Func_impl_no_alloc@V<lambda_b380b310eac20a0affe63a9a70f9138e>@@X$$V@std@@EEAAPEAV?$_Func_base@X$$V@2@PEAX@Z 0000000140015030 f   MyWindow.obj
 0001:00014030       ?_Copy@?$_Func_impl_no_alloc@V<lambda_b380b310eac20a0affe63a9a70f9138e>@@X$$V@std@@EEBAPEAV?$_Func_base@X$$V@2@PEAX@Z 0000000140015030 f   MyWindow.obj
 0001:00014050       ?_Target_type@?$_Func_impl_no_alloc@V<lambda_1856210cd80753f453a720b271b36d84>@@X$$V@std@@EEBAAEBVtype_info@@XZ 0000000140015050 f   MyWindow.obj
 0001:00014060       ?_Copy@?$_Func_impl_no_alloc@V<lambda_1856210cd80753f453a720b271b36d84>@@X$$V@std@@EEBAPEAV?$_Func_base@X$$V@2@PEAX@Z 0000000140015060 f   MyWindow.obj
 0001:00014060       ?_Move@?$_Func_impl_no_alloc@V<lambda_1856210cd80753f453a720b271b36d84>@@X$$V@std@@EEAAPEAV?$_Func_base@X$$V@2@PEAX@Z 0000000140015060 f   MyWindow.obj
 0001:00014080       ?_Target_type@?$_Func_impl_no_alloc@V<lambda_3775f2d2be3acf40b03245c878d70ee1>@@X$$V@std@@EEBAAEBVtype_info@@XZ 0000000140015080 f   MyWindow.obj
 0001:00014090       ?_Move@?$_Func_impl_no_alloc@V<lambda_3775f2d2be3acf40b03245c878d70ee1>@@X$$V@std@@EEAAPEAV?$_Func_base@X$$V@2@PEAX@Z 0000000140015090 f   MyWindow.obj
 0001:00014090       ?_Copy@?$_Func_impl_no_alloc@V<lambda_3775f2d2be3acf40b03245c878d70ee1>@@X$$V@std@@EEBAPEAV?$_Func_base@X$$V@2@PEAX@Z 0000000140015090 f   MyWindow.obj
 0001:000140b0       ?_Target_type@?$_Func_impl_no_alloc@V<lambda_f96e08f4b5f6c13e985e24a004212e97>@@X$$V@std@@EEBAAEBVtype_info@@XZ 00000001400150b0 f   MyWindow.obj
 0001:000140c0       ?_Copy@?$_Func_impl_no_alloc@V<lambda_f96e08f4b5f6c13e985e24a004212e97>@@X$$V@std@@EEBAPEAV?$_Func_base@X$$V@2@PEAX@Z 00000001400150c0 f   MyWindow.obj
 0001:000140c0       ?_Move@?$_Func_impl_no_alloc@V<lambda_f96e08f4b5f6c13e985e24a004212e97>@@X$$V@std@@EEAAPEAV?$_Func_base@X$$V@2@PEAX@Z 00000001400150c0 f   MyWindow.obj
 0001:000140e0       ?_Target_type@?$_Func_impl_no_alloc@V<lambda_5f9abd3739344823e020e2d1c2ef80c6>@@X$$V@std@@EEBAAEBVtype_info@@XZ 00000001400150e0 f   MyWindow.obj
 0001:000140f0       ?_Move@?$_Func_impl_no_alloc@V<lambda_5f9abd3739344823e020e2d1c2ef80c6>@@X$$V@std@@EEAAPEAV?$_Func_base@X$$V@2@PEAX@Z 00000001400150f0 f   MyWindow.obj
 0001:000140f0       ?_Copy@?$_Func_impl_no_alloc@V<lambda_5f9abd3739344823e020e2d1c2ef80c6>@@X$$V@std@@EEBAPEAV?$_Func_base@X$$V@2@PEAX@Z 00000001400150f0 f   MyWindow.obj
 0001:00014110       ?_Target_type@?$_Func_impl_no_alloc@V<lambda_8428100451a99eadb03cdd6da5665923>@@X$$V@std@@EEBAAEBVtype_info@@XZ 0000000140015110 f   MyWindow.obj
 0001:00014120       ?_Copy@?$_Func_impl_no_alloc@V<lambda_8428100451a99eadb03cdd6da5665923>@@X$$V@std@@EEBAPEAV?$_Func_base@X$$V@2@PEAX@Z 0000000140015120 f   MyWindow.obj
 0001:00014120       ?_Move@?$_Func_impl_no_alloc@V<lambda_8428100451a99eadb03cdd6da5665923>@@X$$V@std@@EEAAPEAV?$_Func_base@X$$V@2@PEAX@Z 0000000140015120 f   MyWindow.obj
 0001:00014140       ?_Do_call@?$_Func_impl_no_alloc@V<lambda_8428100451a99eadb03cdd6da5665923>@@X$$V@std@@EEAAXXZ 0000000140015140 f   MyWindow.obj
 0001:00014250       ?_Do_call@?$_Func_impl_no_alloc@V<lambda_b380b310eac20a0affe63a9a70f9138e>@@X$$V@std@@EEAAXXZ 0000000140015250 f   MyWindow.obj
 0001:00014250       ?_Do_call@?$_Func_impl_no_alloc@V<lambda_f96e08f4b5f6c13e985e24a004212e97>@@X$$V@std@@EEAAXXZ 0000000140015250 f   MyWindow.obj
 0001:00014260       ?_Do_call@?$_Func_impl_no_alloc@V<lambda_3775f2d2be3acf40b03245c878d70ee1>@@X$$V@std@@EEAAXXZ 0000000140015260 f   MyWindow.obj
 0001:000142c0       ?_Do_call@?$_Func_impl_no_alloc@V<lambda_b08b30c21e5111fbb4fbffe517896bc0>@@X$$V@std@@EEAAXXZ 00000001400152c0 f   MyWindow.obj
 0001:0001ab80       ?_Target_type@?$_Func_impl_no_alloc@V<lambda_3de1022e0e4f3428918652e077d8319b>@@X$$V@std@@EEBAAEBVtype_info@@XZ 000000014001bb80 f   Shop.obj
 0001:0001ab90       ?_Move@?$_Func_impl_no_alloc@V<lambda_3de1022e0e4f3428918652e077d8319b>@@X$$V@std@@EEAAPEAV?$_Func_base@X$$V@2@PEAX@Z 000000014001bb90 f   Shop.obj
 0001:0001ab90       ?_Copy@?$_Func_impl_no_alloc@V<lambda_3de1022e0e4f3428918652e077d8319b>@@X$$V@std@@EEBAPEAV?$_Func_base@X$$V@2@PEAX@Z 000000014001bb90 f   Shop.obj
 0001:0001abb0       ?_Target_type@?$_Func_impl_no_alloc@V<lambda_e15a1fae8d706ca9371bd1c03b271ef7>@@X$$V@std@@EEBAAEBVtype_info@@XZ 000000014001bbb0 f   Shop.obj
 0001:0001abc0       ?_Copy@?$_Func_impl_no_alloc@V<lambda_e15a1fae8d706ca9371bd1c03b271ef7>@@X$$V@std@@EEBAPEAV?$_Func_base@X$$V@2@PEAX@Z 000000014001bbc0 f   Shop.obj
 0001:0001abc0       ?_Move@?$_Func_impl_no_alloc@V<lambda_e15a1fae8d706ca9371bd1c03b271ef7>@@X$$V@std@@EEAAPEAV?$_Func_base@X$$V@2@PEAX@Z 000000014001bbc0 f   Shop.obj
 0001:0001abe0       ?_Target_type@?$_Func_impl_no_alloc@V<lambda_d2a719c930d707c67105e86afa12be81>@@X$$V@std@@EEBAAEBVtype_info@@XZ 000000014001bbe0 f   Shop.obj
 0001:0001abf0       ?_Copy@?$_Func_impl_no_alloc@V<lambda_d2a719c930d707c67105e86afa12be81>@@X$$V@std@@EEBAPEAV?$_Func_base@X$$V@2@PEAX@Z 000000014001bbf0 f   Shop.obj
 0001:0001abf0       ?_Move@?$_Func_impl_no_alloc@V<lambda_d2a719c930d707c67105e86afa12be81>@@X$$V@std@@EEAAPEAV?$_Func_base@X$$V@2@PEAX@Z 000000014001bbf0 f   Shop.obj
 0001:0001ac10       ?_Target_type@?$_Func_impl_no_alloc@V<lambda_e4cb84e2ef1f0348c8ad9af04ceb4c4f>@@X$$V@std@@EEBAAEBVtype_info@@XZ 000000014001bc10 f   Shop.obj
 0001:0001ac20       ?_Copy@?$_Func_impl_no_alloc@V<lambda_e4cb84e2ef1f0348c8ad9af04ceb4c4f>@@X$$V@std@@EEBAPEAV?$_Func_base@X$$V@2@PEAX@Z 000000014001bc20 f   Shop.obj
 0001:0001ac20       ?_Move@?$_Func_impl_no_alloc@V<lambda_e4cb84e2ef1f0348c8ad9af04ceb4c4f>@@X$$V@std@@EEAAPEAV?$_Func_base@X$$V@2@PEAX@Z 000000014001bc20 f   Shop.obj
 0001:0001ac40       ?_Target_type@?$_Func_impl_no_alloc@V<lambda_414998facd772942244f71127261ad86>@@X$$V@std@@EEBAAEBVtype_info@@XZ 000000014001bc40 f   Shop.obj
 0001:0001ac50       ?_Copy@?$_Func_impl_no_alloc@V<lambda_414998facd772942244f71127261ad86>@@X$$V@std@@EEBAPEAV?$_Func_base@X$$V@2@PEAX@Z 000000014001bc50 f   Shop.obj
 0001:0001ac50       ?_Move@?$_Func_impl_no_alloc@V<lambda_414998facd772942244f71127261ad86>@@X$$V@std@@EEAAPEAV?$_Func_base@X$$V@2@PEAX@Z 000000014001bc50 f   Shop.obj
 0001:0001ac70       ?_Do_call@?$_Func_impl_no_alloc@V<lambda_414998facd772942244f71127261ad86>@@X$$V@std@@EEAAXXZ 000000014001bc70 f   Shop.obj
 0001:0001ac80       ?_Do_call@?$_Func_impl_no_alloc@V<lambda_e4cb84e2ef1f0348c8ad9af04ceb4c4f>@@X$$V@std@@EEAAXXZ 000000014001bc80 f   Shop.obj
 0001:0001ac90       ?_Do_call@?$_Func_impl_no_alloc@V<lambda_d2a719c930d707c67105e86afa12be81>@@X$$V@std@@EEAAXXZ 000000014001bc90 f   Shop.obj
 0001:0001aca0       ?_Do_call@?$_Func_impl_no_alloc@V<lambda_e15a1fae8d706ca9371bd1c03b271ef7>@@X$$V@std@@EEAAXXZ 000000014001bca0 f   Shop.obj
 0001:0001acb0       ?_Do_call@?$_Func_impl_no_alloc@V<lambda_3de1022e0e4f3428918652e077d8319b>@@X$$V@std@@EEAAXXZ 000000014001bcb0 f   Shop.obj
 0001:0001df90       ?<lambda_invoker_cdecl>@<lambda_9db9824f8b18fe401689e63f3bf6b9e4>@@CAHPEAT_RTL_RUN_ONCE@@PEAXPEAPEAX@Z 000000014001ef90 f   WICTextureLoader.obj
 0001:0001e000       ?_WICBitsPerPixel@?A0x045efb5a@@YA_KAEBU_GUID@@@Z 000000014001f000 f   WICTextureLoader.obj
 0001:0001e110       ?MakeSRGB@?A0x045efb5a@@YA?AW4DXGI_FORMAT@@W42@@Z 000000014001f110 f   WICTextureLoader.obj
 0001:0001e164       $LN14                      000000014001f164     WICTextureLoader.obj
 0001:0001e184       $LN13                      000000014001f184     WICTextureLoader.obj
 0001:0001e1d0       ?CreateTextureFromWIC@?A0x045efb5a@@YAJPEAUID3D11Device@@PEAUID3D11DeviceContext@@PEAUIWICBitmapFrameDecode@@_KW4D3D11_USAGE@@IIIIPEAPEAUID3D11Resource@@PEAPEAUID3D11ShaderResourceView@@@Z 000000014001f1d0 f   WICTextureLoader.obj
 0001:0001f950       ??$_Guess_median_unchecked@PEAPEBUSpriteInfo@Impl@SpriteBatch@DirectX@@V<lambda_9829e134287828d35661b3276427a812>@@@std@@YAXPEAPEBUSpriteInfo@Impl@SpriteBatch@DirectX@@00V<lambda_9829e134287828d35661b3276427a812>@@@Z 0000000140020950 f   DirectXTK:SpriteBatch.obj
 0001:0001faf0       ??$_Guess_median_unchecked@PEAPEBUSpriteInfo@Impl@SpriteBatch@DirectX@@V<lambda_9b5ae69721589d94e761d5c8d20d011a>@@@std@@YAXPEAPEBUSpriteInfo@Impl@SpriteBatch@DirectX@@00V<lambda_9b5ae69721589d94e761d5c8d20d011a>@@@Z 0000000140020af0 f   DirectXTK:SpriteBatch.obj
 0001:0001fcb0       ??$_Guess_median_unchecked@PEAPEBUSpriteInfo@Impl@SpriteBatch@DirectX@@V<lambda_c8cd3344139af936846f26b5e655a233>@@@std@@YAXPEAPEBUSpriteInfo@Impl@SpriteBatch@DirectX@@00V<lambda_c8cd3344139af936846f26b5e655a233>@@@Z 0000000140020cb0 f   DirectXTK:SpriteBatch.obj
 0001:000202a0       ??$_Partition_by_median_guess_unchecked@PEAPEBUSpriteInfo@Impl@SpriteBatch@DirectX@@V<lambda_9b5ae69721589d94e761d5c8d20d011a>@@@std@@YA?AU?$pair@PEAPEBUSpriteInfo@Impl@SpriteBatch@DirectX@@PEAPEBU1234@@0@PEAPEBUSpriteInfo@Impl@SpriteBatch@DirectX@@0V<lambda_9b5ae69721589d94e761d5c8d20d011a>@@@Z 00000001400212a0 f   DirectXTK:SpriteBatch.obj
 0001:00020590       ??$_Partition_by_median_guess_unchecked@PEAPEBUSpriteInfo@Impl@SpriteBatch@DirectX@@V<lambda_c8cd3344139af936846f26b5e655a233>@@@std@@YA?AU?$pair@PEAPEBUSpriteInfo@Impl@SpriteBatch@DirectX@@PEAPEBU1234@@0@PEAPEBUSpriteInfo@Impl@SpriteBatch@DirectX@@0V<lambda_c8cd3344139af936846f26b5e655a233>@@@Z 0000000140021590 f   DirectXTK:SpriteBatch.obj
 0001:00020880       ??$_Pop_heap_hole_by_index@PEAPEBUSpriteInfo@Impl@SpriteBatch@DirectX@@PEBU1234@V<lambda_9829e134287828d35661b3276427a812>@@@std@@YAXPEAPEBUSpriteInfo@Impl@SpriteBatch@DirectX@@_J1$$QEAPEBU1234@V<lambda_9829e134287828d35661b3276427a812>@@@Z 0000000140021880 f   DirectXTK:SpriteBatch.obj
 0001:00020950       ??$_Pop_heap_hole_by_index@PEAPEBUSpriteInfo@Impl@SpriteBatch@DirectX@@PEBU1234@V<lambda_9b5ae69721589d94e761d5c8d20d011a>@@@std@@YAXPEAPEBUSpriteInfo@Impl@SpriteBatch@DirectX@@_J1$$QEAPEBU1234@V<lambda_9b5ae69721589d94e761d5c8d20d011a>@@@Z 0000000140021950 f   DirectXTK:SpriteBatch.obj
 0001:00020a10       ??$_Pop_heap_hole_by_index@PEAPEBUSpriteInfo@Impl@SpriteBatch@DirectX@@PEBU1234@V<lambda_c8cd3344139af936846f26b5e655a233>@@@std@@YAXPEAPEBUSpriteInfo@Impl@SpriteBatch@DirectX@@_J1$$QEAPEBU1234@V<lambda_c8cd3344139af936846f26b5e655a233>@@@Z 0000000140021a10 f   DirectXTK:SpriteBatch.obj
 0001:00020c90       ??$_Sort_unchecked@PEAPEBUSpriteInfo@Impl@SpriteBatch@DirectX@@V<lambda_9829e134287828d35661b3276427a812>@@@std@@YAXPEAPEBUSpriteInfo@Impl@SpriteBatch@DirectX@@0_JV<lambda_9829e134287828d35661b3276427a812>@@@Z 0000000140021c90 f   DirectXTK:SpriteBatch.obj
 0001:000210a0       ??$_Sort_unchecked@PEAPEBUSpriteInfo@Impl@SpriteBatch@DirectX@@V<lambda_9b5ae69721589d94e761d5c8d20d011a>@@@std@@YAXPEAPEBUSpriteInfo@Impl@SpriteBatch@DirectX@@0_JV<lambda_9b5ae69721589d94e761d5c8d20d011a>@@@Z 00000001400220a0 f   DirectXTK:SpriteBatch.obj
 0001:00021340       ??$_Sort_unchecked@PEAPEBUSpriteInfo@Impl@SpriteBatch@DirectX@@V<lambda_c8cd3344139af936846f26b5e655a233>@@@std@@YAXPEAPEBUSpriteInfo@Impl@SpriteBatch@DirectX@@0_JV<lambda_c8cd3344139af936846f26b5e655a233>@@@Z 0000000140022340 f   DirectXTK:SpriteBatch.obj
 0001:00024a20       ??$ForEachGlyph@V<lambda_ea59ae01f682360545abc2266ba2a092>@@@Impl@SpriteFont@DirectX@@QEBAXPEB_WV<lambda_ea59ae01f682360545abc2266ba2a092>@@@Z 0000000140025a20 f   DirectXTK:SpriteFont.obj
 0001:000251fc       $LN452                     00000001400261fc     DirectXTK:SpriteFont.obj
 0001:0002521c       $LN451                     000000014002621c     DirectXTK:SpriteFont.obj
 0001:00025bf8       $LN20                      0000000140026bf8     DirectXTK:DDSTextureLoader.obj
 0001:00025c24       $LN19                      0000000140026c24     DirectXTK:DDSTextureLoader.obj
 0001:00025cb0       ?CreateD3DResources@?A0x3c71273c@@YAJPEAUID3D11Device@@I_K1111W4DXGI_FORMAT@@W4D3D11_USAGE@@III_N4PEBUD3D11_SUBRESOURCE_DATA@@PEAPEAUID3D11Resource@@PEAPEAUID3D11ShaderResourceView@@@Z 0000000140026cb0 f   DirectXTK:DDSTextureLoader.obj
 0001:00026044       $LN54                      0000000140027044     DirectXTK:DDSTextureLoader.obj
 0001:00026064       $LN53                      0000000140027064     DirectXTK:DDSTextureLoader.obj
 0001:00026230       ?CreateTextureFromDDS@?A0x3c71273c@@YAJPEAUID3D11Device@@PEAUID3D11DeviceContext@@PEBUDDS_HEADER@DirectX@@PEBE_K4W4D3D11_USAGE@@III_NPEAPEAUID3D11Resource@@PEAPEAUID3D11ShaderResourceView@@@Z 0000000140027230 f   DirectXTK:DDSTextureLoader.obj
 0001:00026a88       $LN259                     0000000140027a88     DirectXTK:DDSTextureLoader.obj
 0001:00026ab0       ?FillInitData@?A0x3c71273c@@YAJ_K0000W4DXGI_FORMAT@@00PEBEAEA_K333PEAUD3D11_SUBRESOURCE_DATA@@@Z 0000000140027ab0 f   DirectXTK:DDSTextureLoader.obj
 0001:00026e28       $LN79                      0000000140027e28     DirectXTK:DDSTextureLoader.obj
 0001:00026e44       $LN78                      0000000140027e44     DirectXTK:DDSTextureLoader.obj
 0001:00027330       $LN70                      0000000140028330     DirectXTK:DDSTextureLoader.obj
 0001:00027354       $LN69                      0000000140028354     DirectXTK:DDSTextureLoader.obj
 0001:0002753c       $LN35                      000000014002853c     DirectXTK:DDSTextureLoader.obj
 0001:00027558       $LN34                      0000000140028558     DirectXTK:DDSTextureLoader.obj
 0001:00028710       $$000000                   0000000140029710     MSVCRT:amdsecgs.obj
 0001:000287bc       ?__scrt_initialize_thread_safe_statics@@YAHXZ 00000001400297bc f   MSVCRT:thread_safe_statics.obj
 0001:0002891c       ?__scrt_uninitialize_thread_safe_statics@@YAXXZ 000000014002991c f   MSVCRT:thread_safe_statics.obj
 0001:00028adc       ?pre_c_initialization@@YAHXZ 0000000140029adc f   MSVCRT:exe_winmain.obj
 0001:00028b94       ?post_pgo_initialization@@YAHXZ 0000000140029b94 f   MSVCRT:exe_winmain.obj
 0001:00028ba4       ?pre_cpp_initialization@@YAXXZ 0000000140029ba4 f   MSVCRT:exe_winmain.obj
 0001:00028bc0       ?__scrt_common_main_seh@@YAHXZ 0000000140029bc0 f   MSVCRT:exe_winmain.obj
 0001:00029200       capture_previous_context   000000014002a200 f   MSVCRT:gs_report.obj
 0001:000299c0       $$000000                   000000014002a9c0     MSVCRT:guard_dispatch.obj
 0001:000299e0       ?dtor$0@?0??Flatten@Animation@@QEAA?AV?$vector@V?$array@Ufloat4@@$03@std@@V?$allocator@V?$array@Ufloat4@@$03@std@@@2@@std@@V23@V?$vector@HV?$allocator@H@std@@@3@@Z@4HA 000000014002a9e0 f   Animation.obj
 0001:000299ec       ?dtor$1@?0??Flatten@Animation@@QEAA?AV?$vector@V?$array@Ufloat4@@$03@std@@V?$allocator@V?$array@Ufloat4@@$03@std@@@2@@std@@V23@V?$vector@HV?$allocator@H@std@@@3@@Z@4HA 000000014002a9ec f   Animation.obj
 0001:000299f8       ?dtor$2@?0??Flatten@Animation@@QEAA?AV?$vector@V?$array@Ufloat4@@$03@std@@V?$allocator@V?$array@Ufloat4@@$03@std@@@2@@std@@V23@V?$vector@HV?$allocator@H@std@@@3@@Z@4HA 000000014002a9f8 f   Animation.obj
 0001:00029a20       ?dtor$0@?0???0Animation@@QEAA@PEBDPEAUID3D11Device@@@Z@4HA 000000014002aa20 f   Animation.obj
 0001:00029a30       ?dtor$1@?0???0Animation@@QEAA@PEBDPEAUID3D11Device@@@Z@4HA 000000014002aa30 f   Animation.obj
 0001:00029a40       ?dtor$2@?0???0Animation@@QEAA@PEBDPEAUID3D11Device@@@Z@4HA 000000014002aa40 f   Animation.obj
 0001:00029a4c       ?dtor$4@?0???0Animation@@QEAA@PEBDPEAUID3D11Device@@@Z@4HA 000000014002aa4c f   Animation.obj
 0001:00029a58       ?dtor$5@?0???0Animation@@QEAA@PEBDPEAUID3D11Device@@@Z@4HA 000000014002aa58 f   Animation.obj
 0001:00029a70       ?dtor$0@?0??ReadAnimFile@Animation@@QEAAXPEBDPEAUID3D11Device@@@Z@4HA 000000014002aa70 f   Animation.obj
 0001:00029a80       ?dtor$0@?0??LerpJoints@Animation@@QEAA?AV?$vector@V?$array@Ufloat4@@$03@std@@V?$allocator@V?$array@Ufloat4@@$03@std@@@2@@std@@V23@0MV?$vector@HV?$allocator@H@std@@@3@@Z@4HA 000000014002aa80 f   Animation.obj
 0001:00029a8c       ?dtor$1@?0??LerpJoints@Animation@@QEAA?AV?$vector@V?$array@Ufloat4@@$03@std@@V?$allocator@V?$array@Ufloat4@@$03@std@@@2@@std@@V23@0MV?$vector@HV?$allocator@H@std@@@3@@Z@4HA 000000014002aa8c f   Animation.obj
 0001:00029a98       ?dtor$2@?0??LerpJoints@Animation@@QEAA?AV?$vector@V?$array@Ufloat4@@$03@std@@V?$allocator@V?$array@Ufloat4@@$03@std@@@2@@std@@V23@0MV?$vector@HV?$allocator@H@std@@@3@@Z@4HA 000000014002aa98 f   Animation.obj
 0001:00029aa4       ?dtor$3@?0??LerpJoints@Animation@@QEAA?AV?$vector@V?$array@Ufloat4@@$03@std@@V?$allocator@V?$array@Ufloat4@@$03@std@@@2@@std@@V23@0MV?$vector@HV?$allocator@H@std@@@3@@Z@4HA 000000014002aaa4 f   Animation.obj
 0001:00029ad0       ?dtor$0@?0??SetJoints@Animation@@QEAAXM@Z@4HA 000000014002aad0 f   Animation.obj
 0001:00029adc       ?dtor$1@?0??SetJoints@Animation@@QEAAXM@Z@4HA 000000014002aadc f   Animation.obj
 0001:00029af0       ?dtor$0@?0???0?$basic_fstream@DU?$char_traits@D@std@@@std@@QEAA@PEBDHH@Z@4HA 000000014002aaf0 f   Animation.obj
 0001:00029b1e       ?dtor$1@?0???0?$basic_fstream@DU?$char_traits@D@std@@@std@@QEAA@PEBDHH@Z@4HA 000000014002ab1e f   Animation.obj
 0001:00029b30       ?dtor$3@?0???0?$basic_fstream@DU?$char_traits@D@std@@@std@@QEAA@PEBDHH@Z@4HA 000000014002ab30 f   Animation.obj
 0001:00029b3e       ?dtor$2@?0???0?$basic_fstream@DU?$char_traits@D@std@@@std@@QEAA@PEBDHH@Z@4HA 000000014002ab3e f   Animation.obj
 0001:00029b50       ?dtor$0@?0??UpdateTimerText@GameManager@@QEAAXM@Z@4HA 000000014002ab50 f   GameManager.obj
 0001:00029b50       ?dtor$0@?0??UpdateDamageTimerText@GameManager@@QEAAXXZ@4HA 000000014002ab50 f   GameManager.obj
 0001:00029b50       ?dtor$0@?0??uflow@?$basic_filebuf@DU?$char_traits@D@std@@@std@@MEAAHXZ@4HA 000000014002ab50 f   Animation.obj
 0001:00029b60       ?dtor$0@?0??open@?$basic_filebuf@DU?$char_traits@D@std@@@std@@QEAAPEAV12@PEBDHH@Z@4HA 000000014002ab60 f   Animation.obj
 0001:00029b70       ?dtor$0@?0???$use_facet@V?$codecvt@DDU_Mbstatet@@@std@@@std@@YAAEBV?$codecvt@DDU_Mbstatet@@@0@AEBVlocale@0@@Z@4HA 000000014002ab70 f   Animation.obj
 0001:00029b7e       ?dtor$1@?0???$use_facet@V?$codecvt@DDU_Mbstatet@@@std@@@std@@YAAEBV?$codecvt@DDU_Mbstatet@@@0@AEBVlocale@0@@Z@4HA 000000014002ab7e f   Animation.obj
 0001:00029b90       ?dtor$0@?0???0Bullet@@QEAA@M@Z@4HA 000000014002ab90 f   Bullet.obj
 0001:00029b9c       ?dtor$1@?0???0Bullet@@QEAA@M@Z@4HA 000000014002ab9c f   Bullet.obj
 0001:00029bb0       ?dtor$0@?0??Initialize@Bullet@@QEAA_NPEAUID3D11Device@@PEBDUfloat3@@2V?$basic_string@DU?$char_traits@D@std@@V?$allocator@D@2@@std@@M@Z@4HA 000000014002abb0 f   Bullet.obj
 0001:00029bc0       ?dtor$1@?0??SubHealth@Enemy@@QEAAXMW4DamageType@1@PEAUHWND__@@@Z@4HA 000000014002abc0 f   Enemy.obj
 0001:00029bcc       ?dtor$2@?0??SubHealth@Enemy@@QEAAXMW4DamageType@1@PEAUHWND__@@@Z@4HA 000000014002abcc f   Enemy.obj
 0001:00029bd8       ?dtor$3@?0??SubHealth@Enemy@@QEAAXMW4DamageType@1@PEAUHWND__@@@Z@4HA 000000014002abd8 f   Enemy.obj
 0001:00029be4       ?dtor$4@?0??SubHealth@Enemy@@QEAAXMW4DamageType@1@PEAUHWND__@@@Z@4HA 000000014002abe4 f   Enemy.obj
 0001:00029bf0       ?dtor$6@?0??SubHealth@Enemy@@QEAAXMW4DamageType@1@PEAUHWND__@@@Z@4HA 000000014002abf0 f   Enemy.obj
 0001:00029bfc       ?dtor$7@?0??SubHealth@Enemy@@QEAAXMW4DamageType@1@PEAUHWND__@@@Z@4HA 000000014002abfc f   Enemy.obj
 0001:00029c08       ?dtor$8@?0??SubHealth@Enemy@@QEAAXMW4DamageType@1@PEAUHWND__@@@Z@4HA 000000014002ac08 f   Enemy.obj
 0001:00029c14       ?dtor$9@?0??SubHealth@Enemy@@QEAAXMW4DamageType@1@PEAUHWND__@@@Z@4HA 000000014002ac14 f   Enemy.obj
 0001:00029c20       ?dtor$0@?0??Initialize@EnemyManager@@QEAAXPEAUID3D11Device@@@Z@4HA 000000014002ac20 f   EnemyManager.obj
 0001:00029c40       ?dtor$1@?0??Initialize@EnemyManager@@QEAAXPEAUID3D11Device@@@Z@4HA 000000014002ac40 f   EnemyManager.obj
 0001:00029c60       ?dtor$0@?0??Update@EnemyManager@@QEAAXMPEAVPlayer@@V?$vector@PEAVGameObject@@V?$allocator@PEAVGameObject@@@std@@@std@@AEAV?$vector@PEAVBullet@@V?$allocator@PEAVBullet@@@std@@@4@PEAUID3D11Device@@@Z@4HA 000000014002ac60 f   EnemyManager.obj
 0001:00029c6c       ?dtor$1@?0??Update@EnemyManager@@QEAAXMPEAVPlayer@@V?$vector@PEAVGameObject@@V?$allocator@PEAVGameObject@@@std@@@std@@AEAV?$vector@PEAVBullet@@V?$allocator@PEAVBullet@@@std@@@4@PEAUID3D11Device@@@Z@4HA 000000014002ac6c f   EnemyManager.obj
 0001:00029c89       ?dtor$2@?0??Update@EnemyManager@@QEAAXMPEAVPlayer@@V?$vector@PEAVGameObject@@V?$allocator@PEAVGameObject@@@std@@@std@@AEAV?$vector@PEAVBullet@@V?$allocator@PEAVBullet@@@std@@@4@PEAUID3D11Device@@@Z@4HA 000000014002ac89 f   EnemyManager.obj
 0001:00029cb0       ?dtor$0@?0???0GameObject@@QEAA@XZ@4HA 000000014002acb0 f   GameObject.obj
 0001:00029cc0       ?dtor$1@?0???0GameObject@@QEAA@XZ@4HA 000000014002acc0 f   GameObject.obj
 0001:00029cd0       ?dtor$2@?0???0GameObject@@QEAA@XZ@4HA 000000014002acd0 f   GameObject.obj
 0001:00029ce0       ?dtor$3@?0???0GameObject@@QEAA@XZ@4HA 000000014002ace0 f   GameObject.obj
 0001:00029cf0       ?dtor$4@?0???0GameObject@@QEAA@XZ@4HA 000000014002acf0 f   GameObject.obj
 0001:00029d10       ?dtor$0@?0??GetParent@GameObject@@QEAAHHV?$vector@HV?$allocator@H@std@@@std@@@Z@4HA 000000014002ad10 f   GameObject.obj
 0001:00029d20       ?dtor$0@?0??AddAninimation@GameObject@@QEAAXPEBDPEAUID3D11Device@@H@Z@4HA 000000014002ad20 f   GameObject.obj
 0001:00029d3d       ?dtor$5@?0??AddAninimation@GameObject@@QEAAXPEBDPEAUID3D11Device@@H@Z@4HA 000000014002ad3d f   GameObject.obj
 0001:00029d4d       ?dtor$6@?0??AddAninimation@GameObject@@QEAAXPEBDPEAUID3D11Device@@H@Z@4HA 000000014002ad4d f   GameObject.obj
 0001:00029d5d       ?dtor$12@?0??AddAninimation@GameObject@@QEAAXPEBDPEAUID3D11Device@@H@Z@4HA 000000014002ad5d f   GameObject.obj
 0001:00029d6d       ?dtor$13@?0??AddAninimation@GameObject@@QEAAXPEBDPEAUID3D11Device@@H@Z@4HA 000000014002ad6d f   GameObject.obj
 0001:00029d7d       ?dtor$2@?0??AddAninimation@GameObject@@QEAAXPEBDPEAUID3D11Device@@H@Z@4HA 000000014002ad7d f   GameObject.obj
 0001:00029d90       ?dtor$0@?0???0?$vector@Ukeyframe@@V?$allocator@Ukeyframe@@@std@@@std@@QEAA@AEBV01@@Z@4HA 000000014002ad90 f   GameObject.obj
 0001:00029d9c       ?catch$2@?0???0?$vector@Ukeyframe@@V?$allocator@Ukeyframe@@@std@@@std@@QEAA@AEBV01@@Z@4HA 000000014002ad9c f   GameObject.obj
 0001:00029da9       __catch$??0?$vector@Ukeyframe@@V?$allocator@Ukeyframe@@@std@@@std@@QEAA@AEBV01@@Z$0 000000014002ada9 f   GameObject.obj
 0001:00029dc0       ?dtor$1@?0??Initialize@Graphics@@QEAA_NHHPEAUHWND__@@PEAVInputManager@@@Z@4HA 000000014002adc0 f   graphicsclass.obj
 0001:00029ddd       ?dtor$2@?0??Initialize@Graphics@@QEAA_NHHPEAUHWND__@@PEAVInputManager@@@Z@4HA 000000014002addd f   graphicsclass.obj
 0001:00029dfa       ?dtor$9@?0??Initialize@Graphics@@QEAA_NHHPEAUHWND__@@PEAVInputManager@@@Z@4HA 000000014002adfa f   graphicsclass.obj
 0001:00029e17       ?dtor$10@?0??Initialize@Graphics@@QEAA_NHHPEAUHWND__@@PEAVInputManager@@@Z@4HA 000000014002ae17 f   graphicsclass.obj
 0001:00029e34       ?dtor$11@?0??Initialize@Graphics@@QEAA_NHHPEAUHWND__@@PEAVInputManager@@@Z@4HA 000000014002ae34 f   graphicsclass.obj
 0001:00029e60       ?dtor$0@?0??Render@Graphics@@QEAA_NPEAVInputManager@@PEAVPlayer@@V?$vector@PEAVBullet@@V?$allocator@PEAVBullet@@@std@@@std@@V?$vector@PEAVEnemy@@V?$allocator@PEAVEnemy@@@std@@@5@V?$vector@PEAVGameObject@@V?$allocator@PEAVGameObject@@@std@@@5@V?$vector@PEAVPickup@@V?$allocator@PEAVPickup@@@std@@@5@@Z@4HA 000000014002ae60 f   graphicsclass.obj
 0001:00029e6c       ?dtor$1@?0??Render@Graphics@@QEAA_NPEAVInputManager@@PEAVPlayer@@V?$vector@PEAVBullet@@V?$allocator@PEAVBullet@@@std@@@std@@V?$vector@PEAVEnemy@@V?$allocator@PEAVEnemy@@@std@@@5@V?$vector@PEAVGameObject@@V?$allocator@PEAVGameObject@@@std@@@5@V?$vector@PEAVPickup@@V?$allocator@PEAVPickup@@@std@@@5@@Z@4HA 000000014002ae6c f   graphicsclass.obj
 0001:00029e78       ?dtor$2@?0??Render@Graphics@@QEAA_NPEAVInputManager@@PEAVPlayer@@V?$vector@PEAVBullet@@V?$allocator@PEAVBullet@@@std@@@std@@V?$vector@PEAVEnemy@@V?$allocator@PEAVEnemy@@@std@@@5@V?$vector@PEAVGameObject@@V?$allocator@PEAVGameObject@@@std@@@5@V?$vector@PEAVPickup@@V?$allocator@PEAVPickup@@@std@@@5@@Z@4HA 000000014002ae78 f   graphicsclass.obj
 0001:00029e84       ?dtor$3@?0??Render@Graphics@@QEAA_NPEAVInputManager@@PEAVPlayer@@V?$vector@PEAVBullet@@V?$allocator@PEAVBullet@@@std@@@std@@V?$vector@PEAVEnemy@@V?$allocator@PEAVEnemy@@@std@@@5@V?$vector@PEAVGameObject@@V?$allocator@PEAVGameObject@@@std@@@5@V?$vector@PEAVPickup@@V?$allocator@PEAVPickup@@@std@@@5@@Z@4HA 000000014002ae84 f   graphicsclass.obj
 0001:00029e90       ?dtor$4@?0??Render@Graphics@@QEAA_NPEAVInputManager@@PEAVPlayer@@V?$vector@PEAVBullet@@V?$allocator@PEAVBullet@@@std@@@std@@V?$vector@PEAVEnemy@@V?$allocator@PEAVEnemy@@@std@@@5@V?$vector@PEAVGameObject@@V?$allocator@PEAVGameObject@@@std@@@5@V?$vector@PEAVPickup@@V?$allocator@PEAVPickup@@@std@@@5@@Z@4HA 000000014002ae90 f   graphicsclass.obj
 0001:00029e9c       ?dtor$5@?0??Render@Graphics@@QEAA_NPEAVInputManager@@PEAVPlayer@@V?$vector@PEAVBullet@@V?$allocator@PEAVBullet@@@std@@@std@@V?$vector@PEAVEnemy@@V?$allocator@PEAVEnemy@@@std@@@5@V?$vector@PEAVGameObject@@V?$allocator@PEAVGameObject@@@std@@@5@V?$vector@PEAVPickup@@V?$allocator@PEAVPickup@@@std@@@5@@Z@4HA 000000014002ae9c f   graphicsclass.obj
 0001:00029ea8       ?dtor$6@?0??Render@Graphics@@QEAA_NPEAVInputManager@@PEAVPlayer@@V?$vector@PEAVBullet@@V?$allocator@PEAVBullet@@@std@@@std@@V?$vector@PEAVEnemy@@V?$allocator@PEAVEnemy@@@std@@@5@V?$vector@PEAVGameObject@@V?$allocator@PEAVGameObject@@@std@@@5@V?$vector@PEAVPickup@@V?$allocator@PEAVPickup@@@std@@@5@@Z@4HA 000000014002aea8 f   graphicsclass.obj
 0001:00029eb4       ?dtor$16@?0??Render@Graphics@@QEAA_NPEAVInputManager@@PEAVPlayer@@V?$vector@PEAVBullet@@V?$allocator@PEAVBullet@@@std@@@std@@V?$vector@PEAVEnemy@@V?$allocator@PEAVEnemy@@@std@@@5@V?$vector@PEAVGameObject@@V?$allocator@PEAVGameObject@@@std@@@5@V?$vector@PEAVPickup@@V?$allocator@PEAVPickup@@@std@@@5@@Z@4HA 000000014002aeb4 f   graphicsclass.obj
 0001:00029ec0       ?dtor$18@?0??Render@Graphics@@QEAA_NPEAVInputManager@@PEAVPlayer@@V?$vector@PEAVBullet@@V?$allocator@PEAVBullet@@@std@@@std@@V?$vector@PEAVEnemy@@V?$allocator@PEAVEnemy@@@std@@@5@V?$vector@PEAVGameObject@@V?$allocator@PEAVGameObject@@@std@@@5@V?$vector@PEAVPickup@@V?$allocator@PEAVPickup@@@std@@@5@@Z@4HA 000000014002aec0 f   graphicsclass.obj
 0001:00029ecc       ?dtor$7@?0??Render@Graphics@@QEAA_NPEAVInputManager@@PEAVPlayer@@V?$vector@PEAVBullet@@V?$allocator@PEAVBullet@@@std@@@std@@V?$vector@PEAVEnemy@@V?$allocator@PEAVEnemy@@@std@@@5@V?$vector@PEAVGameObject@@V?$allocator@PEAVGameObject@@@std@@@5@V?$vector@PEAVPickup@@V?$allocator@PEAVPickup@@@std@@@5@@Z@4HA 000000014002aecc f   graphicsclass.obj
 0001:00029ed8       ?dtor$8@?0??Render@Graphics@@QEAA_NPEAVInputManager@@PEAVPlayer@@V?$vector@PEAVBullet@@V?$allocator@PEAVBullet@@@std@@@std@@V?$vector@PEAVEnemy@@V?$allocator@PEAVEnemy@@@std@@@5@V?$vector@PEAVGameObject@@V?$allocator@PEAVGameObject@@@std@@@5@V?$vector@PEAVPickup@@V?$allocator@PEAVPickup@@@std@@@5@@Z@4HA 000000014002aed8 f   graphicsclass.obj
 0001:00029ee4       ?dtor$9@?0??Render@Graphics@@QEAA_NPEAVInputManager@@PEAVPlayer@@V?$vector@PEAVBullet@@V?$allocator@PEAVBullet@@@std@@@std@@V?$vector@PEAVEnemy@@V?$allocator@PEAVEnemy@@@std@@@5@V?$vector@PEAVGameObject@@V?$allocator@PEAVGameObject@@@std@@@5@V?$vector@PEAVPickup@@V?$allocator@PEAVPickup@@@std@@@5@@Z@4HA 000000014002aee4 f   graphicsclass.obj
 0001:00029ef0       ?dtor$10@?0??Render@Graphics@@QEAA_NPEAVInputManager@@PEAVPlayer@@V?$vector@PEAVBullet@@V?$allocator@PEAVBullet@@@std@@@std@@V?$vector@PEAVEnemy@@V?$allocator@PEAVEnemy@@@std@@@5@V?$vector@PEAVGameObject@@V?$allocator@PEAVGameObject@@@std@@@5@V?$vector@PEAVPickup@@V?$allocator@PEAVPickup@@@std@@@5@@Z@4HA 000000014002aef0 f   graphicsclass.obj
 0001:00029efc       ?dtor$11@?0??Render@Graphics@@QEAA_NPEAVInputManager@@PEAVPlayer@@V?$vector@PEAVBullet@@V?$allocator@PEAVBullet@@@std@@@std@@V?$vector@PEAVEnemy@@V?$allocator@PEAVEnemy@@@std@@@5@V?$vector@PEAVGameObject@@V?$allocator@PEAVGameObject@@@std@@@5@V?$vector@PEAVPickup@@V?$allocator@PEAVPickup@@@std@@@5@@Z@4HA 000000014002aefc f   graphicsclass.obj
 0001:00029f10       ?dtor$0@?0???0GameManager@@QEAA@XZ@4HA 000000014002af10 f   GameManager.obj
 0001:00029f23       ?dtor$1@?0???0GameManager@@QEAA@XZ@4HA 000000014002af23 f   GameManager.obj
 0001:00029f36       ?dtor$2@?0???0GameManager@@QEAA@XZ@4HA 000000014002af36 f   GameManager.obj
 0001:00029f49       ?dtor$3@?0???0GameManager@@QEAA@XZ@4HA 000000014002af49 f   GameManager.obj
 0001:00029f5c       ?dtor$4@?0???0GameManager@@QEAA@XZ@4HA 000000014002af5c f   GameManager.obj
 0001:00029f80       ?dtor$0@?0??UpdateHealthText@GameManager@@QEAAXXZ@4HA 000000014002af80 f   GameManager.obj
 0001:00029f80       ?dtor$0@?0??UpdateScoreText@GameManager@@QEAAXXZ@4HA 000000014002af80 f   GameManager.obj
 0001:00029f8c       ?dtor$1@?0??UpdateScoreText@GameManager@@QEAAXXZ@4HA 000000014002af8c f   GameManager.obj
 0001:00029f8c       ?dtor$1@?0??UpdateHealthText@GameManager@@QEAAXXZ@4HA 000000014002af8c f   GameManager.obj
 0001:00029fa0       ?dtor$0@?0??ShootBullets@GameManager@@QEAAXXZ@4HA 000000014002afa0 f   GameManager.obj
 0001:00029fc0       ?dtor$3@?0??ShootBullets@GameManager@@QEAAXXZ@4HA 000000014002afc0 f   GameManager.obj
 0001:00029fcc       ?dtor$4@?0??ShootBullets@GameManager@@QEAAXXZ@4HA 000000014002afcc f   GameManager.obj
 0001:00029fd8       ?dtor$5@?0??ShootBullets@GameManager@@QEAAXXZ@4HA 000000014002afd8 f   GameManager.obj
 0001:00029fe4       ?dtor$6@?0??ShootBullets@GameManager@@QEAAXXZ@4HA 000000014002afe4 f   GameManager.obj
 0001:00029ff0       ?dtor$0@?0??SpawnDamagePickup@GameManager@@QEAAXUfloat3@@@Z@4HA 000000014002aff0 f   GameManager.obj
 0001:00029ff0       ?dtor$0@?0??SpawnHealthPickup@GameManager@@QEAAXUfloat3@@@Z@4HA 000000014002aff0 f   GameManager.obj
 0001:0002a010       ?dtor$3@?0??Update@GameManager@@QEAAXMM@Z@4HA 000000014002b010 f   GameManager.obj
 0001:0002a03c       ?dtor$6@?0??Update@GameManager@@QEAAXMM@Z@4HA 000000014002b03c f   GameManager.obj
 0001:0002a048       ?dtor$7@?0??Update@GameManager@@QEAAXMM@Z@4HA 000000014002b048 f   GameManager.obj
 0001:0002a054       ?dtor$9@?0??Update@GameManager@@QEAAXMM@Z@4HA 000000014002b054 f   GameManager.obj
 0001:0002a060       ?dtor$10@?0??Update@GameManager@@QEAAXMM@Z@4HA 000000014002b060 f   GameManager.obj
 0001:0002a06c       ?dtor$18@?0??Update@GameManager@@QEAAXMM@Z@4HA 000000014002b06c f   GameManager.obj
 0001:0002a078       ?dtor$19@?0??Update@GameManager@@QEAAXMM@Z@4HA 000000014002b078 f   GameManager.obj
 0001:0002a084       ?dtor$21@?0??Update@GameManager@@QEAAXMM@Z@4HA 000000014002b084 f   GameManager.obj
 0001:0002a090       ?dtor$22@?0??Update@GameManager@@QEAAXMM@Z@4HA 000000014002b090 f   GameManager.obj
 0001:0002a09c       ?dtor$67@?0??Update@GameManager@@QEAAXMM@Z@4HA 000000014002b09c f   GameManager.obj
 0001:0002a0c0       ?dtor$0@?0??Initialize@GameManager@@QEAA_NHHPEAUHWND__@@@Z@4HA 000000014002b0c0 f   GameManager.obj
 0001:0002a0e0       ?dtor$6@?0??Initialize@GameManager@@QEAA_NHHPEAUHWND__@@@Z@4HA 000000014002b0e0 f   GameManager.obj
 0001:0002a0ec       ?dtor$7@?0??Initialize@GameManager@@QEAA_NHHPEAUHWND__@@@Z@4HA 000000014002b0ec f   GameManager.obj
 0001:0002a0ff       ?dtor$4@?0??Initialize@GameManager@@QEAA_NHHPEAUHWND__@@@Z@4HA 000000014002b0ff f   GameManager.obj
 0001:0002a11c       ?dtor$5@?0??Initialize@GameManager@@QEAA_NHHPEAUHWND__@@@Z@4HA 000000014002b11c f   GameManager.obj
 0001:0002a139       ?dtor$10@?0??Initialize@GameManager@@QEAA_NHHPEAUHWND__@@@Z@4HA 000000014002b139 f   GameManager.obj
 0001:0002a150       ?dtor$0@?0??ReadMeshFile@Model@@AEAAXPEBDPEAUID3D11Device@@@Z@4HA 000000014002b150 f   Model.obj
 0001:0002a15c       ?dtor$1@?0??ReadMeshFile@Model@@AEAAXPEBDPEAUID3D11Device@@@Z@4HA 000000014002b15c f   Model.obj
 0001:0002a168       ?dtor$2@?0??ReadMeshFile@Model@@AEAAXPEBDPEAUID3D11Device@@@Z@4HA 000000014002b168 f   Model.obj
 0001:0002a180       ?dtor$6@?0??Run@MyWindow@@AEAA_NXZ@4HA 000000014002b180 f   MyWindow.obj
 0001:0002a18c       ?dtor$7@?0??Run@MyWindow@@AEAA_NXZ@4HA 000000014002b18c f   MyWindow.obj
 0001:0002a198       ?dtor$8@?0??Run@MyWindow@@AEAA_NXZ@4HA 000000014002b198 f   MyWindow.obj
 0001:0002a1b0       ?dtor$0@?0??Initialize@MyWindow@@QEAA_NXZ@4HA 000000014002b1b0 f   MyWindow.obj
 0001:0002a1cd       ?dtor$1@?0??Initialize@MyWindow@@QEAA_NXZ@4HA 000000014002b1cd f   MyWindow.obj
 0001:0002a1d9       ?dtor$2@?0??Initialize@MyWindow@@QEAA_NXZ@4HA 000000014002b1d9 f   MyWindow.obj
 0001:0002a1e5       ?dtor$4@?0??Initialize@MyWindow@@QEAA_NXZ@4HA 000000014002b1e5 f   MyWindow.obj
 0001:0002a1f1       ?dtor$5@?0??Initialize@MyWindow@@QEAA_NXZ@4HA 000000014002b1f1 f   MyWindow.obj
 0001:0002a1fd       ?dtor$7@?0??Initialize@MyWindow@@QEAA_NXZ@4HA 000000014002b1fd f   MyWindow.obj
 0001:0002a210       ?dtor$0@?0???$?HDU?$char_traits@D@std@@V?$allocator@D@1@@std@@YA?AV?$basic_string@DU?$char_traits@D@std@@V?$allocator@D@2@@0@QEBDAEBV10@@Z@4HA 000000014002b210 f   MyWindow.obj
 0001:0002a240       ?dtor$5@?0??Update@Player@@UEAAXM@Z@4HA 000000014002b240 f   Player.obj
 0001:0002a250       ?dtor$6@?0??Update@Player@@UEAAXM@Z@4HA 000000014002b250 f   Player.obj
 0001:0002a260       ?dtor$10@?0??Update@Player@@UEAAXM@Z@4HA 000000014002b260 f   Player.obj
 0001:0002a270       ?dtor$11@?0??Update@Player@@UEAAXM@Z@4HA 000000014002b270 f   Player.obj
 0001:0002a280       ?dtor$1@?0??Update@Player@@UEAAXM@Z@4HA 000000014002b280 f   Player.obj
 0001:0002a28c       ?dtor$15@?0??Update@Player@@UEAAXM@Z@4HA 000000014002b28c f   Player.obj
 0001:0002a29c       ?dtor$16@?0??Update@Player@@UEAAXM@Z@4HA 000000014002b29c f   Player.obj
 0001:0002a2b0       ?dtor$0@?0??SetSkeletonLines@Player@@QEAA?AV?$vector@V?$array@Ufloat4@@$03@std@@V?$allocator@V?$array@Ufloat4@@$03@std@@@2@@std@@Uanim_clip@@0MM@Z@4HA 000000014002b2b0 f   Player.obj
 0001:0002a2bc       ?dtor$1@?0??SetSkeletonLines@Player@@QEAA?AV?$vector@V?$array@Ufloat4@@$03@std@@V?$allocator@V?$array@Ufloat4@@$03@std@@@2@@std@@Uanim_clip@@0MM@Z@4HA 000000014002b2bc f   Player.obj
 0001:0002a2c8       ?dtor$2@?0??SetSkeletonLines@Player@@QEAA?AV?$vector@V?$array@Ufloat4@@$03@std@@V?$allocator@V?$array@Ufloat4@@$03@std@@@2@@std@@Uanim_clip@@0MM@Z@4HA 000000014002b2c8 f   Player.obj
 0001:0002a2f7       ?dtor$3@?0??SetSkeletonLines@Player@@QEAA?AV?$vector@V?$array@Ufloat4@@$03@std@@V?$allocator@V?$array@Ufloat4@@$03@std@@@2@@std@@Uanim_clip@@0MM@Z@4HA 000000014002b2f7 f   Player.obj
 0001:0002a303       ?dtor$4@?0??SetSkeletonLines@Player@@QEAA?AV?$vector@V?$array@Ufloat4@@$03@std@@V?$allocator@V?$array@Ufloat4@@$03@std@@@2@@std@@Uanim_clip@@0MM@Z@4HA 000000014002b303 f   Player.obj
 0001:0002a30f       ?dtor$5@?0??SetSkeletonLines@Player@@QEAA?AV?$vector@V?$array@Ufloat4@@$03@std@@V?$allocator@V?$array@Ufloat4@@$03@std@@@2@@std@@Uanim_clip@@0MM@Z@4HA 000000014002b30f f   Player.obj
 0001:0002a31b       ?dtor$6@?0??SetSkeletonLines@Player@@QEAA?AV?$vector@V?$array@Ufloat4@@$03@std@@V?$allocator@V?$array@Ufloat4@@$03@std@@@2@@std@@Uanim_clip@@0MM@Z@4HA 000000014002b31b f   Player.obj
 0001:0002a327       ?dtor$7@?0??SetSkeletonLines@Player@@QEAA?AV?$vector@V?$array@Ufloat4@@$03@std@@V?$allocator@V?$array@Ufloat4@@$03@std@@@2@@std@@Uanim_clip@@0MM@Z@4HA 000000014002b327 f   Player.obj
 0001:0002a340       ?dtor$2@?0???0RangedEnemy@@QEAA@XZ@4HA 000000014002b340 f   RangedEnemy.obj
 0001:0002a340       ?dtor$2@?0???0Target@@QEAA@XZ@4HA 000000014002b340 f   Target.obj
 0001:0002a34c       ?dtor$0@?0???0Target@@QEAA@XZ@4HA 000000014002b34c f   Target.obj
 0001:0002a34c       ?dtor$0@?0???0RangedEnemy@@QEAA@XZ@4HA 000000014002b34c f   RangedEnemy.obj
 0001:0002a358       ?dtor$4@?0???0RangedEnemy@@QEAA@XZ@4HA 000000014002b358 f   RangedEnemy.obj
 0001:0002a358       ?dtor$4@?0???0Target@@QEAA@XZ@4HA 000000014002b358 f   Target.obj
 0001:0002a370       ?dtor$0@?0??Attack@RangedEnemy@@QEAAXPEAVPlayer@@AEAV?$vector@PEAVBullet@@V?$allocator@PEAVBullet@@@std@@@std@@PEAUID3D11Device@@@Z@4HA 000000014002b370 f   RangedEnemy.obj
 0001:0002a390       ?dtor$0@?0???0Item@Shop@@QEAA@W4WEAPONTYPE@1@MMMMV?$basic_string@DU?$char_traits@D@std@@V?$allocator@D@2@@std@@@Z@4HA 000000014002b390 f   Shop.obj
 0001:0002a39c       ?dtor$1@?0???0Item@Shop@@QEAA@W4WEAPONTYPE@1@MMMMV?$basic_string@DU?$char_traits@D@std@@V?$allocator@D@2@@std@@@Z@4HA 000000014002b39c f   Shop.obj
 0001:0002a3b0       ?dtor$0@?0??Initialize@Shop@@QEAA_NXZ@4HA 000000014002b3b0 f   Shop.obj
 0001:0002a3d0       ?dtor$2@?0??Initialize@Shop@@QEAA_NXZ@4HA 000000014002b3d0 f   Shop.obj
 0001:0002a3dc       ?dtor$3@?0??Initialize@Shop@@QEAA_NXZ@4HA 000000014002b3dc f   Shop.obj
 0001:0002a3fc       ?dtor$5@?0??Initialize@Shop@@QEAA_NXZ@4HA 000000014002b3fc f   Shop.obj
 0001:0002a408       ?dtor$6@?0??Initialize@Shop@@QEAA_NXZ@4HA 000000014002b408 f   Shop.obj
 0001:0002a428       ?dtor$8@?0??Initialize@Shop@@QEAA_NXZ@4HA 000000014002b428 f   Shop.obj
 0001:0002a434       ?dtor$9@?0??Initialize@Shop@@QEAA_NXZ@4HA 000000014002b434 f   Shop.obj
 0001:0002a454       ?dtor$11@?0??Initialize@Shop@@QEAA_NXZ@4HA 000000014002b454 f   Shop.obj
 0001:0002a460       ?dtor$12@?0??Initialize@Shop@@QEAA_NXZ@4HA 000000014002b460 f   Shop.obj
 0001:0002a480       ?dtor$14@?0??Initialize@Shop@@QEAA_NXZ@4HA 000000014002b480 f   Shop.obj
 0001:0002a48c       ?dtor$15@?0??Initialize@Shop@@QEAA_NXZ@4HA 000000014002b48c f   Shop.obj
 0001:0002a4ac       ?dtor$17@?0??Initialize@Shop@@QEAA_NXZ@4HA 000000014002b4ac f   Shop.obj
 0001:0002a4b8       ?dtor$18@?0??Initialize@Shop@@QEAA_NXZ@4HA 000000014002b4b8 f   Shop.obj
 0001:0002a4d8       ?dtor$20@?0??Initialize@Shop@@QEAA_NXZ@4HA 000000014002b4d8 f   Shop.obj
 0001:0002a4e4       ?dtor$21@?0??Initialize@Shop@@QEAA_NXZ@4HA 000000014002b4e4 f   Shop.obj
 0001:0002a504       ?dtor$23@?0??Initialize@Shop@@QEAA_NXZ@4HA 000000014002b504 f   Shop.obj
 0001:0002a510       ?dtor$24@?0??Initialize@Shop@@QEAA_NXZ@4HA 000000014002b510 f   Shop.obj
 0001:0002a530       ?dtor$26@?0??Initialize@Shop@@QEAA_NXZ@4HA 000000014002b530 f   Shop.obj
 0001:0002a53c       ?dtor$27@?0??Initialize@Shop@@QEAA_NXZ@4HA 000000014002b53c f   Shop.obj
 0001:0002a55c       ?dtor$29@?0??Initialize@Shop@@QEAA_NXZ@4HA 000000014002b55c f   Shop.obj
 0001:0002a568       ?dtor$30@?0??Initialize@Shop@@QEAA_NXZ@4HA 000000014002b568 f   Shop.obj
 0001:0002a588       ?dtor$32@?0??Initialize@Shop@@QEAA_NXZ@4HA 000000014002b588 f   Shop.obj
 0001:0002a594       ?dtor$33@?0??Initialize@Shop@@QEAA_NXZ@4HA 000000014002b594 f   Shop.obj
 0001:0002a5b4       ?dtor$35@?0??Initialize@Shop@@QEAA_NXZ@4HA 000000014002b5b4 f   Shop.obj
 0001:0002a5c0       ?dtor$36@?0??Initialize@Shop@@QEAA_NXZ@4HA 000000014002b5c0 f   Shop.obj
 0001:0002a5e0       ?dtor$38@?0??Initialize@Shop@@QEAA_NXZ@4HA 000000014002b5e0 f   Shop.obj
 0001:0002a5ec       ?dtor$39@?0??Initialize@Shop@@QEAA_NXZ@4HA 000000014002b5ec f   Shop.obj
 0001:0002a5f8       ?dtor$40@?0??Initialize@Shop@@QEAA_NXZ@4HA 000000014002b5f8 f   Shop.obj
 0001:0002a604       ?dtor$41@?0??Initialize@Shop@@QEAA_NXZ@4HA 000000014002b604 f   Shop.obj
 0001:0002a610       ?dtor$42@?0??Initialize@Shop@@QEAA_NXZ@4HA 000000014002b610 f   Shop.obj
 0001:0002a61c       ?dtor$43@?0??Initialize@Shop@@QEAA_NXZ@4HA 000000014002b61c f   Shop.obj
 0001:0002a628       ?dtor$44@?0??Initialize@Shop@@QEAA_NXZ@4HA 000000014002b628 f   Shop.obj
 0001:0002a634       ?dtor$45@?0??Initialize@Shop@@QEAA_NXZ@4HA 000000014002b634 f   Shop.obj
 0001:0002a640       ?dtor$46@?0??Initialize@Shop@@QEAA_NXZ@4HA 000000014002b640 f   Shop.obj
 0001:0002a64c       ?dtor$47@?0??Initialize@Shop@@QEAA_NXZ@4HA 000000014002b64c f   Shop.obj
 0001:0002a658       ?dtor$48@?0??Initialize@Shop@@QEAA_NXZ@4HA 000000014002b658 f   Shop.obj
 0001:0002a664       ?dtor$49@?0??Initialize@Shop@@QEAA_NXZ@4HA 000000014002b664 f   Shop.obj
 0001:0002a670       ?dtor$50@?0??Initialize@Shop@@QEAA_NXZ@4HA 000000014002b670 f   Shop.obj
 0001:0002a67c       ?dtor$51@?0??Initialize@Shop@@QEAA_NXZ@4HA 000000014002b67c f   Shop.obj
 0001:0002a690       ?dtor$0@?0??ShowMeleStats@Shop@@QEAAXXZ@4HA 000000014002b690 f   Shop.obj
 0001:0002a690       ?dtor$0@?0??ShowSMGStats@Shop@@QEAAXXZ@4HA 000000014002b690 f   Shop.obj
 0001:0002a690       ?dtor$0@?0??ShowPistolStats@Shop@@QEAAXXZ@4HA 000000014002b690 f   Shop.obj
 0001:0002a690       ?dtor$0@?0??ShowARStats@Shop@@QEAAXXZ@4HA 000000014002b690 f   Shop.obj
 0001:0002a69c       ?dtor$1@?0??ShowSMGStats@Shop@@QEAAXXZ@4HA 000000014002b69c f   Shop.obj
 0001:0002a69c       ?dtor$1@?0??ShowPistolStats@Shop@@QEAAXXZ@4HA 000000014002b69c f   Shop.obj
 0001:0002a69c       ?dtor$1@?0??ShowMeleStats@Shop@@QEAAXXZ@4HA 000000014002b69c f   Shop.obj
 0001:0002a69c       ?dtor$1@?0??ShowARStats@Shop@@QEAAXXZ@4HA 000000014002b69c f   Shop.obj
 0001:0002a6a8       ?dtor$2@?0??ShowARStats@Shop@@QEAAXXZ@4HA 000000014002b6a8 f   Shop.obj
 0001:0002a6a8       ?dtor$2@?0??ShowSMGStats@Shop@@QEAAXXZ@4HA 000000014002b6a8 f   Shop.obj
 0001:0002a6a8       ?dtor$2@?0??ShowPistolStats@Shop@@QEAAXXZ@4HA 000000014002b6a8 f   Shop.obj
 0001:0002a6a8       ?dtor$2@?0??ShowMeleStats@Shop@@QEAAXXZ@4HA 000000014002b6a8 f   Shop.obj
 0001:0002a6c0       ?dtor$0@?0??Update@Shop@@QEAAXXZ@4HA 000000014002b6c0 f   Shop.obj
 0001:0002a6d0       ?catch$0@?0???$_Insert_hint@AEAU?$pair@$$CBV?$basic_string@DU?$char_traits@D@std@@V?$allocator@D@2@@std@@PEAVUIElement@@@std@@PEAU?$_Tree_node@U?$pair@$$CBV?$basic_string@DU?$char_traits@D@std@@V?$allocator@D@2@@std@@PEAVUIElement@@@std@@PEAX@2@@?$_Tree@V?$_Tmap_traits@V?$basic_string@DU?$char_traits@D@std@@V?$allocator@D@2@@std@@PEAVUIElement@@U?$less@V?$basic_string@DU?$char_traits@D@std@@V?$allocator@D@2@@std@@@2@V?$allocator@U?$pair@$$CBV?$basic_string@DU?$char_traits@D@std@@V?$allocator@D@2@@std@@PEAVUIElement@@@std@@@2@$0A@@std@@@std@@IEAA?AV?$_Tree_iterator@V?$_Tree_val@U?$_Tree_simple_types@U?$pair@$$CBV?$basic_string@DU?$char_traits@D@std@@V?$allocator@D@2@@std@@PEAVUIElement@@@std@@@std@@@std@@@1@V?$_Tree_const_iterator@V?$_Tree_val@U?$_Tree_simple_types@U?$pair@$$CBV?$basic_string@DU?$char_traits@D@std@@V?$allocator@D@2@@std@@PEAVUIElement@@@std@@@std@@@std@@@1@AEAU?$pair@$$CBV?$basic_string@DU?$char_traits@D@std@@V?$allocator@D@2@@std@@PEAVUIElement@@@1@PEAU?$_Tree_node@U?$pair@$$CBV?$basic_string@DU?$char_traits@D@std@@V?$allocator@D@2@@std@@PEAVUIElement@@@std@@PEAX@1@@Z@4HA 000000014002b6d0 f   Shop.obj
 0001:0002a6d0       ?catch$0@?0???$_Insert_hint@AEAU?$pair@$$CBV?$basic_string@DU?$char_traits@D@std@@V?$allocator@D@2@@std@@PEAUItem@Shop@@@std@@PEAU?$_Tree_node@U?$pair@$$CBV?$basic_string@DU?$char_traits@D@std@@V?$allocator@D@2@@std@@PEAUItem@Shop@@@std@@PEAX@2@@?$_Tree@V?$_Tmap_traits@V?$basic_string@DU?$char_traits@D@std@@V?$allocator@D@2@@std@@PEAUItem@Shop@@U?$less@V?$basic_string@DU?$char_traits@D@std@@V?$allocator@D@2@@std@@@2@V?$allocator@U?$pair@$$CBV?$basic_string@DU?$char_traits@D@std@@V?$allocator@D@2@@std@@PEAUItem@Shop@@@std@@@2@$0A@@std@@@std@@IEAA?AV?$_Tree_iterator@V?$_Tree_val@U?$_Tree_simple_types@U?$pair@$$CBV?$basic_string@DU?$char_traits@D@std@@V?$allocator@D@2@@std@@PEAUItem@Shop@@@std@@@std@@@std@@@1@V?$_Tree_const_iterator@V?$_Tree_val@U?$_Tree_simple_types@U?$pair@$$CBV?$basic_string@DU?$char_traits@D@std@@V?$allocator@D@2@@std@@PEAUItem@Shop@@@std@@@std@@@std@@@1@AEAU?$pair@$$CBV?$basic_string@DU?$char_traits@D@std@@V?$allocator@D@2@@std@@PEAUItem@Shop@@@1@PEAU?$_Tree_node@U?$pair@$$CBV?$basic_string@DU?$char_traits@D@std@@V?$allocator@D@2@@std@@PEAUItem@Shop@@@std@@PEAX@1@@Z@4HA 000000014002b6d0 f   Shop.obj
 0001:0002a6dd       __catch$??$_Insert_hint@AEAU?$pair@$$CBV?$basic_string@DU?$char_traits@D@std@@V?$allocator@D@2@@std@@PEAVUIElement@@@std@@PEAU?$_Tree_node@U?$pair@$$CBV?$basic_string@DU?$char_traits@D@std@@V?$allocator@D@2@@std@@PEAVUIElement@@@std@@PEAX@2@@?$_Tree@V?$_Tmap_traits@V?$basic_string@DU?$char_traits@D@std@@V?$allocator@D@2@@std@@PEAVUIElement@@U?$less@V?$basic_string@DU?$char_traits@D@std@@V?$allocator@D@2@@std@@@2@V?$allocator@U?$pair@$$CBV?$basic_string@DU?$char_traits@D@std@@V?$allocator@D@2@@std@@PEAVUIElement@@@std@@@2@$0A@@std@@@std@@IEAA?AV?$_Tree_iterator@V?$_Tree_val@U?$_Tree_simple_types@U?$pair@$$CBV?$basic_string@DU?$char_traits@D@std@@V?$allocator@D@2@@std@@PEAVUIElement@@@std@@@std@@@std@@@1@V?$_Tree_const_iterator@V?$_Tree_val@U?$_Tree_simple_types@U?$pair@$$CBV?$basic_string@DU?$char_traits@D@std@@V?$allocator@D@2@@std@@PEAVUIElement@@@std@@@std@@@std@@@1@AEAU?$pair@$$CBV?$basic_string@DU?$char_traits@D@std@@V?$allocator@D@2@@std@@PEAVUIElement@@@1@PEAU?$_Tree_node@U?$pair@$$CBV?$basic_string@DU?$char_traits@D@std@@V?$allocator@D@2@@std@@PEAVUIElement@@@std@@PEAX@1@@Z$0 000000014002b6dd f   Shop.obj
 0001:0002a6dd       __catch$??$_Insert_hint@AEAU?$pair@$$CBV?$basic_string@DU?$char_traits@D@std@@V?$allocator@D@2@@std@@PEAUItem@Shop@@@std@@PEAU?$_Tree_node@U?$pair@$$CBV?$basic_string@DU?$char_traits@D@std@@V?$allocator@D@2@@std@@PEAUItem@Shop@@@std@@PEAX@2@@?$_Tree@V?$_Tmap_traits@V?$basic_string@DU?$char_traits@D@std@@V?$allocator@D@2@@std@@PEAUItem@Shop@@U?$less@V?$basic_string@DU?$char_traits@D@std@@V?$allocator@D@2@@std@@@2@V?$allocator@U?$pair@$$CBV?$basic_string@DU?$char_traits@D@std@@V?$allocator@D@2@@std@@PEAUItem@Shop@@@std@@@2@$0A@@std@@@std@@IEAA?AV?$_Tree_iterator@V?$_Tree_val@U?$_Tree_simple_types@U?$pair@$$CBV?$basic_string@DU?$char_traits@D@std@@V?$allocator@D@2@@std@@PEAUItem@Shop@@@std@@@std@@@std@@@1@V?$_Tree_const_iterator@V?$_Tree_val@U?$_Tree_simple_types@U?$pair@$$CBV?$basic_string@DU?$char_traits@D@std@@V?$allocator@D@2@@std@@PEAUItem@Shop@@@std@@@std@@@std@@@1@AEAU?$pair@$$CBV?$basic_string@DU?$char_traits@D@std@@V?$allocator@D@2@@std@@PEAUItem@Shop@@@1@PEAU?$_Tree_node@U?$pair@$$CBV?$basic_string@DU?$char_traits@D@std@@V?$allocator@D@2@@std@@PEAUItem@Shop@@@std@@PEAX@1@@Z$0 000000014002b6dd f   Shop.obj
 0001:0002a6f0       ?catch$0@?0???$_Insert_nohint@AEAU?$pair@$$CBV?$basic_string@DU?$char_traits@D@std@@V?$allocator@D@2@@std@@PEAVUIElement@@@std@@PEAU?$_Tree_node@U?$pair@$$CBV?$basic_string@DU?$char_traits@D@std@@V?$allocator@D@2@@std@@PEAVUIElement@@@std@@PEAX@2@@?$_Tree@V?$_Tmap_traits@V?$basic_string@DU?$char_traits@D@std@@V?$allocator@D@2@@std@@PEAVUIElement@@U?$less@V?$basic_string@DU?$char_traits@D@std@@V?$allocator@D@2@@std@@@2@V?$allocator@U?$pair@$$CBV?$basic_string@DU?$char_traits@D@std@@V?$allocator@D@2@@std@@PEAVUIElement@@@std@@@2@$0A@@std@@@std@@IEAA?AU?$pair@V?$_Tree_iterator@V?$_Tree_val@U?$_Tree_simple_types@U?$pair@$$CBV?$basic_string@DU?$char_traits@D@std@@V?$allocator@D@2@@std@@PEAVUIElement@@@std@@@std@@@std@@@std@@_N@1@_NAEAU?$pair@$$CBV?$basic_string@DU?$char_traits@D@std@@V?$allocator@D@2@@std@@PEAVUIElement@@@1@PEAU?$_Tree_node@U?$pair@$$CBV?$basic_string@DU?$char_traits@D@std@@V?$allocator@D@2@@std@@PEAVUIElement@@@std@@PEAX@1@@Z@4HA 000000014002b6f0 f   Shop.obj
 0001:0002a6f0       ?catch$0@?0???$_Insert_nohint@AEAU?$pair@$$CBV?$basic_string@DU?$char_traits@D@std@@V?$allocator@D@2@@std@@PEAUItem@Shop@@@std@@PEAU?$_Tree_node@U?$pair@$$CBV?$basic_string@DU?$char_traits@D@std@@V?$allocator@D@2@@std@@PEAUItem@Shop@@@std@@PEAX@2@@?$_Tree@V?$_Tmap_traits@V?$basic_string@DU?$char_traits@D@std@@V?$allocator@D@2@@std@@PEAUItem@Shop@@U?$less@V?$basic_string@DU?$char_traits@D@std@@V?$allocator@D@2@@std@@@2@V?$allocator@U?$pair@$$CBV?$basic_string@DU?$char_traits@D@std@@V?$allocator@D@2@@std@@PEAUItem@Shop@@@std@@@2@$0A@@std@@@std@@IEAA?AU?$pair@V?$_Tree_iterator@V?$_Tree_val@U?$_Tree_simple_types@U?$pair@$$CBV?$basic_string@DU?$char_traits@D@std@@V?$allocator@D@2@@std@@PEAUItem@Shop@@@std@@@std@@@std@@@std@@_N@1@_NAEAU?$pair@$$CBV?$basic_string@DU?$char_traits@D@std@@V?$allocator@D@2@@std@@PEAUItem@Shop@@@1@PEAU?$_Tree_node@U?$pair@$$CBV?$basic_string@DU?$char_traits@D@std@@V?$allocator@D@2@@std@@PEAUItem@Shop@@@std@@PEAX@1@@Z@4HA 000000014002b6f0 f   Shop.obj
 0001:0002a6fd       __catch$??$_Insert_nohint@AEAU?$pair@$$CBV?$basic_string@DU?$char_traits@D@std@@V?$allocator@D@2@@std@@PEAVUIElement@@@std@@PEAU?$_Tree_node@U?$pair@$$CBV?$basic_string@DU?$char_traits@D@std@@V?$allocator@D@2@@std@@PEAVUIElement@@@std@@PEAX@2@@?$_Tree@V?$_Tmap_traits@V?$basic_string@DU?$char_traits@D@std@@V?$allocator@D@2@@std@@PEAVUIElement@@U?$less@V?$basic_string@DU?$char_traits@D@std@@V?$allocator@D@2@@std@@@2@V?$allocator@U?$pair@$$CBV?$basic_string@DU?$char_traits@D@std@@V?$allocator@D@2@@std@@PEAVUIElement@@@std@@@2@$0A@@std@@@std@@IEAA?AU?$pair@V?$_Tree_iterator@V?$_Tree_val@U?$_Tree_simple_types@U?$pair@$$CBV?$basic_string@DU?$char_traits@D@std@@V?$allocator@D@2@@std@@PEAVUIElement@@@std@@@std@@@std@@@std@@_N@1@_NAEAU?$pair@$$CBV?$basic_string@DU?$char_traits@D@std@@V?$allocator@D@2@@std@@PEAVUIElement@@@1@PEAU?$_Tree_node@U?$pair@$$CBV?$basic_string@DU?$char_traits@D@std@@V?$allocator@D@2@@std@@PEAVUIElement@@@std@@PEAX@1@@Z$0 000000014002b6fd f   Shop.obj
 0001:0002a6fd       __catch$??$_Insert_nohint@AEAU?$pair@$$CBV?$basic_string@DU?$char_traits@D@std@@V?$allocator@D@2@@std@@PEAUItem@Shop@@@std@@PEAU?$_Tree_node@U?$pair@$$CBV?$basic_string@DU?$char_traits@D@std@@V?$allocator@D@2@@std@@PEAUItem@Shop@@@std@@PEAX@2@@?$_Tree@V?$_Tmap_traits@V?$basic_string@DU?$char_traits@D@std@@V?$allocator@D@2@@std@@PEAUItem@Shop@@U?$less@V?$basic_string@DU?$char_traits@D@std@@V?$allocator@D@2@@std@@@2@V?$allocator@U?$pair@$$CBV?$basic_string@DU?$char_traits@D@std@@V?$allocator@D@2@@std@@PEAUItem@Shop@@@std@@@2@$0A@@std@@@std@@IEAA?AU?$pair@V?$_Tree_iterator@V?$_Tree_val@U?$_Tree_simple_types@U?$pair@$$CBV?$basic_string@DU?$char_traits@D@std@@V?$allocator@D@2@@std@@PEAUItem@Shop@@@std@@@std@@@std@@@std@@_N@1@_NAEAU?$pair@$$CBV?$basic_string@DU?$char_traits@D@std@@V?$allocator@D@2@@std@@PEAUItem@Shop@@@1@PEAU?$_Tree_node@U?$pair@$$CBV?$basic_string@DU?$char_traits@D@std@@V?$allocator@D@2@@std@@PEAUItem@Shop@@@std@@PEAX@1@@Z$0 000000014002b6fd f   Shop.obj
 0001:0002a710       ?dtor$0@?0??ProcessShaderErrors@AnimatedShader@@AEAAXPEAUID3D10Blob@@@Z@4HA 000000014002b710 f   shaderstuff.obj
 0001:0002a710       ?dtor$0@?0??ProcessShaderErrors@SkyboxShader@@AEAAXPEAUID3D10Blob@@@Z@4HA 000000014002b710 f   SkyboxShader.obj
 0001:0002a710       ?dtor$0@?0??ProcessShaderErrors@StaticShader@@AEAAXPEAUID3D10Blob@@@Z@4HA 000000014002b710 f   StaticShader.obj
 0001:0002a720       ?dtor$0@?0???0?$basic_ofstream@DU?$char_traits@D@std@@@std@@QEAA@XZ@4HA 000000014002b720 f   SkyboxShader.obj
 0001:0002a74e       ?dtor$1@?0???0?$basic_ofstream@DU?$char_traits@D@std@@@std@@QEAA@XZ@4HA 000000014002b74e f   SkyboxShader.obj
 0001:0002a760       ?dtor$3@?0???0?$basic_ofstream@DU?$char_traits@D@std@@@std@@QEAA@XZ@4HA 000000014002b760 f   SkyboxShader.obj
 0001:0002a770       ?dtor$1@?0???$?6U?$char_traits@D@std@@@std@@YAAEAV?$basic_ostream@DU?$char_traits@D@std@@@0@AEAV10@D@Z@4HA 000000014002b770 f   SkyboxShader.obj
 0001:0002a77c       ?dtor$0@?0???$?6U?$char_traits@D@std@@@std@@YAAEAV?$basic_ostream@DU?$char_traits@D@std@@@0@AEAV10@D@Z@4HA 000000014002b77c f   SkyboxShader.obj
 0001:0002a788       ?catch$4@?0???$?6U?$char_traits@D@std@@@std@@YAAEAV?$basic_ostream@DU?$char_traits@D@std@@@0@AEAV10@D@Z@4HA 000000014002b788 f   SkyboxShader.obj
 0001:0002a795       __catch$??$?6U?$char_traits@D@std@@@std@@YAAEAV?$basic_ostream@DU?$char_traits@D@std@@@0@AEAV10@D@Z$0 000000014002b795 f   SkyboxShader.obj
 0001:0002a7c0       ?dtor$0@?0???0TextElement@@QEAA@UtagRECT@@_N1Ufloat2@@HPEAD@Z@4HA 000000014002b7c0 f   UIElement.obj
 0001:0002a7d0       ?dtor$0@?0??CreateText@UIManager@@QEAAPEAVUIElement@@UtagRECT@@_N1Ufloat2@@HPEBD@Z@4HA 000000014002b7d0 f   UIManager.obj
 0001:0002a7f0       ?dtor$0@?0??CreateText@UIManager@@QEAAPEAVUIElement@@UtagRECT@@_N1Ufloat2@@HV?$basic_string@DU?$char_traits@D@std@@V?$allocator@D@2@@std@@@Z@4HA 000000014002b7f0 f   UIManager.obj
 0001:0002a7fc       ?dtor$1@?0??CreateText@UIManager@@QEAAPEAVUIElement@@UtagRECT@@_N1Ufloat2@@HV?$basic_string@DU?$char_traits@D@std@@V?$allocator@D@2@@std@@@Z@4HA 000000014002b7fc f   UIManager.obj
 0001:0002a820       ?dtor$0@?0??CreateImage@UIManager@@QEAAPEAVUIElement@@UtagRECT@@_N1Ufloat2@@PEBDPEAUID3D11Device@@@Z@4HA 000000014002b820 f   UIManager.obj
 0001:0002a83d       ?dtor$1@?0??CreateImage@UIManager@@QEAAPEAVUIElement@@UtagRECT@@_N1Ufloat2@@PEBDPEAUID3D11Device@@@Z@4HA 000000014002b83d f   UIManager.obj
 0001:0002a850       ?dtor$0@?0??CreateButton@UIManager@@QEAAPEAVUIElement@@UtagRECT@@_N1Ufloat2@@PEAUID3D11Device@@HPEBD@Z@4HA 000000014002b850 f   UIManager.obj
 0001:0002a86d       ?dtor$1@?0??CreateButton@UIManager@@QEAAPEAVUIElement@@UtagRECT@@_N1Ufloat2@@PEAUID3D11Device@@HPEBD@Z@4HA 000000014002b86d f   UIManager.obj
 0001:0002a879       ?dtor$2@?0??CreateButton@UIManager@@QEAAPEAVUIElement@@UtagRECT@@_N1Ufloat2@@PEAUID3D11Device@@HPEBD@Z@4HA 000000014002b879 f   UIManager.obj
 0001:0002a8a0       ?dtor$0@?0??_WICBitsPerPixel@?A0x045efb5a@@YA_KAEBU_GUID@@@Z@4HA 000000014002b8a0 f   WICTextureLoader.obj
 0001:0002a8ac       ?dtor$1@?0??_WICBitsPerPixel@?A0x045efb5a@@YA_KAEBU_GUID@@@Z@4HA 000000014002b8ac f   WICTextureLoader.obj
 0001:0002a8c0       ?dtor$0@?0??CreateTextureFromWIC@?A0x045efb5a@@YAJPEAUID3D11Device@@PEAUID3D11DeviceContext@@PEAUIWICBitmapFrameDecode@@_KW4D3D11_USAGE@@IIIIPEAPEAUID3D11Resource@@PEAPEAUID3D11ShaderResourceView@@@Z@4HA 000000014002b8c0 f   WICTextureLoader.obj
 0001:0002a8cc       ?dtor$1@?0??CreateTextureFromWIC@?A0x045efb5a@@YAJPEAUID3D11Device@@PEAUID3D11DeviceContext@@PEAUIWICBitmapFrameDecode@@_KW4D3D11_USAGE@@IIIIPEAPEAUID3D11Resource@@PEAPEAUID3D11ShaderResourceView@@@Z@4HA 000000014002b8cc f   WICTextureLoader.obj
 0001:0002a8d8       ?dtor$2@?0??CreateTextureFromWIC@?A0x045efb5a@@YAJPEAUID3D11Device@@PEAUID3D11DeviceContext@@PEAUIWICBitmapFrameDecode@@_KW4D3D11_USAGE@@IIIIPEAPEAUID3D11Resource@@PEAPEAUID3D11ShaderResourceView@@@Z@4HA 000000014002b8d8 f   WICTextureLoader.obj
 0001:0002a8e4       ?dtor$3@?0??CreateTextureFromWIC@?A0x045efb5a@@YAJPEAUID3D11Device@@PEAUID3D11DeviceContext@@PEAUIWICBitmapFrameDecode@@_KW4D3D11_USAGE@@IIIIPEAPEAUID3D11Resource@@PEAPEAUID3D11ShaderResourceView@@@Z@4HA 000000014002b8e4 f   WICTextureLoader.obj
 0001:0002a8f0       ?dtor$4@?0??CreateTextureFromWIC@?A0x045efb5a@@YAJPEAUID3D11Device@@PEAUID3D11DeviceContext@@PEAUIWICBitmapFrameDecode@@_KW4D3D11_USAGE@@IIIIPEAPEAUID3D11Resource@@PEAPEAUID3D11ShaderResourceView@@@Z@4HA 000000014002b8f0 f   WICTextureLoader.obj
 0001:0002a900       ?dtor$0@?0??CreateWICTextureFromFileEx@DirectX@@YAJPEAUID3D11Device@@PEAUID3D11DeviceContext@@PEB_W_KW4D3D11_USAGE@@IIIIPEAPEAUID3D11Resource@@PEAPEAUID3D11ShaderResourceView@@@Z@4HA 000000014002b900 f   WICTextureLoader.obj
 0001:0002a90c       ?dtor$1@?0??CreateWICTextureFromFileEx@DirectX@@YAJPEAUID3D11Device@@PEAUID3D11DeviceContext@@PEB_W_KW4D3D11_USAGE@@IIIIPEAPEAUID3D11Resource@@PEAPEAUID3D11ShaderResourceView@@@Z@4HA 000000014002b90c f   WICTextureLoader.obj
 0001:0002a920       ?dtor$0@?0??UpdateShaderBuffers@AnimatedShader@@AEAA_NPEAUID3D11DeviceContext@@UXMMATRIX@DirectX@@11PEAUID3D11ShaderResourceView@@UXMFLOAT3@4@UXMFLOAT4@4@V?$vector@V?$array@Ufloat4@@$03@std@@V?$allocator@V?$array@Ufloat4@@$03@std@@@2@@std@@QEAU74@64444444@Z@4HA 000000014002b920 f   shaderstuff.obj
 0001:0002a930       ?catch$1@?0???$_Buynode@AEAU?$pair@PEAUID3D11DeviceContext@@V?$shared_ptr@UWrappedData@?$SharedResourcePool@PEAUID3D11DeviceContext@@UContextResources@Impl@SpriteBatch@DirectX@@$$V@DirectX@@@std@@@std@@@?$_Tree_comp_alloc@V?$_Tmap_traits@PEAUID3D11DeviceContext@@V?$weak_ptr@UContextResources@Impl@SpriteBatch@DirectX@@@std@@U?$less@PEAUID3D11DeviceContext@@@3@V?$allocator@U?$pair@QEAUID3D11DeviceContext@@V?$weak_ptr@UContextResources@Impl@SpriteBatch@DirectX@@@std@@@std@@@3@$0A@@std@@@std@@QEAAPEAU?$_Tree_node@U?$pair@QEAUID3D11DeviceContext@@V?$weak_ptr@UContextResources@Impl@SpriteBatch@DirectX@@@std@@@std@@PEAX@1@AEAU?$pair@PEAUID3D11DeviceContext@@V?$shared_ptr@UWrappedData@?$SharedResourcePool@PEAUID3D11DeviceContext@@UContextResources@Impl@SpriteBatch@DirectX@@$$V@DirectX@@@std@@@1@@Z@4HA 000000014002b930 f   DirectXTK:SpriteBatch.obj
 0001:0002a930       ?catch$1@?0???$_Buynode@AEAU?$pair@PEAUID3D11Device@@V?$shared_ptr@UWrappedData@?$SharedResourcePool@PEAUID3D11Device@@UDeviceResources@Impl@SpriteBatch@DirectX@@$$V@DirectX@@@std@@@std@@@?$_Tree_comp_alloc@V?$_Tmap_traits@PEAUID3D11Device@@V?$weak_ptr@UDeviceResources@Impl@SpriteBatch@DirectX@@@std@@U?$less@PEAUID3D11Device@@@3@V?$allocator@U?$pair@QEAUID3D11Device@@V?$weak_ptr@UDeviceResources@Impl@SpriteBatch@DirectX@@@std@@@std@@@3@$0A@@std@@@std@@QEAAPEAU?$_Tree_node@U?$pair@QEAUID3D11Device@@V?$weak_ptr@UDeviceResources@Impl@SpriteBatch@DirectX@@@std@@@std@@PEAX@1@AEAU?$pair@PEAUID3D11Device@@V?$shared_ptr@UWrappedData@?$SharedResourcePool@PEAUID3D11Device@@UDeviceResources@Impl@SpriteBatch@DirectX@@$$V@DirectX@@@std@@@1@@Z@4HA 000000014002b930 f   DirectXTK:SpriteBatch.obj
 0001:0002a930       ?catch$1@?0???$_Buynode@AEAU?$pair@PEAUID3D11Device@@V?$shared_ptr@UWrappedData@?$SharedResourcePool@PEAUID3D11Device@@VImpl@CommonStates@DirectX@@$$V@DirectX@@@std@@@std@@@?$_Tree_comp_alloc@V?$_Tmap_traits@PEAUID3D11Device@@V?$weak_ptr@VImpl@CommonStates@DirectX@@@std@@U?$less@PEAUID3D11Device@@@3@V?$allocator@U?$pair@QEAUID3D11Device@@V?$weak_ptr@VImpl@CommonStates@DirectX@@@std@@@std@@@3@$0A@@std@@@std@@QEAAPEAU?$_Tree_node@U?$pair@QEAUID3D11Device@@V?$weak_ptr@VImpl@CommonStates@DirectX@@@std@@@std@@PEAX@1@AEAU?$pair@PEAUID3D11Device@@V?$shared_ptr@UWrappedData@?$SharedResourcePool@PEAUID3D11Device@@VImpl@CommonStates@DirectX@@$$V@DirectX@@@std@@@1@@Z@4HA 000000014002b930 f   DirectXTK:CommonStates.obj
 0001:0002a93d       __catch$??$_Buynode@AEAU?$pair@PEAUID3D11Device@@V?$shared_ptr@UWrappedData@?$SharedResourcePool@PEAUID3D11Device@@VImpl@CommonStates@DirectX@@$$V@DirectX@@@std@@@std@@@?$_Tree_comp_alloc@V?$_Tmap_traits@PEAUID3D11Device@@V?$weak_ptr@VImpl@CommonStates@DirectX@@@std@@U?$less@PEAUID3D11Device@@@3@V?$allocator@U?$pair@QEAUID3D11Device@@V?$weak_ptr@VImpl@CommonStates@DirectX@@@std@@@std@@@3@$0A@@std@@@std@@QEAAPEAU?$_Tree_node@U?$pair@QEAUID3D11Device@@V?$weak_ptr@VImpl@CommonStates@DirectX@@@std@@@std@@PEAX@1@AEAU?$pair@PEAUID3D11Device@@V?$shared_ptr@UWrappedData@?$SharedResourcePool@PEAUID3D11Device@@VImpl@CommonStates@DirectX@@$$V@DirectX@@@std@@@1@@Z$0 000000014002b93d f   DirectXTK:CommonStates.obj
 0001:0002a93d       __catch$??$_Buynode@AEAU?$pair@PEAUID3D11DeviceContext@@V?$shared_ptr@UWrappedData@?$SharedResourcePool@PEAUID3D11DeviceContext@@UContextResources@Impl@SpriteBatch@DirectX@@$$V@DirectX@@@std@@@std@@@?$_Tree_comp_alloc@V?$_Tmap_traits@PEAUID3D11DeviceContext@@V?$weak_ptr@UContextResources@Impl@SpriteBatch@DirectX@@@std@@U?$less@PEAUID3D11DeviceContext@@@3@V?$allocator@U?$pair@QEAUID3D11DeviceContext@@V?$weak_ptr@UContextResources@Impl@SpriteBatch@DirectX@@@std@@@std@@@3@$0A@@std@@@std@@QEAAPEAU?$_Tree_node@U?$pair@QEAUID3D11DeviceContext@@V?$weak_ptr@UContextResources@Impl@SpriteBatch@DirectX@@@std@@@std@@PEAX@1@AEAU?$pair@PEAUID3D11DeviceContext@@V?$shared_ptr@UWrappedData@?$SharedResourcePool@PEAUID3D11DeviceContext@@UContextResources@Impl@SpriteBatch@DirectX@@$$V@DirectX@@@std@@@1@@Z$0 000000014002b93d f   DirectXTK:SpriteBatch.obj
 0001:0002a93d       __catch$??$_Buynode@AEAU?$pair@PEAUID3D11Device@@V?$shared_ptr@UWrappedData@?$SharedResourcePool@PEAUID3D11Device@@UDeviceResources@Impl@SpriteBatch@DirectX@@$$V@DirectX@@@std@@@std@@@?$_Tree_comp_alloc@V?$_Tmap_traits@PEAUID3D11Device@@V?$weak_ptr@UDeviceResources@Impl@SpriteBatch@DirectX@@@std@@U?$less@PEAUID3D11Device@@@3@V?$allocator@U?$pair@QEAUID3D11Device@@V?$weak_ptr@UDeviceResources@Impl@SpriteBatch@DirectX@@@std@@@std@@@3@$0A@@std@@@std@@QEAAPEAU?$_Tree_node@U?$pair@QEAUID3D11Device@@V?$weak_ptr@UDeviceResources@Impl@SpriteBatch@DirectX@@@std@@@std@@PEAX@1@AEAU?$pair@PEAUID3D11Device@@V?$shared_ptr@UWrappedData@?$SharedResourcePool@PEAUID3D11Device@@UDeviceResources@Impl@SpriteBatch@DirectX@@$$V@DirectX@@@std@@@1@@Z$0 000000014002b93d f   DirectXTK:SpriteBatch.obj
 0001:0002a960       ?catch$6@?0???$_Emplace_reallocate@AEAPEAUID3D11ShaderResourceView@@@?$vector@V?$ComPtr@UID3D11ShaderResourceView@@@WRL@Microsoft@@V?$allocator@V?$ComPtr@UID3D11ShaderResourceView@@@WRL@Microsoft@@@std@@@std@@QEAAPEAV?$ComPtr@UID3D11ShaderResourceView@@@WRL@Microsoft@@QEAV234@AEAPEAUID3D11ShaderResourceView@@@Z@4HA 000000014002b960 f   DirectXTK:SpriteBatch.obj
 0001:0002a96e       __catch$??$_Emplace_reallocate@AEAPEAUID3D11ShaderResourceView@@@?$vector@V?$ComPtr@UID3D11ShaderResourceView@@@WRL@Microsoft@@V?$allocator@V?$ComPtr@UID3D11ShaderResourceView@@@WRL@Microsoft@@@std@@@std@@QEAAPEAV?$ComPtr@UID3D11ShaderResourceView@@@WRL@Microsoft@@QEAV234@AEAPEAUID3D11ShaderResourceView@@@Z$0 000000014002b96e f   DirectXTK:SpriteBatch.obj
 0001:0002a9a0       ?catch$0@?0???$_Emplace_reallocate@AEBF@?$vector@FV?$allocator@F@std@@@std@@QEAAPEAFQEAFAEBF@Z@4HA 000000014002b9a0 f   DirectXTK:SpriteBatch.obj
 0001:0002a9a0       ?catch$0@?0???$_Emplace_reallocate@F@?$vector@FV?$allocator@F@std@@@std@@QEAAPEAFQEAF$$QEAF@Z@4HA 000000014002b9a0 f   DirectXTK:SpriteBatch.obj
 0001:0002a9ad       __catch$??$_Emplace_reallocate@F@?$vector@FV?$allocator@F@std@@@std@@QEAAPEAFQEAF$$QEAF@Z$0 000000014002b9ad f   DirectXTK:SpriteBatch.obj
 0001:0002a9ad       __catch$??$_Emplace_reallocate@AEBF@?$vector@FV?$allocator@F@std@@@std@@QEAAPEAFQEAFAEBF@Z$0 000000014002b9ad f   DirectXTK:SpriteBatch.obj
 0001:0002a9d0       ?catch$1@?0???$_Insert_nohint@AEAU?$pair@QEAUID3D11Device@@V?$weak_ptr@VImpl@CommonStates@DirectX@@@std@@@std@@PEAU?$_Tree_node@U?$pair@QEAUID3D11Device@@V?$weak_ptr@VImpl@CommonStates@DirectX@@@std@@@std@@PEAX@2@@?$_Tree@V?$_Tmap_traits@PEAUID3D11Device@@V?$weak_ptr@VImpl@CommonStates@DirectX@@@std@@U?$less@PEAUID3D11Device@@@3@V?$allocator@U?$pair@QEAUID3D11Device@@V?$weak_ptr@VImpl@CommonStates@DirectX@@@std@@@std@@@3@$0A@@std@@@std@@IEAA?AU?$pair@V?$_Tree_iterator@V?$_Tree_val@U?$_Tree_simple_types@U?$pair@QEAUID3D11Device@@V?$weak_ptr@VImpl@CommonStates@DirectX@@@std@@@std@@@std@@@std@@@std@@_N@1@_NAEAU?$pair@QEAUID3D11Device@@V?$weak_ptr@VImpl@CommonStates@DirectX@@@std@@@1@PEAU?$_Tree_node@U?$pair@QEAUID3D11Device@@V?$weak_ptr@VImpl@CommonStates@DirectX@@@std@@@std@@PEAX@1@@Z@4HA 000000014002b9d0 f   DirectXTK:CommonStates.obj
 0001:0002a9d0       ?catch$1@?0???$_Insert_nohint@AEAU?$pair@QEAUID3D11DeviceContext@@V?$weak_ptr@UContextResources@Impl@SpriteBatch@DirectX@@@std@@@std@@PEAU?$_Tree_node@U?$pair@QEAUID3D11DeviceContext@@V?$weak_ptr@UContextResources@Impl@SpriteBatch@DirectX@@@std@@@std@@PEAX@2@@?$_Tree@V?$_Tmap_traits@PEAUID3D11DeviceContext@@V?$weak_ptr@UContextResources@Impl@SpriteBatch@DirectX@@@std@@U?$less@PEAUID3D11DeviceContext@@@3@V?$allocator@U?$pair@QEAUID3D11DeviceContext@@V?$weak_ptr@UContextResources@Impl@SpriteBatch@DirectX@@@std@@@std@@@3@$0A@@std@@@std@@IEAA?AU?$pair@V?$_Tree_iterator@V?$_Tree_val@U?$_Tree_simple_types@U?$pair@QEAUID3D11DeviceContext@@V?$weak_ptr@UContextResources@Impl@SpriteBatch@DirectX@@@std@@@std@@@std@@@std@@@std@@_N@1@_NAEAU?$pair@QEAUID3D11DeviceContext@@V?$weak_ptr@UContextResources@Impl@SpriteBatch@DirectX@@@std@@@1@PEAU?$_Tree_node@U?$pair@QEAUID3D11DeviceContext@@V?$weak_ptr@UContextResources@Impl@SpriteBatch@DirectX@@@std@@@std@@PEAX@1@@Z@4HA 000000014002b9d0 f   DirectXTK:SpriteBatch.obj
 0001:0002a9d0       ?catch$1@?0???$_Insert_nohint@AEAU?$pair@QEAUID3D11Device@@V?$weak_ptr@UDeviceResources@Impl@SpriteBatch@DirectX@@@std@@@std@@PEAU?$_Tree_node@U?$pair@QEAUID3D11Device@@V?$weak_ptr@UDeviceResources@Impl@SpriteBatch@DirectX@@@std@@@std@@PEAX@2@@?$_Tree@V?$_Tmap_traits@PEAUID3D11Device@@V?$weak_ptr@UDeviceResources@Impl@SpriteBatch@DirectX@@@std@@U?$less@PEAUID3D11Device@@@3@V?$allocator@U?$pair@QEAUID3D11Device@@V?$weak_ptr@UDeviceResources@Impl@SpriteBatch@DirectX@@@std@@@std@@@3@$0A@@std@@@std@@IEAA?AU?$pair@V?$_Tree_iterator@V?$_Tree_val@U?$_Tree_simple_types@U?$pair@QEAUID3D11Device@@V?$weak_ptr@UDeviceResources@Impl@SpriteBatch@DirectX@@@std@@@std@@@std@@@std@@@std@@_N@1@_NAEAU?$pair@QEAUID3D11Device@@V?$weak_ptr@UDeviceResources@Impl@SpriteBatch@DirectX@@@std@@@1@PEAU?$_Tree_node@U?$pair@QEAUID3D11Device@@V?$weak_ptr@UDeviceResources@Impl@SpriteBatch@DirectX@@@std@@@std@@PEAX@1@@Z@4HA 000000014002b9d0 f   DirectXTK:SpriteBatch.obj
 0001:0002a9dd       __catch$??$_Insert_nohint@AEAU?$pair@QEAUID3D11DeviceContext@@V?$weak_ptr@UContextResources@Impl@SpriteBatch@DirectX@@@std@@@std@@PEAU?$_Tree_node@U?$pair@QEAUID3D11DeviceContext@@V?$weak_ptr@UContextResources@Impl@SpriteBatch@DirectX@@@std@@@std@@PEAX@2@@?$_Tree@V?$_Tmap_traits@PEAUID3D11DeviceContext@@V?$weak_ptr@UContextResources@Impl@SpriteBatch@DirectX@@@std@@U?$less@PEAUID3D11DeviceContext@@@3@V?$allocator@U?$pair@QEAUID3D11DeviceContext@@V?$weak_ptr@UContextResources@Impl@SpriteBatch@DirectX@@@std@@@std@@@3@$0A@@std@@@std@@IEAA?AU?$pair@V?$_Tree_iterator@V?$_Tree_val@U?$_Tree_simple_types@U?$pair@QEAUID3D11DeviceContext@@V?$weak_ptr@UContextResources@Impl@SpriteBatch@DirectX@@@std@@@std@@@std@@@std@@@std@@_N@1@_NAEAU?$pair@QEAUID3D11DeviceContext@@V?$weak_ptr@UContextResources@Impl@SpriteBatch@DirectX@@@std@@@1@PEAU?$_Tree_node@U?$pair@QEAUID3D11DeviceContext@@V?$weak_ptr@UContextResources@Impl@SpriteBatch@DirectX@@@std@@@std@@PEAX@1@@Z$0 000000014002b9dd f   DirectXTK:SpriteBatch.obj
 0001:0002a9dd       __catch$??$_Insert_nohint@AEAU?$pair@QEAUID3D11Device@@V?$weak_ptr@UDeviceResources@Impl@SpriteBatch@DirectX@@@std@@@std@@PEAU?$_Tree_node@U?$pair@QEAUID3D11Device@@V?$weak_ptr@UDeviceResources@Impl@SpriteBatch@DirectX@@@std@@@std@@PEAX@2@@?$_Tree@V?$_Tmap_traits@PEAUID3D11Device@@V?$weak_ptr@UDeviceResources@Impl@SpriteBatch@DirectX@@@std@@U?$less@PEAUID3D11Device@@@3@V?$allocator@U?$pair@QEAUID3D11Device@@V?$weak_ptr@UDeviceResources@Impl@SpriteBatch@DirectX@@@std@@@std@@@3@$0A@@std@@@std@@IEAA?AU?$pair@V?$_Tree_iterator@V?$_Tree_val@U?$_Tree_simple_types@U?$pair@QEAUID3D11Device@@V?$weak_ptr@UDeviceResources@Impl@SpriteBatch@DirectX@@@std@@@std@@@std@@@std@@@std@@_N@1@_NAEAU?$pair@QEAUID3D11Device@@V?$weak_ptr@UDeviceResources@Impl@SpriteBatch@DirectX@@@std@@@1@PEAU?$_Tree_node@U?$pair@QEAUID3D11Device@@V?$weak_ptr@UDeviceResources@Impl@SpriteBatch@DirectX@@@std@@@std@@PEAX@1@@Z$0 000000014002b9dd f   DirectXTK:SpriteBatch.obj
 0001:0002a9dd       __catch$??$_Insert_nohint@AEAU?$pair@QEAUID3D11Device@@V?$weak_ptr@VImpl@CommonStates@DirectX@@@std@@@std@@PEAU?$_Tree_node@U?$pair@QEAUID3D11Device@@V?$weak_ptr@VImpl@CommonStates@DirectX@@@std@@@std@@PEAX@2@@?$_Tree@V?$_Tmap_traits@PEAUID3D11Device@@V?$weak_ptr@VImpl@CommonStates@DirectX@@@std@@U?$less@PEAUID3D11Device@@@3@V?$allocator@U?$pair@QEAUID3D11Device@@V?$weak_ptr@VImpl@CommonStates@DirectX@@@std@@@std@@@3@$0A@@std@@@std@@IEAA?AU?$pair@V?$_Tree_iterator@V?$_Tree_val@U?$_Tree_simple_types@U?$pair@QEAUID3D11Device@@V?$weak_ptr@VImpl@CommonStates@DirectX@@@std@@@std@@@std@@@std@@@std@@_N@1@_NAEAU?$pair@QEAUID3D11Device@@V?$weak_ptr@VImpl@CommonStates@DirectX@@@std@@@1@PEAU?$_Tree_node@U?$pair@QEAUID3D11Device@@V?$weak_ptr@VImpl@CommonStates@DirectX@@@std@@@std@@PEAX@1@@Z$0 000000014002b9dd f   DirectXTK:CommonStates.obj
 0001:0002aa00       ?catch$0@?0???$_Resize@V<lambda_e8c6c8b564571a11716b943a92ab7d7d>@@@?$vector@PEBUSpriteInfo@Impl@SpriteBatch@DirectX@@V?$allocator@PEBUSpriteInfo@Impl@SpriteBatch@DirectX@@@std@@@std@@AEAAX_KV<lambda_e8c6c8b564571a11716b943a92ab7d7d>@@@Z@4HA 000000014002ba00 f   DirectXTK:SpriteBatch.obj
 0001:0002aa0d       __catch$??$_Resize@V<lambda_e8c6c8b564571a11716b943a92ab7d7d>@@@?$vector@PEBUSpriteInfo@Impl@SpriteBatch@DirectX@@V?$allocator@PEBUSpriteInfo@Impl@SpriteBatch@DirectX@@@std@@@std@@AEAAX_KV<lambda_e8c6c8b564571a11716b943a92ab7d7d>@@@Z$0 000000014002ba0d f   DirectXTK:SpriteBatch.obj
 0001:0002aa30       ?dtor$0@?0???$make_unique@VImpl@SpriteBatch@DirectX@@AEAPEAUID3D11DeviceContext@@$0A@@std@@YA?AV?$unique_ptr@VImpl@SpriteBatch@DirectX@@U?$default_delete@VImpl@SpriteBatch@DirectX@@@std@@@0@AEAPEAUID3D11DeviceContext@@@Z@4HA 000000014002ba30 f   DirectXTK:SpriteBatch.obj
 0001:0002aa40       ?dtor$2@?0???$make_unique@VImpl@SpriteBatch@DirectX@@AEAPEAUID3D11DeviceContext@@$0A@@std@@YA?AV?$unique_ptr@VImpl@SpriteBatch@DirectX@@U?$default_delete@VImpl@SpriteBatch@DirectX@@@std@@@0@AEAPEAUID3D11DeviceContext@@@Z@4HA 000000014002ba40 f   DirectXTK:SpriteBatch.obj
 0001:0002aa50       ?dtor$3@?0???$make_unique@VImpl@SpriteBatch@DirectX@@AEAPEAUID3D11DeviceContext@@$0A@@std@@YA?AV?$unique_ptr@VImpl@SpriteBatch@DirectX@@U?$default_delete@VImpl@SpriteBatch@DirectX@@@std@@@0@AEAPEAUID3D11DeviceContext@@@Z@4HA 000000014002ba50 f   DirectXTK:SpriteBatch.obj
 0001:0002aa60       ?dtor$4@?0???$make_unique@VImpl@SpriteBatch@DirectX@@AEAPEAUID3D11DeviceContext@@$0A@@std@@YA?AV?$unique_ptr@VImpl@SpriteBatch@DirectX@@U?$default_delete@VImpl@SpriteBatch@DirectX@@@std@@@0@AEAPEAUID3D11DeviceContext@@@Z@4HA 000000014002ba60 f   DirectXTK:SpriteBatch.obj
 0001:0002aa70       ?dtor$5@?0???$make_unique@VImpl@SpriteBatch@DirectX@@AEAPEAUID3D11DeviceContext@@$0A@@std@@YA?AV?$unique_ptr@VImpl@SpriteBatch@DirectX@@U?$default_delete@VImpl@SpriteBatch@DirectX@@@std@@@0@AEAPEAUID3D11DeviceContext@@@Z@4HA 000000014002ba70 f   DirectXTK:SpriteBatch.obj
 0001:0002aa80       ?dtor$6@?0???$make_unique@VImpl@SpriteBatch@DirectX@@AEAPEAUID3D11DeviceContext@@$0A@@std@@YA?AV?$unique_ptr@VImpl@SpriteBatch@DirectX@@U?$default_delete@VImpl@SpriteBatch@DirectX@@@std@@@0@AEAPEAUID3D11DeviceContext@@@Z@4HA 000000014002ba80 f   DirectXTK:SpriteBatch.obj
 0001:0002aa90       ?dtor$7@?0???$make_unique@VImpl@SpriteBatch@DirectX@@AEAPEAUID3D11DeviceContext@@$0A@@std@@YA?AV?$unique_ptr@VImpl@SpriteBatch@DirectX@@U?$default_delete@VImpl@SpriteBatch@DirectX@@@std@@@0@AEAPEAUID3D11DeviceContext@@@Z@4HA 000000014002ba90 f   DirectXTK:SpriteBatch.obj
 0001:0002aab0       ?dtor$8@?0???$make_unique@VImpl@SpriteBatch@DirectX@@AEAPEAUID3D11DeviceContext@@$0A@@std@@YA?AV?$unique_ptr@VImpl@SpriteBatch@DirectX@@U?$default_delete@VImpl@SpriteBatch@DirectX@@@std@@@0@AEAPEAUID3D11DeviceContext@@@Z@4HA 000000014002bab0 f   DirectXTK:SpriteBatch.obj
 0001:0002aad0       ?dtor$9@?0???$make_unique@VImpl@SpriteBatch@DirectX@@AEAPEAUID3D11DeviceContext@@$0A@@std@@YA?AV?$unique_ptr@VImpl@SpriteBatch@DirectX@@U?$default_delete@VImpl@SpriteBatch@DirectX@@@std@@@0@AEAPEAUID3D11DeviceContext@@@Z@4HA 000000014002bad0 f   DirectXTK:SpriteBatch.obj
 0001:0002aaf0       ?dtor$11@?0???$make_unique@VImpl@SpriteBatch@DirectX@@AEAPEAUID3D11DeviceContext@@$0A@@std@@YA?AV?$unique_ptr@VImpl@SpriteBatch@DirectX@@U?$default_delete@VImpl@SpriteBatch@DirectX@@@std@@@0@AEAPEAUID3D11DeviceContext@@@Z@4HA 000000014002baf0 f   DirectXTK:SpriteBatch.obj
 0001:0002ab10       ?dtor$14@?0???$make_unique@VImpl@SpriteBatch@DirectX@@AEAPEAUID3D11DeviceContext@@$0A@@std@@YA?AV?$unique_ptr@VImpl@SpriteBatch@DirectX@@U?$default_delete@VImpl@SpriteBatch@DirectX@@@std@@@0@AEAPEAUID3D11DeviceContext@@@Z@4HA 000000014002bb10 f   DirectXTK:SpriteBatch.obj
 0001:0002ab40       ?dtor$0@?0???0ContextResources@Impl@SpriteBatch@DirectX@@QEAA@PEAUID3D11DeviceContext@@@Z@4HA 000000014002bb40 f   DirectXTK:SpriteBatch.obj
 0001:0002ab50       ?dtor$1@?0???0ContextResources@Impl@SpriteBatch@DirectX@@QEAA@PEAUID3D11DeviceContext@@@Z@4HA 000000014002bb50 f   DirectXTK:SpriteBatch.obj
 0001:0002ab60       ?dtor$3@?0???0ContextResources@Impl@SpriteBatch@DirectX@@QEAA@PEAUID3D11DeviceContext@@@Z@4HA 000000014002bb60 f   DirectXTK:SpriteBatch.obj
 0001:0002ab70       ?dtor$4@?0???0ContextResources@Impl@SpriteBatch@DirectX@@QEAA@PEAUID3D11DeviceContext@@@Z@4HA 000000014002bb70 f   DirectXTK:SpriteBatch.obj
 0001:0002aba0       ?dtor$5@?0???0ContextResources@Impl@SpriteBatch@DirectX@@QEAA@PEAUID3D11DeviceContext@@@Z@4HA 000000014002bba0 f   DirectXTK:SpriteBatch.obj
 0001:0002abb0       ?dtor$7@?0???0ContextResources@Impl@SpriteBatch@DirectX@@QEAA@PEAUID3D11DeviceContext@@@Z@4HA 000000014002bbb0 f   DirectXTK:SpriteBatch.obj
 0001:0002abe0       ?dtor$0@?0???0DeviceResources@Impl@SpriteBatch@DirectX@@QEAA@PEAUID3D11Device@@@Z@4HA 000000014002bbe0 f   DirectXTK:SpriteBatch.obj
 0001:0002abf0       ?dtor$1@?0???0DeviceResources@Impl@SpriteBatch@DirectX@@QEAA@PEAUID3D11Device@@@Z@4HA 000000014002bbf0 f   DirectXTK:SpriteBatch.obj
 0001:0002ac00       ?dtor$2@?0???0DeviceResources@Impl@SpriteBatch@DirectX@@QEAA@PEAUID3D11Device@@@Z@4HA 000000014002bc00 f   DirectXTK:SpriteBatch.obj
 0001:0002ac10       ?dtor$3@?0???0DeviceResources@Impl@SpriteBatch@DirectX@@QEAA@PEAUID3D11Device@@@Z@4HA 000000014002bc10 f   DirectXTK:SpriteBatch.obj
 0001:0002ac20       ?dtor$4@?0???0DeviceResources@Impl@SpriteBatch@DirectX@@QEAA@PEAUID3D11Device@@@Z@4HA 000000014002bc20 f   DirectXTK:SpriteBatch.obj
 0001:0002ac30       ?dtor$5@?0???0DeviceResources@Impl@SpriteBatch@DirectX@@QEAA@PEAUID3D11Device@@@Z@4HA 000000014002bc30 f   DirectXTK:SpriteBatch.obj
 0001:0002ac40       ?dtor$1@?0???__E?contextResourcesPool@Impl@SpriteBatch@DirectX@@0V?$SharedResourcePool@PEAUID3D11DeviceContext@@UContextResources@Impl@SpriteBatch@DirectX@@$$V@3@A@@YAXXZ@4HA 000000014002bc40 f   DirectXTK:SpriteBatch.obj
 0001:0002ac40       ?dtor$1@?0???__E?instancePool@Impl@CommonStates@DirectX@@2V?$SharedResourcePool@PEAUID3D11Device@@VImpl@CommonStates@DirectX@@$$V@3@A@@YAXXZ@4HA 000000014002bc40 f   DirectXTK:CommonStates.obj
 0001:0002ac40       ?dtor$1@?0???__E?deviceResourcesPool@Impl@SpriteBatch@DirectX@@0V?$SharedResourcePool@PEAUID3D11Device@@UDeviceResources@Impl@SpriteBatch@DirectX@@$$V@3@A@@YAXXZ@4HA 000000014002bc40 f   DirectXTK:SpriteBatch.obj
 0001:0002ac60       ?dtor$1@?0??Begin@Impl@SpriteBatch@DirectX@@QEAQXW4SpriteSortMode@3@PEAUID3D11BlendState@@PEAUID3D11SamplerState@@PEAUID3D11DepthStencilState@@PEAUID3D11RasterizerState@@AEAV?$function@$$A6AXXZ@std@@UXMMATRIX@3@@Z@4HA 000000014002bc60 f   DirectXTK:SpriteBatch.obj
 0001:0002ac70       ?dtor$0@?0??Begin@SpriteBatch@DirectX@@QEAQXW4SpriteSortMode@2@PEAUID3D11BlendState@@PEAUID3D11SamplerState@@PEAUID3D11DepthStencilState@@PEAUID3D11RasterizerState@@V?$function@$$A6AXXZ@std@@UXMMATRIX@2@@Z@4HA 000000014002bc70 f   DirectXTK:SpriteBatch.obj
 0001:0002ac80       ?dtor$0@?0??CreateIndexValues@DeviceResources@Impl@SpriteBatch@DirectX@@CA?AV?$vector@FV?$allocator@F@std@@@std@@XZ@4HA 000000014002bc80 f   DirectXTK:SpriteBatch.obj
 0001:0002acb0       ?dtor$0@?0??DemandCreate@?$SharedResourcePool@PEAUID3D11Device@@VImpl@CommonStates@DirectX@@$$V@DirectX@@QEAA?AV?$shared_ptr@VImpl@CommonStates@DirectX@@@std@@PEAUID3D11Device@@@Z@4HA 000000014002bcb0 f   DirectXTK:CommonStates.obj
 0001:0002acb0       ?dtor$0@?0??DemandCreate@?$SharedResourcePool@PEAUID3D11DeviceContext@@UContextResources@Impl@SpriteBatch@DirectX@@$$V@DirectX@@QEAA?AV?$shared_ptr@UContextResources@Impl@SpriteBatch@DirectX@@@std@@PEAUID3D11DeviceContext@@@Z@4HA 000000014002bcb0 f   DirectXTK:SpriteBatch.obj
 0001:0002acb0       ?dtor$0@?0??DemandCreate@?$SharedResourcePool@PEAUID3D11Device@@UDeviceResources@Impl@SpriteBatch@DirectX@@$$V@DirectX@@QEAA?AV?$shared_ptr@UDeviceResources@Impl@SpriteBatch@DirectX@@@std@@PEAUID3D11Device@@@Z@4HA 000000014002bcb0 f   DirectXTK:SpriteBatch.obj
 0001:0002acc0       ?dtor$3@?0??DemandCreate@?$SharedResourcePool@PEAUID3D11DeviceContext@@UContextResources@Impl@SpriteBatch@DirectX@@$$V@DirectX@@QEAA?AV?$shared_ptr@UContextResources@Impl@SpriteBatch@DirectX@@@std@@PEAUID3D11DeviceContext@@@Z@4HA 000000014002bcc0 f   DirectXTK:SpriteBatch.obj
 0001:0002acc0       ?dtor$3@?0??DemandCreate@?$SharedResourcePool@PEAUID3D11Device@@UDeviceResources@Impl@SpriteBatch@DirectX@@$$V@DirectX@@QEAA?AV?$shared_ptr@UDeviceResources@Impl@SpriteBatch@DirectX@@@std@@PEAUID3D11Device@@@Z@4HA 000000014002bcc0 f   DirectXTK:SpriteBatch.obj
 0001:0002acd0       ?dtor$4@?0??DemandCreate@?$SharedResourcePool@PEAUID3D11DeviceContext@@UContextResources@Impl@SpriteBatch@DirectX@@$$V@DirectX@@QEAA?AV?$shared_ptr@UContextResources@Impl@SpriteBatch@DirectX@@@std@@PEAUID3D11DeviceContext@@@Z@4HA 000000014002bcd0 f   DirectXTK:SpriteBatch.obj
 0001:0002acd0       ?dtor$4@?0??DemandCreate@?$SharedResourcePool@PEAUID3D11Device@@UDeviceResources@Impl@SpriteBatch@DirectX@@$$V@DirectX@@QEAA?AV?$shared_ptr@UDeviceResources@Impl@SpriteBatch@DirectX@@@std@@PEAUID3D11Device@@@Z@4HA 000000014002bcd0 f   DirectXTK:SpriteBatch.obj
 0001:0002acd0       ?dtor$4@?0??DemandCreate@?$SharedResourcePool@PEAUID3D11Device@@VImpl@CommonStates@DirectX@@$$V@DirectX@@QEAA?AV?$shared_ptr@VImpl@CommonStates@DirectX@@@std@@PEAUID3D11Device@@@Z@4HA 000000014002bcd0 f   DirectXTK:CommonStates.obj
 0001:0002ace0       ?dtor$7@?0??DemandCreate@?$SharedResourcePool@PEAUID3D11Device@@UDeviceResources@Impl@SpriteBatch@DirectX@@$$V@DirectX@@QEAA?AV?$shared_ptr@UDeviceResources@Impl@SpriteBatch@DirectX@@@std@@PEAUID3D11Device@@@Z@4HA 000000014002bce0 f   DirectXTK:SpriteBatch.obj
 0001:0002ad00       ?dtor$7@?0??DemandCreate@?$SharedResourcePool@PEAUID3D11DeviceContext@@UContextResources@Impl@SpriteBatch@DirectX@@$$V@DirectX@@QEAA?AV?$shared_ptr@UContextResources@Impl@SpriteBatch@DirectX@@@std@@PEAUID3D11DeviceContext@@@Z@4HA 000000014002bd00 f   DirectXTK:SpriteBatch.obj
 0001:0002ad20       ?dtor$0@?0??RenderBatch@Impl@SpriteBatch@DirectX@@AEAAXPEAUID3D11ShaderResourceView@@PEBQEBUSpriteInfo@123@_K@Z@4HA 000000014002bd20 f   DirectXTK:SpriteBatch.obj
 0001:0002ad30       ?dtor$1@?0??RenderBatch@Impl@SpriteBatch@DirectX@@AEAAXPEAUID3D11ShaderResourceView@@PEBQEBUSpriteInfo@123@_K@Z@4HA 000000014002bd30 f   DirectXTK:SpriteBatch.obj
 0001:0002ad40       ?catch$0@?0??_Buyheadnode@?$_Tree_comp_alloc@V?$_Tmap_traits@PEAUID3D11Device@@V?$weak_ptr@UDeviceResources@Impl@SpriteBatch@DirectX@@@std@@U?$less@PEAUID3D11Device@@@3@V?$allocator@U?$pair@QEAUID3D11Device@@V?$weak_ptr@UDeviceResources@Impl@SpriteBatch@DirectX@@@std@@@std@@@3@$0A@@std@@@std@@QEAAPEAU?$_Tree_node@U?$pair@QEAUID3D11Device@@V?$weak_ptr@UDeviceResources@Impl@SpriteBatch@DirectX@@@std@@@std@@PEAX@2@XZ@4HA 000000014002bd40 f   DirectXTK:SpriteBatch.obj
 0001:0002ad40       ?catch$0@?0??_Buyheadnode@?$_Tree_comp_alloc@V?$_Tmap_traits@PEAUID3D11Device@@V?$weak_ptr@VImpl@CommonStates@DirectX@@@std@@U?$less@PEAUID3D11Device@@@3@V?$allocator@U?$pair@QEAUID3D11Device@@V?$weak_ptr@VImpl@CommonStates@DirectX@@@std@@@std@@@3@$0A@@std@@@std@@QEAAPEAU?$_Tree_node@U?$pair@QEAUID3D11Device@@V?$weak_ptr@VImpl@CommonStates@DirectX@@@std@@@std@@PEAX@2@XZ@4HA 000000014002bd40 f   DirectXTK:CommonStates.obj
 0001:0002ad40       ?catch$0@?0??_Buyheadnode@?$_Tree_comp_alloc@V?$_Tmap_traits@PEAUID3D11DeviceContext@@V?$weak_ptr@UContextResources@Impl@SpriteBatch@DirectX@@@std@@U?$less@PEAUID3D11DeviceContext@@@3@V?$allocator@U?$pair@QEAUID3D11DeviceContext@@V?$weak_ptr@UContextResources@Impl@SpriteBatch@DirectX@@@std@@@std@@@3@$0A@@std@@@std@@QEAAPEAU?$_Tree_node@U?$pair@QEAUID3D11DeviceContext@@V?$weak_ptr@UContextResources@Impl@SpriteBatch@DirectX@@@std@@@std@@PEAX@2@XZ@4HA 000000014002bd40 f   DirectXTK:SpriteBatch.obj
 0001:0002ad4d       __catch$?_Buyheadnode@?$_Tree_comp_alloc@V?$_Tmap_traits@PEAUID3D11Device@@V?$weak_ptr@VImpl@CommonStates@DirectX@@@std@@U?$less@PEAUID3D11Device@@@3@V?$allocator@U?$pair@QEAUID3D11Device@@V?$weak_ptr@VImpl@CommonStates@DirectX@@@std@@@std@@@3@$0A@@std@@@std@@QEAAPEAU?$_Tree_node@U?$pair@QEAUID3D11Device@@V?$weak_ptr@VImpl@CommonStates@DirectX@@@std@@@std@@PEAX@2@XZ$0 000000014002bd4d f   DirectXTK:CommonStates.obj
 0001:0002ad4d       __catch$?_Buyheadnode@?$_Tree_comp_alloc@V?$_Tmap_traits@PEAUID3D11Device@@V?$weak_ptr@UDeviceResources@Impl@SpriteBatch@DirectX@@@std@@U?$less@PEAUID3D11Device@@@3@V?$allocator@U?$pair@QEAUID3D11Device@@V?$weak_ptr@UDeviceResources@Impl@SpriteBatch@DirectX@@@std@@@std@@@3@$0A@@std@@@std@@QEAAPEAU?$_Tree_node@U?$pair@QEAUID3D11Device@@V?$weak_ptr@UDeviceResources@Impl@SpriteBatch@DirectX@@@std@@@std@@PEAX@2@XZ$0 000000014002bd4d f   DirectXTK:SpriteBatch.obj
 0001:0002ad4d       __catch$?_Buyheadnode@?$_Tree_comp_alloc@V?$_Tmap_traits@PEAUID3D11DeviceContext@@V?$weak_ptr@UContextResources@Impl@SpriteBatch@DirectX@@@std@@U?$less@PEAUID3D11DeviceContext@@@3@V?$allocator@U?$pair@QEAUID3D11DeviceContext@@V?$weak_ptr@UContextResources@Impl@SpriteBatch@DirectX@@@std@@@std@@@3@$0A@@std@@@std@@QEAAPEAU?$_Tree_node@U?$pair@QEAUID3D11DeviceContext@@V?$weak_ptr@UContextResources@Impl@SpriteBatch@DirectX@@@std@@@std@@PEAX@2@XZ$0 000000014002bd4d f   DirectXTK:SpriteBatch.obj
 0001:0002ad70       ?catch$0@?0??_Buynode0@?$_Tree_comp_alloc@V?$_Tmap_traits@PEAUID3D11Device@@V?$weak_ptr@VImpl@CommonStates@DirectX@@@std@@U?$less@PEAUID3D11Device@@@3@V?$allocator@U?$pair@QEAUID3D11Device@@V?$weak_ptr@VImpl@CommonStates@DirectX@@@std@@@std@@@3@$0A@@std@@@std@@QEAAPEAU?$_Tree_node@U?$pair@QEAUID3D11Device@@V?$weak_ptr@VImpl@CommonStates@DirectX@@@std@@@std@@PEAX@2@XZ@4HA 000000014002bd70 f   DirectXTK:CommonStates.obj
 0001:0002ad70       ?catch$0@?0??_Buynode0@?$_Tree_comp_alloc@V?$_Tmap_traits@PEAUID3D11Device@@V?$weak_ptr@UDeviceResources@Impl@SpriteBatch@DirectX@@@std@@U?$less@PEAUID3D11Device@@@3@V?$allocator@U?$pair@QEAUID3D11Device@@V?$weak_ptr@UDeviceResources@Impl@SpriteBatch@DirectX@@@std@@@std@@@3@$0A@@std@@@std@@QEAAPEAU?$_Tree_node@U?$pair@QEAUID3D11Device@@V?$weak_ptr@UDeviceResources@Impl@SpriteBatch@DirectX@@@std@@@std@@PEAX@2@XZ@4HA 000000014002bd70 f   DirectXTK:SpriteBatch.obj
 0001:0002ad70       ?catch$0@?0??_Buynode0@?$_Tree_comp_alloc@V?$_Tmap_traits@PEAUID3D11DeviceContext@@V?$weak_ptr@UContextResources@Impl@SpriteBatch@DirectX@@@std@@U?$less@PEAUID3D11DeviceContext@@@3@V?$allocator@U?$pair@QEAUID3D11DeviceContext@@V?$weak_ptr@UContextResources@Impl@SpriteBatch@DirectX@@@std@@@std@@@3@$0A@@std@@@std@@QEAAPEAU?$_Tree_node@U?$pair@QEAUID3D11DeviceContext@@V?$weak_ptr@UContextResources@Impl@SpriteBatch@DirectX@@@std@@@std@@PEAX@2@XZ@4HA 000000014002bd70 f   DirectXTK:SpriteBatch.obj
 0001:0002ad7d       __catch$?_Buynode0@?$_Tree_comp_alloc@V?$_Tmap_traits@PEAUID3D11Device@@V?$weak_ptr@VImpl@CommonStates@DirectX@@@std@@U?$less@PEAUID3D11Device@@@3@V?$allocator@U?$pair@QEAUID3D11Device@@V?$weak_ptr@VImpl@CommonStates@DirectX@@@std@@@std@@@3@$0A@@std@@@std@@QEAAPEAU?$_Tree_node@U?$pair@QEAUID3D11Device@@V?$weak_ptr@VImpl@CommonStates@DirectX@@@std@@@std@@PEAX@2@XZ$0 000000014002bd7d f   DirectXTK:CommonStates.obj
 0001:0002ad7d       __catch$?_Buynode0@?$_Tree_comp_alloc@V?$_Tmap_traits@PEAUID3D11DeviceContext@@V?$weak_ptr@UContextResources@Impl@SpriteBatch@DirectX@@@std@@U?$less@PEAUID3D11DeviceContext@@@3@V?$allocator@U?$pair@QEAUID3D11DeviceContext@@V?$weak_ptr@UContextResources@Impl@SpriteBatch@DirectX@@@std@@@std@@@3@$0A@@std@@@std@@QEAAPEAU?$_Tree_node@U?$pair@QEAUID3D11DeviceContext@@V?$weak_ptr@UContextResources@Impl@SpriteBatch@DirectX@@@std@@@std@@PEAX@2@XZ$0 000000014002bd7d f   DirectXTK:SpriteBatch.obj
 0001:0002ad7d       __catch$?_Buynode0@?$_Tree_comp_alloc@V?$_Tmap_traits@PEAUID3D11Device@@V?$weak_ptr@UDeviceResources@Impl@SpriteBatch@DirectX@@@std@@U?$less@PEAUID3D11Device@@@3@V?$allocator@U?$pair@QEAUID3D11Device@@V?$weak_ptr@UDeviceResources@Impl@SpriteBatch@DirectX@@@std@@@std@@@3@$0A@@std@@@std@@QEAAPEAU?$_Tree_node@U?$pair@QEAUID3D11Device@@V?$weak_ptr@UDeviceResources@Impl@SpriteBatch@DirectX@@@std@@@std@@PEAX@2@XZ$0 000000014002bd7d f   DirectXTK:SpriteBatch.obj
 0001:0002ada0       ?catch$0@?0??_Reallocate_exactly@?$vector@FV?$allocator@F@std@@@std@@AEAAX_K@Z@4HA 000000014002bda0 f   DirectXTK:SpriteBatch.obj
 0001:0002adad       __catch$?_Reallocate_exactly@?$vector@FV?$allocator@F@std@@@std@@AEAAX_K@Z$0 000000014002bdad f   DirectXTK:SpriteBatch.obj
 0001:0002add0       ?dtor$0@?0???0Impl@SpriteFont@DirectX@@QEAA@PEAUID3D11Device@@PEAVBinaryReader@2@_N@Z@4HA 000000014002bdd0 f   DirectXTK:SpriteFont.obj
 0001:0002ade0       ?dtor$1@?0???0Impl@SpriteFont@DirectX@@QEAA@PEAUID3D11Device@@PEAVBinaryReader@2@_N@Z@4HA 000000014002bde0 f   DirectXTK:SpriteFont.obj
 0001:0002adf0       ?dtor$2@?0???0Impl@SpriteFont@DirectX@@QEAA@PEAUID3D11Device@@PEAVBinaryReader@2@_N@Z@4HA 000000014002bdf0 f   DirectXTK:SpriteFont.obj
 0001:0002ae00       ?dtor$3@?0???0Impl@SpriteFont@DirectX@@QEAA@PEAUID3D11Device@@PEAVBinaryReader@2@_N@Z@4HA 000000014002be00 f   DirectXTK:SpriteFont.obj
 0001:0002ae10       ?dtor$0@?0???0SpriteFont@DirectX@@QEAA@PEAUID3D11Device@@PEB_W_N@Z@4HA 000000014002be10 f   DirectXTK:SpriteFont.obj
 0001:0002ae20       ?dtor$1@?0???0SpriteFont@DirectX@@QEAA@PEAUID3D11Device@@PEB_W_N@Z@4HA 000000014002be20 f   DirectXTK:SpriteFont.obj
 0001:0002ae30       ?dtor$3@?0???0SpriteFont@DirectX@@QEAA@PEAUID3D11Device@@PEB_W_N@Z@4HA 000000014002be30 f   DirectXTK:SpriteFont.obj
 0001:0002ae50       ?dtor$0@?0??CreateDDSTextureFromFile@DirectX@@YAJPEAUID3D11Device@@PEB_WPEAPEAUID3D11Resource@@PEAPEAUID3D11ShaderResourceView@@_KPEAW4DDS_ALPHA_MODE@1@@Z@4HA 000000014002be50 f   DirectXTK:DDSTextureLoader.obj
 0001:0002ae60       ?dtor$0@?0??CreateTextureFromDDS@?A0x3c71273c@@YAJPEAUID3D11Device@@PEAUID3D11DeviceContext@@PEBUDDS_HEADER@DirectX@@PEBE_K4W4D3D11_USAGE@@III_NPEAPEAUID3D11Resource@@PEAPEAUID3D11ShaderResourceView@@@Z@4HA 000000014002be60 f   DirectXTK:DDSTextureLoader.obj
 0001:0002ae70       ?dtor$0@?0??CullCounterClockwise@CommonStates@DirectX@@QEBAPEAUID3D11RasterizerState@@XZ@4HA 000000014002be70 f   DirectXTK:CommonStates.obj
 0001:0002ae70       ?dtor$0@?0??LinearClamp@CommonStates@DirectX@@QEBAPEAUID3D11SamplerState@@XZ@4HA 000000014002be70 f   DirectXTK:CommonStates.obj
 0001:0002ae70       ?dtor$0@?0??AlphaBlend@CommonStates@DirectX@@QEBAPEAUID3D11BlendState@@XZ@4HA 000000014002be70 f   DirectXTK:CommonStates.obj
 0001:0002ae70       ?dtor$0@?0??DepthNone@CommonStates@DirectX@@QEBAPEAUID3D11DepthStencilState@@XZ@4HA 000000014002be70 f   DirectXTK:CommonStates.obj
 0001:0002ae80       ?dtor$3@?0??DemandCreate@?$SharedResourcePool@PEAUID3D11Device@@VImpl@CommonStates@DirectX@@$$V@DirectX@@QEAA?AV?$shared_ptr@VImpl@CommonStates@DirectX@@@std@@PEAUID3D11Device@@@Z@4HA 000000014002be80 f   DirectXTK:CommonStates.obj
 0001:0002ae90       ?dtor$0@?0???0BinaryReader@DirectX@@QEAA@PEB_W@Z@4HA 000000014002be90 f   DirectXTK:BinaryReader.obj
 0001:0002aea0       ?dtor$0@?0??ReadEntireFile@BinaryReader@DirectX@@SAJPEB_WAEAV?$unique_ptr@$$BY0A@EU?$default_delete@$$BY0A@E@std@@@std@@PEA_K@Z@4HA 000000014002bea0 f   DirectXTK:BinaryReader.obj
 0001:0002aeac       ?filt$0@?0??__scrt_common_main_seh@@YAHXZ@4HA 000000014002beac f   MSVCRT:exe_winmain.obj
 0001:0002aeca       __scrt_is_nonwritable_in_current_image$filt$0 000000014002beca f   MSVCRT:utility.obj
 0001:0002aee2       ?catch$0@?0???2@YAPEAX_KAEBUnothrow_t@std@@@Z@4HA 000000014002bee2 f   MSVCRT:new_scalar_nothrow.obj
 0001:0002aeef       __catch$??2@YAPEAX_KAEBUnothrow_t@std@@@Z$0 000000014002beef f   MSVCRT:new_scalar_nothrow.obj
 0001:0002af00       ??__F?contextResourcesPool@Impl@SpriteBatch@DirectX@@0V?$SharedResourcePool@PEAUID3D11DeviceContext@@UContextResources@Impl@SpriteBatch@DirectX@@$$V@3@A@@YAXXZ 000000014002bf00 f   DirectXTK:SpriteBatch.obj
 0001:0002af50       ??__F?deviceResourcesPool@Impl@SpriteBatch@DirectX@@0V?$SharedResourcePool@PEAUID3D11Device@@UDeviceResources@Impl@SpriteBatch@DirectX@@$$V@3@A@@YAXXZ 000000014002bf50 f   DirectXTK:SpriteBatch.obj
 0001:0002afa0       ??__F?instancePool@Impl@CommonStates@DirectX@@2V?$SharedResourcePool@PEAUID3D11Device@@VImpl@CommonStates@DirectX@@$$V@3@A@@YAXXZ 000000014002bfa0 f   DirectXTK:CommonStates.obj
 0001:0002aff0       ??__F_Fac_tidy_reg@std@@YAXXZ 000000014002bff0 f   msvcprt:locale0_implib.obj
 0002:00000638       ?pre_cpp_initializer@@3P6AXXZEA 000000014002c638     MSVCRT:exe_winmain.obj
 0002:00000640       ?_Fac_tidy_reg$initializer$@std@@3P6AXXZEA 000000014002c640     msvcprt:locale0_implib.obj
 0002:00000648       ??deviceResourcesPool$initializer$@Impl@SpriteBatch@DirectX@@0P6AXXZEA@@3P6AXXZEA 000000014002c648     DirectXTK:SpriteBatch.obj
 0002:00000650       ??contextResourcesPool$initializer$@Impl@SpriteBatch@DirectX@@0P6AXXZEA@@3P6AXXZEA 000000014002c650     DirectXTK:SpriteBatch.obj
 0002:00000658       ??MatrixIdentity$initializer$@SpriteBatch@DirectX@@0P6AXXZEA@@3P6AXXZEA 000000014002c658     DirectXTK:SpriteBatch.obj
 0002:00000660       ??instancePool$initializer$@Impl@CommonStates@DirectX@@2P6AXXZEA@@3P6AXXZEA 000000014002c660     DirectXTK:CommonStates.obj
 0002:00000668       ?g_WICFormats$initializer$@?A0x045efb5a@@3P6AXXZEA 000000014002c668     WICTextureLoader.obj
 0002:00000670       ?g_WICConvert$initializer$@?A0x045efb5a@@3P6AXXZEA 000000014002c670     WICTextureLoader.obj
 0002:00000688       ?pre_c_initializer@@3P6AHXZEA 000000014002c688     MSVCRT:exe_winmain.obj
 0002:00000690       ?post_pgo_initializer@@3P6AHXZEA 000000014002c690     MSVCRT:exe_winmain.obj
 0002:00000698       ?__scrt_initialize_tss_var@@3P6AHXZEA 000000014002c698     MSVCRT:thread_safe_statics.obj
 0002:00000af0       ?SpriteEffect_SpriteVertexShader@?A0xb0fc76dd@@3QBEB 000000014002caf0     DirectXTK:SpriteBatch.obj
 0002:00001010       ?SpriteEffect_SpritePixelShader@?A0xb0fc76dd@@3QBEB 000000014002d010     DirectXTK:SpriteBatch.obj
 0002:00001370       $cppxdata$??1?$lock_guard@Vmutex@std@@@std@@QEAA@XZ 000000014002d370     DirectXTK:SpriteBatch.obj
 0002:00001398       $cppxdata$?Begin@SpriteBatch@DirectX@@QEAQXW4SpriteSortMode@2@PEAUID3D11BlendState@@PEAUID3D11SamplerState@@PEAUID3D11DepthStencilState@@PEAUID3D11RasterizerState@@V?$function@$$A6AXXZ@std@@UXMMATRIX@2@@Z 000000014002d398     DirectXTK:SpriteBatch.obj
 0002:000013c0       $cppxdata$?Begin@Impl@SpriteBatch@DirectX@@QEAQXW4SpriteSortMode@3@PEAUID3D11BlendState@@PEAUID3D11SamplerState@@PEAUID3D11DepthStencilState@@PEAUID3D11RasterizerState@@AEAV?$function@$$A6AXXZ@std@@UXMMATRIX@3@@Z 000000014002d3c0     DirectXTK:SpriteBatch.obj
 0002:000013e8       $cppxdata$?RenderBatch@Impl@SpriteBatch@DirectX@@AEAAXPEAUID3D11ShaderResourceView@@PEBQEBUSpriteInfo@123@_K@Z 000000014002d3e8     DirectXTK:SpriteBatch.obj
 0002:00001410       $cppxdata$??1?$vector@V?$ComPtr@UID3D11ShaderResourceView@@@WRL@Microsoft@@V?$allocator@V?$ComPtr@UID3D11ShaderResourceView@@@WRL@Microsoft@@@std@@@std@@QEAA@XZ 000000014002d410     DirectXTK:SpriteBatch.obj
 0002:00001438       $cppxdata$??0DeviceResources@Impl@SpriteBatch@DirectX@@QEAA@PEAUID3D11Device@@@Z 000000014002d438     DirectXTK:SpriteBatch.obj
 0002:00001460       $cppxdata$?CreateIndexValues@DeviceResources@Impl@SpriteBatch@DirectX@@CA?AV?$vector@FV?$allocator@F@std@@@std@@XZ 000000014002d460     DirectXTK:SpriteBatch.obj
 0002:00001488       $cppxdata$??1DeviceResources@Impl@SpriteBatch@DirectX@@QEAA@XZ 000000014002d488     DirectXTK:SpriteBatch.obj
 0002:000014b0       $cppxdata$??0ContextResources@Impl@SpriteBatch@DirectX@@QEAA@PEAUID3D11DeviceContext@@@Z 000000014002d4b0     DirectXTK:SpriteBatch.obj
 0002:000014d8       $cppxdata$??1?$ConstantBuffer@UXMMATRIX@DirectX@@@DirectX@@QEAA@XZ 000000014002d4d8     DirectXTK:SpriteBatch.obj
 0002:00001500       $cppxdata$??1Impl@SpriteBatch@DirectX@@QEAA@XZ 000000014002d500     DirectXTK:SpriteBatch.obj
 0002:00001528       $cppxdata$?DemandCreate@?$SharedResourcePool@PEAUID3D11Device@@UDeviceResources@Impl@SpriteBatch@DirectX@@$$V@DirectX@@QEAA?AV?$shared_ptr@UDeviceResources@Impl@SpriteBatch@DirectX@@@std@@PEAUID3D11Device@@@Z 000000014002d528     DirectXTK:SpriteBatch.obj
 0002:00001550       $cppxdata$??__E?deviceResourcesPool@Impl@SpriteBatch@DirectX@@0V?$SharedResourcePool@PEAUID3D11Device@@UDeviceResources@Impl@SpriteBatch@DirectX@@$$V@3@A@@YAXXZ 000000014002d550     DirectXTK:SpriteBatch.obj
 0002:00001578       $cppxdata$?DemandCreate@?$SharedResourcePool@PEAUID3D11DeviceContext@@UContextResources@Impl@SpriteBatch@DirectX@@$$V@DirectX@@QEAA?AV?$shared_ptr@UContextResources@Impl@SpriteBatch@DirectX@@@std@@PEAUID3D11DeviceContext@@@Z 000000014002d578     DirectXTK:SpriteBatch.obj
 0002:000015a0       $cppxdata$??__E?contextResourcesPool@Impl@SpriteBatch@DirectX@@0V?$SharedResourcePool@PEAUID3D11DeviceContext@@UContextResources@Impl@SpriteBatch@DirectX@@$$V@3@A@@YAXXZ 000000014002d5a0     DirectXTK:SpriteBatch.obj
 0002:000015c8       $cppxdata$?_Reallocate_exactly@?$vector@FV?$allocator@F@std@@@std@@AEAAX_K@Z 000000014002d5c8     DirectXTK:SpriteBatch.obj
 0002:000015f0       $cppxdata$??$_Emplace_reallocate@AEAPEAUID3D11ShaderResourceView@@@?$vector@V?$ComPtr@UID3D11ShaderResourceView@@@WRL@Microsoft@@V?$allocator@V?$ComPtr@UID3D11ShaderResourceView@@@WRL@Microsoft@@@std@@@std@@QEAAPEAV?$ComPtr@UID3D11ShaderResourceView@@@WRL@Microsoft@@QEAV234@AEAPEAUID3D11ShaderResourceView@@@Z 000000014002d5f0     DirectXTK:SpriteBatch.obj
 0002:00001618       $cppxdata$??$make_unique@VImpl@SpriteBatch@DirectX@@AEAPEAUID3D11DeviceContext@@$0A@@std@@YA?AV?$unique_ptr@VImpl@SpriteBatch@DirectX@@U?$default_delete@VImpl@SpriteBatch@DirectX@@@std@@@0@AEAPEAUID3D11DeviceContext@@@Z 000000014002d618     DirectXTK:SpriteBatch.obj
 0002:00001640       $cppxdata$?_Buyheadnode@?$_Tree_comp_alloc@V?$_Tmap_traits@PEAUID3D11Device@@V?$weak_ptr@UDeviceResources@Impl@SpriteBatch@DirectX@@@std@@U?$less@PEAUID3D11Device@@@3@V?$allocator@U?$pair@QEAUID3D11Device@@V?$weak_ptr@UDeviceResources@Impl@SpriteBatch@DirectX@@@std@@@std@@@3@$0A@@std@@@std@@QEAAPEAU?$_Tree_node@U?$pair@QEAUID3D11Device@@V?$weak_ptr@UDeviceResources@Impl@SpriteBatch@DirectX@@@std@@@std@@PEAX@2@XZ 000000014002d640     DirectXTK:SpriteBatch.obj
 0002:00001640       $cppxdata$?_Buyheadnode@?$_Tree_comp_alloc@V?$_Tmap_traits@PEAUID3D11Device@@V?$weak_ptr@VImpl@CommonStates@DirectX@@@std@@U?$less@PEAUID3D11Device@@@3@V?$allocator@U?$pair@QEAUID3D11Device@@V?$weak_ptr@VImpl@CommonStates@DirectX@@@std@@@std@@@3@$0A@@std@@@std@@QEAAPEAU?$_Tree_node@U?$pair@QEAUID3D11Device@@V?$weak_ptr@VImpl@CommonStates@DirectX@@@std@@@std@@PEAX@2@XZ 000000014002d640     DirectXTK:CommonStates.obj
 0002:00001640       $cppxdata$?_Buyheadnode@?$_Tree_comp_alloc@V?$_Tmap_traits@PEAUID3D11DeviceContext@@V?$weak_ptr@UContextResources@Impl@SpriteBatch@DirectX@@@std@@U?$less@PEAUID3D11DeviceContext@@@3@V?$allocator@U?$pair@QEAUID3D11DeviceContext@@V?$weak_ptr@UContextResources@Impl@SpriteBatch@DirectX@@@std@@@std@@@3@$0A@@std@@@std@@QEAAPEAU?$_Tree_node@U?$pair@QEAUID3D11DeviceContext@@V?$weak_ptr@UContextResources@Impl@SpriteBatch@DirectX@@@std@@@std@@PEAX@2@XZ 000000014002d640     DirectXTK:SpriteBatch.obj
 0002:00001668       $cppxdata$?_Buynode0@?$_Tree_comp_alloc@V?$_Tmap_traits@PEAUID3D11Device@@V?$weak_ptr@VImpl@CommonStates@DirectX@@@std@@U?$less@PEAUID3D11Device@@@3@V?$allocator@U?$pair@QEAUID3D11Device@@V?$weak_ptr@VImpl@CommonStates@DirectX@@@std@@@std@@@3@$0A@@std@@@std@@QEAAPEAU?$_Tree_node@U?$pair@QEAUID3D11Device@@V?$weak_ptr@VImpl@CommonStates@DirectX@@@std@@@std@@PEAX@2@XZ 000000014002d668     DirectXTK:CommonStates.obj
 0002:00001668       $cppxdata$?_Buynode0@?$_Tree_comp_alloc@V?$_Tmap_traits@PEAUID3D11DeviceContext@@V?$weak_ptr@UContextResources@Impl@SpriteBatch@DirectX@@@std@@U?$less@PEAUID3D11DeviceContext@@@3@V?$allocator@U?$pair@QEAUID3D11DeviceContext@@V?$weak_ptr@UContextResources@Impl@SpriteBatch@DirectX@@@std@@@std@@@3@$0A@@std@@@std@@QEAAPEAU?$_Tree_node@U?$pair@QEAUID3D11DeviceContext@@V?$weak_ptr@UContextResources@Impl@SpriteBatch@DirectX@@@std@@@std@@PEAX@2@XZ 000000014002d668     DirectXTK:SpriteBatch.obj
 0002:00001668       $cppxdata$?_Buynode0@?$_Tree_comp_alloc@V?$_Tmap_traits@PEAUID3D11Device@@V?$weak_ptr@UDeviceResources@Impl@SpriteBatch@DirectX@@@std@@U?$less@PEAUID3D11Device@@@3@V?$allocator@U?$pair@QEAUID3D11Device@@V?$weak_ptr@UDeviceResources@Impl@SpriteBatch@DirectX@@@std@@@std@@@3@$0A@@std@@@std@@QEAAPEAU?$_Tree_node@U?$pair@QEAUID3D11Device@@V?$weak_ptr@UDeviceResources@Impl@SpriteBatch@DirectX@@@std@@@std@@PEAX@2@XZ 000000014002d668     DirectXTK:SpriteBatch.obj
 0002:00001690       $cppxdata$?erase@?$_Tree@V?$_Tmap_traits@PEAUID3D11Device@@V?$weak_ptr@VImpl@CommonStates@DirectX@@@std@@U?$less@PEAUID3D11Device@@@3@V?$allocator@U?$pair@QEAUID3D11Device@@V?$weak_ptr@VImpl@CommonStates@DirectX@@@std@@@std@@@3@$0A@@std@@@std@@QEAA?AV?$_Tree_iterator@V?$_Tree_val@U?$_Tree_simple_types@U?$pair@QEAUID3D11Device@@V?$weak_ptr@VImpl@CommonStates@DirectX@@@std@@@std@@@std@@@std@@@2@V?$_Tree_const_iterator@V?$_Tree_val@U?$_Tree_simple_types@U?$pair@QEAUID3D11Device@@V?$weak_ptr@VImpl@CommonStates@DirectX@@@std@@@std@@@std@@@std@@@2@0@Z 000000014002d690     DirectXTK:CommonStates.obj
 0002:00001690       $cppxdata$?erase@?$_Tree@V?$_Tmap_traits@PEAUID3D11Device@@V?$weak_ptr@UDeviceResources@Impl@SpriteBatch@DirectX@@@std@@U?$less@PEAUID3D11Device@@@3@V?$allocator@U?$pair@QEAUID3D11Device@@V?$weak_ptr@UDeviceResources@Impl@SpriteBatch@DirectX@@@std@@@std@@@3@$0A@@std@@@std@@QEAA?AV?$_Tree_iterator@V?$_Tree_val@U?$_Tree_simple_types@U?$pair@QEAUID3D11Device@@V?$weak_ptr@UDeviceResources@Impl@SpriteBatch@DirectX@@@std@@@std@@@std@@@std@@@2@V?$_Tree_const_iterator@V?$_Tree_val@U?$_Tree_simple_types@U?$pair@QEAUID3D11Device@@V?$weak_ptr@UDeviceResources@Impl@SpriteBatch@DirectX@@@std@@@std@@@std@@@std@@@2@0@Z 000000014002d690     DirectXTK:SpriteBatch.obj
 0002:00001690       $cppxdata$?erase@?$_Tree@V?$_Tmap_traits@PEAUID3D11DeviceContext@@V?$weak_ptr@UContextResources@Impl@SpriteBatch@DirectX@@@std@@U?$less@PEAUID3D11DeviceContext@@@3@V?$allocator@U?$pair@QEAUID3D11DeviceContext@@V?$weak_ptr@UContextResources@Impl@SpriteBatch@DirectX@@@std@@@std@@@3@$0A@@std@@@std@@QEAA?AV?$_Tree_iterator@V?$_Tree_val@U?$_Tree_simple_types@U?$pair@QEAUID3D11DeviceContext@@V?$weak_ptr@UContextResources@Impl@SpriteBatch@DirectX@@@std@@@std@@@std@@@std@@@2@V?$_Tree_const_iterator@V?$_Tree_val@U?$_Tree_simple_types@U?$pair@QEAUID3D11DeviceContext@@V?$weak_ptr@UContextResources@Impl@SpriteBatch@DirectX@@@std@@@std@@@std@@@std@@@2@0@Z 000000014002d690     DirectXTK:SpriteBatch.obj
 0002:000016b8       $cppxdata$??1WrappedData@?$SharedResourcePool@PEAUID3D11DeviceContext@@UContextResources@Impl@SpriteBatch@DirectX@@$$V@DirectX@@QEAA@XZ 000000014002d6b8     DirectXTK:SpriteBatch.obj
 0002:000016e0       $cppxdata$??$_Emplace_reallocate@AEBF@?$vector@FV?$allocator@F@std@@@std@@QEAAPEAFQEAFAEBF@Z 000000014002d6e0     DirectXTK:SpriteBatch.obj
 0002:000016e0       $cppxdata$??$_Emplace_reallocate@F@?$vector@FV?$allocator@F@std@@@std@@QEAAPEAFQEAF$$QEAF@Z 000000014002d6e0     DirectXTK:SpriteBatch.obj
 0002:00001708       $cppxdata$??$_Resize@V<lambda_e8c6c8b564571a11716b943a92ab7d7d>@@@?$vector@PEBUSpriteInfo@Impl@SpriteBatch@DirectX@@V?$allocator@PEBUSpriteInfo@Impl@SpriteBatch@DirectX@@@std@@@std@@AEAAX_KV<lambda_e8c6c8b564571a11716b943a92ab7d7d>@@@Z 000000014002d708     DirectXTK:SpriteBatch.obj
 0002:00001730       $cppxdata$?_Destroy@?$_Ref_count_obj@UResourceMap@?$SharedResourcePool@PEAUID3D11Device@@VImpl@CommonStates@DirectX@@$$V@DirectX@@@std@@EEAAXXZ 000000014002d730     DirectXTK:CommonStates.obj
 0002:00001730       $cppxdata$?_Destroy@?$_Ref_count_obj@UResourceMap@?$SharedResourcePool@PEAUID3D11DeviceContext@@UContextResources@Impl@SpriteBatch@DirectX@@$$V@DirectX@@@std@@EEAAXXZ 000000014002d730     DirectXTK:SpriteBatch.obj
 0002:00001730       $cppxdata$?_Destroy@?$_Ref_count_obj@UResourceMap@?$SharedResourcePool@PEAUID3D11Device@@UDeviceResources@Impl@SpriteBatch@DirectX@@$$V@DirectX@@@std@@EEAAXXZ 000000014002d730     DirectXTK:SpriteBatch.obj
 0002:00001758       $cppxdata$?_Destroy@?$_Ref_count_obj@UWrappedData@?$SharedResourcePool@PEAUID3D11Device@@UDeviceResources@Impl@SpriteBatch@DirectX@@$$V@DirectX@@@std@@EEAAXXZ 000000014002d758     DirectXTK:SpriteBatch.obj
 0002:00001780       $cppxdata$??$_Buynode@AEAU?$pair@PEAUID3D11Device@@V?$shared_ptr@UWrappedData@?$SharedResourcePool@PEAUID3D11Device@@VImpl@CommonStates@DirectX@@$$V@DirectX@@@std@@@std@@@?$_Tree_comp_alloc@V?$_Tmap_traits@PEAUID3D11Device@@V?$weak_ptr@VImpl@CommonStates@DirectX@@@std@@U?$less@PEAUID3D11Device@@@3@V?$allocator@U?$pair@QEAUID3D11Device@@V?$weak_ptr@VImpl@CommonStates@DirectX@@@std@@@std@@@3@$0A@@std@@@std@@QEAAPEAU?$_Tree_node@U?$pair@QEAUID3D11Device@@V?$weak_ptr@VImpl@CommonStates@DirectX@@@std@@@std@@PEAX@1@AEAU?$pair@PEAUID3D11Device@@V?$shared_ptr@UWrappedData@?$SharedResourcePool@PEAUID3D11Device@@VImpl@CommonStates@DirectX@@$$V@DirectX@@@std@@@1@@Z 000000014002d780     DirectXTK:CommonStates.obj
 0002:00001780       $cppxdata$??$_Buynode@AEAU?$pair@PEAUID3D11Device@@V?$shared_ptr@UWrappedData@?$SharedResourcePool@PEAUID3D11Device@@UDeviceResources@Impl@SpriteBatch@DirectX@@$$V@DirectX@@@std@@@std@@@?$_Tree_comp_alloc@V?$_Tmap_traits@PEAUID3D11Device@@V?$weak_ptr@UDeviceResources@Impl@SpriteBatch@DirectX@@@std@@U?$less@PEAUID3D11Device@@@3@V?$allocator@U?$pair@QEAUID3D11Device@@V?$weak_ptr@UDeviceResources@Impl@SpriteBatch@DirectX@@@std@@@std@@@3@$0A@@std@@@std@@QEAAPEAU?$_Tree_node@U?$pair@QEAUID3D11Device@@V?$weak_ptr@UDeviceResources@Impl@SpriteBatch@DirectX@@@std@@@std@@PEAX@1@AEAU?$pair@PEAUID3D11Device@@V?$shared_ptr@UWrappedData@?$SharedResourcePool@PEAUID3D11Device@@UDeviceResources@Impl@SpriteBatch@DirectX@@$$V@DirectX@@@std@@@1@@Z 000000014002d780     DirectXTK:SpriteBatch.obj
 0002:00001780       $cppxdata$??$_Buynode@AEAU?$pair@PEAUID3D11DeviceContext@@V?$shared_ptr@UWrappedData@?$SharedResourcePool@PEAUID3D11DeviceContext@@UContextResources@Impl@SpriteBatch@DirectX@@$$V@DirectX@@@std@@@std@@@?$_Tree_comp_alloc@V?$_Tmap_traits@PEAUID3D11DeviceContext@@V?$weak_ptr@UContextResources@Impl@SpriteBatch@DirectX@@@std@@U?$less@PEAUID3D11DeviceContext@@@3@V?$allocator@U?$pair@QEAUID3D11DeviceContext@@V?$weak_ptr@UContextResources@Impl@SpriteBatch@DirectX@@@std@@@std@@@3@$0A@@std@@@std@@QEAAPEAU?$_Tree_node@U?$pair@QEAUID3D11DeviceContext@@V?$weak_ptr@UContextResources@Impl@SpriteBatch@DirectX@@@std@@@std@@PEAX@1@AEAU?$pair@PEAUID3D11DeviceContext@@V?$shared_ptr@UWrappedData@?$SharedResourcePool@PEAUID3D11DeviceContext@@UContextResources@Impl@SpriteBatch@DirectX@@$$V@DirectX@@@std@@@1@@Z 000000014002d780     DirectXTK:SpriteBatch.obj
 0002:000017a8       $cppxdata$??$_Insert_nohint@AEAU?$pair@QEAUID3D11Device@@V?$weak_ptr@UDeviceResources@Impl@SpriteBatch@DirectX@@@std@@@std@@PEAU?$_Tree_node@U?$pair@QEAUID3D11Device@@V?$weak_ptr@UDeviceResources@Impl@SpriteBatch@DirectX@@@std@@@std@@PEAX@2@@?$_Tree@V?$_Tmap_traits@PEAUID3D11Device@@V?$weak_ptr@UDeviceResources@Impl@SpriteBatch@DirectX@@@std@@U?$less@PEAUID3D11Device@@@3@V?$allocator@U?$pair@QEAUID3D11Device@@V?$weak_ptr@UDeviceResources@Impl@SpriteBatch@DirectX@@@std@@@std@@@3@$0A@@std@@@std@@IEAA?AU?$pair@V?$_Tree_iterator@V?$_Tree_val@U?$_Tree_simple_types@U?$pair@QEAUID3D11Device@@V?$weak_ptr@UDeviceResources@Impl@SpriteBatch@DirectX@@@std@@@std@@@std@@@std@@@std@@_N@1@_NAEAU?$pair@QEAUID3D11Device@@V?$weak_ptr@UDeviceResources@Impl@SpriteBatch@DirectX@@@std@@@1@PEAU?$_Tree_node@U?$pair@QEAUID3D11Device@@V?$weak_ptr@UDeviceResources@Impl@SpriteBatch@DirectX@@@std@@@std@@PEAX@1@@Z 000000014002d7a8     DirectXTK:SpriteBatch.obj
 0002:000017a8       $cppxdata$??$_Insert_nohint@AEAU?$pair@QEAUID3D11DeviceContext@@V?$weak_ptr@UContextResources@Impl@SpriteBatch@DirectX@@@std@@@std@@PEAU?$_Tree_node@U?$pair@QEAUID3D11DeviceContext@@V?$weak_ptr@UContextResources@Impl@SpriteBatch@DirectX@@@std@@@std@@PEAX@2@@?$_Tree@V?$_Tmap_traits@PEAUID3D11DeviceContext@@V?$weak_ptr@UContextResources@Impl@SpriteBatch@DirectX@@@std@@U?$less@PEAUID3D11DeviceContext@@@3@V?$allocator@U?$pair@QEAUID3D11DeviceContext@@V?$weak_ptr@UContextResources@Impl@SpriteBatch@DirectX@@@std@@@std@@@3@$0A@@std@@@std@@IEAA?AU?$pair@V?$_Tree_iterator@V?$_Tree_val@U?$_Tree_simple_types@U?$pair@QEAUID3D11DeviceContext@@V?$weak_ptr@UContextResources@Impl@SpriteBatch@DirectX@@@std@@@std@@@std@@@std@@@std@@_N@1@_NAEAU?$pair@QEAUID3D11DeviceContext@@V?$weak_ptr@UContextResources@Impl@SpriteBatch@DirectX@@@std@@@1@PEAU?$_Tree_node@U?$pair@QEAUID3D11DeviceContext@@V?$weak_ptr@UContextResources@Impl@SpriteBatch@DirectX@@@std@@@std@@PEAX@1@@Z 000000014002d7a8     DirectXTK:SpriteBatch.obj
 0002:000017a8       $cppxdata$??$_Insert_nohint@AEAU?$pair@QEAUID3D11Device@@V?$weak_ptr@VImpl@CommonStates@DirectX@@@std@@@std@@PEAU?$_Tree_node@U?$pair@QEAUID3D11Device@@V?$weak_ptr@VImpl@CommonStates@DirectX@@@std@@@std@@PEAX@2@@?$_Tree@V?$_Tmap_traits@PEAUID3D11Device@@V?$weak_ptr@VImpl@CommonStates@DirectX@@@std@@U?$less@PEAUID3D11Device@@@3@V?$allocator@U?$pair@QEAUID3D11Device@@V?$weak_ptr@VImpl@CommonStates@DirectX@@@std@@@std@@@3@$0A@@std@@@std@@IEAA?AU?$pair@V?$_Tree_iterator@V?$_Tree_val@U?$_Tree_simple_types@U?$pair@QEAUID3D11Device@@V?$weak_ptr@VImpl@CommonStates@DirectX@@@std@@@std@@@std@@@std@@@std@@_N@1@_NAEAU?$pair@QEAUID3D11Device@@V?$weak_ptr@VImpl@CommonStates@DirectX@@@std@@@1@PEAU?$_Tree_node@U?$pair@QEAUID3D11Device@@V?$weak_ptr@VImpl@CommonStates@DirectX@@@std@@@std@@PEAX@1@@Z 000000014002d7a8     DirectXTK:CommonStates.obj
 0002:00001940       ?wholeTexture@?BB@??Draw@Impl@SpriteBatch@DirectX@@QEAQXPEAUID3D11ShaderResourceView@@T__m128@@PEBUtagRECT@@11H@Z@4UXMVECTORF32@4@B 000000014002d940     DirectXTK:SpriteBatch.obj
 0002:00001a70       ?spriteFontMagic@@3QBDB    000000014002da70     DirectXTK:SpriteFont.obj
 0002:00001a80       $cppxdata$??0SpriteFont@DirectX@@QEAA@PEAUID3D11Device@@PEB_W_N@Z 000000014002da80     DirectXTK:SpriteFont.obj
 0002:00001aa8       $cppxdata$??R?$default_delete@VImpl@SpriteFont@DirectX@@@std@@QEBAXPEAVImpl@SpriteFont@DirectX@@@Z 000000014002daa8     DirectXTK:SpriteFont.obj
 0002:00001ad0       $cppxdata$??0Impl@SpriteFont@DirectX@@QEAA@PEAUID3D11Device@@PEAVBinaryReader@2@_N@Z 000000014002dad0     DirectXTK:SpriteFont.obj
 0002:00001bb0       $cppxdata$?CreateDDSTextureFromFile@DirectX@@YAJPEAUID3D11Device@@PEB_WPEAPEAUID3D11Resource@@PEAPEAUID3D11ShaderResourceView@@_KPEAW4DDS_ALPHA_MODE@1@@Z 000000014002dbb0     DirectXTK:DDSTextureLoader.obj
 0002:00001bd8       $cppxdata$?CreateTextureFromDDS@?A0x3c71273c@@YAJPEAUID3D11Device@@PEAUID3D11DeviceContext@@PEBUDDS_HEADER@DirectX@@PEBE_K4W4D3D11_USAGE@@III_NPEAPEAUID3D11Resource@@PEAPEAUID3D11ShaderResourceView@@@Z 000000014002dbd8     DirectXTK:DDSTextureLoader.obj
 0002:00001c28       $cppxdata$?AlphaBlend@CommonStates@DirectX@@QEBAPEAUID3D11BlendState@@XZ 000000014002dc28     DirectXTK:CommonStates.obj
 0002:00001c50       $cppxdata$?DepthNone@CommonStates@DirectX@@QEBAPEAUID3D11DepthStencilState@@XZ 000000014002dc50     DirectXTK:CommonStates.obj
 0002:00001c78       $cppxdata$?CullCounterClockwise@CommonStates@DirectX@@QEBAPEAUID3D11RasterizerState@@XZ 000000014002dc78     DirectXTK:CommonStates.obj
 0002:00001ca0       $cppxdata$?LinearClamp@CommonStates@DirectX@@QEBAPEAUID3D11SamplerState@@XZ 000000014002dca0     DirectXTK:CommonStates.obj
 0002:00001cc8       $cppxdata$??1Impl@CommonStates@DirectX@@QEAA@XZ 000000014002dcc8     DirectXTK:CommonStates.obj
 0002:00001cf0       $cppxdata$?DemandCreate@?$SharedResourcePool@PEAUID3D11Device@@VImpl@CommonStates@DirectX@@$$V@DirectX@@QEAA?AV?$shared_ptr@VImpl@CommonStates@DirectX@@@std@@PEAUID3D11Device@@@Z 000000014002dcf0     DirectXTK:CommonStates.obj
 0002:00001d18       $cppxdata$??__E?instancePool@Impl@CommonStates@DirectX@@2V?$SharedResourcePool@PEAUID3D11Device@@VImpl@CommonStates@DirectX@@$$V@3@A@@YAXXZ 000000014002dd18     DirectXTK:CommonStates.obj
 0002:00001d40       $cppxdata$?_Destroy@?$_Ref_count_obj@UWrappedData@?$SharedResourcePool@PEAUID3D11Device@@VImpl@CommonStates@DirectX@@$$V@DirectX@@@std@@EEAAXXZ 000000014002dd40     DirectXTK:CommonStates.obj
 0002:00002258       $cppxdata$??0BinaryReader@DirectX@@QEAA@PEB_W@Z 000000014002e258     DirectXTK:BinaryReader.obj
 0002:00002280       $cppxdata$?ReadEntireFile@BinaryReader@DirectX@@SAJPEB_WAEAV?$unique_ptr@$$BY0A@EU?$default_delete@$$BY0A@E@std@@@std@@PEA_K@Z 000000014002e280     DirectXTK:BinaryReader.obj
 0002:000022f0       $cppxdata$??1_Fac_tidy_reg_t@std@@QEAA@XZ 000000014002e2f0     msvcprt:locale0_implib.obj
 0002:000023a8       $cppxdata$?__scrt_initialize_thread_safe_statics@@YAHXZ 000000014002e3a8     MSVCRT:thread_safe_statics.obj
 0002:00002498       GS_ExceptionPointers       000000014002e498     MSVCRT:gs_report.obj
 0002:000024d8       $cppxdata$??2@YAPEAX_KAEBUnothrow_t@std@@@Z 000000014002e4d8     MSVCRT:new_scalar_nothrow.obj
 0002:00002c28       ??_7?$_Func_impl_no_alloc@V<lambda_8428100451a99eadb03cdd6da5665923>@@X$$V@std@@6B@ 000000014002ec28     MyWindow.obj
 0002:00002c60       ??_7?$_Func_impl_no_alloc@V<lambda_b08b30c21e5111fbb4fbffe517896bc0>@@X$$V@std@@6B@ 000000014002ec60     MyWindow.obj
 0002:00002c98       ??_7?$_Func_impl_no_alloc@V<lambda_5f9abd3739344823e020e2d1c2ef80c6>@@X$$V@std@@6B@ 000000014002ec98     MyWindow.obj
 0002:00002cd0       ??_7?$_Func_impl_no_alloc@V<lambda_f96e08f4b5f6c13e985e24a004212e97>@@X$$V@std@@6B@ 000000014002ecd0     MyWindow.obj
 0002:00002d08       ??_7?$_Func_impl_no_alloc@V<lambda_b380b310eac20a0affe63a9a70f9138e>@@X$$V@std@@6B@ 000000014002ed08     MyWindow.obj
 0002:00002d40       ??_7?$_Func_impl_no_alloc@V<lambda_3775f2d2be3acf40b03245c878d70ee1>@@X$$V@std@@6B@ 000000014002ed40     MyWindow.obj
 0002:00002d78       ??_7?$_Func_impl_no_alloc@V<lambda_1856210cd80753f453a720b271b36d84>@@X$$V@std@@6B@ 000000014002ed78     MyWindow.obj
 0002:00002fb4       ?piecewise_construct@std@@3Upiecewise_construct_t@1@B 000000014002efb4     Shop.obj
 0002:00002fc0       ??_7?$_Func_impl_no_alloc@V<lambda_e15a1fae8d706ca9371bd1c03b271ef7>@@X$$V@std@@6B@ 000000014002efc0     Shop.obj
 0002:00002ff8       ??_7?$_Func_impl_no_alloc@V<lambda_d2a719c930d707c67105e86afa12be81>@@X$$V@std@@6B@ 000000014002eff8     Shop.obj
 0002:000033a0       ??_7?$_Func_impl_no_alloc@V<lambda_414998facd772942244f71127261ad86>@@X$$V@std@@6B@ 000000014002f3a0     Shop.obj
 0002:000033d8       ??_7?$_Func_impl_no_alloc@V<lambda_e4cb84e2ef1f0348c8ad9af04ceb4c4f>@@X$$V@std@@6B@ 000000014002f3d8     Shop.obj
 0002:00003410       ??_7?$_Func_impl_no_alloc@V<lambda_3de1022e0e4f3428918652e077d8319b>@@X$$V@std@@6B@ 000000014002f410     Shop.obj
 0002:000036a8       $cppxdata$??1?$unique_ptr@V_Facet_base@std@@U?$default_delete@V_Facet_base@std@@@2@@std@@QEAA@XZ 000000014002f6a8     Animation.obj
 0002:000036d0       $cppxdata$??$use_facet@V?$codecvt@DDU_Mbstatet@@@std@@@std@@YAAEBV?$codecvt@DDU_Mbstatet@@@0@AEBVlocale@0@@Z 000000014002f6d0     Animation.obj
 0002:000036f8       $cppxdata$?open@?$basic_filebuf@DU?$char_traits@D@std@@@std@@QEAAPEAV12@PEBDHH@Z 000000014002f6f8     Animation.obj
 0002:00003720       $cppxdata$??1?$basic_filebuf@DU?$char_traits@D@std@@@std@@UEAA@XZ 000000014002f720     Animation.obj
 0002:00003748       $cppxdata$?uflow@?$basic_filebuf@DU?$char_traits@D@std@@@std@@MEAAHXZ 000000014002f748     Animation.obj
 0002:00003770       $cppxdata$??0?$basic_fstream@DU?$char_traits@D@std@@@std@@QEAA@PEBDHH@Z 000000014002f770     Animation.obj
 0002:00003798       $cppxdata$?SetJoints@Animation@@QEAAXM@Z 000000014002f798     Animation.obj
 0002:000037c0       $cppxdata$?LerpJoints@Animation@@QEAA?AV?$vector@V?$array@Ufloat4@@$03@std@@V?$allocator@V?$array@Ufloat4@@$03@std@@@2@@std@@V23@0MV?$vector@HV?$allocator@H@std@@@3@@Z 000000014002f7c0     Animation.obj
 0002:000037e8       $cppxdata$?ReadAnimFile@Animation@@QEAAXPEBDPEAUID3D11Device@@@Z 000000014002f7e8     Animation.obj
 0002:00003810       $cppxdata$??0Animation@@QEAA@PEBDPEAUID3D11Device@@@Z 000000014002f810     Animation.obj
 0002:00003838       $cppxdata$?Flatten@Animation@@QEAA?AV?$vector@V?$array@Ufloat4@@$03@std@@V?$allocator@V?$array@Ufloat4@@$03@std@@@2@@std@@V23@V?$vector@HV?$allocator@H@std@@@3@@Z 000000014002f838     Animation.obj
 0002:00003860       $cppxdata$??1locale@std@@QEAA@XZ 000000014002f860     Animation.obj
 0002:00003cd0       $cppxdata$?Initialize@Bullet@@QEAA_NPEAUID3D11Device@@PEBDUfloat3@@2V?$basic_string@DU?$char_traits@D@std@@V?$allocator@D@2@@std@@M@Z 000000014002fcd0     Bullet.obj
 0002:00003cf8       $cppxdata$??0Bullet@@QEAA@M@Z 000000014002fcf8     Bullet.obj
 0002:00003d20       $cppxdata$?SubHealth@Enemy@@QEAAXMW4DamageType@1@PEAUHWND__@@@Z 000000014002fd20     Enemy.obj
 0002:00003d48       $cppxdata$?Update@EnemyManager@@QEAAXMPEAVPlayer@@V?$vector@PEAVGameObject@@V?$allocator@PEAVGameObject@@@std@@@std@@AEAV?$vector@PEAVBullet@@V?$allocator@PEAVBullet@@@std@@@4@PEAUID3D11Device@@@Z 000000014002fd48     EnemyManager.obj
 0002:00003d70       $cppxdata$?Initialize@EnemyManager@@QEAAXPEAUID3D11Device@@@Z 000000014002fd70     EnemyManager.obj
 0002:00003d98       $cppxdata$??0?$vector@Ukeyframe@@V?$allocator@Ukeyframe@@@std@@@std@@QEAA@AEBV01@@Z 000000014002fd98     GameObject.obj
 0002:00003dc0       $cppxdata$?GetParent@GameObject@@QEAAHHV?$vector@HV?$allocator@H@std@@@std@@@Z 000000014002fdc0     GameObject.obj
 0002:00003de8       $cppxdata$?AddAninimation@GameObject@@QEAAXPEBDPEAUID3D11Device@@H@Z 000000014002fde8     GameObject.obj
 0002:00003e10       $cppxdata$??0GameObject@@QEAA@XZ 000000014002fe10     GameObject.obj
 0002:00003e38       $cppxdata$??1?$function@$$A6AXXZ@std@@QEAA@XZ 000000014002fe38     graphicsclass.obj
 0002:00003e38       $cppxdata$??1?$_Func_class@X$$V@std@@QEAA@XZ 000000014002fe38     graphicsclass.obj
 0002:00003e60       $cppxdata$?Render@Graphics@@QEAA_NPEAVInputManager@@PEAVPlayer@@V?$vector@PEAVBullet@@V?$allocator@PEAVBullet@@@std@@@std@@V?$vector@PEAVEnemy@@V?$allocator@PEAVEnemy@@@std@@@5@V?$vector@PEAVGameObject@@V?$allocator@PEAVGameObject@@@std@@@5@V?$vector@PEAVPickup@@V?$allocator@PEAVPickup@@@std@@@5@@Z 000000014002fe60     graphicsclass.obj
 0002:00003e88       $cppxdata$?Initialize@Graphics@@QEAA_NHHPEAUHWND__@@PEAVInputManager@@@Z 000000014002fe88     graphicsclass.obj
 0002:00003eb0       $cppxdata$?ShutDown@GameManager@@QEAAXXZ 000000014002feb0     GameManager.obj
 0002:00003ed8       $cppxdata$?Initialize@GameManager@@QEAA_NHHPEAUHWND__@@@Z 000000014002fed8     GameManager.obj
 0002:00003f00       $cppxdata$?Update@GameManager@@QEAAXMM@Z 000000014002ff00     GameManager.obj
 0002:00003f28       $cppxdata$?SpawnDamagePickup@GameManager@@QEAAXUfloat3@@@Z 000000014002ff28     GameManager.obj
 0002:00003f50       $cppxdata$?SpawnHealthPickup@GameManager@@QEAAXUfloat3@@@Z 000000014002ff50     GameManager.obj
 0002:00003f78       $cppxdata$?ShootBullets@GameManager@@QEAAXXZ 000000014002ff78     GameManager.obj
 0002:00003fa0       $cppxdata$?UpdateDamageTimerText@GameManager@@QEAAXXZ 000000014002ffa0     GameManager.obj
 0002:00003fc8       $cppxdata$?UpdateTimerText@GameManager@@QEAAXM@Z 000000014002ffc8     GameManager.obj
 0002:00003ff0       $cppxdata$?UpdateHealthText@GameManager@@QEAAXXZ 000000014002fff0     GameManager.obj
 0002:00004018       $cppxdata$?UpdateScoreText@GameManager@@QEAAXXZ 0000000140030018     GameManager.obj
 0002:00004040       $cppxdata$??0GameManager@@QEAA@XZ 0000000140030040     GameManager.obj
 0002:00004068       $cppxdata$?ReadMeshFile@Model@@AEAAXPEBDPEAUID3D11Device@@@Z 0000000140030068     Model.obj
 0002:00004090       $cppxdata$?_Reset_move@?$_Func_class@X$$V@std@@IEAAX$$QEAV12@@Z 0000000140030090     MyWindow.obj
 0002:000040b8       $cppxdata$??$?HDU?$char_traits@D@std@@V?$allocator@D@1@@std@@YA?AV?$basic_string@DU?$char_traits@D@std@@V?$allocator@D@2@@0@QEBDAEBV10@@Z 00000001400300b8     MyWindow.obj
 0002:000040e0       $cppxdata$?Initialize@MyWindow@@QEAA_NXZ 00000001400300e0     MyWindow.obj
 0002:00004108       $cppxdata$?Run@MyWindow@@AEAA_NXZ 0000000140030108     MyWindow.obj
 0002:00004130       $cppxdata$?SetSkeletonLines@Player@@QEAA?AV?$vector@V?$array@Ufloat4@@$03@std@@V?$allocator@V?$array@Ufloat4@@$03@std@@@2@@std@@Uanim_clip@@0MM@Z 0000000140030130     Player.obj
 0002:00004158       $cppxdata$?Update@Player@@UEAAXM@Z 0000000140030158     Player.obj
 0002:00004180       $cppxdata$?Attack@RangedEnemy@@QEAAXPEAVPlayer@@AEAV?$vector@PEAVBullet@@V?$allocator@PEAVBullet@@@std@@@std@@PEAUID3D11Device@@@Z 0000000140030180     RangedEnemy.obj
 0002:000041a8       $cppxdata$??0RangedEnemy@@QEAA@XZ 00000001400301a8     RangedEnemy.obj
 0002:000041d0       $cppxdata$??$_Insert_nohint@AEAU?$pair@$$CBV?$basic_string@DU?$char_traits@D@std@@V?$allocator@D@2@@std@@PEAUItem@Shop@@@std@@PEAU?$_Tree_node@U?$pair@$$CBV?$basic_string@DU?$char_traits@D@std@@V?$allocator@D@2@@std@@PEAUItem@Shop@@@std@@PEAX@2@@?$_Tree@V?$_Tmap_traits@V?$basic_string@DU?$char_traits@D@std@@V?$allocator@D@2@@std@@PEAUItem@Shop@@U?$less@V?$basic_string@DU?$char_traits@D@std@@V?$allocator@D@2@@std@@@2@V?$allocator@U?$pair@$$CBV?$basic_string@DU?$char_traits@D@std@@V?$allocator@D@2@@std@@PEAUItem@Shop@@@std@@@2@$0A@@std@@@std@@IEAA?AU?$pair@V?$_Tree_iterator@V?$_Tree_val@U?$_Tree_simple_types@U?$pair@$$CBV?$basic_string@DU?$char_traits@D@std@@V?$allocator@D@2@@std@@PEAUItem@Shop@@@std@@@std@@@std@@@std@@_N@1@_NAEAU?$pair@$$CBV?$basic_string@DU?$char_traits@D@std@@V?$allocator@D@2@@std@@PEAUItem@Shop@@@1@PEAU?$_Tree_node@U?$pair@$$CBV?$basic_string@DU?$char_traits@D@std@@V?$allocator@D@2@@std@@PEAUItem@Shop@@@std@@PEAX@1@@Z 00000001400301d0     Shop.obj
 0002:000041d0       $cppxdata$??$_Insert_nohint@AEAU?$pair@$$CBV?$basic_string@DU?$char_traits@D@std@@V?$allocator@D@2@@std@@PEAVUIElement@@@std@@PEAU?$_Tree_node@U?$pair@$$CBV?$basic_string@DU?$char_traits@D@std@@V?$allocator@D@2@@std@@PEAVUIElement@@@std@@PEAX@2@@?$_Tree@V?$_Tmap_traits@V?$basic_string@DU?$char_traits@D@std@@V?$allocator@D@2@@std@@PEAVUIElement@@U?$less@V?$basic_string@DU?$char_traits@D@std@@V?$allocator@D@2@@std@@@2@V?$allocator@U?$pair@$$CBV?$basic_string@DU?$char_traits@D@std@@V?$allocator@D@2@@std@@PEAVUIElement@@@std@@@2@$0A@@std@@@std@@IEAA?AU?$pair@V?$_Tree_iterator@V?$_Tree_val@U?$_Tree_simple_types@U?$pair@$$CBV?$basic_string@DU?$char_traits@D@std@@V?$allocator@D@2@@std@@PEAVUIElement@@@std@@@std@@@std@@@std@@_N@1@_NAEAU?$pair@$$CBV?$basic_string@DU?$char_traits@D@std@@V?$allocator@D@2@@std@@PEAVUIElement@@@1@PEAU?$_Tree_node@U?$pair@$$CBV?$basic_string@DU?$char_traits@D@std@@V?$allocator@D@2@@std@@PEAVUIElement@@@std@@PEAX@1@@Z 00000001400301d0     Shop.obj
 0002:000041f8       $cppxdata$??$_Insert_hint@AEAU?$pair@$$CBV?$basic_string@DU?$char_traits@D@std@@V?$allocator@D@2@@std@@PEAVUIElement@@@std@@PEAU?$_Tree_node@U?$pair@$$CBV?$basic_string@DU?$char_traits@D@std@@V?$allocator@D@2@@std@@PEAVUIElement@@@std@@PEAX@2@@?$_Tree@V?$_Tmap_traits@V?$basic_string@DU?$char_traits@D@std@@V?$allocator@D@2@@std@@PEAVUIElement@@U?$less@V?$basic_string@DU?$char_traits@D@std@@V?$allocator@D@2@@std@@@2@V?$allocator@U?$pair@$$CBV?$basic_string@DU?$char_traits@D@std@@V?$allocator@D@2@@std@@PEAVUIElement@@@std@@@2@$0A@@std@@@std@@IEAA?AV?$_Tree_iterator@V?$_Tree_val@U?$_Tree_simple_types@U?$pair@$$CBV?$basic_string@DU?$char_traits@D@std@@V?$allocator@D@2@@std@@PEAVUIElement@@@std@@@std@@@std@@@1@V?$_Tree_const_iterator@V?$_Tree_val@U?$_Tree_simple_types@U?$pair@$$CBV?$basic_string@DU?$char_traits@D@std@@V?$allocator@D@2@@std@@PEAVUIElement@@@std@@@std@@@std@@@1@AEAU?$pair@$$CBV?$basic_string@DU?$char_traits@D@std@@V?$allocator@D@2@@std@@PEAVUIElement@@@1@PEAU?$_Tree_node@U?$pair@$$CBV?$basic_string@DU?$char_traits@D@std@@V?$allocator@D@2@@std@@PEAVUIElement@@@std@@PEAX@1@@Z 00000001400301f8     Shop.obj
 0002:000041f8       $cppxdata$??$_Insert_hint@AEAU?$pair@$$CBV?$basic_string@DU?$char_traits@D@std@@V?$allocator@D@2@@std@@PEAUItem@Shop@@@std@@PEAU?$_Tree_node@U?$pair@$$CBV?$basic_string@DU?$char_traits@D@std@@V?$allocator@D@2@@std@@PEAUItem@Shop@@@std@@PEAX@2@@?$_Tree@V?$_Tmap_traits@V?$basic_string@DU?$char_traits@D@std@@V?$allocator@D@2@@std@@PEAUItem@Shop@@U?$less@V?$basic_string@DU?$char_traits@D@std@@V?$allocator@D@2@@std@@@2@V?$allocator@U?$pair@$$CBV?$basic_string@DU?$char_traits@D@std@@V?$allocator@D@2@@std@@PEAUItem@Shop@@@std@@@2@$0A@@std@@@std@@IEAA?AV?$_Tree_iterator@V?$_Tree_val@U?$_Tree_simple_types@U?$pair@$$CBV?$basic_string@DU?$char_traits@D@std@@V?$allocator@D@2@@std@@PEAUItem@Shop@@@std@@@std@@@std@@@1@V?$_Tree_const_iterator@V?$_Tree_val@U?$_Tree_simple_types@U?$pair@$$CBV?$basic_string@DU?$char_traits@D@std@@V?$allocator@D@2@@std@@PEAUItem@Shop@@@std@@@std@@@std@@@1@AEAU?$pair@$$CBV?$basic_string@DU?$char_traits@D@std@@V?$allocator@D@2@@std@@PEAUItem@Shop@@@1@PEAU?$_Tree_node@U?$pair@$$CBV?$basic_string@DU?$char_traits@D@std@@V?$allocator@D@2@@std@@PEAUItem@Shop@@@std@@PEAX@1@@Z 00000001400301f8     Shop.obj
 0002:00004220       $cppxdata$?erase@?$_Tree@V?$_Tmap_traits@V?$basic_string@DU?$char_traits@D@std@@V?$allocator@D@2@@std@@PEAVUIElement@@U?$less@V?$basic_string@DU?$char_traits@D@std@@V?$allocator@D@2@@std@@@2@V?$allocator@U?$pair@$$CBV?$basic_string@DU?$char_traits@D@std@@V?$allocator@D@2@@std@@PEAVUIElement@@@std@@@2@$0A@@std@@@std@@QEAA?AV?$_Tree_iterator@V?$_Tree_val@U?$_Tree_simple_types@U?$pair@$$CBV?$basic_string@DU?$char_traits@D@std@@V?$allocator@D@2@@std@@PEAVUIElement@@@std@@@std@@@std@@@2@V?$_Tree_const_iterator@V?$_Tree_val@U?$_Tree_simple_types@U?$pair@$$CBV?$basic_string@DU?$char_traits@D@std@@V?$allocator@D@2@@std@@PEAVUIElement@@@std@@@std@@@std@@@2@0@Z 0000000140030220     Shop.obj
 0002:00004220       $cppxdata$?erase@?$_Tree@V?$_Tmap_traits@V?$basic_string@DU?$char_traits@D@std@@V?$allocator@D@2@@std@@PEAUItem@Shop@@U?$less@V?$basic_string@DU?$char_traits@D@std@@V?$allocator@D@2@@std@@@2@V?$allocator@U?$pair@$$CBV?$basic_string@DU?$char_traits@D@std@@V?$allocator@D@2@@std@@PEAUItem@Shop@@@std@@@2@$0A@@std@@@std@@QEAA?AV?$_Tree_iterator@V?$_Tree_val@U?$_Tree_simple_types@U?$pair@$$CBV?$basic_string@DU?$char_traits@D@std@@V?$allocator@D@2@@std@@PEAUItem@Shop@@@std@@@std@@@std@@@2@V?$_Tree_const_iterator@V?$_Tree_val@U?$_Tree_simple_types@U?$pair@$$CBV?$basic_string@DU?$char_traits@D@std@@V?$allocator@D@2@@std@@PEAUItem@Shop@@@std@@@std@@@std@@@2@0@Z 0000000140030220     Shop.obj
 0002:00004248       $cppxdata$?ShowMeleStats@Shop@@QEAAXXZ 0000000140030248     Shop.obj
 0002:00004270       $cppxdata$?ShowPistolStats@Shop@@QEAAXXZ 0000000140030270     Shop.obj
 0002:00004298       $cppxdata$?ShowSMGStats@Shop@@QEAAXXZ 0000000140030298     Shop.obj
 0002:000042c0       $cppxdata$?ShowARStats@Shop@@QEAAXXZ 00000001400302c0     Shop.obj
 0002:000042e8       $cppxdata$??0Item@Shop@@QEAA@W4WEAPONTYPE@1@MMMMV?$basic_string@DU?$char_traits@D@std@@V?$allocator@D@2@@std@@@Z 00000001400302e8     Shop.obj
 0002:00004310       $cppxdata$??1Shop@@QEAA@XZ 0000000140030310     Shop.obj
 0002:00004338       $cppxdata$?Update@Shop@@QEAAXXZ 0000000140030338     Shop.obj
 0002:00004360       $cppxdata$?Initialize@Shop@@QEAA_NXZ 0000000140030360     Shop.obj
 0002:00004388       $cppxdata$??1_Sentry_base@?$basic_ostream@DU?$char_traits@D@std@@@std@@QEAA@XZ 0000000140030388     SkyboxShader.obj
 0002:000043b0       $cppxdata$??1sentry@?$basic_ostream@DU?$char_traits@D@std@@@std@@QEAA@XZ 00000001400303b0     SkyboxShader.obj
 0002:000043d8       $cppxdata$??$?6U?$char_traits@D@std@@@std@@YAAEAV?$basic_ostream@DU?$char_traits@D@std@@@0@AEAV10@D@Z 00000001400303d8     SkyboxShader.obj
 0002:00004400       $cppxdata$??0?$basic_ofstream@DU?$char_traits@D@std@@@std@@QEAA@XZ 0000000140030400     SkyboxShader.obj
 0002:00004428       $cppxdata$?ProcessShaderErrors@StaticShader@@AEAAXPEAUID3D10Blob@@@Z 0000000140030428     StaticShader.obj
 0002:00004428       $cppxdata$?ProcessShaderErrors@AnimatedShader@@AEAAXPEAUID3D10Blob@@@Z 0000000140030428     shaderstuff.obj
 0002:00004428       $cppxdata$?ProcessShaderErrors@SkyboxShader@@AEAAXPEAUID3D10Blob@@@Z 0000000140030428     SkyboxShader.obj
 0002:00004450       $cppxdata$??0TextElement@@QEAA@UtagRECT@@_N1Ufloat2@@HPEAD@Z 0000000140030450     UIElement.obj
 0002:00004478       $cppxdata$??1UIElement@@QEAA@XZ 0000000140030478     UIElement.obj
 0002:000044a0       $cppxdata$??0Target@@QEAA@XZ 00000001400304a0     Target.obj
 0002:000044c8       $cppxdata$?CreateButton@UIManager@@QEAAPEAVUIElement@@UtagRECT@@_N1Ufloat2@@PEAUID3D11Device@@HPEBD@Z 00000001400304c8     UIManager.obj
 0002:000044f0       $cppxdata$?CreateText@UIManager@@QEAAPEAVUIElement@@UtagRECT@@_N1Ufloat2@@HV?$basic_string@DU?$char_traits@D@std@@V?$allocator@D@2@@std@@@Z 00000001400304f0     UIManager.obj
 0002:00004518       $cppxdata$?CreateImage@UIManager@@QEAAPEAVUIElement@@UtagRECT@@_N1Ufloat2@@PEBDPEAUID3D11Device@@@Z 0000000140030518     UIManager.obj
 0002:00004540       $cppxdata$?CreateText@UIManager@@QEAAPEAVUIElement@@UtagRECT@@_N1Ufloat2@@HPEBD@Z 0000000140030540     UIManager.obj
 0002:00004568       $cppxdata$?CreateWICTextureFromFileEx@DirectX@@YAJPEAUID3D11Device@@PEAUID3D11DeviceContext@@PEB_W_KW4D3D11_USAGE@@IIIIPEAPEAUID3D11Resource@@PEAPEAUID3D11ShaderResourceView@@@Z 0000000140030568     WICTextureLoader.obj
 0002:00004590       $cppxdata$?CreateTextureFromWIC@?A0x045efb5a@@YAJPEAUID3D11Device@@PEAUID3D11DeviceContext@@PEAUIWICBitmapFrameDecode@@_KW4D3D11_USAGE@@IIIIPEAPEAUID3D11Resource@@PEAPEAUID3D11ShaderResourceView@@@Z 0000000140030590     WICTextureLoader.obj
 0002:000045b8       $cppxdata$?_WICBitsPerPixel@?A0x045efb5a@@YA_KAEBU_GUID@@@Z 00000001400305b8     WICTextureLoader.obj
 0002:000045e0       $cppxdata$?UpdateShaderBuffers@AnimatedShader@@AEAA_NPEAUID3D11DeviceContext@@UXMMATRIX@DirectX@@11PEAUID3D11ShaderResourceView@@UXMFLOAT3@4@UXMFLOAT4@4@V?$vector@V?$array@Ufloat4@@$03@std@@V?$allocator@V?$array@Ufloat4@@$03@std@@@2@@std@@QEAU74@64444444@Z 00000001400305e0     shaderstuff.obj
 0002:000056a8       ??_R1A@?0A@EA@?$_Func_impl_no_alloc@V<lambda_b08b30c21e5111fbb4fbffe517896bc0>@@X$$V@std@@8 00000001400316a8     MyWindow.obj
 0002:000056d0       ??_R3?$_Func_impl_no_alloc@V<lambda_1856210cd80753f453a720b271b36d84>@@X$$V@std@@8 00000001400316d0     MyWindow.obj
 0002:000056e8       ??_R3?$_Func_impl_no_alloc@V<lambda_5f9abd3739344823e020e2d1c2ef80c6>@@X$$V@std@@8 00000001400316e8     MyWindow.obj
 0002:00005700       ??_R1A@?0A@EA@?$_Func_impl_no_alloc@V<lambda_f96e08f4b5f6c13e985e24a004212e97>@@X$$V@std@@8 0000000140031700     MyWindow.obj
 0002:00005728       ??_R2?$_Func_impl_no_alloc@V<lambda_b380b310eac20a0affe63a9a70f9138e>@@X$$V@std@@8 0000000140031728     MyWindow.obj
 0002:00005758       ??_R2?$_Func_impl_no_alloc@V<lambda_b08b30c21e5111fbb4fbffe517896bc0>@@X$$V@std@@8 0000000140031758     MyWindow.obj
 0002:00005770       ??_R2?$_Func_impl_no_alloc@V<lambda_3775f2d2be3acf40b03245c878d70ee1>@@X$$V@std@@8 0000000140031770     MyWindow.obj
 0002:00005788       ??_R1A@?0A@EA@?$_Func_impl_no_alloc@V<lambda_5f9abd3739344823e020e2d1c2ef80c6>@@X$$V@std@@8 0000000140031788     MyWindow.obj
 0002:000057b0       ??_R3?$_Func_impl_no_alloc@V<lambda_b380b310eac20a0affe63a9a70f9138e>@@X$$V@std@@8 00000001400317b0     MyWindow.obj
 0002:000057c8       ??_R4?$_Func_impl_no_alloc@V<lambda_8428100451a99eadb03cdd6da5665923>@@X$$V@std@@6B@ 00000001400317c8     MyWindow.obj
 0002:000057f0       ??_R1A@?0A@EA@?$_Func_impl_no_alloc@V<lambda_1856210cd80753f453a720b271b36d84>@@X$$V@std@@8 00000001400317f0     MyWindow.obj
 0002:00005818       ??_R3?$_Func_impl_no_alloc@V<lambda_3775f2d2be3acf40b03245c878d70ee1>@@X$$V@std@@8 0000000140031818     MyWindow.obj
 0002:00005830       ??_R4?$_Func_impl_no_alloc@V<lambda_1856210cd80753f453a720b271b36d84>@@X$$V@std@@6B@ 0000000140031830     MyWindow.obj
 0002:00005868       ??_R2?$_Func_impl_no_alloc@V<lambda_f96e08f4b5f6c13e985e24a004212e97>@@X$$V@std@@8 0000000140031868     MyWindow.obj
 0002:000058a8       ??_R2?$_Func_impl_no_alloc@V<lambda_5f9abd3739344823e020e2d1c2ef80c6>@@X$$V@std@@8 00000001400318a8     MyWindow.obj
 0002:000058c0       ??_R2?$_Func_impl_no_alloc@V<lambda_8428100451a99eadb03cdd6da5665923>@@X$$V@std@@8 00000001400318c0     MyWindow.obj
 0002:000058d8       ??_R4?$_Func_impl_no_alloc@V<lambda_f96e08f4b5f6c13e985e24a004212e97>@@X$$V@std@@6B@ 00000001400318d8     MyWindow.obj
 0002:00005900       ??_R4?$_Func_impl_no_alloc@V<lambda_b380b310eac20a0affe63a9a70f9138e>@@X$$V@std@@6B@ 0000000140031900     MyWindow.obj
 0002:00005928       ??_R3?$_Func_impl_no_alloc@V<lambda_f96e08f4b5f6c13e985e24a004212e97>@@X$$V@std@@8 0000000140031928     MyWindow.obj
 0002:00005940       ??_R4?$_Func_impl_no_alloc@V<lambda_b08b30c21e5111fbb4fbffe517896bc0>@@X$$V@std@@6B@ 0000000140031940     MyWindow.obj
 0002:00005968       ??_R3?$_Func_impl_no_alloc@V<lambda_b08b30c21e5111fbb4fbffe517896bc0>@@X$$V@std@@8 0000000140031968     MyWindow.obj
 0002:00005980       ??_R1A@?0A@EA@?$_Func_impl_no_alloc@V<lambda_3775f2d2be3acf40b03245c878d70ee1>@@X$$V@std@@8 0000000140031980     MyWindow.obj
 0002:000059a8       ??_R4?$_Func_impl_no_alloc@V<lambda_3775f2d2be3acf40b03245c878d70ee1>@@X$$V@std@@6B@ 00000001400319a8     MyWindow.obj
 0002:000059d0       ??_R2?$_Func_impl_no_alloc@V<lambda_1856210cd80753f453a720b271b36d84>@@X$$V@std@@8 00000001400319d0     MyWindow.obj
 0002:000059e8       ??_R1A@?0A@EA@?$_Func_impl_no_alloc@V<lambda_8428100451a99eadb03cdd6da5665923>@@X$$V@std@@8 00000001400319e8     MyWindow.obj
 0002:00005a10       ??_R4?$_Func_impl_no_alloc@V<lambda_5f9abd3739344823e020e2d1c2ef80c6>@@X$$V@std@@6B@ 0000000140031a10     MyWindow.obj
 0002:00005a38       ??_R3?$_Func_impl_no_alloc@V<lambda_8428100451a99eadb03cdd6da5665923>@@X$$V@std@@8 0000000140031a38     MyWindow.obj
 0002:00005a50       ??_R1A@?0A@EA@?$_Func_impl_no_alloc@V<lambda_b380b310eac20a0affe63a9a70f9138e>@@X$$V@std@@8 0000000140031a50     MyWindow.obj
 0002:00005c00       ??_R4?$_Func_impl_no_alloc@V<lambda_e15a1fae8d706ca9371bd1c03b271ef7>@@X$$V@std@@6B@ 0000000140031c00     Shop.obj
 0002:00005c28       ??_R3?$_Func_impl_no_alloc@V<lambda_e4cb84e2ef1f0348c8ad9af04ceb4c4f>@@X$$V@std@@8 0000000140031c28     Shop.obj
 0002:00005c40       ??_R4?$_Func_impl_no_alloc@V<lambda_e4cb84e2ef1f0348c8ad9af04ceb4c4f>@@X$$V@std@@6B@ 0000000140031c40     Shop.obj
 0002:00005c68       ??_R2?$_Func_impl_no_alloc@V<lambda_d2a719c930d707c67105e86afa12be81>@@X$$V@std@@8 0000000140031c68     Shop.obj
 0002:00005c80       ??_R3?$_Func_impl_no_alloc@V<lambda_d2a719c930d707c67105e86afa12be81>@@X$$V@std@@8 0000000140031c80     Shop.obj
 0002:00005c98       ??_R3?$_Func_impl_no_alloc@V<lambda_414998facd772942244f71127261ad86>@@X$$V@std@@8 0000000140031c98     Shop.obj
 0002:00005cb0       ??_R1A@?0A@EA@?$_Func_impl_no_alloc@V<lambda_3de1022e0e4f3428918652e077d8319b>@@X$$V@std@@8 0000000140031cb0     Shop.obj
 0002:00005cd8       ??_R1A@?0A@EA@?$_Func_impl_no_alloc@V<lambda_414998facd772942244f71127261ad86>@@X$$V@std@@8 0000000140031cd8     Shop.obj
 0002:00005d00       ??_R2?$_Func_impl_no_alloc@V<lambda_e15a1fae8d706ca9371bd1c03b271ef7>@@X$$V@std@@8 0000000140031d00     Shop.obj
 0002:00005d18       ??_R1A@?0A@EA@?$_Func_impl_no_alloc@V<lambda_e15a1fae8d706ca9371bd1c03b271ef7>@@X$$V@std@@8 0000000140031d18     Shop.obj
 0002:00005d40       ??_R1A@?0A@EA@?$_Func_impl_no_alloc@V<lambda_d2a719c930d707c67105e86afa12be81>@@X$$V@std@@8 0000000140031d40     Shop.obj
 0002:00005d68       ??_R1A@?0A@EA@?$_Func_impl_no_alloc@V<lambda_e4cb84e2ef1f0348c8ad9af04ceb4c4f>@@X$$V@std@@8 0000000140031d68     Shop.obj
 0002:00005d90       ??_R4?$_Func_impl_no_alloc@V<lambda_d2a719c930d707c67105e86afa12be81>@@X$$V@std@@6B@ 0000000140031d90     Shop.obj
 0002:00005db8       ??_R2?$_Func_impl_no_alloc@V<lambda_3de1022e0e4f3428918652e077d8319b>@@X$$V@std@@8 0000000140031db8     Shop.obj
 0002:00005dd0       ??_R3?$_Func_impl_no_alloc@V<lambda_3de1022e0e4f3428918652e077d8319b>@@X$$V@std@@8 0000000140031dd0     Shop.obj
 0002:00005de8       ??_R4?$_Func_impl_no_alloc@V<lambda_3de1022e0e4f3428918652e077d8319b>@@X$$V@std@@6B@ 0000000140031de8     Shop.obj
 0002:00005e10       ??_R2?$_Func_impl_no_alloc@V<lambda_414998facd772942244f71127261ad86>@@X$$V@std@@8 0000000140031e10     Shop.obj
 0002:00005e28       ??_R2?$_Func_impl_no_alloc@V<lambda_e4cb84e2ef1f0348c8ad9af04ceb4c4f>@@X$$V@std@@8 0000000140031e28     Shop.obj
 0002:00005e40       ??_R4?$_Func_impl_no_alloc@V<lambda_414998facd772942244f71127261ad86>@@X$$V@std@@6B@ 0000000140031e40     Shop.obj
 0002:00005e68       ??_R3?$_Func_impl_no_alloc@V<lambda_e15a1fae8d706ca9371bd1c03b271ef7>@@X$$V@std@@8 0000000140031e68     Shop.obj
 0002:00006600       $unwind$??0bad_array_new_length@std@@QEAA@AEBV01@@Z 0000000140032600     MSVCRT:throw_bad_alloc.obj
 0002:00006600       $unwind$__raise_securityfailure 0000000140032600     MSVCRT:gs_report.obj
 0002:00006600       $unwind$??1?$shared_ptr@UDeviceResources@Impl@SpriteBatch@DirectX@@@std@@QEAA@XZ 0000000140032600     DirectXTK:SpriteBatch.obj
 0002:00006600       $unwind$??1?$pair@PEAUID3D11DeviceContext@@V?$shared_ptr@UWrappedData@?$SharedResourcePool@PEAUID3D11DeviceContext@@UContextResources@Impl@SpriteBatch@DirectX@@$$V@DirectX@@@std@@@std@@QEAA@XZ 0000000140032600     DirectXTK:SpriteBatch.obj
 0002:00006600       $unwind$??1?$shared_ptr@UWrappedData@?$SharedResourcePool@PEAUID3D11DeviceContext@@UContextResources@Impl@SpriteBatch@DirectX@@$$V@DirectX@@@std@@QEAA@XZ 0000000140032600     DirectXTK:SpriteBatch.obj
 0002:00006600       $unwind$??1?$vector@UGlyph@SpriteFont@DirectX@@V?$allocator@UGlyph@SpriteFont@DirectX@@@std@@@std@@QEAA@XZ 0000000140032600     DirectXTK:SpriteFont.obj
 0002:00006600       $unwind$?_Destroy_if_node@?$_Tree@V?$_Tmap_traits@PEAUID3D11DeviceContext@@V?$weak_ptr@UContextResources@Impl@SpriteBatch@DirectX@@@std@@U?$less@PEAUID3D11DeviceContext@@@3@V?$allocator@U?$pair@QEAUID3D11DeviceContext@@V?$weak_ptr@UContextResources@Impl@SpriteBatch@DirectX@@@std@@@std@@@3@$0A@@std@@@std@@IEAAXPEAU?$_Tree_node@U?$pair@QEAUID3D11DeviceContext@@V?$weak_ptr@UContextResources@Impl@SpriteBatch@DirectX@@@std@@@std@@PEAX@2@@Z 0000000140032600     DirectXTK:SpriteBatch.obj
 0002:00006600       $unwind$??1?$vector@PEAVAnimation@@V?$allocator@PEAVAnimation@@@std@@@std@@QEAA@XZ 0000000140032600     GameObject.obj
 0002:00006600       $unwind$??1?$vector@USphere@@V?$allocator@USphere@@@std@@@std@@QEAA@XZ 0000000140032600     GameObject.obj
 0002:00006600       $unwind$?SetText@TextElement@@QEAAXV?$basic_string@DU?$char_traits@D@std@@V?$allocator@D@2@@std@@@Z 0000000140032600     GameManager.obj
 0002:00006600       $unwind$??1?$vector@PEAVGun@@V?$allocator@PEAVGun@@@std@@@std@@QEAA@XZ 0000000140032600     Player.obj
 0002:00006600       $unwind$??__F?instancePool@Impl@CommonStates@DirectX@@2V?$SharedResourcePool@PEAUID3D11Device@@VImpl@CommonStates@DirectX@@$$V@3@A@@YAXXZ 0000000140032600     DirectXTK:CommonStates.obj
 0002:00006600       $unwind$?_Destroy_if_node@?$_Tree@V?$_Tmap_traits@PEAUID3D11Device@@V?$weak_ptr@VImpl@CommonStates@DirectX@@@std@@U?$less@PEAUID3D11Device@@@3@V?$allocator@U?$pair@QEAUID3D11Device@@V?$weak_ptr@VImpl@CommonStates@DirectX@@@std@@@std@@@3@$0A@@std@@@std@@IEAAXPEAU?$_Tree_node@U?$pair@QEAUID3D11Device@@V?$weak_ptr@VImpl@CommonStates@DirectX@@@std@@@std@@PEAX@2@@Z 0000000140032600     DirectXTK:CommonStates.obj
 0002:00006600       $unwind$?Update@Bullet@@UEAAXM@Z 0000000140032600     Bullet.obj
 0002:00006600       $unwind$??1?$shared_ptr@UWrappedData@?$SharedResourcePool@PEAUID3D11Device@@VImpl@CommonStates@DirectX@@$$V@DirectX@@@std@@QEAA@XZ 0000000140032600     DirectXTK:CommonStates.obj
 0002:00006600       $unwind$__scrt_uninitialize_crt 0000000140032600     MSVCRT:utility.obj
 0002:00006600       $unwind$__scrt_initialize_crt 0000000140032600     MSVCRT:utility.obj
 0002:00006600       $unwind$__scrt_release_startup_lock 0000000140032600     MSVCRT:utility.obj
 0002:00006600       $unwind$_onexit            0000000140032600     MSVCRT:utility.obj
 0002:00006600       $unwind$?_Destroy_if_node@?$_Tree@V?$_Tmap_traits@V?$basic_string@DU?$char_traits@D@std@@V?$allocator@D@2@@std@@PEAVUIElement@@U?$less@V?$basic_string@DU?$char_traits@D@std@@V?$allocator@D@2@@std@@@2@V?$allocator@U?$pair@$$CBV?$basic_string@DU?$char_traits@D@std@@V?$allocator@D@2@@std@@PEAVUIElement@@@std@@@2@$0A@@std@@@std@@IEAAXPEAU?$_Tree_node@U?$pair@$$CBV?$basic_string@DU?$char_traits@D@std@@V?$allocator@D@2@@std@@PEAVUIElement@@@std@@PEAX@2@@Z 0000000140032600     Shop.obj
 0002:00006600       $unwind$??0runtime_error@std@@QEAA@AEBV01@@Z 0000000140032600     DirectXTK:SpriteFont.obj
 0002:00006600       $unwind$?_Buynode0@?$_Tree_comp_alloc@V?$_Tmap_traits@V?$basic_string@DU?$char_traits@D@std@@V?$allocator@D@2@@std@@PEAVUIElement@@U?$less@V?$basic_string@DU?$char_traits@D@std@@V?$allocator@D@2@@std@@@2@V?$allocator@U?$pair@$$CBV?$basic_string@DU?$char_traits@D@std@@V?$allocator@D@2@@std@@PEAVUIElement@@@std@@@2@$0A@@std@@@std@@QEAAPEAU?$_Tree_node@U?$pair@$$CBV?$basic_string@DU?$char_traits@D@std@@V?$allocator@D@2@@std@@PEAVUIElement@@@std@@PEAX@2@XZ 0000000140032600     Shop.obj
 0002:00006600       $unwind$?StartNewRound@EnemyManager@@QEAAXXZ 0000000140032600     EnemyManager.obj
 0002:00006600       $unwind$?_Destroy_if_node@?$_Tree@V?$_Tmap_traits@V?$basic_string@DU?$char_traits@D@std@@V?$allocator@D@2@@std@@PEAUItem@Shop@@U?$less@V?$basic_string@DU?$char_traits@D@std@@V?$allocator@D@2@@std@@@2@V?$allocator@U?$pair@$$CBV?$basic_string@DU?$char_traits@D@std@@V?$allocator@D@2@@std@@PEAUItem@Shop@@@std@@@2@$0A@@std@@@std@@IEAAXPEAU?$_Tree_node@U?$pair@$$CBV?$basic_string@DU?$char_traits@D@std@@V?$allocator@D@2@@std@@PEAUItem@Shop@@@std@@PEAX@2@@Z 0000000140032600     Shop.obj
 0002:00006600       $unwind$?pre_c_initialization@@YAHXZ 0000000140032600     MSVCRT:exe_winmain.obj
 0002:00006600       $unwind$?_Buynode0@?$_Tree_comp_alloc@V?$_Tmap_traits@V?$basic_string@DU?$char_traits@D@std@@V?$allocator@D@2@@std@@PEAUItem@Shop@@U?$less@V?$basic_string@DU?$char_traits@D@std@@V?$allocator@D@2@@std@@@2@V?$allocator@U?$pair@$$CBV?$basic_string@DU?$char_traits@D@std@@V?$allocator@D@2@@std@@PEAUItem@Shop@@@std@@@2@$0A@@std@@@std@@QEAAPEAU?$_Tree_node@U?$pair@$$CBV?$basic_string@DU?$char_traits@D@std@@V?$allocator@D@2@@std@@PEAUItem@Shop@@@std@@PEAX@2@XZ 0000000140032600     Shop.obj
 0002:00006600       $unwind$??1?$vector@PEAVGameObject@@V?$allocator@PEAVGameObject@@@std@@@std@@QEAA@XZ 0000000140032600     EnemyManager.obj
 0002:00006600       $unwind$??1?$vector@PEAVEnemy@@V?$allocator@PEAVEnemy@@@std@@@std@@QEAA@XZ 0000000140032600     EnemyManager.obj
 0002:00006600       $unwind$??_G?$_Ref_count_obj@UResourceMap@?$SharedResourcePool@PEAUID3D11Device@@UDeviceResources@Impl@SpriteBatch@DirectX@@$$V@DirectX@@@std@@UEAAPEAXI@Z 0000000140032600     DirectXTK:SpriteBatch.obj
 0002:00006600       $unwind$??_D?$basic_ofstream@DU?$char_traits@D@std@@@std@@QEAAXXZ 0000000140032600     SkyboxShader.obj
 0002:00006600       $unwind$??0bad_cast@std@@QEAA@AEBV01@@Z 0000000140032600     Animation.obj
 0002:00006600       $unwind$??1?$vector@FV?$allocator@F@std@@@std@@QEAA@XZ 0000000140032600     DirectXTK:SpriteBatch.obj
 0002:00006600       $unwind$??$_Buynode@AEBUpiecewise_construct_t@std@@V?$tuple@$$QEAV?$basic_string@DU?$char_traits@D@std@@V?$allocator@D@2@@std@@@2@V?$tuple@$$V@2@@?$_Tree_comp_alloc@V?$_Tmap_traits@V?$basic_string@DU?$char_traits@D@std@@V?$allocator@D@2@@std@@PEAVUIElement@@U?$less@V?$basic_string@DU?$char_traits@D@std@@V?$allocator@D@2@@std@@@2@V?$allocator@U?$pair@$$CBV?$basic_string@DU?$char_traits@D@std@@V?$allocator@D@2@@std@@PEAVUIElement@@@std@@@2@$0A@@std@@@std@@QEAAPEAU?$_Tree_node@U?$pair@$$CBV?$basic_string@DU?$char_traits@D@std@@V?$allocator@D@2@@std@@PEAVUIElement@@@std@@PEAX@1@AEBUpiecewise_construct_t@1@$$QEAV?$tuple@$$QEAV?$basic_string@DU?$char_traits@D@std@@V?$allocator@D@2@@std@@@1@$$QEAV?$tuple@$$V@1@@Z 0000000140032600     Shop.obj
 0002:00006600       $unwind$??_G?$_Ref_count_obj@UWrappedData@?$SharedResourcePool@PEAUID3D11Device@@UDeviceResources@Impl@SpriteBatch@DirectX@@$$V@DirectX@@@std@@UEAAPEAXI@Z 0000000140032600     DirectXTK:SpriteBatch.obj
 0002:00006600       $unwind$_Init_thread_wait  0000000140032600     MSVCRT:thread_safe_statics.obj
 0002:00006600       $unwind$_Init_thread_footer 0000000140032600     MSVCRT:thread_safe_statics.obj
 0002:00006600       $unwind$??_G?$_Ref_count_obj@UResourceMap@?$SharedResourcePool@PEAUID3D11DeviceContext@@UContextResources@Impl@SpriteBatch@DirectX@@$$V@DirectX@@@std@@UEAAPEAXI@Z 0000000140032600     DirectXTK:SpriteBatch.obj
 0002:00006600       $unwind$_Init_thread_header 0000000140032600     MSVCRT:thread_safe_statics.obj
 0002:00006600       $unwind$??_G?$_Ref_count_obj@UResourceMap@?$SharedResourcePool@PEAUID3D11Device@@VImpl@CommonStates@DirectX@@$$V@DirectX@@@std@@UEAAPEAXI@Z 0000000140032600     DirectXTK:CommonStates.obj
 0002:00006600       $unwind$??_Gtype_info@@UEAAPEAXI@Z 0000000140032600     MSVCRT:std_type_info_static.obj
 0002:00006600       $unwind$??0bad_alloc@std@@QEAA@AEBV01@@Z 0000000140032600     DirectXTK:SpriteBatch.obj
 0002:00006600       $unwind$??$_Buynode@AEBUpiecewise_construct_t@std@@V?$tuple@$$QEAV?$basic_string@DU?$char_traits@D@std@@V?$allocator@D@2@@std@@@2@V?$tuple@$$V@2@@?$_Tree_comp_alloc@V?$_Tmap_traits@V?$basic_string@DU?$char_traits@D@std@@V?$allocator@D@2@@std@@PEAUItem@Shop@@U?$less@V?$basic_string@DU?$char_traits@D@std@@V?$allocator@D@2@@std@@@2@V?$allocator@U?$pair@$$CBV?$basic_string@DU?$char_traits@D@std@@V?$allocator@D@2@@std@@PEAUItem@Shop@@@std@@@2@$0A@@std@@@std@@QEAAPEAU?$_Tree_node@U?$pair@$$CBV?$basic_string@DU?$char_traits@D@std@@V?$allocator@D@2@@std@@PEAUItem@Shop@@@std@@PEAX@1@AEBUpiecewise_construct_t@1@$$QEAV?$tuple@$$QEAV?$basic_string@DU?$char_traits@D@std@@V?$allocator@D@2@@std@@@1@$$QEAV?$tuple@$$V@1@@Z 0000000140032600     Shop.obj
 0002:00006600       $unwind$??2@YAPEAX_K@Z     0000000140032600     MSVCRT:new_scalar.obj
 0002:00006600       $unwind$??_G?$_Ref_count_obj@UWrappedData@?$SharedResourcePool@PEAUID3D11DeviceContext@@UContextResources@Impl@SpriteBatch@DirectX@@$$V@DirectX@@@std@@UEAAPEAXI@Z 0000000140032600     DirectXTK:SpriteBatch.obj
 0002:00006600       $unwind$?_Destroy_if_node@?$_Tree@V?$_Tmap_traits@PEAUID3D11Device@@V?$weak_ptr@UDeviceResources@Impl@SpriteBatch@DirectX@@@std@@U?$less@PEAUID3D11Device@@@3@V?$allocator@U?$pair@QEAUID3D11Device@@V?$weak_ptr@UDeviceResources@Impl@SpriteBatch@DirectX@@@std@@@std@@@3@$0A@@std@@@std@@IEAAXPEAU?$_Tree_node@U?$pair@QEAUID3D11Device@@V?$weak_ptr@UDeviceResources@Impl@SpriteBatch@DirectX@@@std@@@std@@PEAX@2@@Z 0000000140032600     DirectXTK:SpriteBatch.obj
 0002:00006600       $unwind$??1?$vector@PEAVSound@@V?$allocator@PEAVSound@@@std@@@std@@QEAA@XZ 0000000140032600     Enemy.obj
 0002:00006600       $unwind$??1?$shared_ptr@UWrappedData@?$SharedResourcePool@PEAUID3D11Device@@UDeviceResources@Impl@SpriteBatch@DirectX@@$$V@DirectX@@@std@@QEAA@XZ 0000000140032600     DirectXTK:SpriteBatch.obj
 0002:00006600       $unwind$??1?$pair@PEAUID3D11Device@@V?$shared_ptr@UWrappedData@?$SharedResourcePool@PEAUID3D11Device@@UDeviceResources@Impl@SpriteBatch@DirectX@@$$V@DirectX@@@std@@@std@@QEAA@XZ 0000000140032600     DirectXTK:SpriteBatch.obj
 0002:00006600       $unwind$?_Tidy_deallocate@?$basic_string@DU?$char_traits@D@std@@V?$allocator@D@2@@std@@QEAAXXZ 0000000140032600     Animation.obj
 0002:00006600       $unwind$??__F?contextResourcesPool@Impl@SpriteBatch@DirectX@@0V?$SharedResourcePool@PEAUID3D11DeviceContext@@UContextResources@Impl@SpriteBatch@DirectX@@$$V@3@A@@YAXXZ 0000000140032600     DirectXTK:SpriteBatch.obj
 0002:00006600       $unwind$?_Tidy@?$vector@V?$array@Ufloat4@@$03@std@@V?$allocator@V?$array@Ufloat4@@$03@std@@@2@@std@@AEAAXXZ 0000000140032600     Animation.obj
 0002:00006600       $unwind$??_G?$_Ref_count_obj@UWrappedData@?$SharedResourcePool@PEAUID3D11Device@@VImpl@CommonStates@DirectX@@$$V@DirectX@@@std@@UEAAPEAXI@Z 0000000140032600     DirectXTK:CommonStates.obj
 0002:00006600       $unwind$?_Tidy@?$vector@UVertex@@V?$allocator@UVertex@@@std@@@std@@AEAAXXZ 0000000140032600     Model.obj
 0002:00006600       $unwind$?_Tidy@?$vector@Ukeyframe@@V?$allocator@Ukeyframe@@@std@@@std@@AEAAXXZ 0000000140032600     Animation.obj
 0002:00006600       $unwind$??__F?deviceResourcesPool@Impl@SpriteBatch@DirectX@@0V?$SharedResourcePool@PEAUID3D11Device@@UDeviceResources@Impl@SpriteBatch@DirectX@@$$V@3@A@@YAXXZ 0000000140032600     DirectXTK:SpriteBatch.obj
 0002:00006600       $unwind$?Update@ButtonElement@@UEAAXXZ 0000000140032600     UIElement.obj
 0002:00006600       $unwind$?_Facet_Register@std@@YAXPEAV_Facet_base@1@@Z 0000000140032600     msvcprt:locale0_implib.obj
 0002:00006600       $unwind$?setbuf@?$basic_filebuf@DU?$char_traits@D@std@@@std@@MEAAPEAV?$basic_streambuf@DU?$char_traits@D@std@@@2@PEAD_J@Z 0000000140032600     Animation.obj
 0002:00006600       $unwind$?sync@?$basic_filebuf@DU?$char_traits@D@std@@@std@@MEAAHXZ 0000000140032600     Animation.obj
 0002:00006600       $unwind$??1?$basic_string@DU?$char_traits@D@std@@V?$allocator@D@2@@std@@QEAA@XZ 0000000140032600     Animation.obj
 0002:00006600       $unwind$??1?$vector@V?$array@D$0BAE@@std@@V?$allocator@V?$array@D$0BAE@@std@@@2@@std@@QEAA@XZ 0000000140032600     Model.obj
 0002:00006600       $unwind$??1?$vector@V?$array@Ufloat4@@$03@std@@V?$allocator@V?$array@Ufloat4@@$03@std@@@2@@std@@QEAA@XZ 0000000140032600     Animation.obj
 0002:00006600       $unwind$??1?$vector@Umaterial_t@@V?$allocator@Umaterial_t@@@std@@@std@@QEAA@XZ 0000000140032600     Model.obj
 0002:00006600       $unwind$??1?$vector@HV?$allocator@H@std@@@std@@QEAA@XZ 0000000140032600     Animation.obj
 0002:00006600       $unwind$??_D?$basic_fstream@DU?$char_traits@D@std@@@std@@QEAAXXZ 0000000140032600     Animation.obj
 0002:00006600       $unwind$??0exception@std@@QEAA@AEBV01@@Z 0000000140032600     Animation.obj
 0002:00006600       $unwind$?Shutdown@Model@@QEAAXXZ 0000000140032600     Model.obj
 0002:00006600       $unwind$??1CommonStates@DirectX@@UEAA@XZ 0000000140032600     DirectXTK:CommonStates.obj
 0002:00006600       $unwind$??1?$pair@PEAUID3D11Device@@V?$shared_ptr@UWrappedData@?$SharedResourcePool@PEAUID3D11Device@@VImpl@CommonStates@DirectX@@$$V@DirectX@@@std@@@std@@QEAA@XZ 0000000140032600     DirectXTK:CommonStates.obj
 0002:00006600       $unwind$??1?$vector@IV?$allocator@I@std@@@std@@QEAA@XZ 0000000140032600     graphicsclass.obj
 0002:00006600       $unwind$??0CommonStates@DirectX@@QEAA@PEAUID3D11Device@@@Z 0000000140032600     DirectXTK:CommonStates.obj
 0002:00006600       $unwind$??1?$vector@PEAVBullet@@V?$allocator@PEAVBullet@@@std@@@std@@QEAA@XZ 0000000140032600     graphicsclass.obj
 0002:00006600       $unwind$??1?$vector@PEAVPickup@@V?$allocator@PEAVPickup@@@std@@@std@@QEAA@XZ 0000000140032600     graphicsclass.obj
 0002:00006600       $unwind$??1?$vector@PEBUSpriteInfo@Impl@SpriteBatch@DirectX@@V?$allocator@PEBUSpriteInfo@Impl@SpriteBatch@DirectX@@@std@@@std@@QEAA@XZ 0000000140032600     DirectXTK:SpriteBatch.obj
 0002:00006600       $unwind$??0overflow_error@std@@QEAA@AEBV01@@Z 0000000140032600     DirectXTK:SpriteFont.obj
 0002:00006600       $unwind$?underflow@?$basic_filebuf@DU?$char_traits@D@std@@@std@@MEAAHXZ 0000000140032600     Animation.obj
 0002:00006608       $unwind$??_GSpriteFont@DirectX@@UEAAPEAXI@Z 0000000140032608     DirectXTK:SpriteFont.obj
 0002:00006608       $unwind$??4?$basic_string@DU?$char_traits@D@std@@V?$allocator@D@2@@std@@QEAAAEAV01@$$QEAV01@@Z 0000000140032608     MyWindow.obj
 0002:00006608       $unwind$??_G?$basic_ofstream@DU?$char_traits@D@std@@@std@@UEAAPEAXI@Z 0000000140032608     SkyboxShader.obj
 0002:00006608       $unwind$??_Gbad_cast@std@@UEAAPEAXI@Z 0000000140032608     Animation.obj
 0002:00006608       $unwind$??_G?$basic_fstream@DU?$char_traits@D@std@@@std@@UEAAPEAXI@Z 0000000140032608     Animation.obj
 0002:00006608       $unwind$?imbue@?$basic_filebuf@DU?$char_traits@D@std@@@std@@MEAAXAEBVlocale@2@@Z 0000000140032608     Animation.obj
 0002:00006608       $unwind$??_G?$basic_filebuf@DU?$char_traits@D@std@@@std@@UEAAPEAXI@Z 0000000140032608     Animation.obj
 0002:00006608       $unwind$?_Buy@?$vector@V?$array@Ufloat4@@$03@std@@V?$allocator@V?$array@Ufloat4@@$03@std@@@2@@std@@AEAA_N_K@Z 0000000140032608     Animation.obj
 0002:00006608       $unwind$??_Gbad_alloc@std@@UEAAPEAXI@Z 0000000140032608     DirectXTK:SpriteBatch.obj
 0002:00006608       $unwind$??_Gruntime_error@std@@UEAAPEAXI@Z 0000000140032608     DirectXTK:SpriteFont.obj
 0002:00006608       $unwind$??_Gcom_exception@DirectX@@UEAAPEAXI@Z 0000000140032608     DirectXTK:SpriteBatch.obj
 0002:00006608       $unwind$??_Gbad_array_new_length@std@@UEAAPEAXI@Z 0000000140032608     MSVCRT:throw_bad_alloc.obj
 0002:00006608       $unwind$?_Buy@?$vector@UGlyph@SpriteFont@DirectX@@V?$allocator@UGlyph@SpriteFont@DirectX@@@std@@@std@@AEAA_N_K@Z 0000000140032608     DirectXTK:SpriteFont.obj
 0002:00006608       $unwind$_RTC_Initialize    0000000140032608     MSVCRT:initsect.obj
 0002:00006608       $unwind$??_Goverflow_error@std@@UEAAPEAXI@Z 0000000140032608     DirectXTK:SpriteFont.obj
 0002:00006608       $unwind$??0com_exception@DirectX@@QEAA@AEBV01@@Z 0000000140032608     DirectXTK:SpriteBatch.obj
 0002:00006608       $unwind$_RTC_Terminate     0000000140032608     MSVCRT:initsect.obj
 0002:00006608       $unwind$??_Gexception@std@@UEAAPEAXI@Z 0000000140032608     Animation.obj
 0002:00006614       $unwind$??1locale@std@@QEAA@XZ 0000000140032614     Animation.obj
 0002:00006628       $ip2state$??1locale@std@@QEAA@XZ 0000000140032628     Animation.obj
 0002:00006630       $unwind$?XMVectorSin@DirectX@@YQ?AT__m128@@T2@@Z 0000000140032630     Animation.obj
 0002:00006630       $unwind$?XMVectorACos@DirectX@@YQ?AT__m128@@T2@@Z 0000000140032630     Camera.obj
 0002:0000663c       $unwind$?XMVectorATan@DirectX@@YQ?AT__m128@@T2@@Z 000000014003263c     Animation.obj
 0002:00006650       $unwind$?XMVectorATan2@DirectX@@YQ?AT__m128@@T2@0@Z 0000000140032650     Animation.obj
 0002:0000667c       $unwind$?XMMatrixMultiply@DirectX@@YQ?AUXMMATRIX@1@U21@AEBU21@@Z 000000014003267c     Animation.obj
 0002:000066a4       $unwind$?XMMatrixInverse@DirectX@@YQ?AUXMMATRIX@1@PEAT__m128@@U21@@Z 00000001400326a4     Animation.obj
 0002:000066d8       $unwind$?XMQuaternionSlerpV@DirectX@@YQ?AT__m128@@T2@00@Z 00000001400326d8     Animation.obj
 0002:000066f8       $unwind$?XMQuaternionRotationMatrix@DirectX@@YQ?AT__m128@@UXMMATRIX@1@@Z 00000001400326f8     Animation.obj
 0002:0000671c       $unwind$??1GameObject@@QEAA@XZ 000000014003271c     GameObject.obj
 0002:0000671c       $unwind$??1anim_clip@@QEAA@XZ 000000014003271c     Animation.obj
 0002:00006728       $unwind$?RecursiveJointCalc@Animation@@QEAA?AV?$array@Ufloat4@@$03@std@@IAEAV?$vector@V?$array@Ufloat4@@$03@std@@V?$allocator@V?$array@Ufloat4@@$03@std@@@2@@3@AEAV?$vector@HV?$allocator@H@std@@@3@@Z 0000000140032728     Animation.obj
 0002:00006740       $unwind$?Flatten@Animation@@QEAA?AV?$vector@V?$array@Ufloat4@@$03@std@@V?$allocator@V?$array@Ufloat4@@$03@std@@@2@@std@@V23@V?$vector@HV?$allocator@H@std@@@3@@Z 0000000140032740     Animation.obj
 0002:00006760       $stateUnwindMap$?Flatten@Animation@@QEAA?AV?$vector@V?$array@Ufloat4@@$03@std@@V?$allocator@V?$array@Ufloat4@@$03@std@@@2@@std@@V23@V?$vector@HV?$allocator@H@std@@@3@@Z 0000000140032760     Animation.obj
 0002:00006778       $ip2state$?Flatten@Animation@@QEAA?AV?$vector@V?$array@Ufloat4@@$03@std@@V?$allocator@V?$array@Ufloat4@@$03@std@@@2@@std@@V23@V?$vector@HV?$allocator@H@std@@@3@@Z 0000000140032778     Animation.obj
 0002:00006790       $unwind$?dtor$1@?0???__E?instancePool@Impl@CommonStates@DirectX@@2V?$SharedResourcePool@PEAUID3D11Device@@VImpl@CommonStates@DirectX@@$$V@3@A@@YAXXZ@4HA 0000000140032790     DirectXTK:CommonStates.obj
 0002:00006790       $unwind$?dtor$4@?0??Initialize@GameManager@@QEAA_NHHPEAUHWND__@@@Z@4HA 0000000140032790     GameManager.obj
 0002:00006790       $unwind$?filt$0@?0??__scrt_common_main_seh@@YAHXZ@4HA 0000000140032790     MSVCRT:exe_winmain.obj
 0002:00006790       $unwind$?dtor$4@?0???0ContextResources@Impl@SpriteBatch@DirectX@@QEAA@PEAUID3D11DeviceContext@@@Z@4HA 0000000140032790     DirectXTK:SpriteBatch.obj
 0002:00006790       $unwind$?dtor$0@?0??SpawnHealthPickup@GameManager@@QEAAXUfloat3@@@Z@4HA 0000000140032790     GameManager.obj
 0002:00006790       $unwind$?dtor$7@?0??DemandCreate@?$SharedResourcePool@PEAUID3D11DeviceContext@@UContextResources@Impl@SpriteBatch@DirectX@@$$V@DirectX@@QEAA?AV?$shared_ptr@UContextResources@Impl@SpriteBatch@DirectX@@@std@@PEAUID3D11DeviceContext@@@Z@4HA 0000000140032790     DirectXTK:SpriteBatch.obj
 0002:00006790       $unwind$?dtor$11@?0??Initialize@Graphics@@QEAA_NHHPEAUHWND__@@PEAVInputManager@@@Z@4HA 0000000140032790     graphicsclass.obj
 0002:00006790       $unwind$?dtor$1@?0??Update@EnemyManager@@QEAAXMPEAVPlayer@@V?$vector@PEAVGameObject@@V?$allocator@PEAVGameObject@@@std@@@std@@AEAV?$vector@PEAVBullet@@V?$allocator@PEAVBullet@@@std@@@4@PEAUID3D11Device@@@Z@4HA 0000000140032790     EnemyManager.obj
 0002:00006790       $unwind$?dtor$2@?0??Update@EnemyManager@@QEAAXMPEAVPlayer@@V?$vector@PEAVGameObject@@V?$allocator@PEAVGameObject@@@std@@@std@@AEAV?$vector@PEAVBullet@@V?$allocator@PEAVBullet@@@std@@@4@PEAUID3D11Device@@@Z@4HA 0000000140032790     EnemyManager.obj
 0002:00006790       $unwind$?dtor$0@?0??Initialize@GameManager@@QEAA_NHHPEAUHWND__@@@Z@4HA 0000000140032790     GameManager.obj
 0002:00006790       $unwind$?dtor$10@?0??Initialize@Graphics@@QEAA_NHHPEAUHWND__@@PEAVInputManager@@@Z@4HA 0000000140032790     graphicsclass.obj
 0002:00006790       $unwind$?dtor$3@?0???0SpriteFont@DirectX@@QEAA@PEAUID3D11Device@@PEB_W_N@Z@4HA 0000000140032790     DirectXTK:SpriteFont.obj
 0002:00006790       $unwind$?dtor$0@?0??ShootBullets@GameManager@@QEAAXXZ@4HA 0000000140032790     GameManager.obj
 0002:00006790       $unwind$?dtor$0@?0??CreateIndexValues@DeviceResources@Impl@SpriteBatch@DirectX@@CA?AV?$vector@FV?$allocator@F@std@@@std@@XZ@4HA 0000000140032790     DirectXTK:SpriteBatch.obj
 0002:00006790       $unwind$?dtor$0@?0??SpawnDamagePickup@GameManager@@QEAAXUfloat3@@@Z@4HA 0000000140032790     GameManager.obj
 0002:00006790       $unwind$?dtor$7@?0???0ContextResources@Impl@SpriteBatch@DirectX@@QEAA@PEAUID3D11DeviceContext@@@Z@4HA 0000000140032790     DirectXTK:SpriteBatch.obj
 0002:00006790       $unwind$?dtor$0@?0??CreateButton@UIManager@@QEAAPEAVUIElement@@UtagRECT@@_N1Ufloat2@@PEAUID3D11Device@@HPEBD@Z@4HA 0000000140032790     UIManager.obj
 0002:00006790       $unwind$?dtor$2@?0??CreateButton@UIManager@@QEAAPEAVUIElement@@UtagRECT@@_N1Ufloat2@@PEAUID3D11Device@@HPEBD@Z@4HA 0000000140032790     UIManager.obj
 0002:00006790       $unwind$?dtor$0@?0??Initialize@EnemyManager@@QEAAXPEAUID3D11Device@@@Z@4HA 0000000140032790     EnemyManager.obj
 0002:00006790       $unwind$?dtor$2@?0??Initialize@Graphics@@QEAA_NHHPEAUHWND__@@PEAVInputManager@@@Z@4HA 0000000140032790     graphicsclass.obj
 0002:00006790       $unwind$?dtor$1@?0??Initialize@EnemyManager@@QEAAXPEAUID3D11Device@@@Z@4HA 0000000140032790     EnemyManager.obj
 0002:00006790       $unwind$?dtor$1@?0??CreateText@UIManager@@QEAAPEAVUIElement@@UtagRECT@@_N1Ufloat2@@HV?$basic_string@DU?$char_traits@D@std@@V?$allocator@D@2@@std@@@Z@4HA 0000000140032790     UIManager.obj
 0002:00006790       $unwind$?dtor$0@?0??CreateImage@UIManager@@QEAAPEAVUIElement@@UtagRECT@@_N1Ufloat2@@PEBDPEAUID3D11Device@@@Z@4HA 0000000140032790     UIManager.obj
 0002:00006790       $unwind$?dtor$1@?0??Initialize@Graphics@@QEAA_NHHPEAUHWND__@@PEAVInputManager@@@Z@4HA 0000000140032790     graphicsclass.obj
 0002:00006790       $unwind$?dtor$1@?0???__E?deviceResourcesPool@Impl@SpriteBatch@DirectX@@0V?$SharedResourcePool@PEAUID3D11Device@@UDeviceResources@Impl@SpriteBatch@DirectX@@$$V@3@A@@YAXXZ@4HA 0000000140032790     DirectXTK:SpriteBatch.obj
 0002:00006790       $unwind$?dtor$0@?0??AddAninimation@GameObject@@QEAAXPEBDPEAUID3D11Device@@H@Z@4HA 0000000140032790     GameObject.obj
 0002:00006790       $unwind$?dtor$0@?0??Attack@RangedEnemy@@QEAAXPEAVPlayer@@AEAV?$vector@PEAVBullet@@V?$allocator@PEAVBullet@@@std@@@std@@PEAUID3D11Device@@@Z@4HA 0000000140032790     RangedEnemy.obj
 0002:00006790       $unwind$?dtor$4@?0???0GameManager@@QEAA@XZ@4HA 0000000140032790     GameManager.obj
 0002:00006790       $unwind$?dtor$2@?0??SetSkeletonLines@Player@@QEAA?AV?$vector@V?$array@Ufloat4@@$03@std@@V?$allocator@V?$array@Ufloat4@@$03@std@@@2@@std@@Uanim_clip@@0MM@Z@4HA 0000000140032790     Player.obj
 0002:00006790       $unwind$?dtor$0@?0??CreateText@UIManager@@QEAAPEAVUIElement@@UtagRECT@@_N1Ufloat2@@HPEBD@Z@4HA 0000000140032790     UIManager.obj
 0002:00006790       $unwind$?dtor$1@?0???__E?contextResourcesPool@Impl@SpriteBatch@DirectX@@0V?$SharedResourcePool@PEAUID3D11DeviceContext@@UContextResources@Impl@SpriteBatch@DirectX@@$$V@3@A@@YAXXZ@4HA 0000000140032790     DirectXTK:SpriteBatch.obj
 0002:00006790       $unwind$?dtor$2@?0??Flatten@Animation@@QEAA?AV?$vector@V?$array@Ufloat4@@$03@std@@V?$allocator@V?$array@Ufloat4@@$03@std@@@2@@std@@V23@V?$vector@HV?$allocator@H@std@@@3@@Z@4HA 0000000140032790     Animation.obj
 0002:00006790       $unwind$?dtor$9@?0??Initialize@Graphics@@QEAA_NHHPEAUHWND__@@PEAVInputManager@@@Z@4HA 0000000140032790     graphicsclass.obj
 0002:00006790       $unwind$?dtor$0@?0???0?$basic_fstream@DU?$char_traits@D@std@@@std@@QEAA@PEBDHH@Z@4HA 0000000140032790     Animation.obj
 0002:00006790       $unwind$?dtor$14@?0???$make_unique@VImpl@SpriteBatch@DirectX@@AEAPEAUID3D11DeviceContext@@$0A@@std@@YA?AV?$unique_ptr@VImpl@SpriteBatch@DirectX@@U?$default_delete@VImpl@SpriteBatch@DirectX@@@std@@@0@AEAPEAUID3D11DeviceContext@@@Z@4HA 0000000140032790     DirectXTK:SpriteBatch.obj
 0002:00006790       $unwind$?dtor$0@?0??Initialize@Shop@@QEAA_NXZ@4HA 0000000140032790     Shop.obj
 0002:00006790       $unwind$?dtor$5@?0??Initialize@GameManager@@QEAA_NHHPEAUHWND__@@@Z@4HA 0000000140032790     GameManager.obj
 0002:00006790       $unwind$?dtor$0@?0???0?$basic_ofstream@DU?$char_traits@D@std@@@std@@QEAA@XZ@4HA 0000000140032790     SkyboxShader.obj
 0002:00006790       $unwind$?dtor$0@?0??Initialize@MyWindow@@QEAA_NXZ@4HA 0000000140032790     MyWindow.obj
 0002:00006790       $unwind$?dtor$3@?0??Initialize@Shop@@QEAA_NXZ@4HA 0000000140032790     Shop.obj
 0002:00006790       $unwind$?dtor$6@?0??Initialize@Shop@@QEAA_NXZ@4HA 0000000140032790     Shop.obj
 0002:00006790       $unwind$?dtor$9@?0??Initialize@Shop@@QEAA_NXZ@4HA 0000000140032790     Shop.obj
 0002:00006790       $unwind$?dtor$0@?0???$?HDU?$char_traits@D@std@@V?$allocator@D@1@@std@@YA?AV?$basic_string@DU?$char_traits@D@std@@V?$allocator@D@2@@0@QEBDAEBV10@@Z@4HA 0000000140032790     MyWindow.obj
 0002:00006790       $unwind$?dtor$12@?0??Initialize@Shop@@QEAA_NXZ@4HA 0000000140032790     Shop.obj
 0002:00006790       $unwind$?dtor$15@?0??Initialize@Shop@@QEAA_NXZ@4HA 0000000140032790     Shop.obj
 0002:00006790       $unwind$?dtor$67@?0??Update@GameManager@@QEAAXMM@Z@4HA 0000000140032790     GameManager.obj
 0002:00006790       $unwind$?dtor$30@?0??Initialize@Shop@@QEAA_NXZ@4HA 0000000140032790     Shop.obj
 0002:00006790       $unwind$?dtor$18@?0??Initialize@Shop@@QEAA_NXZ@4HA 0000000140032790     Shop.obj
 0002:00006790       $unwind$?dtor$3@?0??Update@GameManager@@QEAAXMM@Z@4HA 0000000140032790     GameManager.obj
 0002:00006790       $unwind$?dtor$36@?0??Initialize@Shop@@QEAA_NXZ@4HA 0000000140032790     Shop.obj
 0002:00006790       $unwind$?dtor$21@?0??Initialize@Shop@@QEAA_NXZ@4HA 0000000140032790     Shop.obj
 0002:00006790       $unwind$?dtor$33@?0??Initialize@Shop@@QEAA_NXZ@4HA 0000000140032790     Shop.obj
 0002:00006790       $unwind$?dtor$7@?0??DemandCreate@?$SharedResourcePool@PEAUID3D11Device@@UDeviceResources@Impl@SpriteBatch@DirectX@@$$V@DirectX@@QEAA?AV?$shared_ptr@UDeviceResources@Impl@SpriteBatch@DirectX@@@std@@PEAUID3D11Device@@@Z@4HA 0000000140032790     DirectXTK:SpriteBatch.obj
 0002:00006790       $unwind$?dtor$24@?0??Initialize@Shop@@QEAA_NXZ@4HA 0000000140032790     Shop.obj
 0002:00006790       $unwind$?dtor$27@?0??Initialize@Shop@@QEAA_NXZ@4HA 0000000140032790     Shop.obj
 0002:00006790       $unwind$?dtor$3@?0??LerpJoints@Animation@@QEAA?AV?$vector@V?$array@Ufloat4@@$03@std@@V?$allocator@V?$array@Ufloat4@@$03@std@@@2@@std@@V23@0MV?$vector@HV?$allocator@H@std@@@3@@Z@4HA 0000000140032790     Animation.obj
 0002:00006798       $unwind$??0Animation@@QEAA@PEBDPEAUID3D11Device@@@Z 0000000140032798     Animation.obj
 0002:000067c0       $stateUnwindMap$??0Animation@@QEAA@PEBDPEAUID3D11Device@@@Z 00000001400327c0     Animation.obj
 0002:000067f0       $ip2state$??0Animation@@QEAA@PEBDPEAUID3D11Device@@@Z 00000001400327f0     Animation.obj
 0002:00006830       $unwind$?ReadAnimFile@Animation@@QEAAXPEBDPEAUID3D11Device@@@Z 0000000140032830     Animation.obj
 0002:00006880       $stateUnwindMap$?ReadAnimFile@Animation@@QEAAXPEBDPEAUID3D11Device@@@Z 0000000140032880     Animation.obj
 0002:00006888       $ip2state$?ReadAnimFile@Animation@@QEAAXPEBDPEAUID3D11Device@@@Z 0000000140032888     Animation.obj
 0002:000068a0       $unwind$?LerpJoints@Animation@@QEAA?AV?$vector@V?$array@Ufloat4@@$03@std@@V?$allocator@V?$array@Ufloat4@@$03@std@@@2@@std@@V23@0MV?$vector@HV?$allocator@H@std@@@3@@Z 00000001400328a0     Animation.obj
 0002:000068e8       $stateUnwindMap$?LerpJoints@Animation@@QEAA?AV?$vector@V?$array@Ufloat4@@$03@std@@V?$allocator@V?$array@Ufloat4@@$03@std@@@2@@std@@V23@0MV?$vector@HV?$allocator@H@std@@@3@@Z 00000001400328e8     Animation.obj
 0002:00006908       $ip2state$?LerpJoints@Animation@@QEAA?AV?$vector@V?$array@Ufloat4@@$03@std@@V?$allocator@V?$array@Ufloat4@@$03@std@@@2@@std@@V23@0MV?$vector@HV?$allocator@H@std@@@3@@Z 0000000140032908     Animation.obj
 0002:00006910       $unwind$?SetJoints@Animation@@QEAAXM@Z 0000000140032910     Animation.obj
 0002:00006938       $stateUnwindMap$?SetJoints@Animation@@QEAAXM@Z 0000000140032938     Animation.obj
 0002:00006948       $ip2state$?SetJoints@Animation@@QEAAXM@Z 0000000140032948     Animation.obj
 0002:00006968       $unwind$??0?$vector@IV?$allocator@I@std@@@std@@QEAA@AEBV01@@Z 0000000140032968     Model.obj
 0002:00006968       $unwind$??0?$vector@PEAVPickup@@V?$allocator@PEAVPickup@@@std@@@std@@QEAA@AEBV01@@Z 0000000140032968     GameManager.obj
 0002:00006968       $unwind$??0?$vector@PEAVEnemy@@V?$allocator@PEAVEnemy@@@std@@@std@@QEAA@AEBV01@@Z 0000000140032968     EnemyManager.obj
 0002:00006968       $unwind$??0?$vector@PEAVGameObject@@V?$allocator@PEAVGameObject@@@std@@@std@@QEAA@AEBV01@@Z 0000000140032968     EnemyManager.obj
 0002:00006968       $unwind$??0?$vector@USphere@@V?$allocator@USphere@@@std@@@std@@QEAA@AEBV01@@Z 0000000140032968     GameManager.obj
 0002:00006968       $unwind$??0?$vector@HV?$allocator@H@std@@@std@@QEAA@AEBV01@@Z 0000000140032968     Animation.obj
 0002:00006968       $unwind$??0?$vector@PEAVSound@@V?$allocator@PEAVSound@@@std@@@std@@QEAA@AEBV01@@Z 0000000140032968     Enemy.obj
 0002:00006968       $unwind$??0?$vector@PEAVBullet@@V?$allocator@PEAVBullet@@@std@@@std@@QEAA@AEBV01@@Z 0000000140032968     GameManager.obj
 0002:00006974       $chain$0$??0?$vector@IV?$allocator@I@std@@@std@@QEAA@AEBV01@@Z 0000000140032974     Model.obj
 0002:00006974       $chain$0$??0?$vector@HV?$allocator@H@std@@@std@@QEAA@AEBV01@@Z 0000000140032974     Animation.obj
 0002:00006988       $chain$1$??0?$vector@HV?$allocator@H@std@@@std@@QEAA@AEBV01@@Z 0000000140032988     Animation.obj
 0002:00006988       $chain$1$??0?$vector@IV?$allocator@I@std@@@std@@QEAA@AEBV01@@Z 0000000140032988     Model.obj
 0002:00006998       $unwind$??0?$vector@V?$array@Ufloat4@@$03@std@@V?$allocator@V?$array@Ufloat4@@$03@std@@@2@@std@@QEAA@AEBV01@@Z 0000000140032998     Animation.obj
 0002:000069a4       $chain$0$??0?$vector@V?$array@Ufloat4@@$03@std@@V?$allocator@V?$array@Ufloat4@@$03@std@@@2@@std@@QEAA@AEBV01@@Z 00000001400329a4     Animation.obj
 0002:000069b8       $chain$1$??0?$vector@V?$array@Ufloat4@@$03@std@@V?$allocator@V?$array@Ufloat4@@$03@std@@@2@@std@@QEAA@AEBV01@@Z 00000001400329b8     Animation.obj
 0002:000069c8       $unwind$??0?$basic_fstream@DU?$char_traits@D@std@@@std@@QEAA@PEBDHH@Z 00000001400329c8     Animation.obj
 0002:000069e0       $stateUnwindMap$??0?$basic_fstream@DU?$char_traits@D@std@@@std@@QEAA@PEBDHH@Z 00000001400329e0     Animation.obj
 0002:00006a00       $ip2state$??0?$basic_fstream@DU?$char_traits@D@std@@@std@@QEAA@PEBDHH@Z 0000000140032a00     Animation.obj
 0002:00006a30       $unwind$?seekpos@?$basic_filebuf@DU?$char_traits@D@std@@@std@@MEAA?AV?$fpos@U_Mbstatet@@@2@V32@H@Z 0000000140032a30     Animation.obj
 0002:00006a44       $unwind$?seekoff@?$basic_filebuf@DU?$char_traits@D@std@@@std@@MEAA?AV?$fpos@U_Mbstatet@@@2@_JHH@Z 0000000140032a44     Animation.obj
 0002:00006a5c       $unwind$?xsgetn@?$basic_filebuf@DU?$char_traits@D@std@@@std@@MEAA_JPEAD_J@Z 0000000140032a5c     Animation.obj
 0002:00006a5c       $unwind$?xsputn@?$basic_filebuf@DU?$char_traits@D@std@@@std@@MEAA_JPEBD_J@Z 0000000140032a5c     Animation.obj
 0002:00006a74       $unwind$?uflow@?$basic_filebuf@DU?$char_traits@D@std@@@std@@MEAAHXZ 0000000140032a74     Animation.obj
 0002:00006a94       $stateUnwindMap$?UpdateTimerText@GameManager@@QEAAXM@Z 0000000140032a94     GameManager.obj
 0002:00006a94       $stateUnwindMap$?UpdateDamageTimerText@GameManager@@QEAAXXZ 0000000140032a94     GameManager.obj
 0002:00006a94       $stateUnwindMap$?uflow@?$basic_filebuf@DU?$char_traits@D@std@@@std@@MEAAHXZ 0000000140032a94     Animation.obj
 0002:00006aa0       $ip2state$?uflow@?$basic_filebuf@DU?$char_traits@D@std@@@std@@MEAAHXZ 0000000140032aa0     Animation.obj
 0002:00006ab0       $chain$0$?underflow@?$basic_filebuf@DU?$char_traits@D@std@@@std@@MEAAHXZ 0000000140032ab0     Animation.obj
 0002:00006ac4       $chain$2$?underflow@?$basic_filebuf@DU?$char_traits@D@std@@@std@@MEAAHXZ 0000000140032ac4     Animation.obj
 0002:00006ad8       $unwind$?_Erase@?$_Tree@V?$_Tmap_traits@PEAUID3D11Device@@V?$weak_ptr@VImpl@CommonStates@DirectX@@@std@@U?$less@PEAUID3D11Device@@@3@V?$allocator@U?$pair@QEAUID3D11Device@@V?$weak_ptr@VImpl@CommonStates@DirectX@@@std@@@std@@@3@$0A@@std@@@std@@IEAAXPEAU?$_Tree_node@U?$pair@QEAUID3D11Device@@V?$weak_ptr@VImpl@CommonStates@DirectX@@@std@@@std@@PEAX@2@@Z 0000000140032ad8     DirectXTK:CommonStates.obj
 0002:00006ad8       $unwind$?pbackfail@?$basic_filebuf@DU?$char_traits@D@std@@@std@@MEAAHH@Z 0000000140032ad8     Animation.obj
 0002:00006ad8       $unwind$?_Erase@?$_Tree@V?$_Tmap_traits@PEAUID3D11Device@@V?$weak_ptr@UDeviceResources@Impl@SpriteBatch@DirectX@@@std@@U?$less@PEAUID3D11Device@@@3@V?$allocator@U?$pair@QEAUID3D11Device@@V?$weak_ptr@UDeviceResources@Impl@SpriteBatch@DirectX@@@std@@@std@@@3@$0A@@std@@@std@@IEAAXPEAU?$_Tree_node@U?$pair@QEAUID3D11Device@@V?$weak_ptr@UDeviceResources@Impl@SpriteBatch@DirectX@@@std@@@std@@PEAX@2@@Z 0000000140032ad8     DirectXTK:SpriteBatch.obj
 0002:00006ad8       $unwind$?erase@?$_Tree@V?$_Tmap_traits@PEAUID3D11Device@@V?$weak_ptr@UDeviceResources@Impl@SpriteBatch@DirectX@@@std@@U?$less@PEAUID3D11Device@@@3@V?$allocator@U?$pair@QEAUID3D11Device@@V?$weak_ptr@UDeviceResources@Impl@SpriteBatch@DirectX@@@std@@@std@@@3@$0A@@std@@@std@@QEAA?AV?$_Tree_iterator@V?$_Tree_val@U?$_Tree_simple_types@U?$pair@QEAUID3D11Device@@V?$weak_ptr@UDeviceResources@Impl@SpriteBatch@DirectX@@@std@@@std@@@std@@@std@@@2@V?$_Tree_const_iterator@V?$_Tree_val@U?$_Tree_simple_types@U?$pair@QEAUID3D11Device@@V?$weak_ptr@UDeviceResources@Impl@SpriteBatch@DirectX@@@std@@@std@@@std@@@std@@@2@@Z 0000000140032ad8     DirectXTK:SpriteBatch.obj
 0002:00006ad8       $unwind$?erase@?$_Tree@V?$_Tmap_traits@PEAUID3D11Device@@V?$weak_ptr@VImpl@CommonStates@DirectX@@@std@@U?$less@PEAUID3D11Device@@@3@V?$allocator@U?$pair@QEAUID3D11Device@@V?$weak_ptr@VImpl@CommonStates@DirectX@@@std@@@std@@@3@$0A@@std@@@std@@QEAA?AV?$_Tree_iterator@V?$_Tree_val@U?$_Tree_simple_types@U?$pair@QEAUID3D11Device@@V?$weak_ptr@VImpl@CommonStates@DirectX@@@std@@@std@@@std@@@std@@@2@V?$_Tree_const_iterator@V?$_Tree_val@U?$_Tree_simple_types@U?$pair@QEAUID3D11Device@@V?$weak_ptr@VImpl@CommonStates@DirectX@@@std@@@std@@@std@@@std@@@2@@Z 0000000140032ad8     DirectXTK:CommonStates.obj
 0002:00006ad8       $unwind$?_Erase@?$_Tree@V?$_Tmap_traits@PEAUID3D11DeviceContext@@V?$weak_ptr@UContextResources@Impl@SpriteBatch@DirectX@@@std@@U?$less@PEAUID3D11DeviceContext@@@3@V?$allocator@U?$pair@QEAUID3D11DeviceContext@@V?$weak_ptr@UContextResources@Impl@SpriteBatch@DirectX@@@std@@@std@@@3@$0A@@std@@@std@@IEAAXPEAU?$_Tree_node@U?$pair@QEAUID3D11DeviceContext@@V?$weak_ptr@UContextResources@Impl@SpriteBatch@DirectX@@@std@@@std@@PEAX@2@@Z 0000000140032ad8     DirectXTK:SpriteBatch.obj
 0002:00006ad8       $unwind$?erase@?$_Tree@V?$_Tmap_traits@PEAUID3D11DeviceContext@@V?$weak_ptr@UContextResources@Impl@SpriteBatch@DirectX@@@std@@U?$less@PEAUID3D11DeviceContext@@@3@V?$allocator@U?$pair@QEAUID3D11DeviceContext@@V?$weak_ptr@UContextResources@Impl@SpriteBatch@DirectX@@@std@@@std@@@3@$0A@@std@@@std@@QEAA?AV?$_Tree_iterator@V?$_Tree_val@U?$_Tree_simple_types@U?$pair@QEAUID3D11DeviceContext@@V?$weak_ptr@UContextResources@Impl@SpriteBatch@DirectX@@@std@@@std@@@std@@@std@@@2@V?$_Tree_const_iterator@V?$_Tree_val@U?$_Tree_simple_types@U?$pair@QEAUID3D11DeviceContext@@V?$weak_ptr@UContextResources@Impl@SpriteBatch@DirectX@@@std@@@std@@@std@@@std@@@2@@Z 0000000140032ad8     DirectXTK:SpriteBatch.obj
 0002:00006ae8       $unwind$?overflow@?$basic_filebuf@DU?$char_traits@D@std@@@std@@MEAAHH@Z 0000000140032ae8     Animation.obj
 0002:00006afc       $chain$0$?overflow@?$basic_filebuf@DU?$char_traits@D@std@@@std@@MEAAHH@Z 0000000140032afc     Animation.obj
 0002:00006b10       $chain$1$?overflow@?$basic_filebuf@DU?$char_traits@D@std@@@std@@MEAAHH@Z 0000000140032b10     Animation.obj
 0002:00006b20       $unwind$??1?$basic_filebuf@DU?$char_traits@D@std@@@std@@UEAA@XZ 0000000140032b20     Animation.obj
 0002:00006b30       $ip2state$??1?$basic_filebuf@DU?$char_traits@D@std@@@std@@UEAA@XZ 0000000140032b30     Animation.obj
 0002:00006b38       $unwind$?_Endwrite@?$basic_filebuf@DU?$char_traits@D@std@@@std@@IEAA_NXZ 0000000140032b38     Animation.obj
 0002:00006b4c       $unwind$?_Init@?$basic_filebuf@DU?$char_traits@D@std@@@std@@IEAAXPEAU_iobuf@@W4_Initfl@12@@Z 0000000140032b4c     Animation.obj
 0002:00006b64       $unwind$?close@?$basic_filebuf@DU?$char_traits@D@std@@@std@@QEAAPEAV12@XZ 0000000140032b64     Animation.obj
 0002:00006b74       $unwind$?open@?$basic_filebuf@DU?$char_traits@D@std@@@std@@QEAAPEAV12@PEBDHH@Z 0000000140032b74     Animation.obj
 0002:00006b88       $stateUnwindMap$?open@?$basic_filebuf@DU?$char_traits@D@std@@@std@@QEAAPEAV12@PEBDHH@Z 0000000140032b88     Animation.obj
 0002:00006b98       $ip2state$?open@?$basic_filebuf@DU?$char_traits@D@std@@@std@@QEAAPEAV12@PEBDHH@Z 0000000140032b98     Animation.obj
 0002:00006bb8       $unwind$?_Xlength@?$vector@PEAVGun@@V?$allocator@PEAVGun@@@std@@@std@@CAXXZ 0000000140032bb8     GameManager.obj
 0002:00006bb8       $unwind$WinMainCRTStartup  0000000140032bb8     MSVCRT:exe_winmain.obj
 0002:00006bb8       $unwind$?_Xlength@?$vector@Umaterial_t@@V?$allocator@Umaterial_t@@@std@@@std@@CAXXZ 0000000140032bb8     Model.obj
 0002:00006bb8       $unwind$atexit             0000000140032bb8     MSVCRT:utility.obj
 0002:00006bb8       $unwind$?deallocate@?$allocator@U?$_Tree_node@U?$pair@QEAUID3D11Device@@V?$weak_ptr@UDeviceResources@Impl@SpriteBatch@DirectX@@@std@@@std@@PEAX@std@@@std@@QEAAXQEAU?$_Tree_node@U?$pair@QEAUID3D11Device@@V?$weak_ptr@UDeviceResources@Impl@SpriteBatch@DirectX@@@std@@@std@@PEAX@2@_K@Z 0000000140032bb8     DirectXTK:SpriteBatch.obj
 0002:00006bb8       $unwind$?allocate@?$allocator@F@std@@QEAAPEAF_K@Z 0000000140032bb8     DirectXTK:SpriteBatch.obj
 0002:00006bb8       $unwind$?deallocate@?$allocator@U?$_Tree_node@U?$pair@QEAUID3D11DeviceContext@@V?$weak_ptr@UContextResources@Impl@SpriteBatch@DirectX@@@std@@@std@@PEAX@std@@@std@@QEAAXQEAU?$_Tree_node@U?$pair@QEAUID3D11DeviceContext@@V?$weak_ptr@UContextResources@Impl@SpriteBatch@DirectX@@@std@@@std@@PEAX@2@_K@Z 0000000140032bb8     DirectXTK:SpriteBatch.obj
 0002:00006bb8       $unwind$__scrt_acquire_startup_lock 0000000140032bb8     MSVCRT:utility.obj
 0002:00006bb8       $unwind$?pre_cpp_initialization@@YAXXZ 0000000140032bb8     MSVCRT:exe_winmain.obj
 0002:00006bb8       $unwind$__GSHandlerCheck   0000000140032bb8     MSVCRT:gshandler.obj
 0002:00006bb8       $unwind$?__scrt_uninitialize_thread_safe_statics@@YAXXZ 0000000140032bb8     MSVCRT:thread_safe_statics.obj
 0002:00006bb8       $unwind$?_Xlength@?$vector@V?$array@D$0BAE@@std@@V?$allocator@V?$array@D$0BAE@@std@@@2@@std@@CAXXZ 0000000140032bb8     Model.obj
 0002:00006bb8       $unwind$__scrt_is_managed_app 0000000140032bb8     MSVCRT:utility_desktop.obj
 0002:00006bb8       $unwind$__scrt_unhandled_exception_filter 0000000140032bb8     MSVCRT:utility_desktop.obj
 0002:00006bb8       $unwind$?_Xlength@?$vector@PEAVBullet@@V?$allocator@PEAVBullet@@@std@@@std@@CAXXZ 0000000140032bb8     GameManager.obj
 0002:00006bb8       $unwind$__scrt_initialize_default_local_stdio_options 0000000140032bb8     MSVCRT:default_local_stdio_options.obj
 0002:00006bb8       $unwind$?deallocate@?$allocator@U?$_Tree_node@U?$pair@QEAUID3D11Device@@V?$weak_ptr@VImpl@CommonStates@DirectX@@@std@@@std@@PEAX@std@@@std@@QEAAXQEAU?$_Tree_node@U?$pair@QEAUID3D11Device@@V?$weak_ptr@VImpl@CommonStates@DirectX@@@std@@@std@@PEAX@2@_K@Z 0000000140032bb8     DirectXTK:CommonStates.obj
 0002:00006bb8       $unwind$?_Xlength@?$vector@UGlyph@SpriteFont@DirectX@@V?$allocator@UGlyph@SpriteFont@DirectX@@@std@@@std@@CAXXZ 0000000140032bb8     DirectXTK:SpriteFont.obj
 0002:00006bb8       $unwind$?_Xlength@?$vector@UVertex@@V?$allocator@UVertex@@@std@@@std@@CAXXZ 0000000140032bb8     Model.obj
 0002:00006bb8       $unwind$?_Xlength@?$vector@PEAVSound@@V?$allocator@PEAVSound@@@std@@@std@@CAXXZ 0000000140032bb8     Enemy.obj
 0002:00006bb8       $unwind$?_Buyheadnode@?$_Tree_comp_alloc@V?$_Tmap_traits@V?$basic_string@DU?$char_traits@D@std@@V?$allocator@D@2@@std@@PEAVUIElement@@U?$less@V?$basic_string@DU?$char_traits@D@std@@V?$allocator@D@2@@std@@@2@V?$allocator@U?$pair@$$CBV?$basic_string@DU?$char_traits@D@std@@V?$allocator@D@2@@std@@PEAVUIElement@@@std@@@2@$0A@@std@@@std@@QEAAPEAU?$_Tree_node@U?$pair@$$CBV?$basic_string@DU?$char_traits@D@std@@V?$allocator@D@2@@std@@PEAVUIElement@@@std@@PEAX@2@XZ 0000000140032bb8     Shop.obj
 0002:00006bb8       $unwind$?_Xlength@?$vector@IV?$allocator@I@std@@@std@@CAXXZ 0000000140032bb8     Model.obj
 0002:00006bb8       $unwind$?_Buyheadnode@?$_Tree_comp_alloc@V?$_Tmap_traits@V?$basic_string@DU?$char_traits@D@std@@V?$allocator@D@2@@std@@PEAUItem@Shop@@U?$less@V?$basic_string@DU?$char_traits@D@std@@V?$allocator@D@2@@std@@@2@V?$allocator@U?$pair@$$CBV?$basic_string@DU?$char_traits@D@std@@V?$allocator@D@2@@std@@PEAUItem@Shop@@@std@@@2@$0A@@std@@@std@@QEAAPEAU?$_Tree_node@U?$pair@$$CBV?$basic_string@DU?$char_traits@D@std@@V?$allocator@D@2@@std@@PEAUItem@Shop@@@std@@PEAX@2@XZ 0000000140032bb8     Shop.obj
 0002:00006bb8       $unwind$?what@com_exception@DirectX@@UEBAPEBDXZ 0000000140032bb8     DirectXTK:SpriteBatch.obj
 0002:00006bb8       $unwind$?_Xlength@?$vector@FV?$allocator@F@std@@@std@@CAXXZ 0000000140032bb8     DirectXTK:SpriteBatch.obj
 0002:00006bb8       $unwind$_Init_thread_notify 0000000140032bb8     MSVCRT:thread_safe_statics.obj
 0002:00006bb8       $unwind$?deallocate@?$allocator@F@std@@QEAAXQEAF_K@Z 0000000140032bb8     DirectXTK:SpriteBatch.obj
 0002:00006bb8       $unwind$?_Xlen@?$basic_string@DU?$char_traits@D@std@@V?$allocator@D@2@@std@@SAXXZ 0000000140032bb8     Animation.obj
 0002:00006bb8       $unwind$?_Xlength@?$vector@PEAVAnimation@@V?$allocator@PEAVAnimation@@@std@@@std@@CAXXZ 0000000140032bb8     GameObject.obj
 0002:00006bb8       $unwind$?_Xlength@?$vector@PEAVUIElement@@V?$allocator@PEAVUIElement@@@std@@@std@@CAXXZ 0000000140032bb8     UIManager.obj
 0002:00006bb8       $unwind$?_Xlength@?$vector@PEAVGameObject@@V?$allocator@PEAVGameObject@@@std@@@std@@CAXXZ 0000000140032bb8     EnemyManager.obj
 0002:00006bb8       $unwind$?post_pgo_initialization@@YAHXZ 0000000140032bb8     MSVCRT:exe_winmain.obj
 0002:00006bb8       $unwind$?_Xlength@?$vector@PEAVEnemy@@V?$allocator@PEAVEnemy@@@std@@@std@@CAXXZ 0000000140032bb8     EnemyManager.obj
 0002:00006bb8       $unwind$?_Xlength@?$vector@HV?$allocator@H@std@@@std@@CAXXZ 0000000140032bb8     Animation.obj
 0002:00006bb8       $unwind$?_Xlength@?$vector@V?$ComPtr@UID3D11ShaderResourceView@@@WRL@Microsoft@@V?$allocator@V?$ComPtr@UID3D11ShaderResourceView@@@WRL@Microsoft@@@std@@@std@@CAXXZ 0000000140032bb8     DirectXTK:SpriteBatch.obj
 0002:00006bb8       $unwind$?_Xlength@?$vector@PEAVPickup@@V?$allocator@PEAVPickup@@@std@@@std@@CAXXZ 0000000140032bb8     GameManager.obj
 0002:00006bb8       $unwind$?_Xlength@?$vector@Ukeyframe@@V?$allocator@Ukeyframe@@@std@@@std@@CAXXZ 0000000140032bb8     Animation.obj
 0002:00006bb8       $unwind$?_Xlength@?$vector@USphere@@V?$allocator@USphere@@@std@@@std@@CAXXZ 0000000140032bb8     GameObject.obj
 0002:00006bb8       $unwind$?deallocate@?$allocator@V?$ComPtr@UID3D11ShaderResourceView@@@WRL@Microsoft@@@std@@QEAAXQEAV?$ComPtr@UID3D11ShaderResourceView@@@WRL@Microsoft@@_K@Z 0000000140032bb8     DirectXTK:SpriteBatch.obj
 0002:00006bb8       $unwind$?_Xlength@?$vector@V?$array@Ufloat4@@$03@std@@V?$allocator@V?$array@Ufloat4@@$03@std@@@2@@std@@CAXXZ 0000000140032bb8     Animation.obj
 0002:00006bb8       $unwind$?deallocate@?$allocator@PEBUSpriteInfo@Impl@SpriteBatch@DirectX@@@std@@QEAAXQEAPEBUSpriteInfo@Impl@SpriteBatch@DirectX@@_K@Z 0000000140032bb8     DirectXTK:SpriteBatch.obj
 0002:00006bb8       $unwind$?_Xlength@?$vector@PEBUSpriteInfo@Impl@SpriteBatch@DirectX@@V?$allocator@PEBUSpriteInfo@Impl@SpriteBatch@DirectX@@@std@@@std@@CAXXZ 0000000140032bb8     DirectXTK:SpriteBatch.obj
 0002:00006bc0       $unwind$??$_Emplace_reallocate@PEAVEnemy@@@?$vector@PEAVEnemy@@V?$allocator@PEAVEnemy@@@std@@@std@@QEAAPEAPEAVEnemy@@QEAPEAV2@$$QEAPEAV2@@Z 0000000140032bc0     EnemyManager.obj
 0002:00006bc0       $unwind$??$_Emplace_reallocate@AEBQEAVSound@@@?$vector@PEAVSound@@V?$allocator@PEAVSound@@@std@@@std@@QEAAPEAPEAVSound@@QEAPEAV2@AEBQEAV2@@Z 0000000140032bc0     Enemy.obj
 0002:00006bc0       $unwind$??$_Emplace_reallocate@AEBQEAVGun@@@?$vector@PEAVGun@@V?$allocator@PEAVGun@@@std@@@std@@QEAAPEAPEAVGun@@QEAPEAV2@AEBQEAV2@@Z 0000000140032bc0     GameManager.obj
 0002:00006bc0       $unwind$??$_Emplace_reallocate@AEBQEAVUIElement@@@?$vector@PEAVUIElement@@V?$allocator@PEAVUIElement@@@std@@@std@@QEAAPEAPEAVUIElement@@QEAPEAV2@AEBQEAV2@@Z 0000000140032bc0     UIManager.obj
 0002:00006bc0       $unwind$??$_Emplace_reallocate@H@?$vector@HV?$allocator@H@std@@@std@@QEAAPEAHQEAH$$QEAH@Z 0000000140032bc0     GameObject.obj
 0002:00006bc0       $unwind$??$_Emplace_reallocate@AEBQEAVPickup@@@?$vector@PEAVPickup@@V?$allocator@PEAVPickup@@@std@@@std@@QEAAPEAPEAVPickup@@QEAPEAV2@AEBQEAV2@@Z 0000000140032bc0     GameManager.obj
 0002:00006bc0       $unwind$??$_Emplace_reallocate@PEAVBullet@@@?$vector@PEAVBullet@@V?$allocator@PEAVBullet@@@std@@@std@@QEAAPEAPEAVBullet@@QEAPEAV2@$$QEAPEAV2@@Z 0000000140032bc0     GameManager.obj
 0002:00006bc0       $unwind$??$_Emplace_reallocate@PEAVGameObject@@@?$vector@PEAVGameObject@@V?$allocator@PEAVGameObject@@@std@@@std@@QEAAPEAPEAVGameObject@@QEAPEAV2@$$QEAPEAV2@@Z 0000000140032bc0     GameManager.obj
 0002:00006bc0       $unwind$??$_Emplace_reallocate@AEBH@?$vector@HV?$allocator@H@std@@@std@@QEAAPEAHQEAHAEBH@Z 0000000140032bc0     Animation.obj
 0002:00006bd0       $chain$2$??$_Emplace_reallocate@H@?$vector@HV?$allocator@H@std@@@std@@QEAAPEAHQEAH$$QEAH@Z 0000000140032bd0     GameObject.obj
 0002:00006bd0       $chain$2$??$_Emplace_reallocate@AEBH@?$vector@HV?$allocator@H@std@@@std@@QEAAPEAHQEAHAEBH@Z 0000000140032bd0     Animation.obj
 0002:00006bec       $chain$4$??$_Emplace_reallocate@H@?$vector@HV?$allocator@H@std@@@std@@QEAAPEAHQEAH$$QEAH@Z 0000000140032bec     GameObject.obj
 0002:00006bec       $chain$4$??$_Emplace_reallocate@AEBH@?$vector@HV?$allocator@H@std@@@std@@QEAAPEAHQEAHAEBH@Z 0000000140032bec     Animation.obj
 0002:00006c08       $chain$5$??$_Emplace_reallocate@H@?$vector@HV?$allocator@H@std@@@std@@QEAAPEAHQEAH$$QEAH@Z 0000000140032c08     GameObject.obj
 0002:00006c08       $chain$5$??$_Emplace_reallocate@AEBH@?$vector@HV?$allocator@H@std@@@std@@QEAAPEAHQEAHAEBH@Z 0000000140032c08     Animation.obj
 0002:00006c18       $unwind$??$_Resize@V<lambda_753cb66179afa6340adadd7109f91d2f>@@@?$vector@Ukeyframe@@V?$allocator@Ukeyframe@@@std@@@std@@AEAAX_KV<lambda_753cb66179afa6340adadd7109f91d2f>@@@Z 0000000140032c18     Animation.obj
 0002:00006c28       $chain$0$??$_Resize@V<lambda_753cb66179afa6340adadd7109f91d2f>@@@?$vector@Ukeyframe@@V?$allocator@Ukeyframe@@@std@@@std@@AEAAX_KV<lambda_753cb66179afa6340adadd7109f91d2f>@@@Z 0000000140032c28     Animation.obj
 0002:00006c3c       $chain$1$??$_Resize@V<lambda_753cb66179afa6340adadd7109f91d2f>@@@?$vector@Ukeyframe@@V?$allocator@Ukeyframe@@@std@@@std@@AEAAX_KV<lambda_753cb66179afa6340adadd7109f91d2f>@@@Z 0000000140032c3c     Animation.obj
 0002:00006c3c       $chain$3$??$_Resize@V<lambda_753cb66179afa6340adadd7109f91d2f>@@@?$vector@Ukeyframe@@V?$allocator@Ukeyframe@@@std@@@std@@AEAAX_KV<lambda_753cb66179afa6340adadd7109f91d2f>@@@Z 0000000140032c3c     Animation.obj
 0002:00006c4c       $chain$2$??$_Resize@V<lambda_753cb66179afa6340adadd7109f91d2f>@@@?$vector@Ukeyframe@@V?$allocator@Ukeyframe@@@std@@@std@@AEAAX_KV<lambda_753cb66179afa6340adadd7109f91d2f>@@@Z 0000000140032c4c     Animation.obj
 0002:00006c60       $unwind$??$_Partition_by_median_guess_unchecked@PEAPEBUSpriteInfo@Impl@SpriteBatch@DirectX@@V<lambda_9b5ae69721589d94e761d5c8d20d011a>@@@std@@YA?AU?$pair@PEAPEBUSpriteInfo@Impl@SpriteBatch@DirectX@@PEAPEBU1234@@0@PEAPEBUSpriteInfo@Impl@SpriteBatch@DirectX@@0V<lambda_9b5ae69721589d94e761d5c8d20d011a>@@@Z 0000000140032c60     DirectXTK:SpriteBatch.obj
 0002:00006c60       $unwind$??$_Partition_by_median_guess_unchecked@PEAPEBUSpriteInfo@Impl@SpriteBatch@DirectX@@V<lambda_c8cd3344139af936846f26b5e655a233>@@@std@@YA?AU?$pair@PEAPEBUSpriteInfo@Impl@SpriteBatch@DirectX@@PEAPEBU1234@@0@PEAPEBUSpriteInfo@Impl@SpriteBatch@DirectX@@0V<lambda_c8cd3344139af936846f26b5e655a233>@@@Z 0000000140032c60     DirectXTK:SpriteBatch.obj
 0002:00006c60       $unwind$??$_Resize@V<lambda_3bf83ccb702bae8a49d568d66998a612>@@@?$vector@V?$array@Ufloat4@@$03@std@@V?$allocator@V?$array@Ufloat4@@$03@std@@@2@@std@@AEAAX_KV<lambda_3bf83ccb702bae8a49d568d66998a612>@@@Z 0000000140032c60     Animation.obj
 0002:00006c70       $chain$0$??$_Resize@V<lambda_3bf83ccb702bae8a49d568d66998a612>@@@?$vector@V?$array@Ufloat4@@$03@std@@V?$allocator@V?$array@Ufloat4@@$03@std@@@2@@std@@AEAAX_KV<lambda_3bf83ccb702bae8a49d568d66998a612>@@@Z 0000000140032c70     Animation.obj
 0002:00006c84       $chain$1$??$_Resize@V<lambda_3bf83ccb702bae8a49d568d66998a612>@@@?$vector@V?$array@Ufloat4@@$03@std@@V?$allocator@V?$array@Ufloat4@@$03@std@@@2@@std@@AEAAX_KV<lambda_3bf83ccb702bae8a49d568d66998a612>@@@Z 0000000140032c84     Animation.obj
 0002:00006c94       $unwind$??$_Emplace_reallocate@AEBV?$array@Ufloat4@@$03@std@@@?$vector@V?$array@Ufloat4@@$03@std@@V?$allocator@V?$array@Ufloat4@@$03@std@@@2@@std@@QEAAPEAV?$array@Ufloat4@@$03@1@QEAV21@AEBV21@@Z 0000000140032c94     Animation.obj
 0002:00006c94       $unwind$??$_Emplace_reallocate@V?$array@Ufloat4@@$03@std@@@?$vector@V?$array@Ufloat4@@$03@std@@V?$allocator@V?$array@Ufloat4@@$03@std@@@2@@std@@QEAAPEAV?$array@Ufloat4@@$03@1@QEAV21@$$QEAV21@@Z 0000000140032c94     Animation.obj
 0002:00006ca4       $chain$2$??$_Emplace_reallocate@AEBV?$array@Ufloat4@@$03@std@@@?$vector@V?$array@Ufloat4@@$03@std@@V?$allocator@V?$array@Ufloat4@@$03@std@@@2@@std@@QEAAPEAV?$array@Ufloat4@@$03@1@QEAV21@AEBV21@@Z 0000000140032ca4     Animation.obj
 0002:00006ca4       $chain$2$??$_Emplace_reallocate@V?$array@Ufloat4@@$03@std@@@?$vector@V?$array@Ufloat4@@$03@std@@V?$allocator@V?$array@Ufloat4@@$03@std@@@2@@std@@QEAAPEAV?$array@Ufloat4@@$03@1@QEAV21@$$QEAV21@@Z 0000000140032ca4     Animation.obj
 0002:00006cc0       $chain$3$??$_Emplace_reallocate@AEBV?$array@Ufloat4@@$03@std@@@?$vector@V?$array@Ufloat4@@$03@std@@V?$allocator@V?$array@Ufloat4@@$03@std@@@2@@std@@QEAAPEAV?$array@Ufloat4@@$03@1@QEAV21@AEBV21@@Z 0000000140032cc0     Animation.obj
 0002:00006cc0       $chain$3$??$_Emplace_reallocate@V?$array@Ufloat4@@$03@std@@@?$vector@V?$array@Ufloat4@@$03@std@@V?$allocator@V?$array@Ufloat4@@$03@std@@@2@@std@@QEAAPEAV?$array@Ufloat4@@$03@1@QEAV21@$$QEAV21@@Z 0000000140032cc0     Animation.obj
 0002:00006cd0       $unwind$??$use_facet@V?$codecvt@DDU_Mbstatet@@@std@@@std@@YAAEBV?$codecvt@DDU_Mbstatet@@@0@AEBVlocale@0@@Z 0000000140032cd0     Animation.obj
 0002:00006cec       $stateUnwindMap$??$use_facet@V?$codecvt@DDU_Mbstatet@@@std@@@std@@YAAEBV?$codecvt@DDU_Mbstatet@@@0@AEBVlocale@0@@Z 0000000140032cec     Animation.obj
 0002:00006d08       $ip2state$??$use_facet@V?$codecvt@DDU_Mbstatet@@@std@@@std@@YAAEBV?$codecvt@DDU_Mbstatet@@@0@AEBVlocale@0@@Z 0000000140032d08     Animation.obj
 0002:00006d30       $unwind$??$_Reallocate_grow_by@V<lambda_319d5e083f45f90dcdce5dce53cbb275>@@D@?$basic_string@DU?$char_traits@D@std@@V?$allocator@D@2@@std@@QEAAAEAV01@_KV<lambda_319d5e083f45f90dcdce5dce53cbb275>@@D@Z 0000000140032d30     Animation.obj
 0002:00006d40       $chain$2$??$_Reallocate_grow_by@V<lambda_319d5e083f45f90dcdce5dce53cbb275>@@D@?$basic_string@DU?$char_traits@D@std@@V?$allocator@D@2@@std@@QEAAAEAV01@_KV<lambda_319d5e083f45f90dcdce5dce53cbb275>@@D@Z 0000000140032d40     Animation.obj
 0002:00006d5c       $chain$3$??$_Reallocate_grow_by@V<lambda_319d5e083f45f90dcdce5dce53cbb275>@@D@?$basic_string@DU?$char_traits@D@std@@V?$allocator@D@2@@std@@QEAAAEAV01@_KV<lambda_319d5e083f45f90dcdce5dce53cbb275>@@D@Z 0000000140032d5c     Animation.obj
 0002:00006d6c       $unwind$??$_Destroy_range@V?$allocator@Ukeyframe@@@std@@@std@@YAXPEAUkeyframe@@0AEAV?$allocator@Ukeyframe@@@0@@Z 0000000140032d6c     Animation.obj
 0002:00006d74       $chain$1$??$_Destroy_range@V?$allocator@Ukeyframe@@@std@@@std@@YAXPEAUkeyframe@@0AEAV?$allocator@Ukeyframe@@@0@@Z 0000000140032d74     Animation.obj
 0002:00006d8c       $chain$2$??$_Destroy_range@V?$allocator@Ukeyframe@@@std@@@std@@YAXPEAUkeyframe@@0AEAV?$allocator@Ukeyframe@@@0@@Z 0000000140032d8c     Animation.obj
 0002:00006d9c       $chain$3$??$_Destroy_range@V?$allocator@Ukeyframe@@@std@@@std@@YAXPEAUkeyframe@@0AEAV?$allocator@Ukeyframe@@@0@@Z 0000000140032d9c     Animation.obj
 0002:00006db4       $unwind$??1?$unique_ptr@V_Facet_base@std@@U?$default_delete@V_Facet_base@std@@@2@@std@@QEAA@XZ 0000000140032db4     Animation.obj
 0002:00006dc4       $stateUnwindMap$??1UIElement@@QEAA@XZ 0000000140032dc4     UIElement.obj
 0002:00006dc4       $stateUnwindMap$?_Reset_move@?$_Func_class@X$$V@std@@IEAAX$$QEAV12@@Z 0000000140032dc4     MyWindow.obj
 0002:00006dc4       $stateUnwindMap$??1WrappedData@?$SharedResourcePool@PEAUID3D11DeviceContext@@UContextResources@Impl@SpriteBatch@DirectX@@$$V@DirectX@@QEAA@XZ 0000000140032dc4     DirectXTK:SpriteBatch.obj
 0002:00006dc4       $stateUnwindMap$?erase@?$_Tree@V?$_Tmap_traits@V?$basic_string@DU?$char_traits@D@std@@V?$allocator@D@2@@std@@PEAUItem@Shop@@U?$less@V?$basic_string@DU?$char_traits@D@std@@V?$allocator@D@2@@std@@@2@V?$allocator@U?$pair@$$CBV?$basic_string@DU?$char_traits@D@std@@V?$allocator@D@2@@std@@PEAUItem@Shop@@@std@@@2@$0A@@std@@@std@@QEAA?AV?$_Tree_iterator@V?$_Tree_val@U?$_Tree_simple_types@U?$pair@$$CBV?$basic_string@DU?$char_traits@D@std@@V?$allocator@D@2@@std@@PEAUItem@Shop@@@std@@@std@@@std@@@2@V?$_Tree_const_iterator@V?$_Tree_val@U?$_Tree_simple_types@U?$pair@$$CBV?$basic_string@DU?$char_traits@D@std@@V?$allocator@D@2@@std@@PEAUItem@Shop@@@std@@@std@@@std@@@2@0@Z 0000000140032dc4     Shop.obj
 0002:00006dc4       $stateUnwindMap$??1?$unique_ptr@V_Facet_base@std@@U?$default_delete@V_Facet_base@std@@@2@@std@@QEAA@XZ 0000000140032dc4     Animation.obj
 0002:00006dc4       $stateUnwindMap$?erase@?$_Tree@V?$_Tmap_traits@PEAUID3D11Device@@V?$weak_ptr@VImpl@CommonStates@DirectX@@@std@@U?$less@PEAUID3D11Device@@@3@V?$allocator@U?$pair@QEAUID3D11Device@@V?$weak_ptr@VImpl@CommonStates@DirectX@@@std@@@std@@@3@$0A@@std@@@std@@QEAA?AV?$_Tree_iterator@V?$_Tree_val@U?$_Tree_simple_types@U?$pair@QEAUID3D11Device@@V?$weak_ptr@VImpl@CommonStates@DirectX@@@std@@@std@@@std@@@std@@@2@V?$_Tree_const_iterator@V?$_Tree_val@U?$_Tree_simple_types@U?$pair@QEAUID3D11Device@@V?$weak_ptr@VImpl@CommonStates@DirectX@@@std@@@std@@@std@@@std@@@2@0@Z 0000000140032dc4     DirectXTK:CommonStates.obj
 0002:00006dc4       $stateUnwindMap$??1sentry@?$basic_ostream@DU?$char_traits@D@std@@@std@@QEAA@XZ 0000000140032dc4     SkyboxShader.obj
 0002:00006dc4       $stateUnwindMap$?erase@?$_Tree@V?$_Tmap_traits@PEAUID3D11DeviceContext@@V?$weak_ptr@UContextResources@Impl@SpriteBatch@DirectX@@@std@@U?$less@PEAUID3D11DeviceContext@@@3@V?$allocator@U?$pair@QEAUID3D11DeviceContext@@V?$weak_ptr@UContextResources@Impl@SpriteBatch@DirectX@@@std@@@std@@@3@$0A@@std@@@std@@QEAA?AV?$_Tree_iterator@V?$_Tree_val@U?$_Tree_simple_types@U?$pair@QEAUID3D11DeviceContext@@V?$weak_ptr@UContextResources@Impl@SpriteBatch@DirectX@@@std@@@std@@@std@@@std@@@2@V?$_Tree_const_iterator@V?$_Tree_val@U?$_Tree_simple_types@U?$pair@QEAUID3D11DeviceContext@@V?$weak_ptr@UContextResources@Impl@SpriteBatch@DirectX@@@std@@@std@@@std@@@std@@@2@0@Z 0000000140032dc4     DirectXTK:SpriteBatch.obj
 0002:00006dc4       $stateUnwindMap$??1?$_Func_class@X$$V@std@@QEAA@XZ 0000000140032dc4     graphicsclass.obj
 0002:00006dc4       $stateUnwindMap$?__scrt_initialize_thread_safe_statics@@YAHXZ 0000000140032dc4     MSVCRT:thread_safe_statics.obj
 0002:00006dc4       $stateUnwindMap$?erase@?$_Tree@V?$_Tmap_traits@V?$basic_string@DU?$char_traits@D@std@@V?$allocator@D@2@@std@@PEAVUIElement@@U?$less@V?$basic_string@DU?$char_traits@D@std@@V?$allocator@D@2@@std@@@2@V?$allocator@U?$pair@$$CBV?$basic_string@DU?$char_traits@D@std@@V?$allocator@D@2@@std@@PEAVUIElement@@@std@@@2@$0A@@std@@@std@@QEAA?AV?$_Tree_iterator@V?$_Tree_val@U?$_Tree_simple_types@U?$pair@$$CBV?$basic_string@DU?$char_traits@D@std@@V?$allocator@D@2@@std@@PEAVUIElement@@@std@@@std@@@std@@@2@V?$_Tree_const_iterator@V?$_Tree_val@U?$_Tree_simple_types@U?$pair@$$CBV?$basic_string@DU?$char_traits@D@std@@V?$allocator@D@2@@std@@PEAVUIElement@@@std@@@std@@@std@@@2@0@Z 0000000140032dc4     Shop.obj
 0002:00006dc4       $stateUnwindMap$?_Destroy@?$_Ref_count_obj@UResourceMap@?$SharedResourcePool@PEAUID3D11DeviceContext@@UContextResources@Impl@SpriteBatch@DirectX@@$$V@DirectX@@@std@@EEAAXXZ 0000000140032dc4     DirectXTK:SpriteBatch.obj
 0002:00006dc4       $stateUnwindMap$?_Destroy@?$_Ref_count_obj@UResourceMap@?$SharedResourcePool@PEAUID3D11Device@@UDeviceResources@Impl@SpriteBatch@DirectX@@$$V@DirectX@@@std@@EEAAXXZ 0000000140032dc4     DirectXTK:SpriteBatch.obj
 0002:00006dc4       $stateUnwindMap$?erase@?$_Tree@V?$_Tmap_traits@PEAUID3D11Device@@V?$weak_ptr@UDeviceResources@Impl@SpriteBatch@DirectX@@@std@@U?$less@PEAUID3D11Device@@@3@V?$allocator@U?$pair@QEAUID3D11Device@@V?$weak_ptr@UDeviceResources@Impl@SpriteBatch@DirectX@@@std@@@std@@@3@$0A@@std@@@std@@QEAA?AV?$_Tree_iterator@V?$_Tree_val@U?$_Tree_simple_types@U?$pair@QEAUID3D11Device@@V?$weak_ptr@UDeviceResources@Impl@SpriteBatch@DirectX@@@std@@@std@@@std@@@std@@@2@V?$_Tree_const_iterator@V?$_Tree_val@U?$_Tree_simple_types@U?$pair@QEAUID3D11Device@@V?$weak_ptr@UDeviceResources@Impl@SpriteBatch@DirectX@@@std@@@std@@@std@@@std@@@2@0@Z 0000000140032dc4     DirectXTK:SpriteBatch.obj
 0002:00006dc4       $stateUnwindMap$??1_Fac_tidy_reg_t@std@@QEAA@XZ 0000000140032dc4     msvcprt:locale0_implib.obj
 0002:00006dc4       $stateUnwindMap$?_Destroy@?$_Ref_count_obj@UResourceMap@?$SharedResourcePool@PEAUID3D11Device@@VImpl@CommonStates@DirectX@@$$V@DirectX@@@std@@EEAAXXZ 0000000140032dc4     DirectXTK:CommonStates.obj
 0002:00006dc4       $stateUnwindMap$??1?$function@$$A6AXXZ@std@@QEAA@XZ 0000000140032dc4     graphicsclass.obj
 0002:00006dc4       $stateUnwindMap$?ShutDown@GameManager@@QEAAXXZ 0000000140032dc4     GameManager.obj
 0002:00006dd0       $ip2state$??1?$unique_ptr@V_Facet_base@std@@U?$default_delete@V_Facet_base@std@@@2@@std@@QEAA@XZ 0000000140032dd0     Animation.obj
 0002:00006dd8       $unwind$?Shutdown@GameObject@@UEAAXXZ 0000000140032dd8     GameObject.obj
 0002:00006dd8       $unwind$?_Change_array@?$vector@FV?$allocator@F@std@@@std@@AEAAXQEAF_K1@Z 0000000140032dd8     DirectXTK:SpriteBatch.obj
 0002:00006dd8       $unwind$?_Change_array@?$vector@V?$array@Ufloat4@@$03@std@@V?$allocator@V?$array@Ufloat4@@$03@std@@@2@@std@@AEAAXQEAV?$array@Ufloat4@@$03@2@_K1@Z 0000000140032dd8     Animation.obj
 0002:00006dec       $unwind$??$_Assign_range@PEAV?$array@Ufloat4@@$03@std@@@?$vector@V?$array@Ufloat4@@$03@std@@V?$allocator@V?$array@Ufloat4@@$03@std@@@2@@std@@AEAAXPEAV?$array@Ufloat4@@$03@1@0Uforward_iterator_tag@1@@Z 0000000140032dec     Animation.obj
 0002:00006e00       $unwind$??0Bullet@@QEAA@M@Z 0000000140032e00     Bullet.obj
 0002:00006e18       $stateUnwindMap$??0Bullet@@QEAA@M@Z 0000000140032e18     Bullet.obj
 0002:00006e28       $ip2state$??0Bullet@@QEAA@M@Z 0000000140032e28     Bullet.obj
 0002:00006e38       $unwind$?Initialize@Bullet@@QEAA_NPEAUID3D11Device@@PEBDUfloat3@@2V?$basic_string@DU?$char_traits@D@std@@V?$allocator@D@2@@std@@M@Z 0000000140032e38     Bullet.obj
 0002:00006e54       $stateUnwindMap$?Initialize@Bullet@@QEAA_NPEAUID3D11Device@@PEBDUfloat3@@2V?$basic_string@DU?$char_traits@D@std@@V?$allocator@D@2@@std@@M@Z 0000000140032e54     Bullet.obj
 0002:00006e60       $ip2state$?Initialize@Bullet@@QEAA_NPEAUID3D11Device@@PEBDUfloat3@@2V?$basic_string@DU?$char_traits@D@std@@V?$allocator@D@2@@std@@M@Z 0000000140032e60     Bullet.obj
 0002:00006e70       $unwind$??0?$basic_string@DU?$char_traits@D@std@@V?$allocator@D@2@@std@@QEAA@AEBV01@@Z 0000000140032e70     Bullet.obj
 0002:00006e80       $unwind$?assign@?$basic_string@DU?$char_traits@D@std@@V?$allocator@D@2@@std@@QEAAAEAV12@QEBD_K@Z 0000000140032e80     Bullet.obj
 0002:00006e90       $chain$0$?assign@?$basic_string@DU?$char_traits@D@std@@V?$allocator@D@2@@std@@QEAAAEAV12@QEBD_K@Z 0000000140032e90     Bullet.obj
 0002:00006ea4       $chain$2$?assign@?$basic_string@DU?$char_traits@D@std@@V?$allocator@D@2@@std@@QEAAAEAV12@QEBD_K@Z 0000000140032ea4     Bullet.obj
 0002:00006eb8       $chain$3$?assign@?$basic_string@DU?$char_traits@D@std@@V?$allocator@D@2@@std@@QEAAAEAV12@QEBD_K@Z 0000000140032eb8     Bullet.obj
 0002:00006ec8       $unwind$?XMVectorSinCos@DirectX@@YQXPEAT__m128@@0T2@@Z 0000000140032ec8     DebugCamera.obj
 0002:00006ed8       $unwind$?XMMatrixRotationRollPitchYawFromVector@DirectX@@YQ?AUXMMATRIX@1@T__m128@@@Z 0000000140032ed8     DebugCamera.obj
 0002:00006ee4       $unwind$?XMMatrixLookToLH@DirectX@@YQ?AUXMMATRIX@1@T__m128@@00@Z 0000000140032ee4     DebugCamera.obj
 0002:00006f00       $unwind$?XMQuaternionRotationRollPitchYawFromVector@DirectX@@YQ?AT__m128@@T2@@Z 0000000140032f00     DebugCamera.obj
 0002:00006f24       $unwind$?Update@DebugCamera@@QEAAXXZ 0000000140032f24     DebugCamera.obj
 0002:00006f48       $unwind$?SubHealth@Enemy@@QEAAXMW4DamageType@1@PEAUHWND__@@@Z 0000000140032f48     Enemy.obj
 0002:00006f68       $stateUnwindMap$?SubHealth@Enemy@@QEAAXMW4DamageType@1@PEAUHWND__@@@Z 0000000140032f68     Enemy.obj
 0002:00006fb0       $ip2state$?SubHealth@Enemy@@QEAAXMW4DamageType@1@PEAUHWND__@@@Z 0000000140032fb0     Enemy.obj
 0002:00007030       $chain$0$??0?$vector@PEAVBullet@@V?$allocator@PEAVBullet@@@std@@@std@@QEAA@AEBV01@@Z 0000000140033030     GameManager.obj
 0002:00007030       $chain$0$??0?$vector@PEAVSound@@V?$allocator@PEAVSound@@@std@@@std@@QEAA@AEBV01@@Z 0000000140033030     Enemy.obj
 0002:00007030       $chain$0$??0?$vector@PEAVPickup@@V?$allocator@PEAVPickup@@@std@@@std@@QEAA@AEBV01@@Z 0000000140033030     GameManager.obj
 0002:00007030       $chain$0$??0?$vector@PEAVGameObject@@V?$allocator@PEAVGameObject@@@std@@@std@@QEAA@AEBV01@@Z 0000000140033030     EnemyManager.obj
 0002:00007030       $chain$0$??0?$vector@PEAVEnemy@@V?$allocator@PEAVEnemy@@@std@@@std@@QEAA@AEBV01@@Z 0000000140033030     EnemyManager.obj
 0002:00007044       $chain$1$??0?$vector@PEAVPickup@@V?$allocator@PEAVPickup@@@std@@@std@@QEAA@AEBV01@@Z 0000000140033044     GameManager.obj
 0002:00007044       $chain$1$??0?$vector@PEAVSound@@V?$allocator@PEAVSound@@@std@@@std@@QEAA@AEBV01@@Z 0000000140033044     Enemy.obj
 0002:00007044       $chain$1$??0?$vector@PEAVGameObject@@V?$allocator@PEAVGameObject@@@std@@@std@@QEAA@AEBV01@@Z 0000000140033044     EnemyManager.obj
 0002:00007044       $chain$1$??0?$vector@PEAVEnemy@@V?$allocator@PEAVEnemy@@@std@@@std@@QEAA@AEBV01@@Z 0000000140033044     EnemyManager.obj
 0002:00007044       $chain$1$??0?$vector@PEAVBullet@@V?$allocator@PEAVBullet@@@std@@@std@@QEAA@AEBV01@@Z 0000000140033044     GameManager.obj
 0002:00007054       $chain$2$??$_Emplace_reallocate@AEBQEAVUIElement@@@?$vector@PEAVUIElement@@V?$allocator@PEAVUIElement@@@std@@@std@@QEAAPEAPEAVUIElement@@QEAPEAV2@AEBQEAV2@@Z 0000000140033054     UIManager.obj
 0002:00007054       $chain$2$??$_Emplace_reallocate@AEBQEAVPickup@@@?$vector@PEAVPickup@@V?$allocator@PEAVPickup@@@std@@@std@@QEAAPEAPEAVPickup@@QEAPEAV2@AEBQEAV2@@Z 0000000140033054     GameManager.obj
 0002:00007054       $chain$2$??$_Emplace_reallocate@AEBQEAVGun@@@?$vector@PEAVGun@@V?$allocator@PEAVGun@@@std@@@std@@QEAAPEAPEAVGun@@QEAPEAV2@AEBQEAV2@@Z 0000000140033054     GameManager.obj
 0002:00007054       $chain$2$??$_Emplace_reallocate@AEBQEAVSound@@@?$vector@PEAVSound@@V?$allocator@PEAVSound@@@std@@@std@@QEAAPEAPEAVSound@@QEAPEAV2@AEBQEAV2@@Z 0000000140033054     Enemy.obj
 0002:00007054       $chain$2$??$_Emplace_reallocate@PEAVGameObject@@@?$vector@PEAVGameObject@@V?$allocator@PEAVGameObject@@@std@@@std@@QEAAPEAPEAVGameObject@@QEAPEAV2@$$QEAPEAV2@@Z 0000000140033054     GameManager.obj
 0002:00007054       $chain$2$??$_Emplace_reallocate@PEAVEnemy@@@?$vector@PEAVEnemy@@V?$allocator@PEAVEnemy@@@std@@@std@@QEAAPEAPEAVEnemy@@QEAPEAV2@$$QEAPEAV2@@Z 0000000140033054     EnemyManager.obj
 0002:00007054       $chain$2$??$_Emplace_reallocate@PEAVBullet@@@?$vector@PEAVBullet@@V?$allocator@PEAVBullet@@@std@@@std@@QEAAPEAPEAVBullet@@QEAPEAV2@$$QEAPEAV2@@Z 0000000140033054     GameManager.obj
 0002:00007070       $chain$4$??$_Emplace_reallocate@AEBQEAVGun@@@?$vector@PEAVGun@@V?$allocator@PEAVGun@@@std@@@std@@QEAAPEAPEAVGun@@QEAPEAV2@AEBQEAV2@@Z 0000000140033070     GameManager.obj
 0002:00007070       $chain$4$??$_Emplace_reallocate@PEAVBullet@@@?$vector@PEAVBullet@@V?$allocator@PEAVBullet@@@std@@@std@@QEAAPEAPEAVBullet@@QEAPEAV2@$$QEAPEAV2@@Z 0000000140033070     GameManager.obj
 0002:00007070       $chain$4$??$_Emplace_reallocate@AEBQEAVUIElement@@@?$vector@PEAVUIElement@@V?$allocator@PEAVUIElement@@@std@@@std@@QEAAPEAPEAVUIElement@@QEAPEAV2@AEBQEAV2@@Z 0000000140033070     UIManager.obj
 0002:00007070       $chain$4$??$_Emplace_reallocate@AEBQEAVSound@@@?$vector@PEAVSound@@V?$allocator@PEAVSound@@@std@@@std@@QEAAPEAPEAVSound@@QEAPEAV2@AEBQEAV2@@Z 0000000140033070     Enemy.obj
 0002:00007070       $chain$4$??$_Emplace_reallocate@PEAVEnemy@@@?$vector@PEAVEnemy@@V?$allocator@PEAVEnemy@@@std@@@std@@QEAAPEAPEAVEnemy@@QEAPEAV2@$$QEAPEAV2@@Z 0000000140033070     EnemyManager.obj
 0002:00007070       $chain$4$??$_Emplace_reallocate@PEAVGameObject@@@?$vector@PEAVGameObject@@V?$allocator@PEAVGameObject@@@std@@@std@@QEAAPEAPEAVGameObject@@QEAPEAV2@$$QEAPEAV2@@Z 0000000140033070     GameManager.obj
 0002:00007070       $chain$4$??$_Emplace_reallocate@AEBQEAVPickup@@@?$vector@PEAVPickup@@V?$allocator@PEAVPickup@@@std@@@std@@QEAAPEAPEAVPickup@@QEAPEAV2@AEBQEAV2@@Z 0000000140033070     GameManager.obj
 0002:0000708c       $chain$5$??$_Emplace_reallocate@PEAVBullet@@@?$vector@PEAVBullet@@V?$allocator@PEAVBullet@@@std@@@std@@QEAAPEAPEAVBullet@@QEAPEAV2@$$QEAPEAV2@@Z 000000014003308c     GameManager.obj
 0002:0000708c       $chain$5$??$_Emplace_reallocate@AEBQEAVSound@@@?$vector@PEAVSound@@V?$allocator@PEAVSound@@@std@@@std@@QEAAPEAPEAVSound@@QEAPEAV2@AEBQEAV2@@Z 000000014003308c     Enemy.obj
 0002:0000708c       $chain$5$??$_Emplace_reallocate@AEBQEAVGun@@@?$vector@PEAVGun@@V?$allocator@PEAVGun@@@std@@@std@@QEAAPEAPEAVGun@@QEAPEAV2@AEBQEAV2@@Z 000000014003308c     GameManager.obj
 0002:0000708c       $chain$5$??$_Emplace_reallocate@AEBQEAVUIElement@@@?$vector@PEAVUIElement@@V?$allocator@PEAVUIElement@@@std@@@std@@QEAAPEAPEAVUIElement@@QEAPEAV2@AEBQEAV2@@Z 000000014003308c     UIManager.obj
 0002:0000708c       $chain$5$??$_Emplace_reallocate@PEAVEnemy@@@?$vector@PEAVEnemy@@V?$allocator@PEAVEnemy@@@std@@@std@@QEAAPEAPEAVEnemy@@QEAPEAV2@$$QEAPEAV2@@Z 000000014003308c     EnemyManager.obj
 0002:0000708c       $chain$5$??$_Emplace_reallocate@PEAVGameObject@@@?$vector@PEAVGameObject@@V?$allocator@PEAVGameObject@@@std@@@std@@QEAAPEAPEAVGameObject@@QEAPEAV2@$$QEAPEAV2@@Z 000000014003308c     GameManager.obj
 0002:0000708c       $chain$5$??$_Emplace_reallocate@AEBQEAVPickup@@@?$vector@PEAVPickup@@V?$allocator@PEAVPickup@@@std@@@std@@QEAAPEAPEAVPickup@@QEAPEAV2@AEBQEAV2@@Z 000000014003308c     GameManager.obj
 0002:0000709c       $unwind$?Initialize@EnemyManager@@QEAAXPEAUID3D11Device@@@Z 000000014003309c     EnemyManager.obj
 0002:000070d8       $stateUnwindMap$?Initialize@EnemyManager@@QEAAXPEAUID3D11Device@@@Z 00000001400330d8     EnemyManager.obj
 0002:000070e8       $ip2state$?Initialize@EnemyManager@@QEAAXPEAUID3D11Device@@@Z 00000001400330e8     EnemyManager.obj
 0002:00007110       $unwind$?Update@EnemyManager@@QEAAXMPEAVPlayer@@V?$vector@PEAVGameObject@@V?$allocator@PEAVGameObject@@@std@@@std@@AEAV?$vector@PEAVBullet@@V?$allocator@PEAVBullet@@@std@@@4@PEAUID3D11Device@@@Z 0000000140033110     EnemyManager.obj
 0002:00007150       $stateUnwindMap$?Update@EnemyManager@@QEAAXMPEAVPlayer@@V?$vector@PEAVGameObject@@V?$allocator@PEAVGameObject@@@std@@@std@@AEAV?$vector@PEAVBullet@@V?$allocator@PEAVBullet@@@std@@@4@PEAUID3D11Device@@@Z 0000000140033150     EnemyManager.obj
 0002:00007168       $ip2state$?Update@EnemyManager@@QEAAXMPEAVPlayer@@V?$vector@PEAVGameObject@@V?$allocator@PEAVGameObject@@@std@@@std@@AEAV?$vector@PEAVBullet@@V?$allocator@PEAVBullet@@@std@@@4@PEAUID3D11Device@@@Z 0000000140033168     EnemyManager.obj
 0002:00007198       $unwind$?CalculateObstacleSeperation@EnemyManager@@QEAA?AUfloat3@@AEAVTarget@@V?$vector@PEAVGameObject@@V?$allocator@PEAVGameObject@@@std@@@std@@@Z 0000000140033198     EnemyManager.obj
 0002:000071a4       $chain$6$?CalculateObstacleSeperation@EnemyManager@@QEAA?AUfloat3@@AEAVTarget@@V?$vector@PEAVGameObject@@V?$allocator@PEAVGameObject@@@std@@@std@@@Z 00000001400331a4     EnemyManager.obj
 0002:000071d0       $chain$13$?CalculateObstacleSeperation@EnemyManager@@QEAA?AUfloat3@@AEAVTarget@@V?$vector@PEAVGameObject@@V?$allocator@PEAVGameObject@@@std@@@std@@@Z 00000001400331d0     EnemyManager.obj
 0002:000071fc       $chain$14$?CalculateObstacleSeperation@EnemyManager@@QEAA?AUfloat3@@AEAVTarget@@V?$vector@PEAVGameObject@@V?$allocator@PEAVGameObject@@@std@@@std@@@Z 00000001400331fc     EnemyManager.obj
 0002:0000720c       $chain$15$?CalculateObstacleSeperation@EnemyManager@@QEAA?AUfloat3@@AEAVTarget@@V?$vector@PEAVGameObject@@V?$allocator@PEAVGameObject@@@std@@@std@@@Z 000000014003320c     EnemyManager.obj
 0002:0000722c       $chain$16$?CalculateObstacleSeperation@EnemyManager@@QEAA?AUfloat3@@AEAVTarget@@V?$vector@PEAVGameObject@@V?$allocator@PEAVGameObject@@@std@@@std@@@Z 000000014003322c     EnemyManager.obj
 0002:0000723c       $unwind$?Construct@Frustum@@QEAAXMUXMMATRIX@DirectX@@0@Z 000000014003323c     Frustum.obj
 0002:00007278       $unwind$??0GameObject@@QEAA@XZ 0000000140033278     GameObject.obj
 0002:00007290       $stateUnwindMap$??0GameObject@@QEAA@XZ 0000000140033290     GameObject.obj
 0002:000072b8       $ip2state$??0GameObject@@QEAA@XZ 00000001400332b8     GameObject.obj
 0002:000072c8       $unwind$?GetParent@GameObject@@QEAAHHV?$vector@HV?$allocator@H@std@@@std@@@Z 00000001400332c8     GameObject.obj
 0002:000072e0       $stateUnwindMap$?GetParent@GameObject@@QEAAHHV?$vector@HV?$allocator@H@std@@@std@@@Z 00000001400332e0     GameObject.obj
 0002:000072e8       $ip2state$?GetParent@GameObject@@QEAAHHV?$vector@HV?$allocator@H@std@@@std@@@Z 00000001400332e8     GameObject.obj
 0002:000072f8       $unwind$?Update@GameObject@@UEAAXM@Z 00000001400332f8     GameObject.obj
 0002:00007304       $unwind$?AddAninimation@GameObject@@QEAAXPEBDPEAUID3D11Device@@H@Z 0000000140033304     GameObject.obj
 0002:00007328       $stateUnwindMap$?AddAninimation@GameObject@@QEAAXPEBDPEAUID3D11Device@@H@Z 0000000140033328     GameObject.obj
 0002:00007360       $ip2state$?AddAninimation@GameObject@@QEAAXPEBDPEAUID3D11Device@@H@Z 0000000140033360     GameObject.obj
 0002:000073b0       $unwind$??0?$vector@Ukeyframe@@V?$allocator@Ukeyframe@@@std@@@std@@QEAA@AEBV01@@Z 00000001400333b0     GameObject.obj
 0002:000073cc       $stateUnwindMap$??0?$vector@Ukeyframe@@V?$allocator@Ukeyframe@@@std@@@std@@QEAA@AEBV01@@Z 00000001400333cc     GameObject.obj
 0002:000073e4       $tryMap$??0?$vector@Ukeyframe@@V?$allocator@Ukeyframe@@@std@@@std@@QEAA@AEBV01@@Z 00000001400333e4     GameObject.obj
 0002:000073f8       $handlerMap$0$??0?$vector@Ukeyframe@@V?$allocator@Ukeyframe@@@std@@@std@@QEAA@AEBV01@@Z 00000001400333f8     GameObject.obj
 0002:00007410       $ip2state$??0?$vector@Ukeyframe@@V?$allocator@Ukeyframe@@@std@@@std@@QEAA@AEBV01@@Z 0000000140033410     GameObject.obj
 0002:00007438       $unwind$?catch$2@?0???0?$vector@Ukeyframe@@V?$allocator@Ukeyframe@@@std@@@std@@QEAA@AEBV01@@Z@4HA 0000000140033438     GameObject.obj
 0002:00007448       $unwind$??$_Emplace_reallocate@AEBUSphere@@@?$vector@USphere@@V?$allocator@USphere@@@std@@@std@@QEAAPEAUSphere@@QEAU2@AEBU2@@Z 0000000140033448     GameObject.obj
 0002:00007458       $chain$1$??$_Emplace_reallocate@AEBUSphere@@@?$vector@USphere@@V?$allocator@USphere@@@std@@@std@@QEAAPEAUSphere@@QEAU2@AEBU2@@Z 0000000140033458     GameObject.obj
 0002:00007470       $chain$3$??$_Emplace_reallocate@AEBUSphere@@@?$vector@USphere@@V?$allocator@USphere@@@std@@@std@@QEAAPEAUSphere@@QEAU2@AEBU2@@Z 0000000140033470     GameObject.obj
 0002:00007488       $chain$4$??$_Emplace_reallocate@AEBUSphere@@@?$vector@USphere@@V?$allocator@USphere@@@std@@@std@@QEAAPEAUSphere@@QEAU2@AEBU2@@Z 0000000140033488     GameObject.obj
 0002:00007498       $unwind$??$_Resize@V<lambda_a3e9ab7309acaaa5a225906574bbc117>@@@?$vector@IV?$allocator@I@std@@@std@@AEAAX_KV<lambda_a3e9ab7309acaaa5a225906574bbc117>@@@Z 0000000140033498     Model.obj
 0002:00007498       $unwind$??$_Resize@V<lambda_5faba587ae6cafb8bb5bc4a9224fce8d>@@@?$vector@PEAVAnimation@@V?$allocator@PEAVAnimation@@@std@@@std@@AEAAX_KV<lambda_5faba587ae6cafb8bb5bc4a9224fce8d>@@@Z 0000000140033498     GameObject.obj
 0002:000074a8       $chain$0$??$_Resize@V<lambda_5faba587ae6cafb8bb5bc4a9224fce8d>@@@?$vector@PEAVAnimation@@V?$allocator@PEAVAnimation@@@std@@@std@@AEAAX_KV<lambda_5faba587ae6cafb8bb5bc4a9224fce8d>@@@Z 00000001400334a8     GameObject.obj
 0002:000074bc       $chain$1$??$_Resize@V<lambda_5faba587ae6cafb8bb5bc4a9224fce8d>@@@?$vector@PEAVAnimation@@V?$allocator@PEAVAnimation@@@std@@@std@@AEAAX_KV<lambda_5faba587ae6cafb8bb5bc4a9224fce8d>@@@Z 00000001400334bc     GameObject.obj
 0002:000074bc       $chain$3$??$_Resize@V<lambda_5faba587ae6cafb8bb5bc4a9224fce8d>@@@?$vector@PEAVAnimation@@V?$allocator@PEAVAnimation@@@std@@@std@@AEAAX_KV<lambda_5faba587ae6cafb8bb5bc4a9224fce8d>@@@Z 00000001400334bc     GameObject.obj
 0002:000074cc       $chain$2$??$_Resize@V<lambda_5faba587ae6cafb8bb5bc4a9224fce8d>@@@?$vector@PEAVAnimation@@V?$allocator@PEAVAnimation@@@std@@@std@@AEAAX_KV<lambda_5faba587ae6cafb8bb5bc4a9224fce8d>@@@Z 00000001400334cc     GameObject.obj
 0002:000074e0       $unwind$?Initialize@DX@@QEAA_NHH_NPEAUHWND__@@0MM@Z 00000001400334e0     dxstuff.obj
 0002:00007504       $chain$1$?Initialize@DX@@QEAA_NHH_NPEAUHWND__@@0MM@Z 0000000140033504     dxstuff.obj
 0002:0000751c       $chain$2$?Initialize@DX@@QEAA_NHH_NPEAUHWND__@@0MM@Z 000000014003351c     dxstuff.obj
 0002:0000752c       $unwind$??1?$function@$$A6AXXZ@std@@QEAA@XZ 000000014003352c     graphicsclass.obj
 0002:0000752c       $unwind$??1?$_Func_class@X$$V@std@@QEAA@XZ 000000014003352c     graphicsclass.obj
 0002:00007540       $ip2state$??1?$_Func_class@X$$V@std@@QEAA@XZ 0000000140033540     graphicsclass.obj
 0002:00007540       $ip2state$??1?$function@$$A6AXXZ@std@@QEAA@XZ 0000000140033540     graphicsclass.obj
 0002:00007548       $unwind$?Initialize@Graphics@@QEAA_NHHPEAUHWND__@@PEAVInputManager@@@Z 0000000140033548     graphicsclass.obj
 0002:0000756c       $stateUnwindMap$?Initialize@Graphics@@QEAA_NHHPEAUHWND__@@PEAVInputManager@@@Z 000000014003356c     graphicsclass.obj
 0002:000075a0       $ip2state$?Initialize@Graphics@@QEAA_NHHPEAUHWND__@@PEAVInputManager@@@Z 00000001400335a0     graphicsclass.obj
 0002:00007618       $unwind$?Shutdown@Graphics@@QEAAXXZ 0000000140033618     graphicsclass.obj
 0002:00007618       $unwind$?GetSurfaceInfo@LoaderHelpers@DirectX@@YAJ_K0W4DXGI_FORMAT@@PEA_K22@Z 0000000140033618     DirectXTK:DDSTextureLoader.obj
 0002:00007618       $unwind$?Shutdown@ShaderManager@@QEAAXXZ 0000000140033618     ShaderManager.obj
 0002:00007618       $unwind$??_GSpriteBatch@DirectX@@UEAAPEAXI@Z 0000000140033618     DirectXTK:SpriteBatch.obj
 0002:00007628       $unwind$?Render@Graphics@@QEAA_NPEAVInputManager@@PEAVPlayer@@V?$vector@PEAVBullet@@V?$allocator@PEAVBullet@@@std@@@std@@V?$vector@PEAVEnemy@@V?$allocator@PEAVEnemy@@@std@@@5@V?$vector@PEAVGameObject@@V?$allocator@PEAVGameObject@@@std@@@5@V?$vector@PEAVPickup@@V?$allocator@PEAVPickup@@@std@@@5@@Z 0000000140033628     graphicsclass.obj
 0002:00007678       $stateUnwindMap$?Render@Graphics@@QEAA_NPEAVInputManager@@PEAVPlayer@@V?$vector@PEAVBullet@@V?$allocator@PEAVBullet@@@std@@@std@@V?$vector@PEAVEnemy@@V?$allocator@PEAVEnemy@@@std@@@5@V?$vector@PEAVGameObject@@V?$allocator@PEAVGameObject@@@std@@@5@V?$vector@PEAVPickup@@V?$allocator@PEAVPickup@@@std@@@5@@Z 0000000140033678     graphicsclass.obj
 0002:000076f0       $ip2state$?Render@Graphics@@QEAA_NPEAVInputManager@@PEAVPlayer@@V?$vector@PEAVBullet@@V?$allocator@PEAVBullet@@@std@@@std@@V?$vector@PEAVEnemy@@V?$allocator@PEAVEnemy@@@std@@@5@V?$vector@PEAVGameObject@@V?$allocator@PEAVGameObject@@@std@@@5@V?$vector@PEAVPickup@@V?$allocator@PEAVPickup@@@std@@@5@@Z 00000001400336f0     graphicsclass.obj
 0002:000077a8       $unwind$?to_string@std@@YA?AV?$basic_string@DU?$char_traits@D@std@@V?$allocator@D@2@@1@I@Z 00000001400337a8     GameManager.obj
 0002:000077a8       $unwind$?to_string@std@@YA?AV?$basic_string@DU?$char_traits@D@std@@V?$allocator@D@2@@1@H@Z 00000001400337a8     GameManager.obj
 0002:000077b8       $unwind$?MovingSphereToSphere@@YA_NAEBUSphere@@AEBUfloat3@@0AEAM@Z 00000001400337b8     GameManager.obj
 0002:000077e0       $unwind$??0GameManager@@QEAA@XZ 00000001400337e0     GameManager.obj
 0002:000077f8       $stateUnwindMap$??0GameManager@@QEAA@XZ 00000001400337f8     GameManager.obj
 0002:00007820       $ip2state$??0GameManager@@QEAA@XZ 0000000140033820     GameManager.obj
 0002:00007840       $unwind$?UpdateScoreText@GameManager@@QEAAXXZ 0000000140033840     GameManager.obj
 0002:0000786c       $stateUnwindMap$?UpdateHealthText@GameManager@@QEAAXXZ 000000014003386c     GameManager.obj
 0002:0000786c       $stateUnwindMap$?UpdateScoreText@GameManager@@QEAAXXZ 000000014003386c     GameManager.obj
 0002:00007888       $ip2state$?UpdateScoreText@GameManager@@QEAAXXZ 0000000140033888     GameManager.obj
 0002:000078a8       $unwind$?UpdateHealthText@GameManager@@QEAAXXZ 00000001400338a8     GameManager.obj
 0002:000078d8       $ip2state$?UpdateHealthText@GameManager@@QEAAXXZ 00000001400338d8     GameManager.obj
 0002:000078f8       $unwind$?UpdateTimerText@GameManager@@QEAAXM@Z 00000001400338f8     GameManager.obj
 0002:00007918       $ip2state$?UpdateTimerText@GameManager@@QEAAXM@Z 0000000140033918     GameManager.obj
 0002:00007928       $unwind$?UpdateDamageTimerText@GameManager@@QEAAXXZ 0000000140033928     GameManager.obj
 0002:00007948       $ip2state$?UpdateDamageTimerText@GameManager@@QEAAXXZ 0000000140033948     GameManager.obj
 0002:00007958       $unwind$?ShootBullets@GameManager@@QEAAXXZ 0000000140033958     GameManager.obj
 0002:00007978       $stateUnwindMap$?ShootBullets@GameManager@@QEAAXXZ 0000000140033978     GameManager.obj
 0002:000079a0       $ip2state$?ShootBullets@GameManager@@QEAAXXZ 00000001400339a0     GameManager.obj
 0002:000079f0       $unwind$?SpawnHealthPickup@GameManager@@QEAAXUfloat3@@@Z 00000001400339f0     GameManager.obj
 0002:00007a08       $stateUnwindMap$?SpawnDamagePickup@GameManager@@QEAAXUfloat3@@@Z 0000000140033a08     GameManager.obj
 0002:00007a08       $stateUnwindMap$?SpawnHealthPickup@GameManager@@QEAAXUfloat3@@@Z 0000000140033a08     GameManager.obj
 0002:00007a10       $ip2state$?SpawnHealthPickup@GameManager@@QEAAXUfloat3@@@Z 0000000140033a10     GameManager.obj
 0002:00007a28       $unwind$?SpawnDamagePickup@GameManager@@QEAAXUfloat3@@@Z 0000000140033a28     GameManager.obj
 0002:00007a40       $ip2state$?SpawnDamagePickup@GameManager@@QEAAXUfloat3@@@Z 0000000140033a40     GameManager.obj
 0002:00007a58       $unwind$?Update@GameManager@@QEAAXMM@Z 0000000140033a58     GameManager.obj
 0002:00007aa8       $stateUnwindMap$?Update@GameManager@@QEAAXMM@Z 0000000140033aa8     GameManager.obj
 0002:00007b00       $ip2state$?Update@GameManager@@QEAAXMM@Z 0000000140033b00     GameManager.obj
 0002:00007bb8       $unwind$?Initialize@GameManager@@QEAA_NHHPEAUHWND__@@@Z 0000000140033bb8     GameManager.obj
 0002:00007be8       $stateUnwindMap$?Initialize@GameManager@@QEAA_NHHPEAUHWND__@@@Z 0000000140033be8     GameManager.obj
 0002:00007c20       $ip2state$?Initialize@GameManager@@QEAA_NHHPEAUHWND__@@@Z 0000000140033c20     GameManager.obj
 0002:00007c70       $unwind$?ShutDown@GameManager@@QEAAXXZ 0000000140033c70     GameManager.obj
 0002:00007c90       $ip2state$?ShutDown@GameManager@@QEAAXXZ 0000000140033c90     GameManager.obj
 0002:00007cb8       $chain$0$??0?$vector@USphere@@V?$allocator@USphere@@@std@@@std@@QEAA@AEBV01@@Z 0000000140033cb8     GameManager.obj
 0002:00007ccc       $chain$1$??0?$vector@USphere@@V?$allocator@USphere@@@std@@@std@@QEAA@AEBV01@@Z 0000000140033ccc     GameManager.obj
 0002:00007cdc       $unwind$??$?HDU?$char_traits@D@std@@V?$allocator@D@1@@std@@YA?AV?$basic_string@DU?$char_traits@D@std@@V?$allocator@D@2@@0@QEBD$$QEAV10@@Z 0000000140033cdc     GameManager.obj
 0002:00007cec       $chain$1$??$?HDU?$char_traits@D@std@@V?$allocator@D@1@@std@@YA?AV?$basic_string@DU?$char_traits@D@std@@V?$allocator@D@2@@0@QEBD$$QEAV10@@Z 0000000140033cec     GameManager.obj
 0002:00007d04       $chain$2$??$?HDU?$char_traits@D@std@@V?$allocator@D@1@@std@@YA?AV?$basic_string@DU?$char_traits@D@std@@V?$allocator@D@2@@0@QEBD$$QEAV10@@Z 0000000140033d04     GameManager.obj
 0002:00007d14       $unwind$??$_Reallocate_grow_by@V<lambda_f3a66ab6a0570788f31503db83886f49>@@_KPEBD_K@?$basic_string@DU?$char_traits@D@std@@V?$allocator@D@2@@std@@QEAAAEAV01@_KV<lambda_f3a66ab6a0570788f31503db83886f49>@@_KPEBD2@Z 0000000140033d14     GameManager.obj
 0002:00007d24       $chain$2$??$_Reallocate_grow_by@V<lambda_f3a66ab6a0570788f31503db83886f49>@@_KPEBD_K@?$basic_string@DU?$char_traits@D@std@@V?$allocator@D@2@@std@@QEAAAEAV01@_KV<lambda_f3a66ab6a0570788f31503db83886f49>@@_KPEBD2@Z 0000000140033d24     GameManager.obj
 0002:00007d40       $chain$3$??$_Reallocate_grow_by@V<lambda_f3a66ab6a0570788f31503db83886f49>@@_KPEBD_K@?$basic_string@DU?$char_traits@D@std@@V?$allocator@D@2@@std@@QEAAAEAV01@_KV<lambda_f3a66ab6a0570788f31503db83886f49>@@_KPEBD2@Z 0000000140033d40     GameManager.obj
 0002:00007d50       $unwind$?Update@Camera@@QEAAXUXMFLOAT3@DirectX@@@Z 0000000140033d50     Camera.obj
 0002:00007d64       $unwind$?GetInput@Camera@@QEAAXPEAVInputManager@@MAEAUXMMATRIX@DirectX@@PEAVPlayer@@@Z 0000000140033d64     Camera.obj
 0002:00007d78       $unwind$?SetCharacterPosition@Camera@@QEAAXNAEAT__m128@@AEAUXMMATRIX@DirectX@@@Z 0000000140033d78     Camera.obj
 0002:00007da0       $unwind$?ReadMeshFile@Model@@AEAAXPEBDPEAUID3D11Device@@@Z 0000000140033da0     Model.obj
 0002:00007dc4       $stateUnwindMap$?ReadMeshFile@Model@@AEAAXPEBDPEAUID3D11Device@@@Z 0000000140033dc4     Model.obj
 0002:00007de0       $ip2state$?ReadMeshFile@Model@@AEAAXPEBDPEAUID3D11Device@@@Z 0000000140033de0     Model.obj
 0002:00007e10       $unwind$?Initialize@Model@@QEAA_NPEBDPEAUID3D11Device@@@Z 0000000140033e10     Model.obj
 0002:00007e24       $unwind$?Render@Model@@QEAAXPEAUID3D11DeviceContext@@@Z 0000000140033e24     Model.obj
 0002:00007e38       $unwind$??$_Resize@V<lambda_3dc4585328ffa41edbf28992c66dc9db>@@@?$vector@Umaterial_t@@V?$allocator@Umaterial_t@@@std@@@std@@AEAAX_KV<lambda_3dc4585328ffa41edbf28992c66dc9db>@@@Z 0000000140033e38     Model.obj
 0002:00007e4c       $chain$1$??$_Resize@V<lambda_3dc4585328ffa41edbf28992c66dc9db>@@@?$vector@Umaterial_t@@V?$allocator@Umaterial_t@@@std@@@std@@AEAAX_KV<lambda_3dc4585328ffa41edbf28992c66dc9db>@@@Z 0000000140033e4c     Model.obj
 0002:00007e64       $chain$4$??$_Resize@V<lambda_3dc4585328ffa41edbf28992c66dc9db>@@@?$vector@Umaterial_t@@V?$allocator@Umaterial_t@@@std@@@std@@AEAAX_KV<lambda_3dc4585328ffa41edbf28992c66dc9db>@@@Z 0000000140033e64     Model.obj
 0002:00007e64       $chain$2$??$_Resize@V<lambda_3dc4585328ffa41edbf28992c66dc9db>@@@?$vector@Umaterial_t@@V?$allocator@Umaterial_t@@@std@@@std@@AEAAX_KV<lambda_3dc4585328ffa41edbf28992c66dc9db>@@@Z 0000000140033e64     Model.obj
 0002:00007e74       $chain$3$??$_Resize@V<lambda_3dc4585328ffa41edbf28992c66dc9db>@@@?$vector@Umaterial_t@@V?$allocator@Umaterial_t@@@std@@@std@@AEAAX_KV<lambda_3dc4585328ffa41edbf28992c66dc9db>@@@Z 0000000140033e74     Model.obj
 0002:00007e8c       $unwind$??$_Resize@V<lambda_90a86d33119e9cefaad228fe3fc3f04c>@@@?$vector@V?$array@D$0BAE@@std@@V?$allocator@V?$array@D$0BAE@@std@@@2@@std@@AEAAX_KV<lambda_90a86d33119e9cefaad228fe3fc3f04c>@@@Z 0000000140033e8c     Model.obj
 0002:00007e8c       $unwind$??$_Resize@V<lambda_189af720543607fa3630bc45f408d767>@@@?$vector@UVertex@@V?$allocator@UVertex@@@std@@@std@@AEAAX_KV<lambda_189af720543607fa3630bc45f408d767>@@@Z 0000000140033e8c     Model.obj
 0002:00007e9c       $chain$0$??$_Resize@V<lambda_90a86d33119e9cefaad228fe3fc3f04c>@@@?$vector@V?$array@D$0BAE@@std@@V?$allocator@V?$array@D$0BAE@@std@@@2@@std@@AEAAX_KV<lambda_90a86d33119e9cefaad228fe3fc3f04c>@@@Z 0000000140033e9c     Model.obj
 0002:00007eb0       $chain$1$??$_Resize@V<lambda_90a86d33119e9cefaad228fe3fc3f04c>@@@?$vector@V?$array@D$0BAE@@std@@V?$allocator@V?$array@D$0BAE@@std@@@2@@std@@AEAAX_KV<lambda_90a86d33119e9cefaad228fe3fc3f04c>@@@Z 0000000140033eb0     Model.obj
 0002:00007eb0       $chain$3$??$_Resize@V<lambda_90a86d33119e9cefaad228fe3fc3f04c>@@@?$vector@V?$array@D$0BAE@@std@@V?$allocator@V?$array@D$0BAE@@std@@@2@@std@@AEAAX_KV<lambda_90a86d33119e9cefaad228fe3fc3f04c>@@@Z 0000000140033eb0     Model.obj
 0002:00007ec0       $chain$2$??$_Resize@V<lambda_90a86d33119e9cefaad228fe3fc3f04c>@@@?$vector@V?$array@D$0BAE@@std@@V?$allocator@V?$array@D$0BAE@@std@@@2@@std@@AEAAX_KV<lambda_90a86d33119e9cefaad228fe3fc3f04c>@@@Z 0000000140033ec0     Model.obj
 0002:00007ed4       $chain$0$??$_Resize@V<lambda_a3e9ab7309acaaa5a225906574bbc117>@@@?$vector@IV?$allocator@I@std@@@std@@AEAAX_KV<lambda_a3e9ab7309acaaa5a225906574bbc117>@@@Z 0000000140033ed4     Model.obj
 0002:00007ee8       $chain$3$??$_Resize@V<lambda_a3e9ab7309acaaa5a225906574bbc117>@@@?$vector@IV?$allocator@I@std@@@std@@AEAAX_KV<lambda_a3e9ab7309acaaa5a225906574bbc117>@@@Z 0000000140033ee8     Model.obj
 0002:00007ee8       $chain$1$??$_Resize@V<lambda_a3e9ab7309acaaa5a225906574bbc117>@@@?$vector@IV?$allocator@I@std@@@std@@AEAAX_KV<lambda_a3e9ab7309acaaa5a225906574bbc117>@@@Z 0000000140033ee8     Model.obj
 0002:00007ef8       $chain$2$??$_Resize@V<lambda_a3e9ab7309acaaa5a225906574bbc117>@@@?$vector@IV?$allocator@I@std@@@std@@AEAAX_KV<lambda_a3e9ab7309acaaa5a225906574bbc117>@@@Z 0000000140033ef8     Model.obj
 0002:00007f0c       $chain$0$??$_Resize@V<lambda_189af720543607fa3630bc45f408d767>@@@?$vector@UVertex@@V?$allocator@UVertex@@@std@@@std@@AEAAX_KV<lambda_189af720543607fa3630bc45f408d767>@@@Z 0000000140033f0c     Model.obj
 0002:00007f20       $chain$3$??$_Resize@V<lambda_189af720543607fa3630bc45f408d767>@@@?$vector@UVertex@@V?$allocator@UVertex@@@std@@@std@@AEAAX_KV<lambda_189af720543607fa3630bc45f408d767>@@@Z 0000000140033f20     Model.obj
 0002:00007f20       $chain$1$??$_Resize@V<lambda_189af720543607fa3630bc45f408d767>@@@?$vector@UVertex@@V?$allocator@UVertex@@@std@@@std@@AEAAX_KV<lambda_189af720543607fa3630bc45f408d767>@@@Z 0000000140033f20     Model.obj
 0002:00007f30       $chain$2$??$_Resize@V<lambda_189af720543607fa3630bc45f408d767>@@@?$vector@UVertex@@V?$allocator@UVertex@@@std@@@std@@AEAAX_KV<lambda_189af720543607fa3630bc45f408d767>@@@Z 0000000140033f30     Model.obj
 0002:00007f44       $unwind$?Run@MyWindow@@AEAA_NXZ 0000000140033f44     MyWindow.obj
 0002:00007f64       $stateUnwindMap$?Run@MyWindow@@AEAA_NXZ 0000000140033f64     MyWindow.obj
 0002:00007f80       $ip2state$?Run@MyWindow@@AEAA_NXZ 0000000140033f80     MyWindow.obj
 0002:00007fa8       $unwind$?Initialize@MyWindow@@QEAA_NXZ 0000000140033fa8     MyWindow.obj
 0002:00007fe8       $stateUnwindMap$?Initialize@MyWindow@@QEAA_NXZ 0000000140033fe8     MyWindow.obj
 0002:00008070       $ip2state$?Initialize@MyWindow@@QEAA_NXZ 0000000140034070     MyWindow.obj
 0002:00008210       $unwind$?Render@MyWindow@@QEAAXXZ 0000000140034210     MyWindow.obj
 0002:00008238       $unwind$?WndProc@@YA_JPEAUHWND__@@I_K_J@Z 0000000140034238     MyWindow.obj
 0002:00008238       $unwind$?Initialize@Player@@UEAA_NPEBDPEAUID3D11Device@@@Z 0000000140034238     Player.obj
 0002:00008240       $unwind$??$?HDU?$char_traits@D@std@@V?$allocator@D@1@@std@@YA?AV?$basic_string@DU?$char_traits@D@std@@V?$allocator@D@2@@0@QEBDAEBV10@@Z 0000000140034240     MyWindow.obj
 0002:00008258       $stateUnwindMap$??$?HDU?$char_traits@D@std@@V?$allocator@D@1@@std@@YA?AV?$basic_string@DU?$char_traits@D@std@@V?$allocator@D@2@@0@QEBDAEBV10@@Z 0000000140034258     MyWindow.obj
 0002:00008260       $ip2state$??$?HDU?$char_traits@D@std@@V?$allocator@D@1@@std@@YA?AV?$basic_string@DU?$char_traits@D@std@@V?$allocator@D@2@@0@QEBDAEBV10@@Z 0000000140034260     MyWindow.obj
 0002:00008268       $unwind$??$_Reallocate_grow_by@V<lambda_65e615be2a453ca0576c979606f46740>@@PEBD_K@?$basic_string@DU?$char_traits@D@std@@V?$allocator@D@2@@std@@QEAAAEAV01@_KV<lambda_65e615be2a453ca0576c979606f46740>@@PEBD_K@Z 0000000140034268     MyWindow.obj
 0002:00008278       $chain$3$??$_Reallocate_grow_by@V<lambda_65e615be2a453ca0576c979606f46740>@@PEBD_K@?$basic_string@DU?$char_traits@D@std@@V?$allocator@D@2@@std@@QEAAAEAV01@_KV<lambda_65e615be2a453ca0576c979606f46740>@@PEBD_K@Z 0000000140034278     MyWindow.obj
 0002:00008298       $chain$4$??$_Reallocate_grow_by@V<lambda_65e615be2a453ca0576c979606f46740>@@PEBD_K@?$basic_string@DU?$char_traits@D@std@@V?$allocator@D@2@@std@@QEAAAEAV01@_KV<lambda_65e615be2a453ca0576c979606f46740>@@PEBD_K@Z 0000000140034298     MyWindow.obj
 0002:000082a8       $unwind$?_Reset_move@?$_Func_class@X$$V@std@@IEAAX$$QEAV12@@Z 00000001400342a8     MyWindow.obj
 0002:000082c0       $ip2state$?_Reset_move@?$_Func_class@X$$V@std@@IEAAX$$QEAV12@@Z 00000001400342c0     MyWindow.obj
 0002:000082d0       $unwind$??$_Reallocate_grow_by@V<lambda_9013ee9e23efe4882b67eff5b0ecf103>@@$$V@?$basic_string@DU?$char_traits@D@std@@V?$allocator@D@2@@std@@QEAAAEAV01@_KV<lambda_9013ee9e23efe4882b67eff5b0ecf103>@@@Z 00000001400342d0     MyWindow.obj
 0002:000082dc       $chain$2$??$_Reallocate_grow_by@V<lambda_9013ee9e23efe4882b67eff5b0ecf103>@@$$V@?$basic_string@DU?$char_traits@D@std@@V?$allocator@D@2@@std@@QEAAAEAV01@_KV<lambda_9013ee9e23efe4882b67eff5b0ecf103>@@@Z 00000001400342dc     MyWindow.obj
 0002:000082f8       $chain$3$??$_Reallocate_grow_by@V<lambda_9013ee9e23efe4882b67eff5b0ecf103>@@$$V@?$basic_string@DU?$char_traits@D@std@@V?$allocator@D@2@@std@@QEAAAEAV01@_KV<lambda_9013ee9e23efe4882b67eff5b0ecf103>@@@Z 00000001400342f8     MyWindow.obj
 0002:00008308       $unwind$?Update@PhysicsComponent@@QEAAXM@Z 0000000140034308     PhysicsComponent.obj
 0002:00008318       $chain$2$?Update@PhysicsComponent@@QEAAXM@Z 0000000140034318     PhysicsComponent.obj
 0002:00008334       $chain$3$?Update@PhysicsComponent@@QEAAXM@Z 0000000140034334     PhysicsComponent.obj
 0002:00008344       $unwind$?Update@Player@@UEAAXM@Z 0000000140034344     Player.obj
 0002:00008374       $stateUnwindMap$?Update@Player@@UEAAXM@Z 0000000140034374     Player.obj
 0002:000083b0       $ip2state$?Update@Player@@UEAAXM@Z 00000001400343b0     Player.obj
 0002:00008400       $unwind$?LerpJoint@@YA?AV?$array@Ufloat4@@$03@std@@V12@0M@Z 0000000140034400     Player.obj
 0002:00008420       $unwind$?SetSkeletonLines@Player@@QEAA?AV?$vector@V?$array@Ufloat4@@$03@std@@V?$allocator@V?$array@Ufloat4@@$03@std@@@2@@std@@Uanim_clip@@0MM@Z 0000000140034420     Player.obj
 0002:00008470       $stateUnwindMap$?SetSkeletonLines@Player@@QEAA?AV?$vector@V?$array@Ufloat4@@$03@std@@V?$allocator@V?$array@Ufloat4@@$03@std@@@2@@std@@Uanim_clip@@0MM@Z 0000000140034470     Player.obj
 0002:000084b0       $ip2state$?SetSkeletonLines@Player@@QEAA?AV?$vector@V?$array@Ufloat4@@$03@std@@V?$allocator@V?$array@Ufloat4@@$03@std@@@2@@std@@Uanim_clip@@0MM@Z 00000001400344b0     Player.obj
 0002:000084f0       $unwind$??0RangedEnemy@@QEAA@XZ 00000001400344f0     RangedEnemy.obj
 0002:00008508       $stateUnwindMap$??0Target@@QEAA@XZ 0000000140034508     Target.obj
 0002:00008508       $stateUnwindMap$??0RangedEnemy@@QEAA@XZ 0000000140034508     RangedEnemy.obj
 0002:00008520       $ip2state$??0RangedEnemy@@QEAA@XZ 0000000140034520     RangedEnemy.obj
 0002:00008540       $unwind$?SetMouseOverTexture@ButtonElement@@QEAAXPEBD@Z 0000000140034540     UIElement.obj
 0002:00008540       $unwind$?Initialize@Target@@UEAA_NPEAUID3D11Device@@PEBDUfloat3@@@Z 0000000140034540     Target.obj
 0002:00008540       $unwind$?Initialize@RangedEnemy@@UEAA_NPEAUID3D11Device@@PEBDUfloat3@@@Z 0000000140034540     RangedEnemy.obj
 0002:00008540       $unwind$?SetMouseClickTexture@ButtonElement@@QEAAXPEBD@Z 0000000140034540     UIElement.obj
 0002:0000854c       $unwind$?Update@RangedEnemy@@UEAAXMPEAVPlayer@@AEAV?$vector@PEAVBullet@@V?$allocator@PEAVBullet@@@std@@@std@@PEAUID3D11Device@@@Z 000000014003454c     RangedEnemy.obj
 0002:00008560       $chain$1$?Update@RangedEnemy@@UEAAXMPEAVPlayer@@AEAV?$vector@PEAVBullet@@V?$allocator@PEAVBullet@@@std@@@std@@PEAUID3D11Device@@@Z 0000000140034560     RangedEnemy.obj
 0002:00008578       $chain$3$?Update@RangedEnemy@@UEAAXMPEAVPlayer@@AEAV?$vector@PEAVBullet@@V?$allocator@PEAVBullet@@@std@@@std@@PEAUID3D11Device@@@Z 0000000140034578     RangedEnemy.obj
 0002:0000858c       $chain$2$?Update@RangedEnemy@@UEAAXMPEAVPlayer@@AEAV?$vector@PEAVBullet@@V?$allocator@PEAVBullet@@@std@@@std@@PEAUID3D11Device@@@Z 000000014003458c     RangedEnemy.obj
 0002:0000859c       $unwind$?Attack@RangedEnemy@@QEAAXPEAVPlayer@@AEAV?$vector@PEAVBullet@@V?$allocator@PEAVBullet@@@std@@@std@@PEAUID3D11Device@@@Z 000000014003459c     RangedEnemy.obj
 0002:000085e0       $stateUnwindMap$?Attack@RangedEnemy@@QEAAXPEAVPlayer@@AEAV?$vector@PEAVBullet@@V?$allocator@PEAVBullet@@@std@@@std@@PEAUID3D11Device@@@Z 00000001400345e0     RangedEnemy.obj
 0002:000085e8       $ip2state$?Attack@RangedEnemy@@QEAAXPEAVPlayer@@AEAV?$vector@PEAVBullet@@V?$allocator@PEAVBullet@@@std@@@std@@PEAUID3D11Device@@@Z 00000001400345e8     RangedEnemy.obj
 0002:00008600       $unwind$?errorFunc@@YAJPEAU_EXCEPTION_POINTERS@@@Z 0000000140034600     RobotAnnihilation.obj
 0002:0000861c       $unwind$WinMain            000000014003461c     RobotAnnihilation.obj
 0002:00008630       $unwind$??0Item@Shop@@QEAA@W4WEAPONTYPE@1@MMMMV?$basic_string@DU?$char_traits@D@std@@V?$allocator@D@2@@std@@@Z 0000000140034630     Shop.obj
 0002:0000864c       $stateUnwindMap$??0Item@Shop@@QEAA@W4WEAPONTYPE@1@MMMMV?$basic_string@DU?$char_traits@D@std@@V?$allocator@D@2@@std@@@Z 000000014003464c     Shop.obj
 0002:00008660       $ip2state$??0Item@Shop@@QEAA@W4WEAPONTYPE@1@MMMMV?$basic_string@DU?$char_traits@D@std@@V?$allocator@D@2@@std@@@Z 0000000140034660     Shop.obj
 0002:00008670       $unwind$?<lambda_invoker_cdecl>@<lambda_9db9824f8b18fe401689e63f3bf6b9e4>@@CAHPEAT_RTL_RUN_ONCE@@PEAXPEAPEAX@Z 0000000140034670     WICTextureLoader.obj
 0002:00008670       $unwind$??1?$map@V?$basic_string@DU?$char_traits@D@std@@V?$allocator@D@2@@std@@PEAVUIElement@@U?$less@V?$basic_string@DU?$char_traits@D@std@@V?$allocator@D@2@@std@@@2@V?$allocator@U?$pair@$$CBV?$basic_string@DU?$char_traits@D@std@@V?$allocator@D@2@@std@@PEAVUIElement@@@std@@@2@@std@@QEAA@XZ 0000000140034670     Shop.obj
 0002:00008678       $unwind$?Initialize@Shop@@QEAA_NXZ 0000000140034678     Shop.obj
 0002:000086b4       $stateUnwindMap$?Initialize@Shop@@QEAA_NXZ 00000001400346b4     Shop.obj
 0002:00008820       $ip2state$?Initialize@Shop@@QEAA_NXZ 0000000140034820     Shop.obj
 0002:00008b88       $unwind$?ShowARStats@Shop@@QEAAXXZ 0000000140034b88     Shop.obj
 0002:00008b98       $stateUnwindMap$?ShowSMGStats@Shop@@QEAAXXZ 0000000140034b98     Shop.obj
 0002:00008b98       $stateUnwindMap$?ShowPistolStats@Shop@@QEAAXXZ 0000000140034b98     Shop.obj
 0002:00008b98       $stateUnwindMap$?ShowMeleStats@Shop@@QEAAXXZ 0000000140034b98     Shop.obj
 0002:00008b98       $stateUnwindMap$?ShowARStats@Shop@@QEAAXXZ 0000000140034b98     Shop.obj
 0002:00008bb0       $ip2state$?ShowARStats@Shop@@QEAAXXZ 0000000140034bb0     Shop.obj
 0002:00008be0       $unwind$?ShowSMGStats@Shop@@QEAAXXZ 0000000140034be0     Shop.obj
 0002:00008bf0       $ip2state$?ShowSMGStats@Shop@@QEAAXXZ 0000000140034bf0     Shop.obj
 0002:00008c20       $unwind$?ShowPistolStats@Shop@@QEAAXXZ 0000000140034c20     Shop.obj
 0002:00008c30       $ip2state$?ShowPistolStats@Shop@@QEAAXXZ 0000000140034c30     Shop.obj
 0002:00008c60       $unwind$?ShowMeleStats@Shop@@QEAAXXZ 0000000140034c60     Shop.obj
 0002:00008c70       $ip2state$?ShowMeleStats@Shop@@QEAAXXZ 0000000140034c70     Shop.obj
 0002:00008ca0       $unwind$?Update@Shop@@QEAAXXZ 0000000140034ca0     Shop.obj
 0002:00008cbc       $stateUnwindMap$?Update@Shop@@QEAAXXZ 0000000140034cbc     Shop.obj
 0002:00008cc8       $ip2state$?Update@Shop@@QEAAXXZ 0000000140034cc8     Shop.obj
 0002:00008ce0       $unwind$??1Shop@@QEAA@XZ   0000000140034ce0     Shop.obj
 0002:00008d04       $stateUnwindMap$?_Destroy@?$_Ref_count_obj@UWrappedData@?$SharedResourcePool@PEAUID3D11Device@@VImpl@CommonStates@DirectX@@$$V@DirectX@@@std@@EEAAXXZ 0000000140034d04     DirectXTK:CommonStates.obj
 0002:00008d04       $stateUnwindMap$?_Destroy@?$_Ref_count_obj@UWrappedData@?$SharedResourcePool@PEAUID3D11Device@@UDeviceResources@Impl@SpriteBatch@DirectX@@$$V@DirectX@@@std@@EEAAXXZ 0000000140034d04     DirectXTK:SpriteBatch.obj
 0002:00008d04       $stateUnwindMap$??1Shop@@QEAA@XZ 0000000140034d04     Shop.obj
 0002:00008d18       $ip2state$??1Shop@@QEAA@XZ 0000000140034d18     Shop.obj
 0002:00008d50       $unwind$??A?$map@V?$basic_string@DU?$char_traits@D@std@@V?$allocator@D@2@@std@@PEAUItem@Shop@@U?$less@V?$basic_string@DU?$char_traits@D@std@@V?$allocator@D@2@@std@@@2@V?$allocator@U?$pair@$$CBV?$basic_string@DU?$char_traits@D@std@@V?$allocator@D@2@@std@@PEAUItem@Shop@@@std@@@2@@std@@QEAAAEAPEAUItem@Shop@@$$QEAV?$basic_string@DU?$char_traits@D@std@@V?$allocator@D@2@@1@@Z 0000000140034d50     Shop.obj
 0002:00008d50       $unwind$??A?$map@V?$basic_string@DU?$char_traits@D@std@@V?$allocator@D@2@@std@@PEAVUIElement@@U?$less@V?$basic_string@DU?$char_traits@D@std@@V?$allocator@D@2@@std@@@2@V?$allocator@U?$pair@$$CBV?$basic_string@DU?$char_traits@D@std@@V?$allocator@D@2@@std@@PEAVUIElement@@@std@@@2@@std@@QEAAAEAPEAVUIElement@@$$QEAV?$basic_string@DU?$char_traits@D@std@@V?$allocator@D@2@@1@@Z 0000000140034d50     Shop.obj
 0002:00008d60       $chain$1$??A?$map@V?$basic_string@DU?$char_traits@D@std@@V?$allocator@D@2@@std@@PEAUItem@Shop@@U?$less@V?$basic_string@DU?$char_traits@D@std@@V?$allocator@D@2@@std@@@2@V?$allocator@U?$pair@$$CBV?$basic_string@DU?$char_traits@D@std@@V?$allocator@D@2@@std@@PEAUItem@Shop@@@std@@@2@@std@@QEAAAEAPEAUItem@Shop@@$$QEAV?$basic_string@DU?$char_traits@D@std@@V?$allocator@D@2@@1@@Z 0000000140034d60     Shop.obj
 0002:00008d60       $chain$1$??A?$map@V?$basic_string@DU?$char_traits@D@std@@V?$allocator@D@2@@std@@PEAVUIElement@@U?$less@V?$basic_string@DU?$char_traits@D@std@@V?$allocator@D@2@@std@@@2@V?$allocator@U?$pair@$$CBV?$basic_string@DU?$char_traits@D@std@@V?$allocator@D@2@@std@@PEAVUIElement@@@std@@@2@@std@@QEAAAEAPEAVUIElement@@$$QEAV?$basic_string@DU?$char_traits@D@std@@V?$allocator@D@2@@1@@Z 0000000140034d60     Shop.obj
 0002:00008d78       $chain$2$??A?$map@V?$basic_string@DU?$char_traits@D@std@@V?$allocator@D@2@@std@@PEAUItem@Shop@@U?$less@V?$basic_string@DU?$char_traits@D@std@@V?$allocator@D@2@@std@@@2@V?$allocator@U?$pair@$$CBV?$basic_string@DU?$char_traits@D@std@@V?$allocator@D@2@@std@@PEAUItem@Shop@@@std@@@2@@std@@QEAAAEAPEAUItem@Shop@@$$QEAV?$basic_string@DU?$char_traits@D@std@@V?$allocator@D@2@@1@@Z 0000000140034d78     Shop.obj
 0002:00008d78       $chain$4$??A?$map@V?$basic_string@DU?$char_traits@D@std@@V?$allocator@D@2@@std@@PEAVUIElement@@U?$less@V?$basic_string@DU?$char_traits@D@std@@V?$allocator@D@2@@std@@@2@V?$allocator@U?$pair@$$CBV?$basic_string@DU?$char_traits@D@std@@V?$allocator@D@2@@std@@PEAVUIElement@@@std@@@2@@std@@QEAAAEAPEAVUIElement@@$$QEAV?$basic_string@DU?$char_traits@D@std@@V?$allocator@D@2@@1@@Z 0000000140034d78     Shop.obj
 0002:00008d78       $chain$2$??A?$map@V?$basic_string@DU?$char_traits@D@std@@V?$allocator@D@2@@std@@PEAVUIElement@@U?$less@V?$basic_string@DU?$char_traits@D@std@@V?$allocator@D@2@@std@@@2@V?$allocator@U?$pair@$$CBV?$basic_string@DU?$char_traits@D@std@@V?$allocator@D@2@@std@@PEAVUIElement@@@std@@@2@@std@@QEAAAEAPEAVUIElement@@$$QEAV?$basic_string@DU?$char_traits@D@std@@V?$allocator@D@2@@1@@Z 0000000140034d78     Shop.obj
 0002:00008d78       $chain$4$??A?$map@V?$basic_string@DU?$char_traits@D@std@@V?$allocator@D@2@@std@@PEAUItem@Shop@@U?$less@V?$basic_string@DU?$char_traits@D@std@@V?$allocator@D@2@@std@@@2@V?$allocator@U?$pair@$$CBV?$basic_string@DU?$char_traits@D@std@@V?$allocator@D@2@@std@@PEAUItem@Shop@@@std@@@2@@std@@QEAAAEAPEAUItem@Shop@@$$QEAV?$basic_string@DU?$char_traits@D@std@@V?$allocator@D@2@@1@@Z 0000000140034d78     Shop.obj
 0002:00008d88       $chain$3$??A?$map@V?$basic_string@DU?$char_traits@D@std@@V?$allocator@D@2@@std@@PEAVUIElement@@U?$less@V?$basic_string@DU?$char_traits@D@std@@V?$allocator@D@2@@std@@@2@V?$allocator@U?$pair@$$CBV?$basic_string@DU?$char_traits@D@std@@V?$allocator@D@2@@std@@PEAVUIElement@@@std@@@2@@std@@QEAAAEAPEAVUIElement@@$$QEAV?$basic_string@DU?$char_traits@D@std@@V?$allocator@D@2@@1@@Z 0000000140034d88     Shop.obj
 0002:00008d88       $chain$3$??A?$map@V?$basic_string@DU?$char_traits@D@std@@V?$allocator@D@2@@std@@PEAUItem@Shop@@U?$less@V?$basic_string@DU?$char_traits@D@std@@V?$allocator@D@2@@std@@@2@V?$allocator@U?$pair@$$CBV?$basic_string@DU?$char_traits@D@std@@V?$allocator@D@2@@std@@PEAUItem@Shop@@@std@@@2@@std@@QEAAAEAPEAUItem@Shop@@$$QEAV?$basic_string@DU?$char_traits@D@std@@V?$allocator@D@2@@1@@Z 0000000140034d88     Shop.obj
 0002:00008da0       $unwind$?_Erase@?$_Tree@V?$_Tmap_traits@V?$basic_string@DU?$char_traits@D@std@@V?$allocator@D@2@@std@@PEAVUIElement@@U?$less@V?$basic_string@DU?$char_traits@D@std@@V?$allocator@D@2@@std@@@2@V?$allocator@U?$pair@$$CBV?$basic_string@DU?$char_traits@D@std@@V?$allocator@D@2@@std@@PEAVUIElement@@@std@@@2@$0A@@std@@@std@@IEAAXPEAU?$_Tree_node@U?$pair@$$CBV?$basic_string@DU?$char_traits@D@std@@V?$allocator@D@2@@std@@PEAVUIElement@@@std@@PEAX@2@@Z 0000000140034da0     Shop.obj
 0002:00008da0       $unwind$?_Erase@?$_Tree@V?$_Tmap_traits@V?$basic_string@DU?$char_traits@D@std@@V?$allocator@D@2@@std@@PEAUItem@Shop@@U?$less@V?$basic_string@DU?$char_traits@D@std@@V?$allocator@D@2@@std@@@2@V?$allocator@U?$pair@$$CBV?$basic_string@DU?$char_traits@D@std@@V?$allocator@D@2@@std@@PEAUItem@Shop@@@std@@@2@$0A@@std@@@std@@IEAAXPEAU?$_Tree_node@U?$pair@$$CBV?$basic_string@DU?$char_traits@D@std@@V?$allocator@D@2@@std@@PEAUItem@Shop@@@std@@PEAX@2@@Z 0000000140034da0     Shop.obj
 0002:00008dac       $chain$0$?_Erase@?$_Tree@V?$_Tmap_traits@V?$basic_string@DU?$char_traits@D@std@@V?$allocator@D@2@@std@@PEAUItem@Shop@@U?$less@V?$basic_string@DU?$char_traits@D@std@@V?$allocator@D@2@@std@@@2@V?$allocator@U?$pair@$$CBV?$basic_string@DU?$char_traits@D@std@@V?$allocator@D@2@@std@@PEAUItem@Shop@@@std@@@2@$0A@@std@@@std@@IEAAXPEAU?$_Tree_node@U?$pair@$$CBV?$basic_string@DU?$char_traits@D@std@@V?$allocator@D@2@@std@@PEAUItem@Shop@@@std@@PEAX@2@@Z 0000000140034dac     Shop.obj
 0002:00008dac       $chain$0$?_Erase@?$_Tree@V?$_Tmap_traits@V?$basic_string@DU?$char_traits@D@std@@V?$allocator@D@2@@std@@PEAVUIElement@@U?$less@V?$basic_string@DU?$char_traits@D@std@@V?$allocator@D@2@@std@@@2@V?$allocator@U?$pair@$$CBV?$basic_string@DU?$char_traits@D@std@@V?$allocator@D@2@@std@@PEAVUIElement@@@std@@@2@$0A@@std@@@std@@IEAAXPEAU?$_Tree_node@U?$pair@$$CBV?$basic_string@DU?$char_traits@D@std@@V?$allocator@D@2@@std@@PEAVUIElement@@@std@@PEAX@2@@Z 0000000140034dac     Shop.obj
 0002:00008dc0       $chain$1$?_Erase@?$_Tree@V?$_Tmap_traits@V?$basic_string@DU?$char_traits@D@std@@V?$allocator@D@2@@std@@PEAUItem@Shop@@U?$less@V?$basic_string@DU?$char_traits@D@std@@V?$allocator@D@2@@std@@@2@V?$allocator@U?$pair@$$CBV?$basic_string@DU?$char_traits@D@std@@V?$allocator@D@2@@std@@PEAUItem@Shop@@@std@@@2@$0A@@std@@@std@@IEAAXPEAU?$_Tree_node@U?$pair@$$CBV?$basic_string@DU?$char_traits@D@std@@V?$allocator@D@2@@std@@PEAUItem@Shop@@@std@@PEAX@2@@Z 0000000140034dc0     Shop.obj
 0002:00008dc0       $chain$1$?_Erase@?$_Tree@V?$_Tmap_traits@V?$basic_string@DU?$char_traits@D@std@@V?$allocator@D@2@@std@@PEAVUIElement@@U?$less@V?$basic_string@DU?$char_traits@D@std@@V?$allocator@D@2@@std@@@2@V?$allocator@U?$pair@$$CBV?$basic_string@DU?$char_traits@D@std@@V?$allocator@D@2@@std@@PEAVUIElement@@@std@@@2@$0A@@std@@@std@@IEAAXPEAU?$_Tree_node@U?$pair@$$CBV?$basic_string@DU?$char_traits@D@std@@V?$allocator@D@2@@std@@PEAVUIElement@@@std@@PEAX@2@@Z 0000000140034dc0     Shop.obj
 0002:00008dd0       $chain$2$?_Erase@?$_Tree@V?$_Tmap_traits@V?$basic_string@DU?$char_traits@D@std@@V?$allocator@D@2@@std@@PEAUItem@Shop@@U?$less@V?$basic_string@DU?$char_traits@D@std@@V?$allocator@D@2@@std@@@2@V?$allocator@U?$pair@$$CBV?$basic_string@DU?$char_traits@D@std@@V?$allocator@D@2@@std@@PEAUItem@Shop@@@std@@@2@$0A@@std@@@std@@IEAAXPEAU?$_Tree_node@U?$pair@$$CBV?$basic_string@DU?$char_traits@D@std@@V?$allocator@D@2@@std@@PEAUItem@Shop@@@std@@PEAX@2@@Z 0000000140034dd0     Shop.obj
 0002:00008dd0       $chain$2$?_Erase@?$_Tree@V?$_Tmap_traits@V?$basic_string@DU?$char_traits@D@std@@V?$allocator@D@2@@std@@PEAVUIElement@@U?$less@V?$basic_string@DU?$char_traits@D@std@@V?$allocator@D@2@@std@@@2@V?$allocator@U?$pair@$$CBV?$basic_string@DU?$char_traits@D@std@@V?$allocator@D@2@@std@@PEAVUIElement@@@std@@@2@$0A@@std@@@std@@IEAAXPEAU?$_Tree_node@U?$pair@$$CBV?$basic_string@DU?$char_traits@D@std@@V?$allocator@D@2@@std@@PEAVUIElement@@@std@@PEAX@2@@Z 0000000140034dd0     Shop.obj
 0002:00008de4       $unwind$?erase@?$_Tree@V?$_Tmap_traits@V?$basic_string@DU?$char_traits@D@std@@V?$allocator@D@2@@std@@PEAVUIElement@@U?$less@V?$basic_string@DU?$char_traits@D@std@@V?$allocator@D@2@@std@@@2@V?$allocator@U?$pair@$$CBV?$basic_string@DU?$char_traits@D@std@@V?$allocator@D@2@@std@@PEAVUIElement@@@std@@@2@$0A@@std@@@std@@QEAA?AV?$_Tree_iterator@V?$_Tree_val@U?$_Tree_simple_types@U?$pair@$$CBV?$basic_string@DU?$char_traits@D@std@@V?$allocator@D@2@@std@@PEAVUIElement@@@std@@@std@@@std@@@2@V?$_Tree_const_iterator@V?$_Tree_val@U?$_Tree_simple_types@U?$pair@$$CBV?$basic_string@DU?$char_traits@D@std@@V?$allocator@D@2@@std@@PEAVUIElement@@@std@@@std@@@std@@@2@0@Z 0000000140034de4     Shop.obj
 0002:00008de4       $unwind$?erase@?$_Tree@V?$_Tmap_traits@V?$basic_string@DU?$char_traits@D@std@@V?$allocator@D@2@@std@@PEAUItem@Shop@@U?$less@V?$basic_string@DU?$char_traits@D@std@@V?$allocator@D@2@@std@@@2@V?$allocator@U?$pair@$$CBV?$basic_string@DU?$char_traits@D@std@@V?$allocator@D@2@@std@@PEAUItem@Shop@@@std@@@2@$0A@@std@@@std@@QEAA?AV?$_Tree_iterator@V?$_Tree_val@U?$_Tree_simple_types@U?$pair@$$CBV?$basic_string@DU?$char_traits@D@std@@V?$allocator@D@2@@std@@PEAUItem@Shop@@@std@@@std@@@std@@@2@V?$_Tree_const_iterator@V?$_Tree_val@U?$_Tree_simple_types@U?$pair@$$CBV?$basic_string@DU?$char_traits@D@std@@V?$allocator@D@2@@std@@PEAUItem@Shop@@@std@@@std@@@std@@@2@0@Z 0000000140034de4     Shop.obj
 0002:00008e00       $ip2state$?erase@?$_Tree@V?$_Tmap_traits@V?$basic_string@DU?$char_traits@D@std@@V?$allocator@D@2@@std@@PEAUItem@Shop@@U?$less@V?$basic_string@DU?$char_traits@D@std@@V?$allocator@D@2@@std@@@2@V?$allocator@U?$pair@$$CBV?$basic_string@DU?$char_traits@D@std@@V?$allocator@D@2@@std@@PEAUItem@Shop@@@std@@@2@$0A@@std@@@std@@QEAA?AV?$_Tree_iterator@V?$_Tree_val@U?$_Tree_simple_types@U?$pair@$$CBV?$basic_string@DU?$char_traits@D@std@@V?$allocator@D@2@@std@@PEAUItem@Shop@@@std@@@std@@@std@@@2@V?$_Tree_const_iterator@V?$_Tree_val@U?$_Tree_simple_types@U?$pair@$$CBV?$basic_string@DU?$char_traits@D@std@@V?$allocator@D@2@@std@@PEAUItem@Shop@@@std@@@std@@@std@@@2@0@Z 0000000140034e00     Shop.obj
 0002:00008e00       $ip2state$?erase@?$_Tree@V?$_Tmap_traits@V?$basic_string@DU?$char_traits@D@std@@V?$allocator@D@2@@std@@PEAVUIElement@@U?$less@V?$basic_string@DU?$char_traits@D@std@@V?$allocator@D@2@@std@@@2@V?$allocator@U?$pair@$$CBV?$basic_string@DU?$char_traits@D@std@@V?$allocator@D@2@@std@@PEAVUIElement@@@std@@@2@$0A@@std@@@std@@QEAA?AV?$_Tree_iterator@V?$_Tree_val@U?$_Tree_simple_types@U?$pair@$$CBV?$basic_string@DU?$char_traits@D@std@@V?$allocator@D@2@@std@@PEAVUIElement@@@std@@@std@@@std@@@2@V?$_Tree_const_iterator@V?$_Tree_val@U?$_Tree_simple_types@U?$pair@$$CBV?$basic_string@DU?$char_traits@D@std@@V?$allocator@D@2@@std@@PEAVUIElement@@@std@@@std@@@std@@@2@0@Z 0000000140034e00     Shop.obj
 0002:00008e08       $unwind$?_Extract@?$_Tree_val@U?$_Tree_simple_types@U?$pair@$$CBV?$basic_string@DU?$char_traits@D@std@@V?$allocator@D@2@@std@@PEAVUIElement@@@std@@@std@@@std@@QEAAPEAU?$_Tree_node@U?$pair@$$CBV?$basic_string@DU?$char_traits@D@std@@V?$allocator@D@2@@std@@PEAVUIElement@@@std@@PEAX@2@V?$_Tree_const_iterator@V?$_Tree_val@U?$_Tree_simple_types@U?$pair@$$CBV?$basic_string@DU?$char_traits@D@std@@V?$allocator@D@2@@std@@PEAVUIElement@@@std@@@std@@@std@@@2@@Z 0000000140034e08     Shop.obj
 0002:00008e08       $unwind$?_Extract@?$_Tree_val@U?$_Tree_simple_types@U?$pair@$$CBV?$basic_string@DU?$char_traits@D@std@@V?$allocator@D@2@@std@@PEAUItem@Shop@@@std@@@std@@@std@@QEAAPEAU?$_Tree_node@U?$pair@$$CBV?$basic_string@DU?$char_traits@D@std@@V?$allocator@D@2@@std@@PEAUItem@Shop@@@std@@PEAX@2@V?$_Tree_const_iterator@V?$_Tree_val@U?$_Tree_simple_types@U?$pair@$$CBV?$basic_string@DU?$char_traits@D@std@@V?$allocator@D@2@@std@@PEAUItem@Shop@@@std@@@std@@@std@@@2@@Z 0000000140034e08     Shop.obj
 0002:00008e10       $unwind$??$_Insert_hint@AEAU?$pair@$$CBV?$basic_string@DU?$char_traits@D@std@@V?$allocator@D@2@@std@@PEAVUIElement@@@std@@PEAU?$_Tree_node@U?$pair@$$CBV?$basic_string@DU?$char_traits@D@std@@V?$allocator@D@2@@std@@PEAVUIElement@@@std@@PEAX@2@@?$_Tree@V?$_Tmap_traits@V?$basic_string@DU?$char_traits@D@std@@V?$allocator@D@2@@std@@PEAVUIElement@@U?$less@V?$basic_string@DU?$char_traits@D@std@@V?$allocator@D@2@@std@@@2@V?$allocator@U?$pair@$$CBV?$basic_string@DU?$char_traits@D@std@@V?$allocator@D@2@@std@@PEAVUIElement@@@std@@@2@$0A@@std@@@std@@IEAA?AV?$_Tree_iterator@V?$_Tree_val@U?$_Tree_simple_types@U?$pair@$$CBV?$basic_string@DU?$char_traits@D@std@@V?$allocator@D@2@@std@@PEAVUIElement@@@std@@@std@@@std@@@1@V?$_Tree_const_iterator@V?$_Tree_val@U?$_Tree_simple_types@U?$pair@$$CBV?$basic_string@DU?$char_traits@D@std@@V?$allocator@D@2@@std@@PEAVUIElement@@@std@@@std@@@std@@@1@AEAU?$pair@$$CBV?$basic_string@DU?$char_traits@D@std@@V?$allocator@D@2@@std@@PEAVUIElement@@@1@PEAU?$_Tree_node@U?$pair@$$CBV?$basic_string@DU?$char_traits@D@std@@V?$allocator@D@2@@std@@PEAVUIElement@@@std@@PEAX@1@@Z 0000000140034e10     Shop.obj
 0002:00008e10       $unwind$??$_Insert_hint@AEAU?$pair@$$CBV?$basic_string@DU?$char_traits@D@std@@V?$allocator@D@2@@std@@PEAUItem@Shop@@@std@@PEAU?$_Tree_node@U?$pair@$$CBV?$basic_string@DU?$char_traits@D@std@@V?$allocator@D@2@@std@@PEAUItem@Shop@@@std@@PEAX@2@@?$_Tree@V?$_Tmap_traits@V?$basic_string@DU?$char_traits@D@std@@V?$allocator@D@2@@std@@PEAUItem@Shop@@U?$less@V?$basic_string@DU?$char_traits@D@std@@V?$allocator@D@2@@std@@@2@V?$allocator@U?$pair@$$CBV?$basic_string@DU?$char_traits@D@std@@V?$allocator@D@2@@std@@PEAUItem@Shop@@@std@@@2@$0A@@std@@@std@@IEAA?AV?$_Tree_iterator@V?$_Tree_val@U?$_Tree_simple_types@U?$pair@$$CBV?$basic_string@DU?$char_traits@D@std@@V?$allocator@D@2@@std@@PEAUItem@Shop@@@std@@@std@@@std@@@1@V?$_Tree_const_iterator@V?$_Tree_val@U?$_Tree_simple_types@U?$pair@$$CBV?$basic_string@DU?$char_traits@D@std@@V?$allocator@D@2@@std@@PEAUItem@Shop@@@std@@@std@@@std@@@1@AEAU?$pair@$$CBV?$basic_string@DU?$char_traits@D@std@@V?$allocator@D@2@@std@@PEAUItem@Shop@@@1@PEAU?$_Tree_node@U?$pair@$$CBV?$basic_string@DU?$char_traits@D@std@@V?$allocator@D@2@@std@@PEAUItem@Shop@@@std@@PEAX@1@@Z 0000000140034e10     Shop.obj
 0002:00008e30       $stateUnwindMap$?_Buynode0@?$_Tree_comp_alloc@V?$_Tmap_traits@PEAUID3D11Device@@V?$weak_ptr@UDeviceResources@Impl@SpriteBatch@DirectX@@@std@@U?$less@PEAUID3D11Device@@@3@V?$allocator@U?$pair@QEAUID3D11Device@@V?$weak_ptr@UDeviceResources@Impl@SpriteBatch@DirectX@@@std@@@std@@@3@$0A@@std@@@std@@QEAAPEAU?$_Tree_node@U?$pair@QEAUID3D11Device@@V?$weak_ptr@UDeviceResources@Impl@SpriteBatch@DirectX@@@std@@@std@@PEAX@2@XZ 0000000140034e30     DirectXTK:SpriteBatch.obj
 0002:00008e30       $stateUnwindMap$?_Buynode0@?$_Tree_comp_alloc@V?$_Tmap_traits@PEAUID3D11Device@@V?$weak_ptr@VImpl@CommonStates@DirectX@@@std@@U?$less@PEAUID3D11Device@@@3@V?$allocator@U?$pair@QEAUID3D11Device@@V?$weak_ptr@VImpl@CommonStates@DirectX@@@std@@@std@@@3@$0A@@std@@@std@@QEAAPEAU?$_Tree_node@U?$pair@QEAUID3D11Device@@V?$weak_ptr@VImpl@CommonStates@DirectX@@@std@@@std@@PEAX@2@XZ 0000000140034e30     DirectXTK:CommonStates.obj
 0002:00008e30       $stateUnwindMap$??$_Insert_nohint@AEAU?$pair@QEAUID3D11DeviceContext@@V?$weak_ptr@UContextResources@Impl@SpriteBatch@DirectX@@@std@@@std@@PEAU?$_Tree_node@U?$pair@QEAUID3D11DeviceContext@@V?$weak_ptr@UContextResources@Impl@SpriteBatch@DirectX@@@std@@@std@@PEAX@2@@?$_Tree@V?$_Tmap_traits@PEAUID3D11DeviceContext@@V?$weak_ptr@UContextResources@Impl@SpriteBatch@DirectX@@@std@@U?$less@PEAUID3D11DeviceContext@@@3@V?$allocator@U?$pair@QEAUID3D11DeviceContext@@V?$weak_ptr@UContextResources@Impl@SpriteBatch@DirectX@@@std@@@std@@@3@$0A@@std@@@std@@IEAA?AU?$pair@V?$_Tree_iterator@V?$_Tree_val@U?$_Tree_simple_types@U?$pair@QEAUID3D11DeviceContext@@V?$weak_ptr@UContextResources@Impl@SpriteBatch@DirectX@@@std@@@std@@@std@@@std@@@std@@_N@1@_NAEAU?$pair@QEAUID3D11DeviceContext@@V?$weak_ptr@UContextResources@Impl@SpriteBatch@DirectX@@@std@@@1@PEAU?$_Tree_node@U?$pair@QEAUID3D11DeviceContext@@V?$weak_ptr@UContextResources@Impl@SpriteBatch@DirectX@@@std@@@std@@PEAX@1@@Z 0000000140034e30     DirectXTK:SpriteBatch.obj
 0002:00008e30       $stateUnwindMap$??2@YAPEAX_KAEBUnothrow_t@std@@@Z 0000000140034e30     MSVCRT:new_scalar_nothrow.obj
 0002:00008e30       $stateUnwindMap$??$_Insert_nohint@AEAU?$pair@$$CBV?$basic_string@DU?$char_traits@D@std@@V?$allocator@D@2@@std@@PEAUItem@Shop@@@std@@PEAU?$_Tree_node@U?$pair@$$CBV?$basic_string@DU?$char_traits@D@std@@V?$allocator@D@2@@std@@PEAUItem@Shop@@@std@@PEAX@2@@?$_Tree@V?$_Tmap_traits@V?$basic_string@DU?$char_traits@D@std@@V?$allocator@D@2@@std@@PEAUItem@Shop@@U?$less@V?$basic_string@DU?$char_traits@D@std@@V?$allocator@D@2@@std@@@2@V?$allocator@U?$pair@$$CBV?$basic_string@DU?$char_traits@D@std@@V?$allocator@D@2@@std@@PEAUItem@Shop@@@std@@@2@$0A@@std@@@std@@IEAA?AU?$pair@V?$_Tree_iterator@V?$_Tree_val@U?$_Tree_simple_types@U?$pair@$$CBV?$basic_string@DU?$char_traits@D@std@@V?$allocator@D@2@@std@@PEAUItem@Shop@@@std@@@std@@@std@@@std@@_N@1@_NAEAU?$pair@$$CBV?$basic_string@DU?$char_traits@D@std@@V?$allocator@D@2@@std@@PEAUItem@Shop@@@1@PEAU?$_Tree_node@U?$pair@$$CBV?$basic_string@DU?$char_traits@D@std@@V?$allocator@D@2@@std@@PEAUItem@Shop@@@std@@PEAX@1@@Z 0000000140034e30     Shop.obj
 0002:00008e30       $stateUnwindMap$??$_Insert_hint@AEAU?$pair@$$CBV?$basic_string@DU?$char_traits@D@std@@V?$allocator@D@2@@std@@PEAVUIElement@@@std@@PEAU?$_Tree_node@U?$pair@$$CBV?$basic_string@DU?$char_traits@D@std@@V?$allocator@D@2@@std@@PEAVUIElement@@@std@@PEAX@2@@?$_Tree@V?$_Tmap_traits@V?$basic_string@DU?$char_traits@D@std@@V?$allocator@D@2@@std@@PEAVUIElement@@U?$less@V?$basic_string@DU?$char_traits@D@std@@V?$allocator@D@2@@std@@@2@V?$allocator@U?$pair@$$CBV?$basic_string@DU?$char_traits@D@std@@V?$allocator@D@2@@std@@PEAVUIElement@@@std@@@2@$0A@@std@@@std@@IEAA?AV?$_Tree_iterator@V?$_Tree_val@U?$_Tree_simple_types@U?$pair@$$CBV?$basic_string@DU?$char_traits@D@std@@V?$allocator@D@2@@std@@PEAVUIElement@@@std@@@std@@@std@@@1@V?$_Tree_const_iterator@V?$_Tree_val@U?$_Tree_simple_types@U?$pair@$$CBV?$basic_string@DU?$char_traits@D@std@@V?$allocator@D@2@@std@@PEAVUIElement@@@std@@@std@@@std@@@1@AEAU?$pair@$$CBV?$basic_string@DU?$char_traits@D@std@@V?$allocator@D@2@@std@@PEAVUIElement@@@1@PEAU?$_Tree_node@U?$pair@$$CBV?$basic_string@DU?$char_traits@D@std@@V?$allocator@D@2@@std@@PEAVUIElement@@@std@@PEAX@1@@Z 0000000140034e30     Shop.obj
 0002:00008e30       $stateUnwindMap$??$_Buynode@AEAU?$pair@PEAUID3D11DeviceContext@@V?$shared_ptr@UWrappedData@?$SharedResourcePool@PEAUID3D11DeviceContext@@UContextResources@Impl@SpriteBatch@DirectX@@$$V@DirectX@@@std@@@std@@@?$_Tree_comp_alloc@V?$_Tmap_traits@PEAUID3D11DeviceContext@@V?$weak_ptr@UContextResources@Impl@SpriteBatch@DirectX@@@std@@U?$less@PEAUID3D11DeviceContext@@@3@V?$allocator@U?$pair@QEAUID3D11DeviceContext@@V?$weak_ptr@UContextResources@Impl@SpriteBatch@DirectX@@@std@@@std@@@3@$0A@@std@@@std@@QEAAPEAU?$_Tree_node@U?$pair@QEAUID3D11DeviceContext@@V?$weak_ptr@UContextResources@Impl@SpriteBatch@DirectX@@@std@@@std@@PEAX@1@AEAU?$pair@PEAUID3D11DeviceContext@@V?$shared_ptr@UWrappedData@?$SharedResourcePool@PEAUID3D11DeviceContext@@UContextResources@Impl@SpriteBatch@DirectX@@$$V@DirectX@@@std@@@1@@Z 0000000140034e30     DirectXTK:SpriteBatch.obj
 0002:00008e30       $stateUnwindMap$??$_Emplace_reallocate@AEBF@?$vector@FV?$allocator@F@std@@@std@@QEAAPEAFQEAFAEBF@Z 0000000140034e30     DirectXTK:SpriteBatch.obj
 0002:00008e30       $stateUnwindMap$??$_Resize@V<lambda_e8c6c8b564571a11716b943a92ab7d7d>@@@?$vector@PEBUSpriteInfo@Impl@SpriteBatch@DirectX@@V?$allocator@PEBUSpriteInfo@Impl@SpriteBatch@DirectX@@@std@@@std@@AEAAX_KV<lambda_e8c6c8b564571a11716b943a92ab7d7d>@@@Z 0000000140034e30     DirectXTK:SpriteBatch.obj
 0002:00008e30       $stateUnwindMap$??$_Buynode@AEAU?$pair@PEAUID3D11Device@@V?$shared_ptr@UWrappedData@?$SharedResourcePool@PEAUID3D11Device@@UDeviceResources@Impl@SpriteBatch@DirectX@@$$V@DirectX@@@std@@@std@@@?$_Tree_comp_alloc@V?$_Tmap_traits@PEAUID3D11Device@@V?$weak_ptr@UDeviceResources@Impl@SpriteBatch@DirectX@@@std@@U?$less@PEAUID3D11Device@@@3@V?$allocator@U?$pair@QEAUID3D11Device@@V?$weak_ptr@UDeviceResources@Impl@SpriteBatch@DirectX@@@std@@@std@@@3@$0A@@std@@@std@@QEAAPEAU?$_Tree_node@U?$pair@QEAUID3D11Device@@V?$weak_ptr@UDeviceResources@Impl@SpriteBatch@DirectX@@@std@@@std@@PEAX@1@AEAU?$pair@PEAUID3D11Device@@V?$shared_ptr@UWrappedData@?$SharedResourcePool@PEAUID3D11Device@@UDeviceResources@Impl@SpriteBatch@DirectX@@$$V@DirectX@@@std@@@1@@Z 0000000140034e30     DirectXTK:SpriteBatch.obj
 0002:00008e30       $stateUnwindMap$??$_Insert_nohint@AEAU?$pair@$$CBV?$basic_string@DU?$char_traits@D@std@@V?$allocator@D@2@@std@@PEAVUIElement@@@std@@PEAU?$_Tree_node@U?$pair@$$CBV?$basic_string@DU?$char_traits@D@std@@V?$allocator@D@2@@std@@PEAVUIElement@@@std@@PEAX@2@@?$_Tree@V?$_Tmap_traits@V?$basic_string@DU?$char_traits@D@std@@V?$allocator@D@2@@std@@PEAVUIElement@@U?$less@V?$basic_string@DU?$char_traits@D@std@@V?$allocator@D@2@@std@@@2@V?$allocator@U?$pair@$$CBV?$basic_string@DU?$char_traits@D@std@@V?$allocator@D@2@@std@@PEAVUIElement@@@std@@@2@$0A@@std@@@std@@IEAA?AU?$pair@V?$_Tree_iterator@V?$_Tree_val@U?$_Tree_simple_types@U?$pair@$$CBV?$basic_string@DU?$char_traits@D@std@@V?$allocator@D@2@@std@@PEAVUIElement@@@std@@@std@@@std@@@std@@_N@1@_NAEAU?$pair@$$CBV?$basic_string@DU?$char_traits@D@std@@V?$allocator@D@2@@std@@PEAVUIElement@@@1@PEAU?$_Tree_node@U?$pair@$$CBV?$basic_string@DU?$char_traits@D@std@@V?$allocator@D@2@@std@@PEAVUIElement@@@std@@PEAX@1@@Z 0000000140034e30     Shop.obj
 0002:00008e30       $stateUnwindMap$??$_Emplace_reallocate@AEAPEAUID3D11ShaderResourceView@@@?$vector@V?$ComPtr@UID3D11ShaderResourceView@@@WRL@Microsoft@@V?$allocator@V?$ComPtr@UID3D11ShaderResourceView@@@WRL@Microsoft@@@std@@@std@@QEAAPEAV?$ComPtr@UID3D11ShaderResourceView@@@WRL@Microsoft@@QEAV234@AEAPEAUID3D11ShaderResourceView@@@Z 0000000140034e30     DirectXTK:SpriteBatch.obj
 0002:00008e30       $stateUnwindMap$?_Buyheadnode@?$_Tree_comp_alloc@V?$_Tmap_traits@PEAUID3D11Device@@V?$weak_ptr@UDeviceResources@Impl@SpriteBatch@DirectX@@@std@@U?$less@PEAUID3D11Device@@@3@V?$allocator@U?$pair@QEAUID3D11Device@@V?$weak_ptr@UDeviceResources@Impl@SpriteBatch@DirectX@@@std@@@std@@@3@$0A@@std@@@std@@QEAAPEAU?$_Tree_node@U?$pair@QEAUID3D11Device@@V?$weak_ptr@UDeviceResources@Impl@SpriteBatch@DirectX@@@std@@@std@@PEAX@2@XZ 0000000140034e30     DirectXTK:SpriteBatch.obj
 0002:00008e30       $stateUnwindMap$?_Reallocate_exactly@?$vector@FV?$allocator@F@std@@@std@@AEAAX_K@Z 0000000140034e30     DirectXTK:SpriteBatch.obj
 0002:00008e30       $stateUnwindMap$??$_Insert_nohint@AEAU?$pair@QEAUID3D11Device@@V?$weak_ptr@UDeviceResources@Impl@SpriteBatch@DirectX@@@std@@@std@@PEAU?$_Tree_node@U?$pair@QEAUID3D11Device@@V?$weak_ptr@UDeviceResources@Impl@SpriteBatch@DirectX@@@std@@@std@@PEAX@2@@?$_Tree@V?$_Tmap_traits@PEAUID3D11Device@@V?$weak_ptr@UDeviceResources@Impl@SpriteBatch@DirectX@@@std@@U?$less@PEAUID3D11Device@@@3@V?$allocator@U?$pair@QEAUID3D11Device@@V?$weak_ptr@UDeviceResources@Impl@SpriteBatch@DirectX@@@std@@@std@@@3@$0A@@std@@@std@@IEAA?AU?$pair@V?$_Tree_iterator@V?$_Tree_val@U?$_Tree_simple_types@U?$pair@QEAUID3D11Device@@V?$weak_ptr@UDeviceResources@Impl@SpriteBatch@DirectX@@@std@@@std@@@std@@@std@@@std@@_N@1@_NAEAU?$pair@QEAUID3D11Device@@V?$weak_ptr@UDeviceResources@Impl@SpriteBatch@DirectX@@@std@@@1@PEAU?$_Tree_node@U?$pair@QEAUID3D11Device@@V?$weak_ptr@UDeviceResources@Impl@SpriteBatch@DirectX@@@std@@@std@@PEAX@1@@Z 0000000140034e30     DirectXTK:SpriteBatch.obj
 0002:00008e30       $stateUnwindMap$??$_Insert_hint@AEAU?$pair@$$CBV?$basic_string@DU?$char_traits@D@std@@V?$allocator@D@2@@std@@PEAUItem@Shop@@@std@@PEAU?$_Tree_node@U?$pair@$$CBV?$basic_string@DU?$char_traits@D@std@@V?$allocator@D@2@@std@@PEAUItem@Shop@@@std@@PEAX@2@@?$_Tree@V?$_Tmap_traits@V?$basic_string@DU?$char_traits@D@std@@V?$allocator@D@2@@std@@PEAUItem@Shop@@U?$less@V?$basic_string@DU?$char_traits@D@std@@V?$allocator@D@2@@std@@@2@V?$allocator@U?$pair@$$CBV?$basic_string@DU?$char_traits@D@std@@V?$allocator@D@2@@std@@PEAUItem@Shop@@@std@@@2@$0A@@std@@@std@@IEAA?AV?$_Tree_iterator@V?$_Tree_val@U?$_Tree_simple_types@U?$pair@$$CBV?$basic_string@DU?$char_traits@D@std@@V?$allocator@D@2@@std@@PEAUItem@Shop@@@std@@@std@@@std@@@1@V?$_Tree_const_iterator@V?$_Tree_val@U?$_Tree_simple_types@U?$pair@$$CBV?$basic_string@DU?$char_traits@D@std@@V?$allocator@D@2@@std@@PEAUItem@Shop@@@std@@@std@@@std@@@1@AEAU?$pair@$$CBV?$basic_string@DU?$char_traits@D@std@@V?$allocator@D@2@@std@@PEAUItem@Shop@@@1@PEAU?$_Tree_node@U?$pair@$$CBV?$basic_string@DU?$char_traits@D@std@@V?$allocator@D@2@@std@@PEAUItem@Shop@@@std@@PEAX@1@@Z 0000000140034e30     Shop.obj
 0002:00008e30       $stateUnwindMap$??$_Emplace_reallocate@F@?$vector@FV?$allocator@F@std@@@std@@QEAAPEAFQEAF$$QEAF@Z 0000000140034e30     DirectXTK:SpriteBatch.obj
 0002:00008e30       $stateUnwindMap$?_Buyheadnode@?$_Tree_comp_alloc@V?$_Tmap_traits@PEAUID3D11Device@@V?$weak_ptr@VImpl@CommonStates@DirectX@@@std@@U?$less@PEAUID3D11Device@@@3@V?$allocator@U?$pair@QEAUID3D11Device@@V?$weak_ptr@VImpl@CommonStates@DirectX@@@std@@@std@@@3@$0A@@std@@@std@@QEAAPEAU?$_Tree_node@U?$pair@QEAUID3D11Device@@V?$weak_ptr@VImpl@CommonStates@DirectX@@@std@@@std@@PEAX@2@XZ 0000000140034e30     DirectXTK:CommonStates.obj
 0002:00008e30       $stateUnwindMap$??$_Insert_nohint@AEAU?$pair@QEAUID3D11Device@@V?$weak_ptr@VImpl@CommonStates@DirectX@@@std@@@std@@PEAU?$_Tree_node@U?$pair@QEAUID3D11Device@@V?$weak_ptr@VImpl@CommonStates@DirectX@@@std@@@std@@PEAX@2@@?$_Tree@V?$_Tmap_traits@PEAUID3D11Device@@V?$weak_ptr@VImpl@CommonStates@DirectX@@@std@@U?$less@PEAUID3D11Device@@@3@V?$allocator@U?$pair@QEAUID3D11Device@@V?$weak_ptr@VImpl@CommonStates@DirectX@@@std@@@std@@@3@$0A@@std@@@std@@IEAA?AU?$pair@V?$_Tree_iterator@V?$_Tree_val@U?$_Tree_simple_types@U?$pair@QEAUID3D11Device@@V?$weak_ptr@VImpl@CommonStates@DirectX@@@std@@@std@@@std@@@std@@@std@@_N@1@_NAEAU?$pair@QEAUID3D11Device@@V?$weak_ptr@VImpl@CommonStates@DirectX@@@std@@@1@PEAU?$_Tree_node@U?$pair@QEAUID3D11Device@@V?$weak_ptr@VImpl@CommonStates@DirectX@@@std@@@std@@PEAX@1@@Z 0000000140034e30     DirectXTK:CommonStates.obj
 0002:00008e30       $stateUnwindMap$?_Buynode0@?$_Tree_comp_alloc@V?$_Tmap_traits@PEAUID3D11DeviceContext@@V?$weak_ptr@UContextResources@Impl@SpriteBatch@DirectX@@@std@@U?$less@PEAUID3D11DeviceContext@@@3@V?$allocator@U?$pair@QEAUID3D11DeviceContext@@V?$weak_ptr@UContextResources@Impl@SpriteBatch@DirectX@@@std@@@std@@@3@$0A@@std@@@std@@QEAAPEAU?$_Tree_node@U?$pair@QEAUID3D11DeviceContext@@V?$weak_ptr@UContextResources@Impl@SpriteBatch@DirectX@@@std@@@std@@PEAX@2@XZ 0000000140034e30     DirectXTK:SpriteBatch.obj
 0002:00008e30       $stateUnwindMap$??$_Buynode@AEAU?$pair@PEAUID3D11Device@@V?$shared_ptr@UWrappedData@?$SharedResourcePool@PEAUID3D11Device@@VImpl@CommonStates@DirectX@@$$V@DirectX@@@std@@@std@@@?$_Tree_comp_alloc@V?$_Tmap_traits@PEAUID3D11Device@@V?$weak_ptr@VImpl@CommonStates@DirectX@@@std@@U?$less@PEAUID3D11Device@@@3@V?$allocator@U?$pair@QEAUID3D11Device@@V?$weak_ptr@VImpl@CommonStates@DirectX@@@std@@@std@@@3@$0A@@std@@@std@@QEAAPEAU?$_Tree_node@U?$pair@QEAUID3D11Device@@V?$weak_ptr@VImpl@CommonStates@DirectX@@@std@@@std@@PEAX@1@AEAU?$pair@PEAUID3D11Device@@V?$shared_ptr@UWrappedData@?$SharedResourcePool@PEAUID3D11Device@@VImpl@CommonStates@DirectX@@$$V@DirectX@@@std@@@1@@Z 0000000140034e30     DirectXTK:CommonStates.obj
 0002:00008e30       $stateUnwindMap$?_Buyheadnode@?$_Tree_comp_alloc@V?$_Tmap_traits@PEAUID3D11DeviceContext@@V?$weak_ptr@UContextResources@Impl@SpriteBatch@DirectX@@@std@@U?$less@PEAUID3D11DeviceContext@@@3@V?$allocator@U?$pair@QEAUID3D11DeviceContext@@V?$weak_ptr@UContextResources@Impl@SpriteBatch@DirectX@@@std@@@std@@@3@$0A@@std@@@std@@QEAAPEAU?$_Tree_node@U?$pair@QEAUID3D11DeviceContext@@V?$weak_ptr@UContextResources@Impl@SpriteBatch@DirectX@@@std@@@std@@PEAX@2@XZ 0000000140034e30     DirectXTK:SpriteBatch.obj
 0002:00008e40       $tryMap$??$_Insert_hint@AEAU?$pair@$$CBV?$basic_string@DU?$char_traits@D@std@@V?$allocator@D@2@@std@@PEAUItem@Shop@@@std@@PEAU?$_Tree_node@U?$pair@$$CBV?$basic_string@DU?$char_traits@D@std@@V?$allocator@D@2@@std@@PEAUItem@Shop@@@std@@PEAX@2@@?$_Tree@V?$_Tmap_traits@V?$basic_string@DU?$char_traits@D@std@@V?$allocator@D@2@@std@@PEAUItem@Shop@@U?$less@V?$basic_string@DU?$char_traits@D@std@@V?$allocator@D@2@@std@@@2@V?$allocator@U?$pair@$$CBV?$basic_string@DU?$char_traits@D@std@@V?$allocator@D@2@@std@@PEAUItem@Shop@@@std@@@2@$0A@@std@@@std@@IEAA?AV?$_Tree_iterator@V?$_Tree_val@U?$_Tree_simple_types@U?$pair@$$CBV?$basic_string@DU?$char_traits@D@std@@V?$allocator@D@2@@std@@PEAUItem@Shop@@@std@@@std@@@std@@@1@V?$_Tree_const_iterator@V?$_Tree_val@U?$_Tree_simple_types@U?$pair@$$CBV?$basic_string@DU?$char_traits@D@std@@V?$allocator@D@2@@std@@PEAUItem@Shop@@@std@@@std@@@std@@@1@AEAU?$pair@$$CBV?$basic_string@DU?$char_traits@D@std@@V?$allocator@D@2@@std@@PEAUItem@Shop@@@1@PEAU?$_Tree_node@U?$pair@$$CBV?$basic_string@DU?$char_traits@D@std@@V?$allocator@D@2@@std@@PEAUItem@Shop@@@std@@PEAX@1@@Z 0000000140034e40     Shop.obj
 0002:00008e40       $tryMap$??$_Insert_hint@AEAU?$pair@$$CBV?$basic_string@DU?$char_traits@D@std@@V?$allocator@D@2@@std@@PEAVUIElement@@@std@@PEAU?$_Tree_node@U?$pair@$$CBV?$basic_string@DU?$char_traits@D@std@@V?$allocator@D@2@@std@@PEAVUIElement@@@std@@PEAX@2@@?$_Tree@V?$_Tmap_traits@V?$basic_string@DU?$char_traits@D@std@@V?$allocator@D@2@@std@@PEAVUIElement@@U?$less@V?$basic_string@DU?$char_traits@D@std@@V?$allocator@D@2@@std@@@2@V?$allocator@U?$pair@$$CBV?$basic_string@DU?$char_traits@D@std@@V?$allocator@D@2@@std@@PEAVUIElement@@@std@@@2@$0A@@std@@@std@@IEAA?AV?$_Tree_iterator@V?$_Tree_val@U?$_Tree_simple_types@U?$pair@$$CBV?$basic_string@DU?$char_traits@D@std@@V?$allocator@D@2@@std@@PEAVUIElement@@@std@@@std@@@std@@@1@V?$_Tree_const_iterator@V?$_Tree_val@U?$_Tree_simple_types@U?$pair@$$CBV?$basic_string@DU?$char_traits@D@std@@V?$allocator@D@2@@std@@PEAVUIElement@@@std@@@std@@@std@@@1@AEAU?$pair@$$CBV?$basic_string@DU?$char_traits@D@std@@V?$allocator@D@2@@std@@PEAVUIElement@@@1@PEAU?$_Tree_node@U?$pair@$$CBV?$basic_string@DU?$char_traits@D@std@@V?$allocator@D@2@@std@@PEAVUIElement@@@std@@PEAX@1@@Z 0000000140034e40     Shop.obj
 0002:00008e54       $handlerMap$0$??$_Insert_hint@AEAU?$pair@$$CBV?$basic_string@DU?$char_traits@D@std@@V?$allocator@D@2@@std@@PEAVUIElement@@@std@@PEAU?$_Tree_node@U?$pair@$$CBV?$basic_string@DU?$char_traits@D@std@@V?$allocator@D@2@@std@@PEAVUIElement@@@std@@PEAX@2@@?$_Tree@V?$_Tmap_traits@V?$basic_string@DU?$char_traits@D@std@@V?$allocator@D@2@@std@@PEAVUIElement@@U?$less@V?$basic_string@DU?$char_traits@D@std@@V?$allocator@D@2@@std@@@2@V?$allocator@U?$pair@$$CBV?$basic_string@DU?$char_traits@D@std@@V?$allocator@D@2@@std@@PEAVUIElement@@@std@@@2@$0A@@std@@@std@@IEAA?AV?$_Tree_iterator@V?$_Tree_val@U?$_Tree_simple_types@U?$pair@$$CBV?$basic_string@DU?$char_traits@D@std@@V?$allocator@D@2@@std@@PEAVUIElement@@@std@@@std@@@std@@@1@V?$_Tree_const_iterator@V?$_Tree_val@U?$_Tree_simple_types@U?$pair@$$CBV?$basic_string@DU?$char_traits@D@std@@V?$allocator@D@2@@std@@PEAVUIElement@@@std@@@std@@@std@@@1@AEAU?$pair@$$CBV?$basic_string@DU?$char_traits@D@std@@V?$allocator@D@2@@std@@PEAVUIElement@@@1@PEAU?$_Tree_node@U?$pair@$$CBV?$basic_string@DU?$char_traits@D@std@@V?$allocator@D@2@@std@@PEAVUIElement@@@std@@PEAX@1@@Z 0000000140034e54     Shop.obj
 0002:00008e54       $handlerMap$0$??$_Insert_hint@AEAU?$pair@$$CBV?$basic_string@DU?$char_traits@D@std@@V?$allocator@D@2@@std@@PEAUItem@Shop@@@std@@PEAU?$_Tree_node@U?$pair@$$CBV?$basic_string@DU?$char_traits@D@std@@V?$allocator@D@2@@std@@PEAUItem@Shop@@@std@@PEAX@2@@?$_Tree@V?$_Tmap_traits@V?$basic_string@DU?$char_traits@D@std@@V?$allocator@D@2@@std@@PEAUItem@Shop@@U?$less@V?$basic_string@DU?$char_traits@D@std@@V?$allocator@D@2@@std@@@2@V?$allocator@U?$pair@$$CBV?$basic_string@DU?$char_traits@D@std@@V?$allocator@D@2@@std@@PEAUItem@Shop@@@std@@@2@$0A@@std@@@std@@IEAA?AV?$_Tree_iterator@V?$_Tree_val@U?$_Tree_simple_types@U?$pair@$$CBV?$basic_string@DU?$char_traits@D@std@@V?$allocator@D@2@@std@@PEAUItem@Shop@@@std@@@std@@@std@@@1@V?$_Tree_const_iterator@V?$_Tree_val@U?$_Tree_simple_types@U?$pair@$$CBV?$basic_string@DU?$char_traits@D@std@@V?$allocator@D@2@@std@@PEAUItem@Shop@@@std@@@std@@@std@@@1@AEAU?$pair@$$CBV?$basic_string@DU?$char_traits@D@std@@V?$allocator@D@2@@std@@PEAUItem@Shop@@@1@PEAU?$_Tree_node@U?$pair@$$CBV?$basic_string@DU?$char_traits@D@std@@V?$allocator@D@2@@std@@PEAUItem@Shop@@@std@@PEAX@1@@Z 0000000140034e54     Shop.obj
 0002:00008e68       $ip2state$??$_Insert_hint@AEAU?$pair@$$CBV?$basic_string@DU?$char_traits@D@std@@V?$allocator@D@2@@std@@PEAVUIElement@@@std@@PEAU?$_Tree_node@U?$pair@$$CBV?$basic_string@DU?$char_traits@D@std@@V?$allocator@D@2@@std@@PEAVUIElement@@@std@@PEAX@2@@?$_Tree@V?$_Tmap_traits@V?$basic_string@DU?$char_traits@D@std@@V?$allocator@D@2@@std@@PEAVUIElement@@U?$less@V?$basic_string@DU?$char_traits@D@std@@V?$allocator@D@2@@std@@@2@V?$allocator@U?$pair@$$CBV?$basic_string@DU?$char_traits@D@std@@V?$allocator@D@2@@std@@PEAVUIElement@@@std@@@2@$0A@@std@@@std@@IEAA?AV?$_Tree_iterator@V?$_Tree_val@U?$_Tree_simple_types@U?$pair@$$CBV?$basic_string@DU?$char_traits@D@std@@V?$allocator@D@2@@std@@PEAVUIElement@@@std@@@std@@@std@@@1@V?$_Tree_const_iterator@V?$_Tree_val@U?$_Tree_simple_types@U?$pair@$$CBV?$basic_string@DU?$char_traits@D@std@@V?$allocator@D@2@@std@@PEAVUIElement@@@std@@@std@@@std@@@1@AEAU?$pair@$$CBV?$basic_string@DU?$char_traits@D@std@@V?$allocator@D@2@@std@@PEAVUIElement@@@1@PEAU?$_Tree_node@U?$pair@$$CBV?$basic_string@DU?$char_traits@D@std@@V?$allocator@D@2@@std@@PEAVUIElement@@@std@@PEAX@1@@Z 0000000140034e68     Shop.obj
 0002:00008e68       $ip2state$??$_Insert_hint@AEAU?$pair@$$CBV?$basic_string@DU?$char_traits@D@std@@V?$allocator@D@2@@std@@PEAUItem@Shop@@@std@@PEAU?$_Tree_node@U?$pair@$$CBV?$basic_string@DU?$char_traits@D@std@@V?$allocator@D@2@@std@@PEAUItem@Shop@@@std@@PEAX@2@@?$_Tree@V?$_Tmap_traits@V?$basic_string@DU?$char_traits@D@std@@V?$allocator@D@2@@std@@PEAUItem@Shop@@U?$less@V?$basic_string@DU?$char_traits@D@std@@V?$allocator@D@2@@std@@@2@V?$allocator@U?$pair@$$CBV?$basic_string@DU?$char_traits@D@std@@V?$allocator@D@2@@std@@PEAUItem@Shop@@@std@@@2@$0A@@std@@@std@@IEAA?AV?$_Tree_iterator@V?$_Tree_val@U?$_Tree_simple_types@U?$pair@$$CBV?$basic_string@DU?$char_traits@D@std@@V?$allocator@D@2@@std@@PEAUItem@Shop@@@std@@@std@@@std@@@1@V?$_Tree_const_iterator@V?$_Tree_val@U?$_Tree_simple_types@U?$pair@$$CBV?$basic_string@DU?$char_traits@D@std@@V?$allocator@D@2@@std@@PEAUItem@Shop@@@std@@@std@@@std@@@1@AEAU?$pair@$$CBV?$basic_string@DU?$char_traits@D@std@@V?$allocator@D@2@@std@@PEAUItem@Shop@@@1@PEAU?$_Tree_node@U?$pair@$$CBV?$basic_string@DU?$char_traits@D@std@@V?$allocator@D@2@@std@@PEAUItem@Shop@@@std@@PEAX@1@@Z 0000000140034e68     Shop.obj
 0002:00008e88       $unwind$?catch$0@?0???$_Insert_hint@AEAU?$pair@$$CBV?$basic_string@DU?$char_traits@D@std@@V?$allocator@D@2@@std@@PEAUItem@Shop@@@std@@PEAU?$_Tree_node@U?$pair@$$CBV?$basic_string@DU?$char_traits@D@std@@V?$allocator@D@2@@std@@PEAUItem@Shop@@@std@@PEAX@2@@?$_Tree@V?$_Tmap_traits@V?$basic_string@DU?$char_traits@D@std@@V?$allocator@D@2@@std@@PEAUItem@Shop@@U?$less@V?$basic_string@DU?$char_traits@D@std@@V?$allocator@D@2@@std@@@2@V?$allocator@U?$pair@$$CBV?$basic_string@DU?$char_traits@D@std@@V?$allocator@D@2@@std@@PEAUItem@Shop@@@std@@@2@$0A@@std@@@std@@IEAA?AV?$_Tree_iterator@V?$_Tree_val@U?$_Tree_simple_types@U?$pair@$$CBV?$basic_string@DU?$char_traits@D@std@@V?$allocator@D@2@@std@@PEAUItem@Shop@@@std@@@std@@@std@@@1@V?$_Tree_const_iterator@V?$_Tree_val@U?$_Tree_simple_types@U?$pair@$$CBV?$basic_string@DU?$char_traits@D@std@@V?$allocator@D@2@@std@@PEAUItem@Shop@@@std@@@std@@@std@@@1@AEAU?$pair@$$CBV?$basic_string@DU?$char_traits@D@std@@V?$allocator@D@2@@std@@PEAUItem@Shop@@@1@PEAU?$_Tree_node@U?$pair@$$CBV?$basic_string@DU?$char_traits@D@std@@V?$allocator@D@2@@std@@PEAUItem@Shop@@@std@@PEAX@1@@Z@4HA 0000000140034e88     Shop.obj
 0002:00008e88       $unwind$?catch$0@?0???$_Insert_hint@AEAU?$pair@$$CBV?$basic_string@DU?$char_traits@D@std@@V?$allocator@D@2@@std@@PEAVUIElement@@@std@@PEAU?$_Tree_node@U?$pair@$$CBV?$basic_string@DU?$char_traits@D@std@@V?$allocator@D@2@@std@@PEAVUIElement@@@std@@PEAX@2@@?$_Tree@V?$_Tmap_traits@V?$basic_string@DU?$char_traits@D@std@@V?$allocator@D@2@@std@@PEAVUIElement@@U?$less@V?$basic_string@DU?$char_traits@D@std@@V?$allocator@D@2@@std@@@2@V?$allocator@U?$pair@$$CBV?$basic_string@DU?$char_traits@D@std@@V?$allocator@D@2@@std@@PEAVUIElement@@@std@@@2@$0A@@std@@@std@@IEAA?AV?$_Tree_iterator@V?$_Tree_val@U?$_Tree_simple_types@U?$pair@$$CBV?$basic_string@DU?$char_traits@D@std@@V?$allocator@D@2@@std@@PEAVUIElement@@@std@@@std@@@std@@@1@V?$_Tree_const_iterator@V?$_Tree_val@U?$_Tree_simple_types@U?$pair@$$CBV?$basic_string@DU?$char_traits@D@std@@V?$allocator@D@2@@std@@PEAVUIElement@@@std@@@std@@@std@@@1@AEAU?$pair@$$CBV?$basic_string@DU?$char_traits@D@std@@V?$allocator@D@2@@std@@PEAVUIElement@@@1@PEAU?$_Tree_node@U?$pair@$$CBV?$basic_string@DU?$char_traits@D@std@@V?$allocator@D@2@@std@@PEAVUIElement@@@std@@PEAX@1@@Z@4HA 0000000140034e88     Shop.obj
 0002:00008e98       $unwind$??$_Insert_at@AEAU?$pair@$$CBV?$basic_string@DU?$char_traits@D@std@@V?$allocator@D@2@@std@@PEAVUIElement@@@std@@PEAU?$_Tree_node@U?$pair@$$CBV?$basic_string@DU?$char_traits@D@std@@V?$allocator@D@2@@std@@PEAVUIElement@@@std@@PEAX@2@@?$_Tree@V?$_Tmap_traits@V?$basic_string@DU?$char_traits@D@std@@V?$allocator@D@2@@std@@PEAVUIElement@@U?$less@V?$basic_string@DU?$char_traits@D@std@@V?$allocator@D@2@@std@@@2@V?$allocator@U?$pair@$$CBV?$basic_string@DU?$char_traits@D@std@@V?$allocator@D@2@@std@@PEAVUIElement@@@std@@@2@$0A@@std@@@std@@IEAA?AV?$_Tree_iterator@V?$_Tree_val@U?$_Tree_simple_types@U?$pair@$$CBV?$basic_string@DU?$char_traits@D@std@@V?$allocator@D@2@@std@@PEAVUIElement@@@std@@@std@@@std@@@1@_NPEAU?$_Tree_node@U?$pair@$$CBV?$basic_string@DU?$char_traits@D@std@@V?$allocator@D@2@@std@@PEAVUIElement@@@std@@PEAX@1@AEAU?$pair@$$CBV?$basic_string@DU?$char_traits@D@std@@V?$allocator@D@2@@std@@PEAVUIElement@@@1@1@Z 0000000140034e98     Shop.obj
 0002:00008e98       $unwind$??$_Insert_at@AEAU?$pair@$$CBV?$basic_string@DU?$char_traits@D@std@@V?$allocator@D@2@@std@@PEAUItem@Shop@@@std@@PEAU?$_Tree_node@U?$pair@$$CBV?$basic_string@DU?$char_traits@D@std@@V?$allocator@D@2@@std@@PEAUItem@Shop@@@std@@PEAX@2@@?$_Tree@V?$_Tmap_traits@V?$basic_string@DU?$char_traits@D@std@@V?$allocator@D@2@@std@@PEAUItem@Shop@@U?$less@V?$basic_string@DU?$char_traits@D@std@@V?$allocator@D@2@@std@@@2@V?$allocator@U?$pair@$$CBV?$basic_string@DU?$char_traits@D@std@@V?$allocator@D@2@@std@@PEAUItem@Shop@@@std@@@2@$0A@@std@@@std@@IEAA?AV?$_Tree_iterator@V?$_Tree_val@U?$_Tree_simple_types@U?$pair@$$CBV?$basic_string@DU?$char_traits@D@std@@V?$allocator@D@2@@std@@PEAUItem@Shop@@@std@@@std@@@std@@@1@_NPEAU?$_Tree_node@U?$pair@$$CBV?$basic_string@DU?$char_traits@D@std@@V?$allocator@D@2@@std@@PEAUItem@Shop@@@std@@PEAX@1@AEAU?$pair@$$CBV?$basic_string@DU?$char_traits@D@std@@V?$allocator@D@2@@std@@PEAUItem@Shop@@@1@1@Z 0000000140034e98     Shop.obj
 0002:00008ea4       $unwind$??$_Insert_nohint@AEAU?$pair@$$CBV?$basic_string@DU?$char_traits@D@std@@V?$allocator@D@2@@std@@PEAUItem@Shop@@@std@@PEAU?$_Tree_node@U?$pair@$$CBV?$basic_string@DU?$char_traits@D@std@@V?$allocator@D@2@@std@@PEAUItem@Shop@@@std@@PEAX@2@@?$_Tree@V?$_Tmap_traits@V?$basic_string@DU?$char_traits@D@std@@V?$allocator@D@2@@std@@PEAUItem@Shop@@U?$less@V?$basic_string@DU?$char_traits@D@std@@V?$allocator@D@2@@std@@@2@V?$allocator@U?$pair@$$CBV?$basic_string@DU?$char_traits@D@std@@V?$allocator@D@2@@std@@PEAUItem@Shop@@@std@@@2@$0A@@std@@@std@@IEAA?AU?$pair@V?$_Tree_iterator@V?$_Tree_val@U?$_Tree_simple_types@U?$pair@$$CBV?$basic_string@DU?$char_traits@D@std@@V?$allocator@D@2@@std@@PEAUItem@Shop@@@std@@@std@@@std@@@std@@_N@1@_NAEAU?$pair@$$CBV?$basic_string@DU?$char_traits@D@std@@V?$allocator@D@2@@std@@PEAUItem@Shop@@@1@PEAU?$_Tree_node@U?$pair@$$CBV?$basic_string@DU?$char_traits@D@std@@V?$allocator@D@2@@std@@PEAUItem@Shop@@@std@@PEAX@1@@Z 0000000140034ea4     Shop.obj
 0002:00008ea4       $unwind$??$_Insert_nohint@AEAU?$pair@$$CBV?$basic_string@DU?$char_traits@D@std@@V?$allocator@D@2@@std@@PEAVUIElement@@@std@@PEAU?$_Tree_node@U?$pair@$$CBV?$basic_string@DU?$char_traits@D@std@@V?$allocator@D@2@@std@@PEAVUIElement@@@std@@PEAX@2@@?$_Tree@V?$_Tmap_traits@V?$basic_string@DU?$char_traits@D@std@@V?$allocator@D@2@@std@@PEAVUIElement@@U?$less@V?$basic_string@DU?$char_traits@D@std@@V?$allocator@D@2@@std@@@2@V?$allocator@U?$pair@$$CBV?$basic_string@DU?$char_traits@D@std@@V?$allocator@D@2@@std@@PEAVUIElement@@@std@@@2@$0A@@std@@@std@@IEAA?AU?$pair@V?$_Tree_iterator@V?$_Tree_val@U?$_Tree_simple_types@U?$pair@$$CBV?$basic_string@DU?$char_traits@D@std@@V?$allocator@D@2@@std@@PEAVUIElement@@@std@@@std@@@std@@@std@@_N@1@_NAEAU?$pair@$$CBV?$basic_string@DU?$char_traits@D@std@@V?$allocator@D@2@@std@@PEAVUIElement@@@1@PEAU?$_Tree_node@U?$pair@$$CBV?$basic_string@DU?$char_traits@D@std@@V?$allocator@D@2@@std@@PEAVUIElement@@@std@@PEAX@1@@Z 0000000140034ea4     Shop.obj
 0002:00008ec4       $tryMap$??$_Insert_nohint@AEAU?$pair@$$CBV?$basic_string@DU?$char_traits@D@std@@V?$allocator@D@2@@std@@PEAVUIElement@@@std@@PEAU?$_Tree_node@U?$pair@$$CBV?$basic_string@DU?$char_traits@D@std@@V?$allocator@D@2@@std@@PEAVUIElement@@@std@@PEAX@2@@?$_Tree@V?$_Tmap_traits@V?$basic_string@DU?$char_traits@D@std@@V?$allocator@D@2@@std@@PEAVUIElement@@U?$less@V?$basic_string@DU?$char_traits@D@std@@V?$allocator@D@2@@std@@@2@V?$allocator@U?$pair@$$CBV?$basic_string@DU?$char_traits@D@std@@V?$allocator@D@2@@std@@PEAVUIElement@@@std@@@2@$0A@@std@@@std@@IEAA?AU?$pair@V?$_Tree_iterator@V?$_Tree_val@U?$_Tree_simple_types@U?$pair@$$CBV?$basic_string@DU?$char_traits@D@std@@V?$allocator@D@2@@std@@PEAVUIElement@@@std@@@std@@@std@@@std@@_N@1@_NAEAU?$pair@$$CBV?$basic_string@DU?$char_traits@D@std@@V?$allocator@D@2@@std@@PEAVUIElement@@@1@PEAU?$_Tree_node@U?$pair@$$CBV?$basic_string@DU?$char_traits@D@std@@V?$allocator@D@2@@std@@PEAVUIElement@@@std@@PEAX@1@@Z 0000000140034ec4     Shop.obj
 0002:00008ec4       $tryMap$??$_Insert_nohint@AEAU?$pair@$$CBV?$basic_string@DU?$char_traits@D@std@@V?$allocator@D@2@@std@@PEAUItem@Shop@@@std@@PEAU?$_Tree_node@U?$pair@$$CBV?$basic_string@DU?$char_traits@D@std@@V?$allocator@D@2@@std@@PEAUItem@Shop@@@std@@PEAX@2@@?$_Tree@V?$_Tmap_traits@V?$basic_string@DU?$char_traits@D@std@@V?$allocator@D@2@@std@@PEAUItem@Shop@@U?$less@V?$basic_string@DU?$char_traits@D@std@@V?$allocator@D@2@@std@@@2@V?$allocator@U?$pair@$$CBV?$basic_string@DU?$char_traits@D@std@@V?$allocator@D@2@@std@@PEAUItem@Shop@@@std@@@2@$0A@@std@@@std@@IEAA?AU?$pair@V?$_Tree_iterator@V?$_Tree_val@U?$_Tree_simple_types@U?$pair@$$CBV?$basic_string@DU?$char_traits@D@std@@V?$allocator@D@2@@std@@PEAUItem@Shop@@@std@@@std@@@std@@@std@@_N@1@_NAEAU?$pair@$$CBV?$basic_string@DU?$char_traits@D@std@@V?$allocator@D@2@@std@@PEAUItem@Shop@@@1@PEAU?$_Tree_node@U?$pair@$$CBV?$basic_string@DU?$char_traits@D@std@@V?$allocator@D@2@@std@@PEAUItem@Shop@@@std@@PEAX@1@@Z 0000000140034ec4     Shop.obj
 0002:00008ed8       $handlerMap$0$??$_Insert_nohint@AEAU?$pair@$$CBV?$basic_string@DU?$char_traits@D@std@@V?$allocator@D@2@@std@@PEAVUIElement@@@std@@PEAU?$_Tree_node@U?$pair@$$CBV?$basic_string@DU?$char_traits@D@std@@V?$allocator@D@2@@std@@PEAVUIElement@@@std@@PEAX@2@@?$_Tree@V?$_Tmap_traits@V?$basic_string@DU?$char_traits@D@std@@V?$allocator@D@2@@std@@PEAVUIElement@@U?$less@V?$basic_string@DU?$char_traits@D@std@@V?$allocator@D@2@@std@@@2@V?$allocator@U?$pair@$$CBV?$basic_string@DU?$char_traits@D@std@@V?$allocator@D@2@@std@@PEAVUIElement@@@std@@@2@$0A@@std@@@std@@IEAA?AU?$pair@V?$_Tree_iterator@V?$_Tree_val@U?$_Tree_simple_types@U?$pair@$$CBV?$basic_string@DU?$char_traits@D@std@@V?$allocator@D@2@@std@@PEAVUIElement@@@std@@@std@@@std@@@std@@_N@1@_NAEAU?$pair@$$CBV?$basic_string@DU?$char_traits@D@std@@V?$allocator@D@2@@std@@PEAVUIElement@@@1@PEAU?$_Tree_node@U?$pair@$$CBV?$basic_string@DU?$char_traits@D@std@@V?$allocator@D@2@@std@@PEAVUIElement@@@std@@PEAX@1@@Z 0000000140034ed8     Shop.obj
 0002:00008ed8       $handlerMap$0$??$_Insert_nohint@AEAU?$pair@$$CBV?$basic_string@DU?$char_traits@D@std@@V?$allocator@D@2@@std@@PEAUItem@Shop@@@std@@PEAU?$_Tree_node@U?$pair@$$CBV?$basic_string@DU?$char_traits@D@std@@V?$allocator@D@2@@std@@PEAUItem@Shop@@@std@@PEAX@2@@?$_Tree@V?$_Tmap_traits@V?$basic_string@DU?$char_traits@D@std@@V?$allocator@D@2@@std@@PEAUItem@Shop@@U?$less@V?$basic_string@DU?$char_traits@D@std@@V?$allocator@D@2@@std@@@2@V?$allocator@U?$pair@$$CBV?$basic_string@DU?$char_traits@D@std@@V?$allocator@D@2@@std@@PEAUItem@Shop@@@std@@@2@$0A@@std@@@std@@IEAA?AU?$pair@V?$_Tree_iterator@V?$_Tree_val@U?$_Tree_simple_types@U?$pair@$$CBV?$basic_string@DU?$char_traits@D@std@@V?$allocator@D@2@@std@@PEAUItem@Shop@@@std@@@std@@@std@@@std@@_N@1@_NAEAU?$pair@$$CBV?$basic_string@DU?$char_traits@D@std@@V?$allocator@D@2@@std@@PEAUItem@Shop@@@1@PEAU?$_Tree_node@U?$pair@$$CBV?$basic_string@DU?$char_traits@D@std@@V?$allocator@D@2@@std@@PEAUItem@Shop@@@std@@PEAX@1@@Z 0000000140034ed8     Shop.obj
 0002:00008ef0       $ip2state$??$_Insert_nohint@AEAU?$pair@$$CBV?$basic_string@DU?$char_traits@D@std@@V?$allocator@D@2@@std@@PEAUItem@Shop@@@std@@PEAU?$_Tree_node@U?$pair@$$CBV?$basic_string@DU?$char_traits@D@std@@V?$allocator@D@2@@std@@PEAUItem@Shop@@@std@@PEAX@2@@?$_Tree@V?$_Tmap_traits@V?$basic_string@DU?$char_traits@D@std@@V?$allocator@D@2@@std@@PEAUItem@Shop@@U?$less@V?$basic_string@DU?$char_traits@D@std@@V?$allocator@D@2@@std@@@2@V?$allocator@U?$pair@$$CBV?$basic_string@DU?$char_traits@D@std@@V?$allocator@D@2@@std@@PEAUItem@Shop@@@std@@@2@$0A@@std@@@std@@IEAA?AU?$pair@V?$_Tree_iterator@V?$_Tree_val@U?$_Tree_simple_types@U?$pair@$$CBV?$basic_string@DU?$char_traits@D@std@@V?$allocator@D@2@@std@@PEAUItem@Shop@@@std@@@std@@@std@@@std@@_N@1@_NAEAU?$pair@$$CBV?$basic_string@DU?$char_traits@D@std@@V?$allocator@D@2@@std@@PEAUItem@Shop@@@1@PEAU?$_Tree_node@U?$pair@$$CBV?$basic_string@DU?$char_traits@D@std@@V?$allocator@D@2@@std@@PEAUItem@Shop@@@std@@PEAX@1@@Z 0000000140034ef0     Shop.obj
 0002:00008ef0       $ip2state$??$_Insert_nohint@AEAU?$pair@$$CBV?$basic_string@DU?$char_traits@D@std@@V?$allocator@D@2@@std@@PEAVUIElement@@@std@@PEAU?$_Tree_node@U?$pair@$$CBV?$basic_string@DU?$char_traits@D@std@@V?$allocator@D@2@@std@@PEAVUIElement@@@std@@PEAX@2@@?$_Tree@V?$_Tmap_traits@V?$basic_string@DU?$char_traits@D@std@@V?$allocator@D@2@@std@@PEAVUIElement@@U?$less@V?$basic_string@DU?$char_traits@D@std@@V?$allocator@D@2@@std@@@2@V?$allocator@U?$pair@$$CBV?$basic_string@DU?$char_traits@D@std@@V?$allocator@D@2@@std@@PEAVUIElement@@@std@@@2@$0A@@std@@@std@@IEAA?AU?$pair@V?$_Tree_iterator@V?$_Tree_val@U?$_Tree_simple_types@U?$pair@$$CBV?$basic_string@DU?$char_traits@D@std@@V?$allocator@D@2@@std@@PEAVUIElement@@@std@@@std@@@std@@@std@@_N@1@_NAEAU?$pair@$$CBV?$basic_string@DU?$char_traits@D@std@@V?$allocator@D@2@@std@@PEAVUIElement@@@1@PEAU?$_Tree_node@U?$pair@$$CBV?$basic_string@DU?$char_traits@D@std@@V?$allocator@D@2@@std@@PEAVUIElement@@@std@@PEAX@1@@Z 0000000140034ef0     Shop.obj
 0002:00008f00       $unwind$?catch$0@?0???$_Insert_nohint@AEAU?$pair@$$CBV?$basic_string@DU?$char_traits@D@std@@V?$allocator@D@2@@std@@PEAVUIElement@@@std@@PEAU?$_Tree_node@U?$pair@$$CBV?$basic_string@DU?$char_traits@D@std@@V?$allocator@D@2@@std@@PEAVUIElement@@@std@@PEAX@2@@?$_Tree@V?$_Tmap_traits@V?$basic_string@DU?$char_traits@D@std@@V?$allocator@D@2@@std@@PEAVUIElement@@U?$less@V?$basic_string@DU?$char_traits@D@std@@V?$allocator@D@2@@std@@@2@V?$allocator@U?$pair@$$CBV?$basic_string@DU?$char_traits@D@std@@V?$allocator@D@2@@std@@PEAVUIElement@@@std@@@2@$0A@@std@@@std@@IEAA?AU?$pair@V?$_Tree_iterator@V?$_Tree_val@U?$_Tree_simple_types@U?$pair@$$CBV?$basic_string@DU?$char_traits@D@std@@V?$allocator@D@2@@std@@PEAVUIElement@@@std@@@std@@@std@@@std@@_N@1@_NAEAU?$pair@$$CBV?$basic_string@DU?$char_traits@D@std@@V?$allocator@D@2@@std@@PEAVUIElement@@@1@PEAU?$_Tree_node@U?$pair@$$CBV?$basic_string@DU?$char_traits@D@std@@V?$allocator@D@2@@std@@PEAVUIElement@@@std@@PEAX@1@@Z@4HA 0000000140034f00     Shop.obj
 0002:00008f00       $unwind$?catch$0@?0???$_Insert_nohint@AEAU?$pair@$$CBV?$basic_string@DU?$char_traits@D@std@@V?$allocator@D@2@@std@@PEAUItem@Shop@@@std@@PEAU?$_Tree_node@U?$pair@$$CBV?$basic_string@DU?$char_traits@D@std@@V?$allocator@D@2@@std@@PEAUItem@Shop@@@std@@PEAX@2@@?$_Tree@V?$_Tmap_traits@V?$basic_string@DU?$char_traits@D@std@@V?$allocator@D@2@@std@@PEAUItem@Shop@@U?$less@V?$basic_string@DU?$char_traits@D@std@@V?$allocator@D@2@@std@@@2@V?$allocator@U?$pair@$$CBV?$basic_string@DU?$char_traits@D@std@@V?$allocator@D@2@@std@@PEAUItem@Shop@@@std@@@2@$0A@@std@@@std@@IEAA?AU?$pair@V?$_Tree_iterator@V?$_Tree_val@U?$_Tree_simple_types@U?$pair@$$CBV?$basic_string@DU?$char_traits@D@std@@V?$allocator@D@2@@std@@PEAUItem@Shop@@@std@@@std@@@std@@@std@@_N@1@_NAEAU?$pair@$$CBV?$basic_string@DU?$char_traits@D@std@@V?$allocator@D@2@@std@@PEAUItem@Shop@@@1@PEAU?$_Tree_node@U?$pair@$$CBV?$basic_string@DU?$char_traits@D@std@@V?$allocator@D@2@@std@@PEAUItem@Shop@@@std@@PEAX@1@@Z@4HA 0000000140034f00     Shop.obj
 0002:00008f10       $unwind$?CompileShaders@SkyboxShader@@AEAA_NPEAUID3D11Device@@PEA_W1@Z 0000000140034f10     SkyboxShader.obj
 0002:00008f34       $unwind$?ProcessShaderErrors@AnimatedShader@@AEAAXPEAUID3D10Blob@@@Z 0000000140034f34     shaderstuff.obj
 0002:00008f34       $unwind$?ProcessShaderErrors@SkyboxShader@@AEAAXPEAUID3D10Blob@@@Z 0000000140034f34     SkyboxShader.obj
 0002:00008f34       $unwind$?ProcessShaderErrors@StaticShader@@AEAAXPEAUID3D10Blob@@@Z 0000000140034f34     StaticShader.obj
 0002:00008f54       $stateUnwindMap$?ProcessShaderErrors@StaticShader@@AEAAXPEAUID3D10Blob@@@Z 0000000140034f54     StaticShader.obj
 0002:00008f54       $stateUnwindMap$?ProcessShaderErrors@SkyboxShader@@AEAAXPEAUID3D10Blob@@@Z 0000000140034f54     SkyboxShader.obj
 0002:00008f54       $stateUnwindMap$?ProcessShaderErrors@AnimatedShader@@AEAAXPEAUID3D10Blob@@@Z 0000000140034f54     shaderstuff.obj
 0002:00008f60       $ip2state$?ProcessShaderErrors@StaticShader@@AEAAXPEAUID3D10Blob@@@Z 0000000140034f60     StaticShader.obj
 0002:00008f60       $ip2state$?ProcessShaderErrors@SkyboxShader@@AEAAXPEAUID3D10Blob@@@Z 0000000140034f60     SkyboxShader.obj
 0002:00008f60       $ip2state$?ProcessShaderErrors@AnimatedShader@@AEAAXPEAUID3D10Blob@@@Z 0000000140034f60     shaderstuff.obj
 0002:00008f78       $unwind$?UpdateShaderBuffers@SkyboxShader@@AEAA_NPEAUID3D11DeviceContext@@UXMMATRIX@DirectX@@11PEAUID3D11ShaderResourceView@@@Z 0000000140034f78     SkyboxShader.obj
 0002:00008fb4       $unwind$??0?$basic_ofstream@DU?$char_traits@D@std@@@std@@QEAA@XZ 0000000140034fb4     SkyboxShader.obj
 0002:00008fc8       $stateUnwindMap$??0?$basic_ofstream@DU?$char_traits@D@std@@@std@@QEAA@XZ 0000000140034fc8     SkyboxShader.obj
 0002:00008fe0       $ip2state$??0?$basic_ofstream@DU?$char_traits@D@std@@@std@@QEAA@XZ 0000000140034fe0     SkyboxShader.obj
 0002:00009000       $unwind$??$?6U?$char_traits@D@std@@@std@@YAAEAV?$basic_ostream@DU?$char_traits@D@std@@@0@AEAV10@D@Z 0000000140035000     SkyboxShader.obj
 0002:0000901c       $stateUnwindMap$??$?6U?$char_traits@D@std@@@std@@YAAEAV?$basic_ostream@DU?$char_traits@D@std@@@0@AEAV10@D@Z 000000014003501c     SkyboxShader.obj
 0002:0000904c       $tryMap$??$?6U?$char_traits@D@std@@@std@@YAAEAV?$basic_ostream@DU?$char_traits@D@std@@@0@AEAV10@D@Z 000000014003504c     SkyboxShader.obj
 0002:00009060       $handlerMap$0$??$?6U?$char_traits@D@std@@@std@@YAAEAV?$basic_ostream@DU?$char_traits@D@std@@@0@AEAV10@D@Z 0000000140035060     SkyboxShader.obj
 0002:00009080       $ip2state$??$?6U?$char_traits@D@std@@@std@@YAAEAV?$basic_ostream@DU?$char_traits@D@std@@@0@AEAV10@D@Z 0000000140035080     SkyboxShader.obj
 0002:000090c0       $unwind$?catch$4@?0???$?6U?$char_traits@D@std@@@std@@YAAEAV?$basic_ostream@DU?$char_traits@D@std@@@0@AEAV10@D@Z@4HA 00000001400350c0     SkyboxShader.obj
 0002:000090d0       $unwind$??1sentry@?$basic_ostream@DU?$char_traits@D@std@@@std@@QEAA@XZ 00000001400350d0     SkyboxShader.obj
 0002:000090e0       $ip2state$??1sentry@?$basic_ostream@DU?$char_traits@D@std@@@std@@QEAA@XZ 00000001400350e0     SkyboxShader.obj
 0002:000090f0       $unwind$??1_Sentry_base@?$basic_ostream@DU?$char_traits@D@std@@@std@@QEAA@XZ 00000001400350f0     SkyboxShader.obj
 0002:00009100       $ip2state$??1_Sentry_base@?$basic_ostream@DU?$char_traits@D@std@@@std@@QEAA@XZ 0000000140035100     SkyboxShader.obj
 0002:00009108       $unwind$?Initialize@Sound@@QEAA_NPEAUHWND__@@@Z 0000000140035108     Sound.obj
 0002:0000911c       $unwind$?LoadWaveFile@Sound@@AEAA_NPEBDPEAPEAUIDirectSoundBuffer8@@@Z 000000014003511c     Sound.obj
 0002:00009138       $unwind$?Render@StaticShader@@QEAA_NPEAUID3D11DeviceContext@@HUXMMATRIX@DirectX@@11PEAUID3D11ShaderResourceView@@UXMFLOAT3@4@UXMFLOAT4@4@QEAU74@54444444@Z 0000000140035138     StaticShader.obj
 0002:0000917c       $unwind$?CompileShaders@StaticShader@@AEAA_NPEAUID3D11Device@@PEA_W1@Z 000000014003517c     StaticShader.obj
 0002:0000917c       $unwind$?CompileShaders@AnimatedShader@@AEAA_NPEAUID3D11Device@@PEA_W1@Z 000000014003517c     shaderstuff.obj
 0002:000091a0       $unwind$??1UIElement@@QEAA@XZ 00000001400351a0     UIElement.obj
 0002:000091b8       $ip2state$??1UIElement@@QEAA@XZ 00000001400351b8     UIElement.obj
 0002:000091c8       $unwind$??0TextElement@@QEAA@UtagRECT@@_N1Ufloat2@@HPEAD@Z 00000001400351c8     UIElement.obj
 0002:000091d8       $stateUnwindMap$??0TextElement@@QEAA@UtagRECT@@_N1Ufloat2@@HPEAD@Z 00000001400351d8     UIElement.obj
 0002:000091e0       $ip2state$??0TextElement@@QEAA@UtagRECT@@_N1Ufloat2@@HPEAD@Z 00000001400351e0     UIElement.obj
 0002:000091e8       $unwind$?SetDefaultTexture@ButtonElement@@QEAAXPEBD@Z 00000001400351e8     UIElement.obj
 0002:00009210       $unwind$??0Target@@QEAA@XZ 0000000140035210     Target.obj
 0002:00009228       $ip2state$??0Target@@QEAA@XZ 0000000140035228     Target.obj
 0002:00009248       $unwind$?Update@Target@@UEAAXMPEAVPlayer@@AEAV?$vector@PEAVBullet@@V?$allocator@PEAVBullet@@@std@@@std@@PEAUID3D11Device@@@Z 0000000140035248     Target.obj
 0002:00009260       $unwind$?Render@UIManager@@QEAAXAEAV?$unique_ptr@VSpriteBatch@DirectX@@U?$default_delete@VSpriteBatch@DirectX@@@std@@@std@@AEAV?$unique_ptr@VSpriteFont@DirectX@@U?$default_delete@VSpriteFont@DirectX@@@std@@@3@1@Z 0000000140035260     UIManager.obj
 0002:0000927c       $chain$3$?Render@UIManager@@QEAAXAEAV?$unique_ptr@VSpriteBatch@DirectX@@U?$default_delete@VSpriteBatch@DirectX@@@std@@@std@@AEAV?$unique_ptr@VSpriteFont@DirectX@@U?$default_delete@VSpriteFont@DirectX@@@std@@@3@1@Z 000000014003527c     UIManager.obj
 0002:0000929c       $chain$4$?Render@UIManager@@QEAAXAEAV?$unique_ptr@VSpriteBatch@DirectX@@U?$default_delete@VSpriteBatch@DirectX@@@std@@@std@@AEAV?$unique_ptr@VSpriteFont@DirectX@@U?$default_delete@VSpriteFont@DirectX@@@std@@@3@1@Z 000000014003529c     UIManager.obj
 0002:000092ac       $unwind$?CreateText@UIManager@@QEAAPEAVUIElement@@UtagRECT@@_N1Ufloat2@@HPEBD@Z 00000001400352ac     UIManager.obj
 0002:000092cc       $stateUnwindMap$?CreateText@UIManager@@QEAAPEAVUIElement@@UtagRECT@@_N1Ufloat2@@HPEBD@Z 00000001400352cc     UIManager.obj
 0002:000092d8       $ip2state$?CreateText@UIManager@@QEAAPEAVUIElement@@UtagRECT@@_N1Ufloat2@@HPEBD@Z 00000001400352d8     UIManager.obj
 0002:000092f0       $unwind$?CreateText@UIManager@@QEAAPEAVUIElement@@UtagRECT@@_N1Ufloat2@@HV?$basic_string@DU?$char_traits@D@std@@V?$allocator@D@2@@std@@@Z 00000001400352f0     UIManager.obj
 0002:00009314       $stateUnwindMap$?CreateText@UIManager@@QEAAPEAVUIElement@@UtagRECT@@_N1Ufloat2@@HV?$basic_string@DU?$char_traits@D@std@@V?$allocator@D@2@@std@@@Z 0000000140035314     UIManager.obj
 0002:00009328       $ip2state$?CreateText@UIManager@@QEAAPEAVUIElement@@UtagRECT@@_N1Ufloat2@@HV?$basic_string@DU?$char_traits@D@std@@V?$allocator@D@2@@std@@@Z 0000000140035328     UIManager.obj
 0002:00009348       $unwind$?CreateImage@UIManager@@QEAAPEAVUIElement@@UtagRECT@@_N1Ufloat2@@PEBDPEAUID3D11Device@@@Z 0000000140035348     UIManager.obj
 0002:0000937c       $stateUnwindMap$?CreateImage@UIManager@@QEAAPEAVUIElement@@UtagRECT@@_N1Ufloat2@@PEBDPEAUID3D11Device@@@Z 000000014003537c     UIManager.obj
 0002:00009390       $ip2state$?CreateImage@UIManager@@QEAAPEAVUIElement@@UtagRECT@@_N1Ufloat2@@PEBDPEAUID3D11Device@@@Z 0000000140035390     UIManager.obj
 0002:000093a8       $unwind$?CreateButton@UIManager@@QEAAPEAVUIElement@@UtagRECT@@_N1Ufloat2@@PEAUID3D11Device@@HPEBD@Z 00000001400353a8     UIManager.obj
 0002:000093cc       $stateUnwindMap$?CreateButton@UIManager@@QEAAPEAVUIElement@@UtagRECT@@_N1Ufloat2@@PEAUID3D11Device@@HPEBD@Z 00000001400353cc     UIManager.obj
 0002:000093e8       $ip2state$?CreateButton@UIManager@@QEAAPEAVUIElement@@UtagRECT@@_N1Ufloat2@@PEAUID3D11Device@@HPEBD@Z 00000001400353e8     UIManager.obj
 0002:00009408       $unwind$?_WICBitsPerPixel@?A0x045efb5a@@YA_KAEBU_GUID@@@Z 0000000140035408     WICTextureLoader.obj
 0002:00009420       $stateUnwindMap$?_WICBitsPerPixel@?A0x045efb5a@@YA_KAEBU_GUID@@@Z 0000000140035420     WICTextureLoader.obj
 0002:00009430       $ip2state$?_WICBitsPerPixel@?A0x045efb5a@@YA_KAEBU_GUID@@@Z 0000000140035430     WICTextureLoader.obj
 0002:00009450       $unwind$?CreateTextureFromWIC@?A0x045efb5a@@YAJPEAUID3D11Device@@PEAUID3D11DeviceContext@@PEAUIWICBitmapFrameDecode@@_KW4D3D11_USAGE@@IIIIPEAPEAUID3D11Resource@@PEAPEAUID3D11ShaderResourceView@@@Z 0000000140035450     WICTextureLoader.obj
 0002:00009478       $stateUnwindMap$?CreateTextureFromWIC@?A0x045efb5a@@YAJPEAUID3D11Device@@PEAUID3D11DeviceContext@@PEAUIWICBitmapFrameDecode@@_KW4D3D11_USAGE@@IIIIPEAPEAUID3D11Resource@@PEAPEAUID3D11ShaderResourceView@@@Z 0000000140035478     WICTextureLoader.obj
 0002:000094a0       $ip2state$?CreateTextureFromWIC@?A0x045efb5a@@YAJPEAUID3D11Device@@PEAUID3D11DeviceContext@@PEAUIWICBitmapFrameDecode@@_KW4D3D11_USAGE@@IIIIPEAPEAUID3D11Resource@@PEAPEAUID3D11ShaderResourceView@@@Z 00000001400354a0     WICTextureLoader.obj
 0002:00009528       $unwind$?CreateWICTextureFromFileEx@DirectX@@YAJPEAUID3D11Device@@PEAUID3D11DeviceContext@@PEB_W_KW4D3D11_USAGE@@IIIIPEAPEAUID3D11Resource@@PEAPEAUID3D11ShaderResourceView@@@Z 0000000140035528     WICTextureLoader.obj
 0002:0000954c       $stateUnwindMap$?CreateWICTextureFromFileEx@DirectX@@YAJPEAUID3D11Device@@PEAUID3D11DeviceContext@@PEB_W_KW4D3D11_USAGE@@IIIIPEAPEAUID3D11Resource@@PEAPEAUID3D11ShaderResourceView@@@Z 000000014003554c     WICTextureLoader.obj
 0002:00009560       $ip2state$?CreateWICTextureFromFileEx@DirectX@@YAJPEAUID3D11Device@@PEAUID3D11DeviceContext@@PEB_W_KW4D3D11_USAGE@@IIIIPEAPEAUID3D11Resource@@PEAPEAUID3D11ShaderResourceView@@@Z 0000000140035560     WICTextureLoader.obj
 0002:00009580       $unwind$?UpdateShaderBuffers@AnimatedShader@@AEAA_NPEAUID3D11DeviceContext@@UXMMATRIX@DirectX@@11PEAUID3D11ShaderResourceView@@UXMFLOAT3@4@UXMFLOAT4@4@V?$vector@V?$array@Ufloat4@@$03@std@@V?$allocator@V?$array@Ufloat4@@$03@std@@@2@@std@@QEAU74@64444444@Z 0000000140035580     shaderstuff.obj
 0002:000095c8       $stateUnwindMap$?UpdateShaderBuffers@AnimatedShader@@AEAA_NPEAUID3D11DeviceContext@@UXMMATRIX@DirectX@@11PEAUID3D11ShaderResourceView@@UXMFLOAT3@4@UXMFLOAT4@4@V?$vector@V?$array@Ufloat4@@$03@std@@V?$allocator@V?$array@Ufloat4@@$03@std@@@2@@std@@QEAU74@64444444@Z 00000001400355c8     shaderstuff.obj
 0002:000095d0       $ip2state$?UpdateShaderBuffers@AnimatedShader@@AEAA_NPEAUID3D11DeviceContext@@UXMMATRIX@DirectX@@11PEAUID3D11ShaderResourceView@@UXMFLOAT3@4@UXMFLOAT4@4@V?$vector@V?$array@Ufloat4@@$03@std@@V?$allocator@V?$array@Ufloat4@@$03@std@@@2@@std@@QEAU74@64444444@Z 00000001400355d0     shaderstuff.obj
 0002:000095f0       $unwind$??0exception@std@@QEAA@QEBD@Z 00000001400355f0     DirectXTK:SpriteBatch.obj
 0002:000095f0       $unwind$??0overflow_error@std@@QEAA@PEBD@Z 00000001400355f0     DirectXTK:SpriteFont.obj
 0002:00009600       $unwind$??1?$lock_guard@Vmutex@std@@@std@@QEAA@XZ 0000000140035600     DirectXTK:SpriteBatch.obj
 0002:00009610       $ip2state$??1?$lock_guard@Vmutex@std@@@std@@QEAA@XZ 0000000140035610     DirectXTK:SpriteBatch.obj
 0002:00009618       $unwind$??$sprintf_s@$0EA@@@YAHAEAY0EA@DPEBDZZ 0000000140035618     DirectXTK:SpriteBatch.obj
 0002:00009624       $unwind$??0SpriteBatch@DirectX@@QEAA@PEAUID3D11DeviceContext@@@Z 0000000140035624     DirectXTK:SpriteBatch.obj
 0002:00009634       $unwind$?Begin@SpriteBatch@DirectX@@QEAQXW4SpriteSortMode@2@PEAUID3D11BlendState@@PEAUID3D11SamplerState@@PEAUID3D11DepthStencilState@@PEAUID3D11RasterizerState@@V?$function@$$A6AXXZ@std@@UXMMATRIX@2@@Z 0000000140035634     DirectXTK:SpriteBatch.obj
 0002:00009644       $stateUnwindMap$?Begin@SpriteBatch@DirectX@@QEAQXW4SpriteSortMode@2@PEAUID3D11BlendState@@PEAUID3D11SamplerState@@PEAUID3D11DepthStencilState@@PEAUID3D11RasterizerState@@V?$function@$$A6AXXZ@std@@UXMMATRIX@2@@Z 0000000140035644     DirectXTK:SpriteBatch.obj
 0002:00009650       $ip2state$?Begin@SpriteBatch@DirectX@@QEAQXW4SpriteSortMode@2@PEAUID3D11BlendState@@PEAUID3D11SamplerState@@PEAUID3D11DepthStencilState@@PEAUID3D11RasterizerState@@V?$function@$$A6AXXZ@std@@UXMMATRIX@2@@Z 0000000140035650     DirectXTK:SpriteBatch.obj
 0002:00009658       $unwind$__scrt_initialize_onexit_tables 0000000140035658     MSVCRT:utility.obj
 0002:00009658       $unwind$?End@SpriteBatch@DirectX@@QEAAXXZ 0000000140035658     DirectXTK:SpriteBatch.obj
 0002:00009660       $chain$0$?End@SpriteBatch@DirectX@@QEAAXXZ 0000000140035660     DirectXTK:SpriteBatch.obj
 0002:00009674       $chain$1$?End@SpriteBatch@DirectX@@QEAAXXZ 0000000140035674     DirectXTK:SpriteBatch.obj
 0002:00009684       $unwind$?Draw@SpriteBatch@DirectX@@QEAQXPEAUID3D11ShaderResourceView@@T__m128@@PEBUtagRECT@@1M11W4SpriteEffects@2@M@Z 0000000140035684     DirectXTK:SpriteBatch.obj
 0002:00009684       $unwind$?__scrt_throw_std_bad_array_new_length@@YAXXZ 0000000140035684     MSVCRT:throw_bad_alloc.obj
 0002:00009684       $unwind$?Draw@SpriteBatch@DirectX@@QEAQXPEAUID3D11ShaderResourceView@@AEBUtagRECT@@T__m128@@@Z 0000000140035684     DirectXTK:SpriteBatch.obj
 0002:00009684       $unwind$?FindGlyph@Impl@SpriteFont@DirectX@@QEBAPEBUGlyph@23@_W@Z 0000000140035684     DirectXTK:SpriteFont.obj
 0002:00009684       $unwind$?__scrt_throw_std_bad_alloc@@YAXXZ 0000000140035684     MSVCRT:throw_bad_alloc.obj
 0002:0000968c       $unwind$?Begin@Impl@SpriteBatch@DirectX@@QEAQXW4SpriteSortMode@3@PEAUID3D11BlendState@@PEAUID3D11SamplerState@@PEAUID3D11DepthStencilState@@PEAUID3D11RasterizerState@@AEAV?$function@$$A6AXXZ@std@@UXMMATRIX@3@@Z 000000014003568c     DirectXTK:SpriteBatch.obj
 0002:000096b4       $stateUnwindMap$?Begin@Impl@SpriteBatch@DirectX@@QEAQXW4SpriteSortMode@3@PEAUID3D11BlendState@@PEAUID3D11SamplerState@@PEAUID3D11DepthStencilState@@PEAUID3D11RasterizerState@@AEAV?$function@$$A6AXXZ@std@@UXMMATRIX@3@@Z 00000001400356b4     DirectXTK:SpriteBatch.obj
 0002:000096c8       $ip2state$?Begin@Impl@SpriteBatch@DirectX@@QEAQXW4SpriteSortMode@3@PEAUID3D11BlendState@@PEAUID3D11SamplerState@@PEAUID3D11DepthStencilState@@PEAUID3D11RasterizerState@@AEAV?$function@$$A6AXXZ@std@@UXMMATRIX@3@@Z 00000001400356c8     DirectXTK:SpriteBatch.obj
 0002:000096e8       $unwind$?Draw@Impl@SpriteBatch@DirectX@@QEAQXPEAUID3D11ShaderResourceView@@T__m128@@PEBUtagRECT@@11H@Z 00000001400356e8     DirectXTK:SpriteBatch.obj
 0002:0000970c       $chain$1$?Draw@Impl@SpriteBatch@DirectX@@QEAQXPEAUID3D11ShaderResourceView@@T__m128@@PEBUtagRECT@@11H@Z 000000014003570c     DirectXTK:SpriteBatch.obj
 0002:00009724       $chain$3$?Draw@Impl@SpriteBatch@DirectX@@QEAQXPEAUID3D11ShaderResourceView@@T__m128@@PEBUtagRECT@@11H@Z 0000000140035724     DirectXTK:SpriteBatch.obj
 0002:0000973c       $chain$4$?Draw@Impl@SpriteBatch@DirectX@@QEAQXPEAUID3D11ShaderResourceView@@T__m128@@PEBUtagRECT@@11H@Z 000000014003573c     DirectXTK:SpriteBatch.obj
 0002:0000974c       $unwind$?PrepareForRendering@Impl@SpriteBatch@DirectX@@AEAAXXZ 000000014003574c     DirectXTK:SpriteBatch.obj
 0002:00009770       $unwind$?FlushBatch@Impl@SpriteBatch@DirectX@@AEAAXXZ 0000000140035770     DirectXTK:SpriteBatch.obj
 0002:00009778       $chain$3$?FlushBatch@Impl@SpriteBatch@DirectX@@AEAAXXZ 0000000140035778     DirectXTK:SpriteBatch.obj
 0002:00009798       $chain$4$?FlushBatch@Impl@SpriteBatch@DirectX@@AEAAXXZ 0000000140035798     DirectXTK:SpriteBatch.obj
 0002:000097ac       $chain$5$?FlushBatch@Impl@SpriteBatch@DirectX@@AEAAXXZ 00000001400357ac     DirectXTK:SpriteBatch.obj
 0002:000097bc       $unwind$?RenderBatch@Impl@SpriteBatch@DirectX@@AEAAXPEAUID3D11ShaderResourceView@@PEBQEBUSpriteInfo@123@_K@Z 00000001400357bc     DirectXTK:SpriteBatch.obj
 0002:000097e8       $stateUnwindMap$?RenderBatch@Impl@SpriteBatch@DirectX@@AEAAXPEAUID3D11ShaderResourceView@@PEBQEBUSpriteInfo@123@_K@Z 00000001400357e8     DirectXTK:SpriteBatch.obj
 0002:000097f8       $ip2state$?RenderBatch@Impl@SpriteBatch@DirectX@@AEAAXPEAUID3D11ShaderResourceView@@PEBQEBUSpriteInfo@123@_K@Z 00000001400357f8     DirectXTK:SpriteBatch.obj
 0002:00009830       $unwind$?RenderSprite@Impl@SpriteBatch@DirectX@@CQXPEBUSpriteInfo@123@PEAUVertexPositionColorTexture@3@T__m128@@2@Z 0000000140035830     DirectXTK:SpriteBatch.obj
 0002:00009858       $chain$0$?RenderSprite@Impl@SpriteBatch@DirectX@@CQXPEBUSpriteInfo@123@PEAUVertexPositionColorTexture@3@T__m128@@2@Z 0000000140035858     DirectXTK:SpriteBatch.obj
 0002:0000986c       $chain$1$?RenderSprite@Impl@SpriteBatch@DirectX@@CQXPEBUSpriteInfo@123@PEAUVertexPositionColorTexture@3@T__m128@@2@Z 000000014003586c     DirectXTK:SpriteBatch.obj
 0002:00009880       $chain$2$?RenderSprite@Impl@SpriteBatch@DirectX@@CQXPEBUSpriteInfo@123@PEAUVertexPositionColorTexture@3@T__m128@@2@Z 0000000140035880     DirectXTK:SpriteBatch.obj
 0002:00009890       $chain$3$?RenderSprite@Impl@SpriteBatch@DirectX@@CQXPEBUSpriteInfo@123@PEAUVertexPositionColorTexture@3@T__m128@@2@Z 0000000140035890     DirectXTK:SpriteBatch.obj
 0002:000098a0       $unwind$?GetViewportTransform@Impl@SpriteBatch@DirectX@@AEAA?AUXMMATRIX@3@PEAUID3D11DeviceContext@@W4DXGI_MODE_ROTATION@@@Z 00000001400358a0     DirectXTK:SpriteBatch.obj
 0002:000098b4       $chain$1$?GetViewportTransform@Impl@SpriteBatch@DirectX@@AEAA?AUXMMATRIX@3@PEAUID3D11DeviceContext@@W4DXGI_MODE_ROTATION@@@Z 00000001400358b4     DirectXTK:SpriteBatch.obj
 0002:000098cc       $chain$2$?GetViewportTransform@Impl@SpriteBatch@DirectX@@AEAA?AUXMMATRIX@3@PEAUID3D11DeviceContext@@W4DXGI_MODE_ROTATION@@@Z 00000001400358cc     DirectXTK:SpriteBatch.obj
 0002:000098dc       $unwind$??1?$vector@V?$ComPtr@UID3D11ShaderResourceView@@@WRL@Microsoft@@V?$allocator@V?$ComPtr@UID3D11ShaderResourceView@@@WRL@Microsoft@@@std@@@std@@QEAA@XZ 00000001400358dc     DirectXTK:SpriteBatch.obj
 0002:000098f8       $ip2state$??1?$vector@V?$ComPtr@UID3D11ShaderResourceView@@@WRL@Microsoft@@V?$allocator@V?$ComPtr@UID3D11ShaderResourceView@@@WRL@Microsoft@@@std@@@std@@QEAA@XZ 00000001400358f8     DirectXTK:SpriteBatch.obj
 0002:00009900       $unwind$?_Destroy@?$vector@V?$ComPtr@UID3D11ShaderResourceView@@@WRL@Microsoft@@V?$allocator@V?$ComPtr@UID3D11ShaderResourceView@@@WRL@Microsoft@@@std@@@std@@AEAAXPEAV?$ComPtr@UID3D11ShaderResourceView@@@WRL@Microsoft@@0@Z 0000000140035900     DirectXTK:SpriteBatch.obj
 0002:0000990c       $chain$0$?_Destroy@?$vector@V?$ComPtr@UID3D11ShaderResourceView@@@WRL@Microsoft@@V?$allocator@V?$ComPtr@UID3D11ShaderResourceView@@@WRL@Microsoft@@@std@@@std@@AEAAXPEAV?$ComPtr@UID3D11ShaderResourceView@@@WRL@Microsoft@@0@Z 000000014003590c     DirectXTK:SpriteBatch.obj
 0002:00009920       $chain$1$?_Destroy@?$vector@V?$ComPtr@UID3D11ShaderResourceView@@@WRL@Microsoft@@V?$allocator@V?$ComPtr@UID3D11ShaderResourceView@@@WRL@Microsoft@@@std@@@std@@AEAAXPEAV?$ComPtr@UID3D11ShaderResourceView@@@WRL@Microsoft@@0@Z 0000000140035920     DirectXTK:SpriteBatch.obj
 0002:00009930       $unwind$??0DeviceResources@Impl@SpriteBatch@DirectX@@QEAA@PEAUID3D11Device@@@Z 0000000140035930     DirectXTK:SpriteBatch.obj
 0002:00009958       $stateUnwindMap$??0DeviceResources@Impl@SpriteBatch@DirectX@@QEAA@PEAUID3D11Device@@@Z 0000000140035958     DirectXTK:SpriteBatch.obj
 0002:00009988       $ip2state$??0DeviceResources@Impl@SpriteBatch@DirectX@@QEAA@PEAUID3D11Device@@@Z 0000000140035988     DirectXTK:SpriteBatch.obj
 0002:000099c0       $unwind$?CreateIndexValues@DeviceResources@Impl@SpriteBatch@DirectX@@CA?AV?$vector@FV?$allocator@F@std@@@std@@XZ 00000001400359c0     DirectXTK:SpriteBatch.obj
 0002:000099dc       $stateUnwindMap$?CreateIndexValues@DeviceResources@Impl@SpriteBatch@DirectX@@CA?AV?$vector@FV?$allocator@F@std@@@std@@XZ 00000001400359dc     DirectXTK:SpriteBatch.obj
 0002:000099e8       $ip2state$?CreateIndexValues@DeviceResources@Impl@SpriteBatch@DirectX@@CA?AV?$vector@FV?$allocator@F@std@@@std@@XZ 00000001400359e8     DirectXTK:SpriteBatch.obj
 0002:000099f0       $unwind$??1DeviceResources@Impl@SpriteBatch@DirectX@@QEAA@XZ 00000001400359f0     DirectXTK:SpriteBatch.obj
 0002:00009a08       $ip2state$??1DeviceResources@Impl@SpriteBatch@DirectX@@QEAA@XZ 0000000140035a08     DirectXTK:SpriteBatch.obj
 0002:00009a10       $unwind$??0ContextResources@Impl@SpriteBatch@DirectX@@QEAA@PEAUID3D11DeviceContext@@@Z 0000000140035a10     DirectXTK:SpriteBatch.obj
 0002:00009a34       $stateUnwindMap$??0ContextResources@Impl@SpriteBatch@DirectX@@QEAA@PEAUID3D11DeviceContext@@@Z 0000000140035a34     DirectXTK:SpriteBatch.obj
 0002:00009a70       $ip2state$??0ContextResources@Impl@SpriteBatch@DirectX@@QEAA@PEAUID3D11DeviceContext@@@Z 0000000140035a70     DirectXTK:SpriteBatch.obj
 0002:00009ab0       $unwind$??1?$ConstantBuffer@UXMMATRIX@DirectX@@@DirectX@@QEAA@XZ 0000000140035ab0     DirectXTK:SpriteBatch.obj
 0002:00009ac0       $ip2state$??1?$ConstantBuffer@UXMMATRIX@DirectX@@@DirectX@@QEAA@XZ 0000000140035ac0     DirectXTK:SpriteBatch.obj
 0002:00009ac8       $chain$0$??1?$shared_ptr@UWrappedData@?$SharedResourcePool@PEAUID3D11DeviceContext@@UContextResources@Impl@SpriteBatch@DirectX@@$$V@DirectX@@@std@@QEAA@XZ 0000000140035ac8     DirectXTK:SpriteBatch.obj
 0002:00009ac8       $chain$0$??1?$shared_ptr@UWrappedData@?$SharedResourcePool@PEAUID3D11Device@@UDeviceResources@Impl@SpriteBatch@DirectX@@$$V@DirectX@@@std@@QEAA@XZ 0000000140035ac8     DirectXTK:SpriteBatch.obj
 0002:00009ac8       $chain$0$??1?$shared_ptr@UDeviceResources@Impl@SpriteBatch@DirectX@@@std@@QEAA@XZ 0000000140035ac8     DirectXTK:SpriteBatch.obj
 0002:00009ac8       $chain$0$??1?$shared_ptr@UWrappedData@?$SharedResourcePool@PEAUID3D11Device@@VImpl@CommonStates@DirectX@@$$V@DirectX@@@std@@QEAA@XZ 0000000140035ac8     DirectXTK:CommonStates.obj
 0002:00009adc       $chain$1$??1?$shared_ptr@UWrappedData@?$SharedResourcePool@PEAUID3D11Device@@VImpl@CommonStates@DirectX@@$$V@DirectX@@@std@@QEAA@XZ 0000000140035adc     DirectXTK:CommonStates.obj
 0002:00009adc       $chain$1$??1?$shared_ptr@UWrappedData@?$SharedResourcePool@PEAUID3D11DeviceContext@@UContextResources@Impl@SpriteBatch@DirectX@@$$V@DirectX@@@std@@QEAA@XZ 0000000140035adc     DirectXTK:SpriteBatch.obj
 0002:00009adc       $chain$1$??1?$shared_ptr@UWrappedData@?$SharedResourcePool@PEAUID3D11Device@@UDeviceResources@Impl@SpriteBatch@DirectX@@$$V@DirectX@@@std@@QEAA@XZ 0000000140035adc     DirectXTK:SpriteBatch.obj
 0002:00009adc       $chain$1$??1?$shared_ptr@UDeviceResources@Impl@SpriteBatch@DirectX@@@std@@QEAA@XZ 0000000140035adc     DirectXTK:SpriteBatch.obj
 0002:00009aec       $unwind$??1Impl@SpriteBatch@DirectX@@QEAA@XZ 0000000140035aec     DirectXTK:SpriteBatch.obj
 0002:00009b08       $ip2state$??1Impl@SpriteBatch@DirectX@@QEAA@XZ 0000000140035b08     DirectXTK:SpriteBatch.obj
 0002:00009b10       $unwind$?DemandCreate@?$SharedResourcePool@PEAUID3D11Device@@UDeviceResources@Impl@SpriteBatch@DirectX@@$$V@DirectX@@QEAA?AV?$shared_ptr@UDeviceResources@Impl@SpriteBatch@DirectX@@@std@@PEAUID3D11Device@@@Z 0000000140035b10     DirectXTK:SpriteBatch.obj
 0002:00009b34       $stateUnwindMap$?DemandCreate@?$SharedResourcePool@PEAUID3D11Device@@UDeviceResources@Impl@SpriteBatch@DirectX@@$$V@DirectX@@QEAA?AV?$shared_ptr@UDeviceResources@Impl@SpriteBatch@DirectX@@@std@@PEAUID3D11Device@@@Z 0000000140035b34     DirectXTK:SpriteBatch.obj
 0002:00009b60       $ip2state$?DemandCreate@?$SharedResourcePool@PEAUID3D11Device@@UDeviceResources@Impl@SpriteBatch@DirectX@@$$V@DirectX@@QEAA?AV?$shared_ptr@UDeviceResources@Impl@SpriteBatch@DirectX@@@std@@PEAUID3D11Device@@@Z 0000000140035b60     DirectXTK:SpriteBatch.obj
 0002:00009ba0       $unwind$??__E?deviceResourcesPool@Impl@SpriteBatch@DirectX@@0V?$SharedResourcePool@PEAUID3D11Device@@UDeviceResources@Impl@SpriteBatch@DirectX@@$$V@3@A@@YAXXZ 0000000140035ba0     DirectXTK:SpriteBatch.obj
 0002:00009bb4       $stateUnwindMap$??__E?instancePool@Impl@CommonStates@DirectX@@2V?$SharedResourcePool@PEAUID3D11Device@@VImpl@CommonStates@DirectX@@$$V@3@A@@YAXXZ 0000000140035bb4     DirectXTK:CommonStates.obj
 0002:00009bb4       $stateUnwindMap$??__E?contextResourcesPool@Impl@SpriteBatch@DirectX@@0V?$SharedResourcePool@PEAUID3D11DeviceContext@@UContextResources@Impl@SpriteBatch@DirectX@@$$V@3@A@@YAXXZ 0000000140035bb4     DirectXTK:SpriteBatch.obj
 0002:00009bb4       $stateUnwindMap$??__E?deviceResourcesPool@Impl@SpriteBatch@DirectX@@0V?$SharedResourcePool@PEAUID3D11Device@@UDeviceResources@Impl@SpriteBatch@DirectX@@$$V@3@A@@YAXXZ 0000000140035bb4     DirectXTK:SpriteBatch.obj
 0002:00009bc0       $ip2state$??__E?deviceResourcesPool@Impl@SpriteBatch@DirectX@@0V?$SharedResourcePool@PEAUID3D11Device@@UDeviceResources@Impl@SpriteBatch@DirectX@@$$V@3@A@@YAXXZ 0000000140035bc0     DirectXTK:SpriteBatch.obj
 0002:00009bd0       $chain$0$??__F?deviceResourcesPool@Impl@SpriteBatch@DirectX@@0V?$SharedResourcePool@PEAUID3D11Device@@UDeviceResources@Impl@SpriteBatch@DirectX@@$$V@3@A@@YAXXZ 0000000140035bd0     DirectXTK:SpriteBatch.obj
 0002:00009be4       $chain$1$??__F?deviceResourcesPool@Impl@SpriteBatch@DirectX@@0V?$SharedResourcePool@PEAUID3D11Device@@UDeviceResources@Impl@SpriteBatch@DirectX@@$$V@3@A@@YAXXZ 0000000140035be4     DirectXTK:SpriteBatch.obj
 0002:00009bf4       $unwind$?DemandCreate@?$SharedResourcePool@PEAUID3D11DeviceContext@@UContextResources@Impl@SpriteBatch@DirectX@@$$V@DirectX@@QEAA?AV?$shared_ptr@UContextResources@Impl@SpriteBatch@DirectX@@@std@@PEAUID3D11DeviceContext@@@Z 0000000140035bf4     DirectXTK:SpriteBatch.obj
 0002:00009c18       $stateUnwindMap$?DemandCreate@?$SharedResourcePool@PEAUID3D11DeviceContext@@UContextResources@Impl@SpriteBatch@DirectX@@$$V@DirectX@@QEAA?AV?$shared_ptr@UContextResources@Impl@SpriteBatch@DirectX@@@std@@PEAUID3D11DeviceContext@@@Z 0000000140035c18     DirectXTK:SpriteBatch.obj
 0002:00009c40       $ip2state$?DemandCreate@?$SharedResourcePool@PEAUID3D11DeviceContext@@UContextResources@Impl@SpriteBatch@DirectX@@$$V@DirectX@@QEAA?AV?$shared_ptr@UContextResources@Impl@SpriteBatch@DirectX@@@std@@PEAUID3D11DeviceContext@@@Z 0000000140035c40     DirectXTK:SpriteBatch.obj
 0002:00009c80       $unwind$??__E?contextResourcesPool@Impl@SpriteBatch@DirectX@@0V?$SharedResourcePool@PEAUID3D11DeviceContext@@UContextResources@Impl@SpriteBatch@DirectX@@$$V@3@A@@YAXXZ 0000000140035c80     DirectXTK:SpriteBatch.obj
 0002:00009c98       $ip2state$??__E?contextResourcesPool@Impl@SpriteBatch@DirectX@@0V?$SharedResourcePool@PEAUID3D11DeviceContext@@UContextResources@Impl@SpriteBatch@DirectX@@$$V@3@A@@YAXXZ 0000000140035c98     DirectXTK:SpriteBatch.obj
 0002:00009ca8       $chain$0$??__F?contextResourcesPool@Impl@SpriteBatch@DirectX@@0V?$SharedResourcePool@PEAUID3D11DeviceContext@@UContextResources@Impl@SpriteBatch@DirectX@@$$V@3@A@@YAXXZ 0000000140035ca8     DirectXTK:SpriteBatch.obj
 0002:00009cbc       $chain$1$??__F?contextResourcesPool@Impl@SpriteBatch@DirectX@@0V?$SharedResourcePool@PEAUID3D11DeviceContext@@UContextResources@Impl@SpriteBatch@DirectX@@$$V@3@A@@YAXXZ 0000000140035cbc     DirectXTK:SpriteBatch.obj
 0002:00009ccc       $unwind$?_Reallocate_exactly@?$vector@FV?$allocator@F@std@@@std@@AEAAX_K@Z 0000000140035ccc     DirectXTK:SpriteBatch.obj
 0002:00009ce4       $tryMap$?_Reallocate_exactly@?$vector@FV?$allocator@F@std@@@std@@AEAAX_K@Z 0000000140035ce4     DirectXTK:SpriteBatch.obj
 0002:00009cf8       $handlerMap$0$?_Reallocate_exactly@?$vector@FV?$allocator@F@std@@@std@@AEAAX_K@Z 0000000140035cf8     DirectXTK:SpriteBatch.obj
 0002:00009d10       $ip2state$?_Reallocate_exactly@?$vector@FV?$allocator@F@std@@@std@@AEAAX_K@Z 0000000140035d10     DirectXTK:SpriteBatch.obj
 0002:00009d20       $unwind$?catch$0@?0??_Reallocate_exactly@?$vector@FV?$allocator@F@std@@@std@@AEAAX_K@Z@4HA 0000000140035d20     DirectXTK:SpriteBatch.obj
 0002:00009d30       $unwind$??$_Emplace_reallocate@AEAPEAUID3D11ShaderResourceView@@@?$vector@V?$ComPtr@UID3D11ShaderResourceView@@@WRL@Microsoft@@V?$allocator@V?$ComPtr@UID3D11ShaderResourceView@@@WRL@Microsoft@@@std@@@std@@QEAAPEAV?$ComPtr@UID3D11ShaderResourceView@@@WRL@Microsoft@@QEAV234@AEAPEAUID3D11ShaderResourceView@@@Z 0000000140035d30     DirectXTK:SpriteBatch.obj
 0002:00009d50       $tryMap$??$_Emplace_reallocate@AEAPEAUID3D11ShaderResourceView@@@?$vector@V?$ComPtr@UID3D11ShaderResourceView@@@WRL@Microsoft@@V?$allocator@V?$ComPtr@UID3D11ShaderResourceView@@@WRL@Microsoft@@@std@@@std@@QEAAPEAV?$ComPtr@UID3D11ShaderResourceView@@@WRL@Microsoft@@QEAV234@AEAPEAUID3D11ShaderResourceView@@@Z 0000000140035d50     DirectXTK:SpriteBatch.obj
 0002:00009d64       $handlerMap$0$??$_Emplace_reallocate@AEAPEAUID3D11ShaderResourceView@@@?$vector@V?$ComPtr@UID3D11ShaderResourceView@@@WRL@Microsoft@@V?$allocator@V?$ComPtr@UID3D11ShaderResourceView@@@WRL@Microsoft@@@std@@@std@@QEAAPEAV?$ComPtr@UID3D11ShaderResourceView@@@WRL@Microsoft@@QEAV234@AEAPEAUID3D11ShaderResourceView@@@Z 0000000140035d64     DirectXTK:SpriteBatch.obj
 0002:00009d78       $ip2state$??$_Emplace_reallocate@AEAPEAUID3D11ShaderResourceView@@@?$vector@V?$ComPtr@UID3D11ShaderResourceView@@@WRL@Microsoft@@V?$allocator@V?$ComPtr@UID3D11ShaderResourceView@@@WRL@Microsoft@@@std@@@std@@QEAAPEAV?$ComPtr@UID3D11ShaderResourceView@@@WRL@Microsoft@@QEAV234@AEAPEAUID3D11ShaderResourceView@@@Z 0000000140035d78     DirectXTK:SpriteBatch.obj
 0002:00009d98       $unwind$?catch$6@?0???$_Emplace_reallocate@AEAPEAUID3D11ShaderResourceView@@@?$vector@V?$ComPtr@UID3D11ShaderResourceView@@@WRL@Microsoft@@V?$allocator@V?$ComPtr@UID3D11ShaderResourceView@@@WRL@Microsoft@@@std@@@std@@QEAAPEAV?$ComPtr@UID3D11ShaderResourceView@@@WRL@Microsoft@@QEAV234@AEAPEAUID3D11ShaderResourceView@@@Z@4HA 0000000140035d98     DirectXTK:SpriteBatch.obj
 0002:00009dac       $unwind$??$make_unique@VImpl@SpriteBatch@DirectX@@AEAPEAUID3D11DeviceContext@@$0A@@std@@YA?AV?$unique_ptr@VImpl@SpriteBatch@DirectX@@U?$default_delete@VImpl@SpriteBatch@DirectX@@@std@@@0@AEAPEAUID3D11DeviceContext@@@Z 0000000140035dac     DirectXTK:SpriteBatch.obj
 0002:00009dc4       $stateUnwindMap$??$make_unique@VImpl@SpriteBatch@DirectX@@AEAPEAUID3D11DeviceContext@@$0A@@std@@YA?AV?$unique_ptr@VImpl@SpriteBatch@DirectX@@U?$default_delete@VImpl@SpriteBatch@DirectX@@@std@@@0@AEAPEAUID3D11DeviceContext@@@Z 0000000140035dc4     DirectXTK:SpriteBatch.obj
 0002:00009e28       $ip2state$??$make_unique@VImpl@SpriteBatch@DirectX@@AEAPEAUID3D11DeviceContext@@$0A@@std@@YA?AV?$unique_ptr@VImpl@SpriteBatch@DirectX@@U?$default_delete@VImpl@SpriteBatch@DirectX@@@std@@@0@AEAPEAUID3D11DeviceContext@@@Z 0000000140035e28     DirectXTK:SpriteBatch.obj
 0002:00009e40       $unwind$?_Buyheadnode@?$_Tree_comp_alloc@V?$_Tmap_traits@PEAUID3D11Device@@V?$weak_ptr@UDeviceResources@Impl@SpriteBatch@DirectX@@@std@@U?$less@PEAUID3D11Device@@@3@V?$allocator@U?$pair@QEAUID3D11Device@@V?$weak_ptr@UDeviceResources@Impl@SpriteBatch@DirectX@@@std@@@std@@@3@$0A@@std@@@std@@QEAAPEAU?$_Tree_node@U?$pair@QEAUID3D11Device@@V?$weak_ptr@UDeviceResources@Impl@SpriteBatch@DirectX@@@std@@@std@@PEAX@2@XZ 0000000140035e40     DirectXTK:SpriteBatch.obj
 0002:00009e40       $unwind$?_Buyheadnode@?$_Tree_comp_alloc@V?$_Tmap_traits@PEAUID3D11Device@@V?$weak_ptr@VImpl@CommonStates@DirectX@@@std@@U?$less@PEAUID3D11Device@@@3@V?$allocator@U?$pair@QEAUID3D11Device@@V?$weak_ptr@VImpl@CommonStates@DirectX@@@std@@@std@@@3@$0A@@std@@@std@@QEAAPEAU?$_Tree_node@U?$pair@QEAUID3D11Device@@V?$weak_ptr@VImpl@CommonStates@DirectX@@@std@@@std@@PEAX@2@XZ 0000000140035e40     DirectXTK:CommonStates.obj
 0002:00009e40       $unwind$?_Buyheadnode@?$_Tree_comp_alloc@V?$_Tmap_traits@PEAUID3D11DeviceContext@@V?$weak_ptr@UContextResources@Impl@SpriteBatch@DirectX@@@std@@U?$less@PEAUID3D11DeviceContext@@@3@V?$allocator@U?$pair@QEAUID3D11DeviceContext@@V?$weak_ptr@UContextResources@Impl@SpriteBatch@DirectX@@@std@@@std@@@3@$0A@@std@@@std@@QEAAPEAU?$_Tree_node@U?$pair@QEAUID3D11DeviceContext@@V?$weak_ptr@UContextResources@Impl@SpriteBatch@DirectX@@@std@@@std@@PEAX@2@XZ 0000000140035e40     DirectXTK:SpriteBatch.obj
 0002:00009e50       $tryMap$?_Buyheadnode@?$_Tree_comp_alloc@V?$_Tmap_traits@PEAUID3D11Device@@V?$weak_ptr@VImpl@CommonStates@DirectX@@@std@@U?$less@PEAUID3D11Device@@@3@V?$allocator@U?$pair@QEAUID3D11Device@@V?$weak_ptr@VImpl@CommonStates@DirectX@@@std@@@std@@@3@$0A@@std@@@std@@QEAAPEAU?$_Tree_node@U?$pair@QEAUID3D11Device@@V?$weak_ptr@VImpl@CommonStates@DirectX@@@std@@@std@@PEAX@2@XZ 0000000140035e50     DirectXTK:CommonStates.obj
 0002:00009e50       $tryMap$?_Buyheadnode@?$_Tree_comp_alloc@V?$_Tmap_traits@PEAUID3D11DeviceContext@@V?$weak_ptr@UContextResources@Impl@SpriteBatch@DirectX@@@std@@U?$less@PEAUID3D11DeviceContext@@@3@V?$allocator@U?$pair@QEAUID3D11DeviceContext@@V?$weak_ptr@UContextResources@Impl@SpriteBatch@DirectX@@@std@@@std@@@3@$0A@@std@@@std@@QEAAPEAU?$_Tree_node@U?$pair@QEAUID3D11DeviceContext@@V?$weak_ptr@UContextResources@Impl@SpriteBatch@DirectX@@@std@@@std@@PEAX@2@XZ 0000000140035e50     DirectXTK:SpriteBatch.obj
 0002:00009e50       $tryMap$?_Buyheadnode@?$_Tree_comp_alloc@V?$_Tmap_traits@PEAUID3D11Device@@V?$weak_ptr@UDeviceResources@Impl@SpriteBatch@DirectX@@@std@@U?$less@PEAUID3D11Device@@@3@V?$allocator@U?$pair@QEAUID3D11Device@@V?$weak_ptr@UDeviceResources@Impl@SpriteBatch@DirectX@@@std@@@std@@@3@$0A@@std@@@std@@QEAAPEAU?$_Tree_node@U?$pair@QEAUID3D11Device@@V?$weak_ptr@UDeviceResources@Impl@SpriteBatch@DirectX@@@std@@@std@@PEAX@2@XZ 0000000140035e50     DirectXTK:SpriteBatch.obj
 0002:00009e64       $handlerMap$0$?_Buyheadnode@?$_Tree_comp_alloc@V?$_Tmap_traits@PEAUID3D11DeviceContext@@V?$weak_ptr@UContextResources@Impl@SpriteBatch@DirectX@@@std@@U?$less@PEAUID3D11DeviceContext@@@3@V?$allocator@U?$pair@QEAUID3D11DeviceContext@@V?$weak_ptr@UContextResources@Impl@SpriteBatch@DirectX@@@std@@@std@@@3@$0A@@std@@@std@@QEAAPEAU?$_Tree_node@U?$pair@QEAUID3D11DeviceContext@@V?$weak_ptr@UContextResources@Impl@SpriteBatch@DirectX@@@std@@@std@@PEAX@2@XZ 0000000140035e64     DirectXTK:SpriteBatch.obj
 0002:00009e64       $handlerMap$0$?_Buyheadnode@?$_Tree_comp_alloc@V?$_Tmap_traits@PEAUID3D11Device@@V?$weak_ptr@VImpl@CommonStates@DirectX@@@std@@U?$less@PEAUID3D11Device@@@3@V?$allocator@U?$pair@QEAUID3D11Device@@V?$weak_ptr@VImpl@CommonStates@DirectX@@@std@@@std@@@3@$0A@@std@@@std@@QEAAPEAU?$_Tree_node@U?$pair@QEAUID3D11Device@@V?$weak_ptr@VImpl@CommonStates@DirectX@@@std@@@std@@PEAX@2@XZ 0000000140035e64     DirectXTK:CommonStates.obj
 0002:00009e64       $handlerMap$0$?_Buyheadnode@?$_Tree_comp_alloc@V?$_Tmap_traits@PEAUID3D11Device@@V?$weak_ptr@UDeviceResources@Impl@SpriteBatch@DirectX@@@std@@U?$less@PEAUID3D11Device@@@3@V?$allocator@U?$pair@QEAUID3D11Device@@V?$weak_ptr@UDeviceResources@Impl@SpriteBatch@DirectX@@@std@@@std@@@3@$0A@@std@@@std@@QEAAPEAU?$_Tree_node@U?$pair@QEAUID3D11Device@@V?$weak_ptr@UDeviceResources@Impl@SpriteBatch@DirectX@@@std@@@std@@PEAX@2@XZ 0000000140035e64     DirectXTK:SpriteBatch.obj
 0002:00009e78       $ip2state$?_Buyheadnode@?$_Tree_comp_alloc@V?$_Tmap_traits@PEAUID3D11Device@@V?$weak_ptr@VImpl@CommonStates@DirectX@@@std@@U?$less@PEAUID3D11Device@@@3@V?$allocator@U?$pair@QEAUID3D11Device@@V?$weak_ptr@VImpl@CommonStates@DirectX@@@std@@@std@@@3@$0A@@std@@@std@@QEAAPEAU?$_Tree_node@U?$pair@QEAUID3D11Device@@V?$weak_ptr@VImpl@CommonStates@DirectX@@@std@@@std@@PEAX@2@XZ 0000000140035e78     DirectXTK:CommonStates.obj
 0002:00009e78       $ip2state$?_Buyheadnode@?$_Tree_comp_alloc@V?$_Tmap_traits@PEAUID3D11Device@@V?$weak_ptr@UDeviceResources@Impl@SpriteBatch@DirectX@@@std@@U?$less@PEAUID3D11Device@@@3@V?$allocator@U?$pair@QEAUID3D11Device@@V?$weak_ptr@UDeviceResources@Impl@SpriteBatch@DirectX@@@std@@@std@@@3@$0A@@std@@@std@@QEAAPEAU?$_Tree_node@U?$pair@QEAUID3D11Device@@V?$weak_ptr@UDeviceResources@Impl@SpriteBatch@DirectX@@@std@@@std@@PEAX@2@XZ 0000000140035e78     DirectXTK:SpriteBatch.obj
 0002:00009e78       $ip2state$?_Buyheadnode@?$_Tree_comp_alloc@V?$_Tmap_traits@PEAUID3D11DeviceContext@@V?$weak_ptr@UContextResources@Impl@SpriteBatch@DirectX@@@std@@U?$less@PEAUID3D11DeviceContext@@@3@V?$allocator@U?$pair@QEAUID3D11DeviceContext@@V?$weak_ptr@UContextResources@Impl@SpriteBatch@DirectX@@@std@@@std@@@3@$0A@@std@@@std@@QEAAPEAU?$_Tree_node@U?$pair@QEAUID3D11DeviceContext@@V?$weak_ptr@UContextResources@Impl@SpriteBatch@DirectX@@@std@@@std@@PEAX@2@XZ 0000000140035e78     DirectXTK:SpriteBatch.obj
 0002:00009e88       $unwind$?catch$0@?0??_Buyheadnode@?$_Tree_comp_alloc@V?$_Tmap_traits@PEAUID3D11Device@@V?$weak_ptr@UDeviceResources@Impl@SpriteBatch@DirectX@@@std@@U?$less@PEAUID3D11Device@@@3@V?$allocator@U?$pair@QEAUID3D11Device@@V?$weak_ptr@UDeviceResources@Impl@SpriteBatch@DirectX@@@std@@@std@@@3@$0A@@std@@@std@@QEAAPEAU?$_Tree_node@U?$pair@QEAUID3D11Device@@V?$weak_ptr@UDeviceResources@Impl@SpriteBatch@DirectX@@@std@@@std@@PEAX@2@XZ@4HA 0000000140035e88     DirectXTK:SpriteBatch.obj
 0002:00009e88       $unwind$?catch$0@?0??_Buyheadnode@?$_Tree_comp_alloc@V?$_Tmap_traits@PEAUID3D11DeviceContext@@V?$weak_ptr@UContextResources@Impl@SpriteBatch@DirectX@@@std@@U?$less@PEAUID3D11DeviceContext@@@3@V?$allocator@U?$pair@QEAUID3D11DeviceContext@@V?$weak_ptr@UContextResources@Impl@SpriteBatch@DirectX@@@std@@@std@@@3@$0A@@std@@@std@@QEAAPEAU?$_Tree_node@U?$pair@QEAUID3D11DeviceContext@@V?$weak_ptr@UContextResources@Impl@SpriteBatch@DirectX@@@std@@@std@@PEAX@2@XZ@4HA 0000000140035e88     DirectXTK:SpriteBatch.obj
 0002:00009e88       $unwind$?catch$0@?0??_Buyheadnode@?$_Tree_comp_alloc@V?$_Tmap_traits@PEAUID3D11Device@@V?$weak_ptr@VImpl@CommonStates@DirectX@@@std@@U?$less@PEAUID3D11Device@@@3@V?$allocator@U?$pair@QEAUID3D11Device@@V?$weak_ptr@VImpl@CommonStates@DirectX@@@std@@@std@@@3@$0A@@std@@@std@@QEAAPEAU?$_Tree_node@U?$pair@QEAUID3D11Device@@V?$weak_ptr@VImpl@CommonStates@DirectX@@@std@@@std@@PEAX@2@XZ@4HA 0000000140035e88     DirectXTK:CommonStates.obj
 0002:00009e98       $unwind$?_Buynode0@?$_Tree_comp_alloc@V?$_Tmap_traits@PEAUID3D11Device@@V?$weak_ptr@UDeviceResources@Impl@SpriteBatch@DirectX@@@std@@U?$less@PEAUID3D11Device@@@3@V?$allocator@U?$pair@QEAUID3D11Device@@V?$weak_ptr@UDeviceResources@Impl@SpriteBatch@DirectX@@@std@@@std@@@3@$0A@@std@@@std@@QEAAPEAU?$_Tree_node@U?$pair@QEAUID3D11Device@@V?$weak_ptr@UDeviceResources@Impl@SpriteBatch@DirectX@@@std@@@std@@PEAX@2@XZ 0000000140035e98     DirectXTK:SpriteBatch.obj
 0002:00009e98       $unwind$?_Buynode0@?$_Tree_comp_alloc@V?$_Tmap_traits@PEAUID3D11Device@@V?$weak_ptr@VImpl@CommonStates@DirectX@@@std@@U?$less@PEAUID3D11Device@@@3@V?$allocator@U?$pair@QEAUID3D11Device@@V?$weak_ptr@VImpl@CommonStates@DirectX@@@std@@@std@@@3@$0A@@std@@@std@@QEAAPEAU?$_Tree_node@U?$pair@QEAUID3D11Device@@V?$weak_ptr@VImpl@CommonStates@DirectX@@@std@@@std@@PEAX@2@XZ 0000000140035e98     DirectXTK:CommonStates.obj
 0002:00009e98       $unwind$?_Buynode0@?$_Tree_comp_alloc@V?$_Tmap_traits@PEAUID3D11DeviceContext@@V?$weak_ptr@UContextResources@Impl@SpriteBatch@DirectX@@@std@@U?$less@PEAUID3D11DeviceContext@@@3@V?$allocator@U?$pair@QEAUID3D11DeviceContext@@V?$weak_ptr@UContextResources@Impl@SpriteBatch@DirectX@@@std@@@std@@@3@$0A@@std@@@std@@QEAAPEAU?$_Tree_node@U?$pair@QEAUID3D11DeviceContext@@V?$weak_ptr@UContextResources@Impl@SpriteBatch@DirectX@@@std@@@std@@PEAX@2@XZ 0000000140035e98     DirectXTK:SpriteBatch.obj
 0002:00009ea8       $tryMap$?_Buynode0@?$_Tree_comp_alloc@V?$_Tmap_traits@PEAUID3D11Device@@V?$weak_ptr@VImpl@CommonStates@DirectX@@@std@@U?$less@PEAUID3D11Device@@@3@V?$allocator@U?$pair@QEAUID3D11Device@@V?$weak_ptr@VImpl@CommonStates@DirectX@@@std@@@std@@@3@$0A@@std@@@std@@QEAAPEAU?$_Tree_node@U?$pair@QEAUID3D11Device@@V?$weak_ptr@VImpl@CommonStates@DirectX@@@std@@@std@@PEAX@2@XZ 0000000140035ea8     DirectXTK:CommonStates.obj
 0002:00009ea8       $tryMap$?_Buynode0@?$_Tree_comp_alloc@V?$_Tmap_traits@PEAUID3D11DeviceContext@@V?$weak_ptr@UContextResources@Impl@SpriteBatch@DirectX@@@std@@U?$less@PEAUID3D11DeviceContext@@@3@V?$allocator@U?$pair@QEAUID3D11DeviceContext@@V?$weak_ptr@UContextResources@Impl@SpriteBatch@DirectX@@@std@@@std@@@3@$0A@@std@@@std@@QEAAPEAU?$_Tree_node@U?$pair@QEAUID3D11DeviceContext@@V?$weak_ptr@UContextResources@Impl@SpriteBatch@DirectX@@@std@@@std@@PEAX@2@XZ 0000000140035ea8     DirectXTK:SpriteBatch.obj
 0002:00009ea8       $tryMap$?_Buynode0@?$_Tree_comp_alloc@V?$_Tmap_traits@PEAUID3D11Device@@V?$weak_ptr@UDeviceResources@Impl@SpriteBatch@DirectX@@@std@@U?$less@PEAUID3D11Device@@@3@V?$allocator@U?$pair@QEAUID3D11Device@@V?$weak_ptr@UDeviceResources@Impl@SpriteBatch@DirectX@@@std@@@std@@@3@$0A@@std@@@std@@QEAAPEAU?$_Tree_node@U?$pair@QEAUID3D11Device@@V?$weak_ptr@UDeviceResources@Impl@SpriteBatch@DirectX@@@std@@@std@@PEAX@2@XZ 0000000140035ea8     DirectXTK:SpriteBatch.obj
 0002:00009ebc       $handlerMap$0$?_Buynode0@?$_Tree_comp_alloc@V?$_Tmap_traits@PEAUID3D11Device@@V?$weak_ptr@VImpl@CommonStates@DirectX@@@std@@U?$less@PEAUID3D11Device@@@3@V?$allocator@U?$pair@QEAUID3D11Device@@V?$weak_ptr@VImpl@CommonStates@DirectX@@@std@@@std@@@3@$0A@@std@@@std@@QEAAPEAU?$_Tree_node@U?$pair@QEAUID3D11Device@@V?$weak_ptr@VImpl@CommonStates@DirectX@@@std@@@std@@PEAX@2@XZ 0000000140035ebc     DirectXTK:CommonStates.obj
 0002:00009ebc       $handlerMap$0$?_Buynode0@?$_Tree_comp_alloc@V?$_Tmap_traits@PEAUID3D11DeviceContext@@V?$weak_ptr@UContextResources@Impl@SpriteBatch@DirectX@@@std@@U?$less@PEAUID3D11DeviceContext@@@3@V?$allocator@U?$pair@QEAUID3D11DeviceContext@@V?$weak_ptr@UContextResources@Impl@SpriteBatch@DirectX@@@std@@@std@@@3@$0A@@std@@@std@@QEAAPEAU?$_Tree_node@U?$pair@QEAUID3D11DeviceContext@@V?$weak_ptr@UContextResources@Impl@SpriteBatch@DirectX@@@std@@@std@@PEAX@2@XZ 0000000140035ebc     DirectXTK:SpriteBatch.obj
 0002:00009ebc       $handlerMap$0$?_Buynode0@?$_Tree_comp_alloc@V?$_Tmap_traits@PEAUID3D11Device@@V?$weak_ptr@UDeviceResources@Impl@SpriteBatch@DirectX@@@std@@U?$less@PEAUID3D11Device@@@3@V?$allocator@U?$pair@QEAUID3D11Device@@V?$weak_ptr@UDeviceResources@Impl@SpriteBatch@DirectX@@@std@@@std@@@3@$0A@@std@@@std@@QEAAPEAU?$_Tree_node@U?$pair@QEAUID3D11Device@@V?$weak_ptr@UDeviceResources@Impl@SpriteBatch@DirectX@@@std@@@std@@PEAX@2@XZ 0000000140035ebc     DirectXTK:SpriteBatch.obj
 0002:00009ed0       $ip2state$?_Buynode0@?$_Tree_comp_alloc@V?$_Tmap_traits@PEAUID3D11Device@@V?$weak_ptr@VImpl@CommonStates@DirectX@@@std@@U?$less@PEAUID3D11Device@@@3@V?$allocator@U?$pair@QEAUID3D11Device@@V?$weak_ptr@VImpl@CommonStates@DirectX@@@std@@@std@@@3@$0A@@std@@@std@@QEAAPEAU?$_Tree_node@U?$pair@QEAUID3D11Device@@V?$weak_ptr@VImpl@CommonStates@DirectX@@@std@@@std@@PEAX@2@XZ 0000000140035ed0     DirectXTK:CommonStates.obj
 0002:00009ed0       $ip2state$?_Buynode0@?$_Tree_comp_alloc@V?$_Tmap_traits@PEAUID3D11Device@@V?$weak_ptr@UDeviceResources@Impl@SpriteBatch@DirectX@@@std@@U?$less@PEAUID3D11Device@@@3@V?$allocator@U?$pair@QEAUID3D11Device@@V?$weak_ptr@UDeviceResources@Impl@SpriteBatch@DirectX@@@std@@@std@@@3@$0A@@std@@@std@@QEAAPEAU?$_Tree_node@U?$pair@QEAUID3D11Device@@V?$weak_ptr@UDeviceResources@Impl@SpriteBatch@DirectX@@@std@@@std@@PEAX@2@XZ 0000000140035ed0     DirectXTK:SpriteBatch.obj
 0002:00009ed0       $ip2state$?_Buynode0@?$_Tree_comp_alloc@V?$_Tmap_traits@PEAUID3D11DeviceContext@@V?$weak_ptr@UContextResources@Impl@SpriteBatch@DirectX@@@std@@U?$less@PEAUID3D11DeviceContext@@@3@V?$allocator@U?$pair@QEAUID3D11DeviceContext@@V?$weak_ptr@UContextResources@Impl@SpriteBatch@DirectX@@@std@@@std@@@3@$0A@@std@@@std@@QEAAPEAU?$_Tree_node@U?$pair@QEAUID3D11DeviceContext@@V?$weak_ptr@UContextResources@Impl@SpriteBatch@DirectX@@@std@@@std@@PEAX@2@XZ 0000000140035ed0     DirectXTK:SpriteBatch.obj
 0002:00009ee0       $unwind$?catch$0@?0??_Buynode0@?$_Tree_comp_alloc@V?$_Tmap_traits@PEAUID3D11DeviceContext@@V?$weak_ptr@UContextResources@Impl@SpriteBatch@DirectX@@@std@@U?$less@PEAUID3D11DeviceContext@@@3@V?$allocator@U?$pair@QEAUID3D11DeviceContext@@V?$weak_ptr@UContextResources@Impl@SpriteBatch@DirectX@@@std@@@std@@@3@$0A@@std@@@std@@QEAAPEAU?$_Tree_node@U?$pair@QEAUID3D11DeviceContext@@V?$weak_ptr@UContextResources@Impl@SpriteBatch@DirectX@@@std@@@std@@PEAX@2@XZ@4HA 0000000140035ee0     DirectXTK:SpriteBatch.obj
 0002:00009ee0       $unwind$?catch$0@?0??_Buynode0@?$_Tree_comp_alloc@V?$_Tmap_traits@PEAUID3D11Device@@V?$weak_ptr@UDeviceResources@Impl@SpriteBatch@DirectX@@@std@@U?$less@PEAUID3D11Device@@@3@V?$allocator@U?$pair@QEAUID3D11Device@@V?$weak_ptr@UDeviceResources@Impl@SpriteBatch@DirectX@@@std@@@std@@@3@$0A@@std@@@std@@QEAAPEAU?$_Tree_node@U?$pair@QEAUID3D11Device@@V?$weak_ptr@UDeviceResources@Impl@SpriteBatch@DirectX@@@std@@@std@@PEAX@2@XZ@4HA 0000000140035ee0     DirectXTK:SpriteBatch.obj
 0002:00009ee0       $unwind$?catch$0@?0??_Buynode0@?$_Tree_comp_alloc@V?$_Tmap_traits@PEAUID3D11Device@@V?$weak_ptr@VImpl@CommonStates@DirectX@@@std@@U?$less@PEAUID3D11Device@@@3@V?$allocator@U?$pair@QEAUID3D11Device@@V?$weak_ptr@VImpl@CommonStates@DirectX@@@std@@@std@@@3@$0A@@std@@@std@@QEAAPEAU?$_Tree_node@U?$pair@QEAUID3D11Device@@V?$weak_ptr@VImpl@CommonStates@DirectX@@@std@@@std@@PEAX@2@XZ@4HA 0000000140035ee0     DirectXTK:CommonStates.obj
 0002:00009ef0       $unwind$?_Extract@?$_Tree_val@U?$_Tree_simple_types@U?$pair@QEAUID3D11DeviceContext@@V?$weak_ptr@UContextResources@Impl@SpriteBatch@DirectX@@@std@@@std@@@std@@@std@@QEAAPEAU?$_Tree_node@U?$pair@QEAUID3D11DeviceContext@@V?$weak_ptr@UContextResources@Impl@SpriteBatch@DirectX@@@std@@@std@@PEAX@2@V?$_Tree_const_iterator@V?$_Tree_val@U?$_Tree_simple_types@U?$pair@QEAUID3D11DeviceContext@@V?$weak_ptr@UContextResources@Impl@SpriteBatch@DirectX@@@std@@@std@@@std@@@std@@@2@@Z 0000000140035ef0     DirectXTK:SpriteBatch.obj
 0002:00009ef0       $unwind$?_Extract@?$_Tree_val@U?$_Tree_simple_types@U?$pair@QEAUID3D11Device@@V?$weak_ptr@UDeviceResources@Impl@SpriteBatch@DirectX@@@std@@@std@@@std@@@std@@QEAAPEAU?$_Tree_node@U?$pair@QEAUID3D11Device@@V?$weak_ptr@UDeviceResources@Impl@SpriteBatch@DirectX@@@std@@@std@@PEAX@2@V?$_Tree_const_iterator@V?$_Tree_val@U?$_Tree_simple_types@U?$pair@QEAUID3D11Device@@V?$weak_ptr@UDeviceResources@Impl@SpriteBatch@DirectX@@@std@@@std@@@std@@@std@@@2@@Z 0000000140035ef0     DirectXTK:SpriteBatch.obj
 0002:00009ef0       $unwind$?_Extract@?$_Tree_val@U?$_Tree_simple_types@U?$pair@QEAUID3D11Device@@V?$weak_ptr@VImpl@CommonStates@DirectX@@@std@@@std@@@std@@@std@@QEAAPEAU?$_Tree_node@U?$pair@QEAUID3D11Device@@V?$weak_ptr@VImpl@CommonStates@DirectX@@@std@@@std@@PEAX@2@V?$_Tree_const_iterator@V?$_Tree_val@U?$_Tree_simple_types@U?$pair@QEAUID3D11Device@@V?$weak_ptr@VImpl@CommonStates@DirectX@@@std@@@std@@@std@@@std@@@2@@Z 0000000140035ef0     DirectXTK:CommonStates.obj
 0002:00009efc       $chain$1$?_Extract@?$_Tree_val@U?$_Tree_simple_types@U?$pair@QEAUID3D11Device@@V?$weak_ptr@VImpl@CommonStates@DirectX@@@std@@@std@@@std@@@std@@QEAAPEAU?$_Tree_node@U?$pair@QEAUID3D11Device@@V?$weak_ptr@VImpl@CommonStates@DirectX@@@std@@@std@@PEAX@2@V?$_Tree_const_iterator@V?$_Tree_val@U?$_Tree_simple_types@U?$pair@QEAUID3D11Device@@V?$weak_ptr@VImpl@CommonStates@DirectX@@@std@@@std@@@std@@@std@@@2@@Z 0000000140035efc     DirectXTK:CommonStates.obj
 0002:00009efc       $chain$1$?_Extract@?$_Tree_val@U?$_Tree_simple_types@U?$pair@QEAUID3D11DeviceContext@@V?$weak_ptr@UContextResources@Impl@SpriteBatch@DirectX@@@std@@@std@@@std@@@std@@QEAAPEAU?$_Tree_node@U?$pair@QEAUID3D11DeviceContext@@V?$weak_ptr@UContextResources@Impl@SpriteBatch@DirectX@@@std@@@std@@PEAX@2@V?$_Tree_const_iterator@V?$_Tree_val@U?$_Tree_simple_types@U?$pair@QEAUID3D11DeviceContext@@V?$weak_ptr@UContextResources@Impl@SpriteBatch@DirectX@@@std@@@std@@@std@@@std@@@2@@Z 0000000140035efc     DirectXTK:SpriteBatch.obj
 0002:00009efc       $chain$1$?_Extract@?$_Tree_val@U?$_Tree_simple_types@U?$pair@QEAUID3D11Device@@V?$weak_ptr@UDeviceResources@Impl@SpriteBatch@DirectX@@@std@@@std@@@std@@@std@@QEAAPEAU?$_Tree_node@U?$pair@QEAUID3D11Device@@V?$weak_ptr@UDeviceResources@Impl@SpriteBatch@DirectX@@@std@@@std@@PEAX@2@V?$_Tree_const_iterator@V?$_Tree_val@U?$_Tree_simple_types@U?$pair@QEAUID3D11Device@@V?$weak_ptr@UDeviceResources@Impl@SpriteBatch@DirectX@@@std@@@std@@@std@@@std@@@2@@Z 0000000140035efc     DirectXTK:SpriteBatch.obj
 0002:00009f14       $chain$2$?_Extract@?$_Tree_val@U?$_Tree_simple_types@U?$pair@QEAUID3D11Device@@V?$weak_ptr@VImpl@CommonStates@DirectX@@@std@@@std@@@std@@@std@@QEAAPEAU?$_Tree_node@U?$pair@QEAUID3D11Device@@V?$weak_ptr@VImpl@CommonStates@DirectX@@@std@@@std@@PEAX@2@V?$_Tree_const_iterator@V?$_Tree_val@U?$_Tree_simple_types@U?$pair@QEAUID3D11Device@@V?$weak_ptr@VImpl@CommonStates@DirectX@@@std@@@std@@@std@@@std@@@2@@Z 0000000140035f14     DirectXTK:CommonStates.obj
 0002:00009f14       $chain$2$?_Extract@?$_Tree_val@U?$_Tree_simple_types@U?$pair@QEAUID3D11Device@@V?$weak_ptr@UDeviceResources@Impl@SpriteBatch@DirectX@@@std@@@std@@@std@@@std@@QEAAPEAU?$_Tree_node@U?$pair@QEAUID3D11Device@@V?$weak_ptr@UDeviceResources@Impl@SpriteBatch@DirectX@@@std@@@std@@PEAX@2@V?$_Tree_const_iterator@V?$_Tree_val@U?$_Tree_simple_types@U?$pair@QEAUID3D11Device@@V?$weak_ptr@UDeviceResources@Impl@SpriteBatch@DirectX@@@std@@@std@@@std@@@std@@@2@@Z 0000000140035f14     DirectXTK:SpriteBatch.obj
 0002:00009f14       $chain$2$?_Extract@?$_Tree_val@U?$_Tree_simple_types@U?$pair@QEAUID3D11DeviceContext@@V?$weak_ptr@UContextResources@Impl@SpriteBatch@DirectX@@@std@@@std@@@std@@@std@@QEAAPEAU?$_Tree_node@U?$pair@QEAUID3D11DeviceContext@@V?$weak_ptr@UContextResources@Impl@SpriteBatch@DirectX@@@std@@@std@@PEAX@2@V?$_Tree_const_iterator@V?$_Tree_val@U?$_Tree_simple_types@U?$pair@QEAUID3D11DeviceContext@@V?$weak_ptr@UContextResources@Impl@SpriteBatch@DirectX@@@std@@@std@@@std@@@std@@@2@@Z 0000000140035f14     DirectXTK:SpriteBatch.obj
 0002:00009f28       $chain$3$?_Extract@?$_Tree_val@U?$_Tree_simple_types@U?$pair@QEAUID3D11DeviceContext@@V?$weak_ptr@UContextResources@Impl@SpriteBatch@DirectX@@@std@@@std@@@std@@@std@@QEAAPEAU?$_Tree_node@U?$pair@QEAUID3D11DeviceContext@@V?$weak_ptr@UContextResources@Impl@SpriteBatch@DirectX@@@std@@@std@@PEAX@2@V?$_Tree_const_iterator@V?$_Tree_val@U?$_Tree_simple_types@U?$pair@QEAUID3D11DeviceContext@@V?$weak_ptr@UContextResources@Impl@SpriteBatch@DirectX@@@std@@@std@@@std@@@std@@@2@@Z 0000000140035f28     DirectXTK:SpriteBatch.obj
 0002:00009f28       $chain$3$?_Extract@?$_Tree_val@U?$_Tree_simple_types@U?$pair@QEAUID3D11Device@@V?$weak_ptr@UDeviceResources@Impl@SpriteBatch@DirectX@@@std@@@std@@@std@@@std@@QEAAPEAU?$_Tree_node@U?$pair@QEAUID3D11Device@@V?$weak_ptr@UDeviceResources@Impl@SpriteBatch@DirectX@@@std@@@std@@PEAX@2@V?$_Tree_const_iterator@V?$_Tree_val@U?$_Tree_simple_types@U?$pair@QEAUID3D11Device@@V?$weak_ptr@UDeviceResources@Impl@SpriteBatch@DirectX@@@std@@@std@@@std@@@std@@@2@@Z 0000000140035f28     DirectXTK:SpriteBatch.obj
 0002:00009f28       $chain$3$?_Extract@?$_Tree_val@U?$_Tree_simple_types@U?$pair@QEAUID3D11Device@@V?$weak_ptr@VImpl@CommonStates@DirectX@@@std@@@std@@@std@@@std@@QEAAPEAU?$_Tree_node@U?$pair@QEAUID3D11Device@@V?$weak_ptr@VImpl@CommonStates@DirectX@@@std@@@std@@PEAX@2@V?$_Tree_const_iterator@V?$_Tree_val@U?$_Tree_simple_types@U?$pair@QEAUID3D11Device@@V?$weak_ptr@VImpl@CommonStates@DirectX@@@std@@@std@@@std@@@std@@@2@@Z 0000000140035f28     DirectXTK:CommonStates.obj
 0002:00009f38       $chain$4$?_Extract@?$_Tree_val@U?$_Tree_simple_types@U?$pair@QEAUID3D11Device@@V?$weak_ptr@UDeviceResources@Impl@SpriteBatch@DirectX@@@std@@@std@@@std@@@std@@QEAAPEAU?$_Tree_node@U?$pair@QEAUID3D11Device@@V?$weak_ptr@UDeviceResources@Impl@SpriteBatch@DirectX@@@std@@@std@@PEAX@2@V?$_Tree_const_iterator@V?$_Tree_val@U?$_Tree_simple_types@U?$pair@QEAUID3D11Device@@V?$weak_ptr@UDeviceResources@Impl@SpriteBatch@DirectX@@@std@@@std@@@std@@@std@@@2@@Z 0000000140035f38     DirectXTK:SpriteBatch.obj
 0002:00009f38       $chain$4$?_Extract@?$_Tree_val@U?$_Tree_simple_types@U?$pair@QEAUID3D11Device@@V?$weak_ptr@VImpl@CommonStates@DirectX@@@std@@@std@@@std@@@std@@QEAAPEAU?$_Tree_node@U?$pair@QEAUID3D11Device@@V?$weak_ptr@VImpl@CommonStates@DirectX@@@std@@@std@@PEAX@2@V?$_Tree_const_iterator@V?$_Tree_val@U?$_Tree_simple_types@U?$pair@QEAUID3D11Device@@V?$weak_ptr@VImpl@CommonStates@DirectX@@@std@@@std@@@std@@@std@@@2@@Z 0000000140035f38     DirectXTK:CommonStates.obj
 0002:00009f38       $chain$4$?_Extract@?$_Tree_val@U?$_Tree_simple_types@U?$pair@QEAUID3D11DeviceContext@@V?$weak_ptr@UContextResources@Impl@SpriteBatch@DirectX@@@std@@@std@@@std@@@std@@QEAAPEAU?$_Tree_node@U?$pair@QEAUID3D11DeviceContext@@V?$weak_ptr@UContextResources@Impl@SpriteBatch@DirectX@@@std@@@std@@PEAX@2@V?$_Tree_const_iterator@V?$_Tree_val@U?$_Tree_simple_types@U?$pair@QEAUID3D11DeviceContext@@V?$weak_ptr@UContextResources@Impl@SpriteBatch@DirectX@@@std@@@std@@@std@@@std@@@2@@Z 0000000140035f38     DirectXTK:SpriteBatch.obj
 0002:00009f48       $unwind$?erase@?$_Tree@V?$_Tmap_traits@PEAUID3D11Device@@V?$weak_ptr@UDeviceResources@Impl@SpriteBatch@DirectX@@@std@@U?$less@PEAUID3D11Device@@@3@V?$allocator@U?$pair@QEAUID3D11Device@@V?$weak_ptr@UDeviceResources@Impl@SpriteBatch@DirectX@@@std@@@std@@@3@$0A@@std@@@std@@QEAA?AV?$_Tree_iterator@V?$_Tree_val@U?$_Tree_simple_types@U?$pair@QEAUID3D11Device@@V?$weak_ptr@UDeviceResources@Impl@SpriteBatch@DirectX@@@std@@@std@@@std@@@std@@@2@V?$_Tree_const_iterator@V?$_Tree_val@U?$_Tree_simple_types@U?$pair@QEAUID3D11Device@@V?$weak_ptr@UDeviceResources@Impl@SpriteBatch@DirectX@@@std@@@std@@@std@@@std@@@2@0@Z 0000000140035f48     DirectXTK:SpriteBatch.obj
 0002:00009f48       $unwind$?erase@?$_Tree@V?$_Tmap_traits@PEAUID3D11Device@@V?$weak_ptr@VImpl@CommonStates@DirectX@@@std@@U?$less@PEAUID3D11Device@@@3@V?$allocator@U?$pair@QEAUID3D11Device@@V?$weak_ptr@VImpl@CommonStates@DirectX@@@std@@@std@@@3@$0A@@std@@@std@@QEAA?AV?$_Tree_iterator@V?$_Tree_val@U?$_Tree_simple_types@U?$pair@QEAUID3D11Device@@V?$weak_ptr@VImpl@CommonStates@DirectX@@@std@@@std@@@std@@@std@@@2@V?$_Tree_const_iterator@V?$_Tree_val@U?$_Tree_simple_types@U?$pair@QEAUID3D11Device@@V?$weak_ptr@VImpl@CommonStates@DirectX@@@std@@@std@@@std@@@std@@@2@0@Z 0000000140035f48     DirectXTK:CommonStates.obj
 0002:00009f48       $unwind$?erase@?$_Tree@V?$_Tmap_traits@PEAUID3D11DeviceContext@@V?$weak_ptr@UContextResources@Impl@SpriteBatch@DirectX@@@std@@U?$less@PEAUID3D11DeviceContext@@@3@V?$allocator@U?$pair@QEAUID3D11DeviceContext@@V?$weak_ptr@UContextResources@Impl@SpriteBatch@DirectX@@@std@@@std@@@3@$0A@@std@@@std@@QEAA?AV?$_Tree_iterator@V?$_Tree_val@U?$_Tree_simple_types@U?$pair@QEAUID3D11DeviceContext@@V?$weak_ptr@UContextResources@Impl@SpriteBatch@DirectX@@@std@@@std@@@std@@@std@@@2@V?$_Tree_const_iterator@V?$_Tree_val@U?$_Tree_simple_types@U?$pair@QEAUID3D11DeviceContext@@V?$weak_ptr@UContextResources@Impl@SpriteBatch@DirectX@@@std@@@std@@@std@@@std@@@2@0@Z 0000000140035f48     DirectXTK:SpriteBatch.obj
 0002:00009f68       $ip2state$?erase@?$_Tree@V?$_Tmap_traits@PEAUID3D11DeviceContext@@V?$weak_ptr@UContextResources@Impl@SpriteBatch@DirectX@@@std@@U?$less@PEAUID3D11DeviceContext@@@3@V?$allocator@U?$pair@QEAUID3D11DeviceContext@@V?$weak_ptr@UContextResources@Impl@SpriteBatch@DirectX@@@std@@@std@@@3@$0A@@std@@@std@@QEAA?AV?$_Tree_iterator@V?$_Tree_val@U?$_Tree_simple_types@U?$pair@QEAUID3D11DeviceContext@@V?$weak_ptr@UContextResources@Impl@SpriteBatch@DirectX@@@std@@@std@@@std@@@std@@@2@V?$_Tree_const_iterator@V?$_Tree_val@U?$_Tree_simple_types@U?$pair@QEAUID3D11DeviceContext@@V?$weak_ptr@UContextResources@Impl@SpriteBatch@DirectX@@@std@@@std@@@std@@@std@@@2@0@Z 0000000140035f68     DirectXTK:SpriteBatch.obj
 0002:00009f68       $ip2state$?erase@?$_Tree@V?$_Tmap_traits@PEAUID3D11Device@@V?$weak_ptr@UDeviceResources@Impl@SpriteBatch@DirectX@@@std@@U?$less@PEAUID3D11Device@@@3@V?$allocator@U?$pair@QEAUID3D11Device@@V?$weak_ptr@UDeviceResources@Impl@SpriteBatch@DirectX@@@std@@@std@@@3@$0A@@std@@@std@@QEAA?AV?$_Tree_iterator@V?$_Tree_val@U?$_Tree_simple_types@U?$pair@QEAUID3D11Device@@V?$weak_ptr@UDeviceResources@Impl@SpriteBatch@DirectX@@@std@@@std@@@std@@@std@@@2@V?$_Tree_const_iterator@V?$_Tree_val@U?$_Tree_simple_types@U?$pair@QEAUID3D11Device@@V?$weak_ptr@UDeviceResources@Impl@SpriteBatch@DirectX@@@std@@@std@@@std@@@std@@@2@0@Z 0000000140035f68     DirectXTK:SpriteBatch.obj
 0002:00009f68       $ip2state$?erase@?$_Tree@V?$_Tmap_traits@PEAUID3D11Device@@V?$weak_ptr@VImpl@CommonStates@DirectX@@@std@@U?$less@PEAUID3D11Device@@@3@V?$allocator@U?$pair@QEAUID3D11Device@@V?$weak_ptr@VImpl@CommonStates@DirectX@@@std@@@std@@@3@$0A@@std@@@std@@QEAA?AV?$_Tree_iterator@V?$_Tree_val@U?$_Tree_simple_types@U?$pair@QEAUID3D11Device@@V?$weak_ptr@VImpl@CommonStates@DirectX@@@std@@@std@@@std@@@std@@@2@V?$_Tree_const_iterator@V?$_Tree_val@U?$_Tree_simple_types@U?$pair@QEAUID3D11Device@@V?$weak_ptr@VImpl@CommonStates@DirectX@@@std@@@std@@@std@@@std@@@2@0@Z 0000000140035f68     DirectXTK:CommonStates.obj
 0002:00009f70       $chain$0$??1?$pair@PEAUID3D11Device@@V?$shared_ptr@UWrappedData@?$SharedResourcePool@PEAUID3D11Device@@UDeviceResources@Impl@SpriteBatch@DirectX@@$$V@DirectX@@@std@@@std@@QEAA@XZ 0000000140035f70     DirectXTK:SpriteBatch.obj
 0002:00009f70       $chain$0$??1?$pair@PEAUID3D11Device@@V?$shared_ptr@UWrappedData@?$SharedResourcePool@PEAUID3D11Device@@VImpl@CommonStates@DirectX@@$$V@DirectX@@@std@@@std@@QEAA@XZ 0000000140035f70     DirectXTK:CommonStates.obj
 0002:00009f70       $chain$0$??1?$pair@PEAUID3D11DeviceContext@@V?$shared_ptr@UWrappedData@?$SharedResourcePool@PEAUID3D11DeviceContext@@UContextResources@Impl@SpriteBatch@DirectX@@$$V@DirectX@@@std@@@std@@QEAA@XZ 0000000140035f70     DirectXTK:SpriteBatch.obj
 0002:00009f84       $chain$1$??1?$pair@PEAUID3D11DeviceContext@@V?$shared_ptr@UWrappedData@?$SharedResourcePool@PEAUID3D11DeviceContext@@UContextResources@Impl@SpriteBatch@DirectX@@$$V@DirectX@@@std@@@std@@QEAA@XZ 0000000140035f84     DirectXTK:SpriteBatch.obj
 0002:00009f84       $chain$1$??1?$pair@PEAUID3D11Device@@V?$shared_ptr@UWrappedData@?$SharedResourcePool@PEAUID3D11Device@@UDeviceResources@Impl@SpriteBatch@DirectX@@$$V@DirectX@@@std@@@std@@QEAA@XZ 0000000140035f84     DirectXTK:SpriteBatch.obj
 0002:00009f84       $chain$1$??1?$pair@PEAUID3D11Device@@V?$shared_ptr@UWrappedData@?$SharedResourcePool@PEAUID3D11Device@@VImpl@CommonStates@DirectX@@$$V@DirectX@@@std@@@std@@QEAA@XZ 0000000140035f84     DirectXTK:CommonStates.obj
 0002:00009f94       $unwind$??1WrappedData@?$SharedResourcePool@PEAUID3D11DeviceContext@@UContextResources@Impl@SpriteBatch@DirectX@@$$V@DirectX@@QEAA@XZ 0000000140035f94     DirectXTK:SpriteBatch.obj
 0002:00009fb0       $ip2state$??1WrappedData@?$SharedResourcePool@PEAUID3D11DeviceContext@@UContextResources@Impl@SpriteBatch@DirectX@@$$V@DirectX@@QEAA@XZ 0000000140035fb0     DirectXTK:SpriteBatch.obj
 0002:00009fc8       $unwind$??$_Emplace_reallocate@AEBF@?$vector@FV?$allocator@F@std@@@std@@QEAAPEAFQEAFAEBF@Z 0000000140035fc8     DirectXTK:SpriteBatch.obj
 0002:00009fc8       $unwind$??$_Emplace_reallocate@F@?$vector@FV?$allocator@F@std@@@std@@QEAAPEAFQEAF$$QEAF@Z 0000000140035fc8     DirectXTK:SpriteBatch.obj
 0002:00009fe8       $tryMap$??$_Emplace_reallocate@F@?$vector@FV?$allocator@F@std@@@std@@QEAAPEAFQEAF$$QEAF@Z 0000000140035fe8     DirectXTK:SpriteBatch.obj
 0002:00009fe8       $tryMap$??$_Emplace_reallocate@AEBF@?$vector@FV?$allocator@F@std@@@std@@QEAAPEAFQEAFAEBF@Z 0000000140035fe8     DirectXTK:SpriteBatch.obj
 0002:00009ffc       $handlerMap$0$??$_Emplace_reallocate@AEBF@?$vector@FV?$allocator@F@std@@@std@@QEAAPEAFQEAFAEBF@Z 0000000140035ffc     DirectXTK:SpriteBatch.obj
 0002:00009ffc       $handlerMap$0$??$_Emplace_reallocate@F@?$vector@FV?$allocator@F@std@@@std@@QEAAPEAFQEAF$$QEAF@Z 0000000140035ffc     DirectXTK:SpriteBatch.obj
 0002:0000a010       $ip2state$??$_Emplace_reallocate@AEBF@?$vector@FV?$allocator@F@std@@@std@@QEAAPEAFQEAFAEBF@Z 0000000140036010     DirectXTK:SpriteBatch.obj
 0002:0000a010       $ip2state$??$_Emplace_reallocate@F@?$vector@FV?$allocator@F@std@@@std@@QEAAPEAFQEAF$$QEAF@Z 0000000140036010     DirectXTK:SpriteBatch.obj
 0002:0000a020       $unwind$?catch$0@?0???$_Emplace_reallocate@AEBF@?$vector@FV?$allocator@F@std@@@std@@QEAAPEAFQEAFAEBF@Z@4HA 0000000140036020     DirectXTK:SpriteBatch.obj
 0002:0000a020       $unwind$?catch$0@?0???$_Emplace_reallocate@F@?$vector@FV?$allocator@F@std@@@std@@QEAAPEAFQEAF$$QEAF@Z@4HA 0000000140036020     DirectXTK:SpriteBatch.obj
 0002:0000a030       $unwind$??$_Resize@V<lambda_e8c6c8b564571a11716b943a92ab7d7d>@@@?$vector@PEBUSpriteInfo@Impl@SpriteBatch@DirectX@@V?$allocator@PEBUSpriteInfo@Impl@SpriteBatch@DirectX@@@std@@@std@@AEAAX_KV<lambda_e8c6c8b564571a11716b943a92ab7d7d>@@@Z 0000000140036030     DirectXTK:SpriteBatch.obj
 0002:0000a04c       $tryMap$??$_Resize@V<lambda_e8c6c8b564571a11716b943a92ab7d7d>@@@?$vector@PEBUSpriteInfo@Impl@SpriteBatch@DirectX@@V?$allocator@PEBUSpriteInfo@Impl@SpriteBatch@DirectX@@@std@@@std@@AEAAX_KV<lambda_e8c6c8b564571a11716b943a92ab7d7d>@@@Z 000000014003604c     DirectXTK:SpriteBatch.obj
 0002:0000a060       $handlerMap$0$??$_Resize@V<lambda_e8c6c8b564571a11716b943a92ab7d7d>@@@?$vector@PEBUSpriteInfo@Impl@SpriteBatch@DirectX@@V?$allocator@PEBUSpriteInfo@Impl@SpriteBatch@DirectX@@@std@@@std@@AEAAX_KV<lambda_e8c6c8b564571a11716b943a92ab7d7d>@@@Z 0000000140036060     DirectXTK:SpriteBatch.obj
 0002:0000a078       $ip2state$??$_Resize@V<lambda_e8c6c8b564571a11716b943a92ab7d7d>@@@?$vector@PEBUSpriteInfo@Impl@SpriteBatch@DirectX@@V?$allocator@PEBUSpriteInfo@Impl@SpriteBatch@DirectX@@@std@@@std@@AEAAX_KV<lambda_e8c6c8b564571a11716b943a92ab7d7d>@@@Z 0000000140036078     DirectXTK:SpriteBatch.obj
 0002:0000a098       $unwind$?catch$0@?0???$_Resize@V<lambda_e8c6c8b564571a11716b943a92ab7d7d>@@@?$vector@PEBUSpriteInfo@Impl@SpriteBatch@DirectX@@V?$allocator@PEBUSpriteInfo@Impl@SpriteBatch@DirectX@@@std@@@std@@AEAAX_KV<lambda_e8c6c8b564571a11716b943a92ab7d7d>@@@Z@4HA 0000000140036098     DirectXTK:SpriteBatch.obj
 0002:0000a0a8       $unwind$??$_Sort_unchecked@PEAPEBUSpriteInfo@Impl@SpriteBatch@DirectX@@V<lambda_9b5ae69721589d94e761d5c8d20d011a>@@@std@@YAXPEAPEBUSpriteInfo@Impl@SpriteBatch@DirectX@@0_JV<lambda_9b5ae69721589d94e761d5c8d20d011a>@@@Z 00000001400360a8     DirectXTK:SpriteBatch.obj
 0002:0000a0a8       $unwind$??$_Sort_unchecked@PEAPEBUSpriteInfo@Impl@SpriteBatch@DirectX@@V<lambda_c8cd3344139af936846f26b5e655a233>@@@std@@YAXPEAPEBUSpriteInfo@Impl@SpriteBatch@DirectX@@0_JV<lambda_c8cd3344139af936846f26b5e655a233>@@@Z 00000001400360a8     DirectXTK:SpriteBatch.obj
 0002:0000a0a8       $unwind$??$_Sort_unchecked@PEAPEBUSpriteInfo@Impl@SpriteBatch@DirectX@@V<lambda_9829e134287828d35661b3276427a812>@@@std@@YAXPEAPEBUSpriteInfo@Impl@SpriteBatch@DirectX@@0_JV<lambda_9829e134287828d35661b3276427a812>@@@Z 00000001400360a8     DirectXTK:SpriteBatch.obj
 0002:0000a0bc       $unwind$?_Destroy@?$_Ref_count_obj@UResourceMap@?$SharedResourcePool@PEAUID3D11Device@@VImpl@CommonStates@DirectX@@$$V@DirectX@@@std@@EEAAXXZ 00000001400360bc     DirectXTK:CommonStates.obj
 0002:0000a0bc       $unwind$?_Destroy@?$_Ref_count_obj@UResourceMap@?$SharedResourcePool@PEAUID3D11DeviceContext@@UContextResources@Impl@SpriteBatch@DirectX@@$$V@DirectX@@@std@@EEAAXXZ 00000001400360bc     DirectXTK:SpriteBatch.obj
 0002:0000a0bc       $unwind$?_Destroy@?$_Ref_count_obj@UResourceMap@?$SharedResourcePool@PEAUID3D11Device@@UDeviceResources@Impl@SpriteBatch@DirectX@@$$V@DirectX@@@std@@EEAAXXZ 00000001400360bc     DirectXTK:SpriteBatch.obj
 0002:0000a0d0       $ip2state$?_Destroy@?$_Ref_count_obj@UResourceMap@?$SharedResourcePool@PEAUID3D11Device@@VImpl@CommonStates@DirectX@@$$V@DirectX@@@std@@EEAAXXZ 00000001400360d0     DirectXTK:CommonStates.obj
 0002:0000a0d0       $ip2state$?_Destroy@?$_Ref_count_obj@UResourceMap@?$SharedResourcePool@PEAUID3D11DeviceContext@@UContextResources@Impl@SpriteBatch@DirectX@@$$V@DirectX@@@std@@EEAAXXZ 00000001400360d0     DirectXTK:SpriteBatch.obj
 0002:0000a0d0       $ip2state$?_Destroy@?$_Ref_count_obj@UResourceMap@?$SharedResourcePool@PEAUID3D11Device@@UDeviceResources@Impl@SpriteBatch@DirectX@@$$V@DirectX@@@std@@EEAAXXZ 00000001400360d0     DirectXTK:SpriteBatch.obj
 0002:0000a0d8       $unwind$?_Destroy@?$_Ref_count_obj@UWrappedData@?$SharedResourcePool@PEAUID3D11Device@@UDeviceResources@Impl@SpriteBatch@DirectX@@$$V@DirectX@@@std@@EEAAXXZ 00000001400360d8     DirectXTK:SpriteBatch.obj
 0002:0000a0f0       $ip2state$?_Destroy@?$_Ref_count_obj@UWrappedData@?$SharedResourcePool@PEAUID3D11Device@@UDeviceResources@Impl@SpriteBatch@DirectX@@$$V@DirectX@@@std@@EEAAXXZ 00000001400360f0     DirectXTK:SpriteBatch.obj
 0002:0000a100       $unwind$??$_Buynode@AEAU?$pair@PEAUID3D11Device@@V?$shared_ptr@UWrappedData@?$SharedResourcePool@PEAUID3D11Device@@VImpl@CommonStates@DirectX@@$$V@DirectX@@@std@@@std@@@?$_Tree_comp_alloc@V?$_Tmap_traits@PEAUID3D11Device@@V?$weak_ptr@VImpl@CommonStates@DirectX@@@std@@U?$less@PEAUID3D11Device@@@3@V?$allocator@U?$pair@QEAUID3D11Device@@V?$weak_ptr@VImpl@CommonStates@DirectX@@@std@@@std@@@3@$0A@@std@@@std@@QEAAPEAU?$_Tree_node@U?$pair@QEAUID3D11Device@@V?$weak_ptr@VImpl@CommonStates@DirectX@@@std@@@std@@PEAX@1@AEAU?$pair@PEAUID3D11Device@@V?$shared_ptr@UWrappedData@?$SharedResourcePool@PEAUID3D11Device@@VImpl@CommonStates@DirectX@@$$V@DirectX@@@std@@@1@@Z 0000000140036100     DirectXTK:CommonStates.obj
 0002:0000a100       $unwind$??$_Buynode@AEAU?$pair@PEAUID3D11DeviceContext@@V?$shared_ptr@UWrappedData@?$SharedResourcePool@PEAUID3D11DeviceContext@@UContextResources@Impl@SpriteBatch@DirectX@@$$V@DirectX@@@std@@@std@@@?$_Tree_comp_alloc@V?$_Tmap_traits@PEAUID3D11DeviceContext@@V?$weak_ptr@UContextResources@Impl@SpriteBatch@DirectX@@@std@@U?$less@PEAUID3D11DeviceContext@@@3@V?$allocator@U?$pair@QEAUID3D11DeviceContext@@V?$weak_ptr@UContextResources@Impl@SpriteBatch@DirectX@@@std@@@std@@@3@$0A@@std@@@std@@QEAAPEAU?$_Tree_node@U?$pair@QEAUID3D11DeviceContext@@V?$weak_ptr@UContextResources@Impl@SpriteBatch@DirectX@@@std@@@std@@PEAX@1@AEAU?$pair@PEAUID3D11DeviceContext@@V?$shared_ptr@UWrappedData@?$SharedResourcePool@PEAUID3D11DeviceContext@@UContextResources@Impl@SpriteBatch@DirectX@@$$V@DirectX@@@std@@@1@@Z 0000000140036100     DirectXTK:SpriteBatch.obj
 0002:0000a100       $unwind$??$_Buynode@AEAU?$pair@PEAUID3D11Device@@V?$shared_ptr@UWrappedData@?$SharedResourcePool@PEAUID3D11Device@@UDeviceResources@Impl@SpriteBatch@DirectX@@$$V@DirectX@@@std@@@std@@@?$_Tree_comp_alloc@V?$_Tmap_traits@PEAUID3D11Device@@V?$weak_ptr@UDeviceResources@Impl@SpriteBatch@DirectX@@@std@@U?$less@PEAUID3D11Device@@@3@V?$allocator@U?$pair@QEAUID3D11Device@@V?$weak_ptr@UDeviceResources@Impl@SpriteBatch@DirectX@@@std@@@std@@@3@$0A@@std@@@std@@QEAAPEAU?$_Tree_node@U?$pair@QEAUID3D11Device@@V?$weak_ptr@UDeviceResources@Impl@SpriteBatch@DirectX@@@std@@@std@@PEAX@1@AEAU?$pair@PEAUID3D11Device@@V?$shared_ptr@UWrappedData@?$SharedResourcePool@PEAUID3D11Device@@UDeviceResources@Impl@SpriteBatch@DirectX@@$$V@DirectX@@@std@@@1@@Z 0000000140036100     DirectXTK:SpriteBatch.obj
 0002:0000a110       $tryMap$??$_Buynode@AEAU?$pair@PEAUID3D11Device@@V?$shared_ptr@UWrappedData@?$SharedResourcePool@PEAUID3D11Device@@VImpl@CommonStates@DirectX@@$$V@DirectX@@@std@@@std@@@?$_Tree_comp_alloc@V?$_Tmap_traits@PEAUID3D11Device@@V?$weak_ptr@VImpl@CommonStates@DirectX@@@std@@U?$less@PEAUID3D11Device@@@3@V?$allocator@U?$pair@QEAUID3D11Device@@V?$weak_ptr@VImpl@CommonStates@DirectX@@@std@@@std@@@3@$0A@@std@@@std@@QEAAPEAU?$_Tree_node@U?$pair@QEAUID3D11Device@@V?$weak_ptr@VImpl@CommonStates@DirectX@@@std@@@std@@PEAX@1@AEAU?$pair@PEAUID3D11Device@@V?$shared_ptr@UWrappedData@?$SharedResourcePool@PEAUID3D11Device@@VImpl@CommonStates@DirectX@@$$V@DirectX@@@std@@@1@@Z 0000000140036110     DirectXTK:CommonStates.obj
 0002:0000a110       $tryMap$??$_Buynode@AEAU?$pair@PEAUID3D11DeviceContext@@V?$shared_ptr@UWrappedData@?$SharedResourcePool@PEAUID3D11DeviceContext@@UContextResources@Impl@SpriteBatch@DirectX@@$$V@DirectX@@@std@@@std@@@?$_Tree_comp_alloc@V?$_Tmap_traits@PEAUID3D11DeviceContext@@V?$weak_ptr@UContextResources@Impl@SpriteBatch@DirectX@@@std@@U?$less@PEAUID3D11DeviceContext@@@3@V?$allocator@U?$pair@QEAUID3D11DeviceContext@@V?$weak_ptr@UContextResources@Impl@SpriteBatch@DirectX@@@std@@@std@@@3@$0A@@std@@@std@@QEAAPEAU?$_Tree_node@U?$pair@QEAUID3D11DeviceContext@@V?$weak_ptr@UContextResources@Impl@SpriteBatch@DirectX@@@std@@@std@@PEAX@1@AEAU?$pair@PEAUID3D11DeviceContext@@V?$shared_ptr@UWrappedData@?$SharedResourcePool@PEAUID3D11DeviceContext@@UContextResources@Impl@SpriteBatch@DirectX@@$$V@DirectX@@@std@@@1@@Z 0000000140036110     DirectXTK:SpriteBatch.obj
 0002:0000a110       $tryMap$??$_Buynode@AEAU?$pair@PEAUID3D11Device@@V?$shared_ptr@UWrappedData@?$SharedResourcePool@PEAUID3D11Device@@UDeviceResources@Impl@SpriteBatch@DirectX@@$$V@DirectX@@@std@@@std@@@?$_Tree_comp_alloc@V?$_Tmap_traits@PEAUID3D11Device@@V?$weak_ptr@UDeviceResources@Impl@SpriteBatch@DirectX@@@std@@U?$less@PEAUID3D11Device@@@3@V?$allocator@U?$pair@QEAUID3D11Device@@V?$weak_ptr@UDeviceResources@Impl@SpriteBatch@DirectX@@@std@@@std@@@3@$0A@@std@@@std@@QEAAPEAU?$_Tree_node@U?$pair@QEAUID3D11Device@@V?$weak_ptr@UDeviceResources@Impl@SpriteBatch@DirectX@@@std@@@std@@PEAX@1@AEAU?$pair@PEAUID3D11Device@@V?$shared_ptr@UWrappedData@?$SharedResourcePool@PEAUID3D11Device@@UDeviceResources@Impl@SpriteBatch@DirectX@@$$V@DirectX@@@std@@@1@@Z 0000000140036110     DirectXTK:SpriteBatch.obj
 0002:0000a124       $handlerMap$0$??$_Buynode@AEAU?$pair@PEAUID3D11DeviceContext@@V?$shared_ptr@UWrappedData@?$SharedResourcePool@PEAUID3D11DeviceContext@@UContextResources@Impl@SpriteBatch@DirectX@@$$V@DirectX@@@std@@@std@@@?$_Tree_comp_alloc@V?$_Tmap_traits@PEAUID3D11DeviceContext@@V?$weak_ptr@UContextResources@Impl@SpriteBatch@DirectX@@@std@@U?$less@PEAUID3D11DeviceContext@@@3@V?$allocator@U?$pair@QEAUID3D11DeviceContext@@V?$weak_ptr@UContextResources@Impl@SpriteBatch@DirectX@@@std@@@std@@@3@$0A@@std@@@std@@QEAAPEAU?$_Tree_node@U?$pair@QEAUID3D11DeviceContext@@V?$weak_ptr@UContextResources@Impl@SpriteBatch@DirectX@@@std@@@std@@PEAX@1@AEAU?$pair@PEAUID3D11DeviceContext@@V?$shared_ptr@UWrappedData@?$SharedResourcePool@PEAUID3D11DeviceContext@@UContextResources@Impl@SpriteBatch@DirectX@@$$V@DirectX@@@std@@@1@@Z 0000000140036124     DirectXTK:SpriteBatch.obj
 0002:0000a124       $handlerMap$0$??$_Buynode@AEAU?$pair@PEAUID3D11Device@@V?$shared_ptr@UWrappedData@?$SharedResourcePool@PEAUID3D11Device@@VImpl@CommonStates@DirectX@@$$V@DirectX@@@std@@@std@@@?$_Tree_comp_alloc@V?$_Tmap_traits@PEAUID3D11Device@@V?$weak_ptr@VImpl@CommonStates@DirectX@@@std@@U?$less@PEAUID3D11Device@@@3@V?$allocator@U?$pair@QEAUID3D11Device@@V?$weak_ptr@VImpl@CommonStates@DirectX@@@std@@@std@@@3@$0A@@std@@@std@@QEAAPEAU?$_Tree_node@U?$pair@QEAUID3D11Device@@V?$weak_ptr@VImpl@CommonStates@DirectX@@@std@@@std@@PEAX@1@AEAU?$pair@PEAUID3D11Device@@V?$shared_ptr@UWrappedData@?$SharedResourcePool@PEAUID3D11Device@@VImpl@CommonStates@DirectX@@$$V@DirectX@@@std@@@1@@Z 0000000140036124     DirectXTK:CommonStates.obj
 0002:0000a124       $handlerMap$0$??$_Buynode@AEAU?$pair@PEAUID3D11Device@@V?$shared_ptr@UWrappedData@?$SharedResourcePool@PEAUID3D11Device@@UDeviceResources@Impl@SpriteBatch@DirectX@@$$V@DirectX@@@std@@@std@@@?$_Tree_comp_alloc@V?$_Tmap_traits@PEAUID3D11Device@@V?$weak_ptr@UDeviceResources@Impl@SpriteBatch@DirectX@@@std@@U?$less@PEAUID3D11Device@@@3@V?$allocator@U?$pair@QEAUID3D11Device@@V?$weak_ptr@UDeviceResources@Impl@SpriteBatch@DirectX@@@std@@@std@@@3@$0A@@std@@@std@@QEAAPEAU?$_Tree_node@U?$pair@QEAUID3D11Device@@V?$weak_ptr@UDeviceResources@Impl@SpriteBatch@DirectX@@@std@@@std@@PEAX@1@AEAU?$pair@PEAUID3D11Device@@V?$shared_ptr@UWrappedData@?$SharedResourcePool@PEAUID3D11Device@@UDeviceResources@Impl@SpriteBatch@DirectX@@$$V@DirectX@@@std@@@1@@Z 0000000140036124     DirectXTK:SpriteBatch.obj
 0002:0000a138       $ip2state$??$_Buynode@AEAU?$pair@PEAUID3D11Device@@V?$shared_ptr@UWrappedData@?$SharedResourcePool@PEAUID3D11Device@@VImpl@CommonStates@DirectX@@$$V@DirectX@@@std@@@std@@@?$_Tree_comp_alloc@V?$_Tmap_traits@PEAUID3D11Device@@V?$weak_ptr@VImpl@CommonStates@DirectX@@@std@@U?$less@PEAUID3D11Device@@@3@V?$allocator@U?$pair@QEAUID3D11Device@@V?$weak_ptr@VImpl@CommonStates@DirectX@@@std@@@std@@@3@$0A@@std@@@std@@QEAAPEAU?$_Tree_node@U?$pair@QEAUID3D11Device@@V?$weak_ptr@VImpl@CommonStates@DirectX@@@std@@@std@@PEAX@1@AEAU?$pair@PEAUID3D11Device@@V?$shared_ptr@UWrappedData@?$SharedResourcePool@PEAUID3D11Device@@VImpl@CommonStates@DirectX@@$$V@DirectX@@@std@@@1@@Z 0000000140036138     DirectXTK:CommonStates.obj
 0002:0000a138       $ip2state$??$_Buynode@AEAU?$pair@PEAUID3D11DeviceContext@@V?$shared_ptr@UWrappedData@?$SharedResourcePool@PEAUID3D11DeviceContext@@UContextResources@Impl@SpriteBatch@DirectX@@$$V@DirectX@@@std@@@std@@@?$_Tree_comp_alloc@V?$_Tmap_traits@PEAUID3D11DeviceContext@@V?$weak_ptr@UContextResources@Impl@SpriteBatch@DirectX@@@std@@U?$less@PEAUID3D11DeviceContext@@@3@V?$allocator@U?$pair@QEAUID3D11DeviceContext@@V?$weak_ptr@UContextResources@Impl@SpriteBatch@DirectX@@@std@@@std@@@3@$0A@@std@@@std@@QEAAPEAU?$_Tree_node@U?$pair@QEAUID3D11DeviceContext@@V?$weak_ptr@UContextResources@Impl@SpriteBatch@DirectX@@@std@@@std@@PEAX@1@AEAU?$pair@PEAUID3D11DeviceContext@@V?$shared_ptr@UWrappedData@?$SharedResourcePool@PEAUID3D11DeviceContext@@UContextResources@Impl@SpriteBatch@DirectX@@$$V@DirectX@@@std@@@1@@Z 0000000140036138     DirectXTK:SpriteBatch.obj
 0002:0000a138       $ip2state$??$_Buynode@AEAU?$pair@PEAUID3D11Device@@V?$shared_ptr@UWrappedData@?$SharedResourcePool@PEAUID3D11Device@@UDeviceResources@Impl@SpriteBatch@DirectX@@$$V@DirectX@@@std@@@std@@@?$_Tree_comp_alloc@V?$_Tmap_traits@PEAUID3D11Device@@V?$weak_ptr@UDeviceResources@Impl@SpriteBatch@DirectX@@@std@@U?$less@PEAUID3D11Device@@@3@V?$allocator@U?$pair@QEAUID3D11Device@@V?$weak_ptr@UDeviceResources@Impl@SpriteBatch@DirectX@@@std@@@std@@@3@$0A@@std@@@std@@QEAAPEAU?$_Tree_node@U?$pair@QEAUID3D11Device@@V?$weak_ptr@UDeviceResources@Impl@SpriteBatch@DirectX@@@std@@@std@@PEAX@1@AEAU?$pair@PEAUID3D11Device@@V?$shared_ptr@UWrappedData@?$SharedResourcePool@PEAUID3D11Device@@UDeviceResources@Impl@SpriteBatch@DirectX@@$$V@DirectX@@@std@@@1@@Z 0000000140036138     DirectXTK:SpriteBatch.obj
 0002:0000a148       $unwind$?catch$1@?0???$_Buynode@AEAU?$pair@PEAUID3D11Device@@V?$shared_ptr@UWrappedData@?$SharedResourcePool@PEAUID3D11Device@@VImpl@CommonStates@DirectX@@$$V@DirectX@@@std@@@std@@@?$_Tree_comp_alloc@V?$_Tmap_traits@PEAUID3D11Device@@V?$weak_ptr@VImpl@CommonStates@DirectX@@@std@@U?$less@PEAUID3D11Device@@@3@V?$allocator@U?$pair@QEAUID3D11Device@@V?$weak_ptr@VImpl@CommonStates@DirectX@@@std@@@std@@@3@$0A@@std@@@std@@QEAAPEAU?$_Tree_node@U?$pair@QEAUID3D11Device@@V?$weak_ptr@VImpl@CommonStates@DirectX@@@std@@@std@@PEAX@1@AEAU?$pair@PEAUID3D11Device@@V?$shared_ptr@UWrappedData@?$SharedResourcePool@PEAUID3D11Device@@VImpl@CommonStates@DirectX@@$$V@DirectX@@@std@@@1@@Z@4HA 0000000140036148     DirectXTK:CommonStates.obj
 0002:0000a148       $unwind$?catch$1@?0???$_Buynode@AEAU?$pair@PEAUID3D11DeviceContext@@V?$shared_ptr@UWrappedData@?$SharedResourcePool@PEAUID3D11DeviceContext@@UContextResources@Impl@SpriteBatch@DirectX@@$$V@DirectX@@@std@@@std@@@?$_Tree_comp_alloc@V?$_Tmap_traits@PEAUID3D11DeviceContext@@V?$weak_ptr@UContextResources@Impl@SpriteBatch@DirectX@@@std@@U?$less@PEAUID3D11DeviceContext@@@3@V?$allocator@U?$pair@QEAUID3D11DeviceContext@@V?$weak_ptr@UContextResources@Impl@SpriteBatch@DirectX@@@std@@@std@@@3@$0A@@std@@@std@@QEAAPEAU?$_Tree_node@U?$pair@QEAUID3D11DeviceContext@@V?$weak_ptr@UContextResources@Impl@SpriteBatch@DirectX@@@std@@@std@@PEAX@1@AEAU?$pair@PEAUID3D11DeviceContext@@V?$shared_ptr@UWrappedData@?$SharedResourcePool@PEAUID3D11DeviceContext@@UContextResources@Impl@SpriteBatch@DirectX@@$$V@DirectX@@@std@@@1@@Z@4HA 0000000140036148     DirectXTK:SpriteBatch.obj
 0002:0000a148       $unwind$?catch$1@?0???$_Buynode@AEAU?$pair@PEAUID3D11Device@@V?$shared_ptr@UWrappedData@?$SharedResourcePool@PEAUID3D11Device@@UDeviceResources@Impl@SpriteBatch@DirectX@@$$V@DirectX@@@std@@@std@@@?$_Tree_comp_alloc@V?$_Tmap_traits@PEAUID3D11Device@@V?$weak_ptr@UDeviceResources@Impl@SpriteBatch@DirectX@@@std@@U?$less@PEAUID3D11Device@@@3@V?$allocator@U?$pair@QEAUID3D11Device@@V?$weak_ptr@UDeviceResources@Impl@SpriteBatch@DirectX@@@std@@@std@@@3@$0A@@std@@@std@@QEAAPEAU?$_Tree_node@U?$pair@QEAUID3D11Device@@V?$weak_ptr@UDeviceResources@Impl@SpriteBatch@DirectX@@@std@@@std@@PEAX@1@AEAU?$pair@PEAUID3D11Device@@V?$shared_ptr@UWrappedData@?$SharedResourcePool@PEAUID3D11Device@@UDeviceResources@Impl@SpriteBatch@DirectX@@$$V@DirectX@@@std@@@1@@Z@4HA 0000000140036148     DirectXTK:SpriteBatch.obj
 0002:0000a158       $unwind$??$_Insert_nohint@AEAU?$pair@QEAUID3D11Device@@V?$weak_ptr@VImpl@CommonStates@DirectX@@@std@@@std@@PEAU?$_Tree_node@U?$pair@QEAUID3D11Device@@V?$weak_ptr@VImpl@CommonStates@DirectX@@@std@@@std@@PEAX@2@@?$_Tree@V?$_Tmap_traits@PEAUID3D11Device@@V?$weak_ptr@VImpl@CommonStates@DirectX@@@std@@U?$less@PEAUID3D11Device@@@3@V?$allocator@U?$pair@QEAUID3D11Device@@V?$weak_ptr@VImpl@CommonStates@DirectX@@@std@@@std@@@3@$0A@@std@@@std@@IEAA?AU?$pair@V?$_Tree_iterator@V?$_Tree_val@U?$_Tree_simple_types@U?$pair@QEAUID3D11Device@@V?$weak_ptr@VImpl@CommonStates@DirectX@@@std@@@std@@@std@@@std@@@std@@_N@1@_NAEAU?$pair@QEAUID3D11Device@@V?$weak_ptr@VImpl@CommonStates@DirectX@@@std@@@1@PEAU?$_Tree_node@U?$pair@QEAUID3D11Device@@V?$weak_ptr@VImpl@CommonStates@DirectX@@@std@@@std@@PEAX@1@@Z 0000000140036158     DirectXTK:CommonStates.obj
 0002:0000a158       $unwind$??$_Insert_nohint@AEAU?$pair@QEAUID3D11Device@@V?$weak_ptr@UDeviceResources@Impl@SpriteBatch@DirectX@@@std@@@std@@PEAU?$_Tree_node@U?$pair@QEAUID3D11Device@@V?$weak_ptr@UDeviceResources@Impl@SpriteBatch@DirectX@@@std@@@std@@PEAX@2@@?$_Tree@V?$_Tmap_traits@PEAUID3D11Device@@V?$weak_ptr@UDeviceResources@Impl@SpriteBatch@DirectX@@@std@@U?$less@PEAUID3D11Device@@@3@V?$allocator@U?$pair@QEAUID3D11Device@@V?$weak_ptr@UDeviceResources@Impl@SpriteBatch@DirectX@@@std@@@std@@@3@$0A@@std@@@std@@IEAA?AU?$pair@V?$_Tree_iterator@V?$_Tree_val@U?$_Tree_simple_types@U?$pair@QEAUID3D11Device@@V?$weak_ptr@UDeviceResources@Impl@SpriteBatch@DirectX@@@std@@@std@@@std@@@std@@@std@@_N@1@_NAEAU?$pair@QEAUID3D11Device@@V?$weak_ptr@UDeviceResources@Impl@SpriteBatch@DirectX@@@std@@@1@PEAU?$_Tree_node@U?$pair@QEAUID3D11Device@@V?$weak_ptr@UDeviceResources@Impl@SpriteBatch@DirectX@@@std@@@std@@PEAX@1@@Z 0000000140036158     DirectXTK:SpriteBatch.obj
 0002:0000a158       $unwind$??$_Insert_nohint@AEAU?$pair@QEAUID3D11DeviceContext@@V?$weak_ptr@UContextResources@Impl@SpriteBatch@DirectX@@@std@@@std@@PEAU?$_Tree_node@U?$pair@QEAUID3D11DeviceContext@@V?$weak_ptr@UContextResources@Impl@SpriteBatch@DirectX@@@std@@@std@@PEAX@2@@?$_Tree@V?$_Tmap_traits@PEAUID3D11DeviceContext@@V?$weak_ptr@UContextResources@Impl@SpriteBatch@DirectX@@@std@@U?$less@PEAUID3D11DeviceContext@@@3@V?$allocator@U?$pair@QEAUID3D11DeviceContext@@V?$weak_ptr@UContextResources@Impl@SpriteBatch@DirectX@@@std@@@std@@@3@$0A@@std@@@std@@IEAA?AU?$pair@V?$_Tree_iterator@V?$_Tree_val@U?$_Tree_simple_types@U?$pair@QEAUID3D11DeviceContext@@V?$weak_ptr@UContextResources@Impl@SpriteBatch@DirectX@@@std@@@std@@@std@@@std@@@std@@_N@1@_NAEAU?$pair@QEAUID3D11DeviceContext@@V?$weak_ptr@UContextResources@Impl@SpriteBatch@DirectX@@@std@@@1@PEAU?$_Tree_node@U?$pair@QEAUID3D11DeviceContext@@V?$weak_ptr@UContextResources@Impl@SpriteBatch@DirectX@@@std@@@std@@PEAX@1@@Z 0000000140036158     DirectXTK:SpriteBatch.obj
 0002:0000a170       $tryMap$??$_Insert_nohint@AEAU?$pair@QEAUID3D11Device@@V?$weak_ptr@VImpl@CommonStates@DirectX@@@std@@@std@@PEAU?$_Tree_node@U?$pair@QEAUID3D11Device@@V?$weak_ptr@VImpl@CommonStates@DirectX@@@std@@@std@@PEAX@2@@?$_Tree@V?$_Tmap_traits@PEAUID3D11Device@@V?$weak_ptr@VImpl@CommonStates@DirectX@@@std@@U?$less@PEAUID3D11Device@@@3@V?$allocator@U?$pair@QEAUID3D11Device@@V?$weak_ptr@VImpl@CommonStates@DirectX@@@std@@@std@@@3@$0A@@std@@@std@@IEAA?AU?$pair@V?$_Tree_iterator@V?$_Tree_val@U?$_Tree_simple_types@U?$pair@QEAUID3D11Device@@V?$weak_ptr@VImpl@CommonStates@DirectX@@@std@@@std@@@std@@@std@@@std@@_N@1@_NAEAU?$pair@QEAUID3D11Device@@V?$weak_ptr@VImpl@CommonStates@DirectX@@@std@@@1@PEAU?$_Tree_node@U?$pair@QEAUID3D11Device@@V?$weak_ptr@VImpl@CommonStates@DirectX@@@std@@@std@@PEAX@1@@Z 0000000140036170     DirectXTK:CommonStates.obj
 0002:0000a170       $tryMap$??$_Insert_nohint@AEAU?$pair@QEAUID3D11Device@@V?$weak_ptr@UDeviceResources@Impl@SpriteBatch@DirectX@@@std@@@std@@PEAU?$_Tree_node@U?$pair@QEAUID3D11Device@@V?$weak_ptr@UDeviceResources@Impl@SpriteBatch@DirectX@@@std@@@std@@PEAX@2@@?$_Tree@V?$_Tmap_traits@PEAUID3D11Device@@V?$weak_ptr@UDeviceResources@Impl@SpriteBatch@DirectX@@@std@@U?$less@PEAUID3D11Device@@@3@V?$allocator@U?$pair@QEAUID3D11Device@@V?$weak_ptr@UDeviceResources@Impl@SpriteBatch@DirectX@@@std@@@std@@@3@$0A@@std@@@std@@IEAA?AU?$pair@V?$_Tree_iterator@V?$_Tree_val@U?$_Tree_simple_types@U?$pair@QEAUID3D11Device@@V?$weak_ptr@UDeviceResources@Impl@SpriteBatch@DirectX@@@std@@@std@@@std@@@std@@@std@@_N@1@_NAEAU?$pair@QEAUID3D11Device@@V?$weak_ptr@UDeviceResources@Impl@SpriteBatch@DirectX@@@std@@@1@PEAU?$_Tree_node@U?$pair@QEAUID3D11Device@@V?$weak_ptr@UDeviceResources@Impl@SpriteBatch@DirectX@@@std@@@std@@PEAX@1@@Z 0000000140036170     DirectXTK:SpriteBatch.obj
 0002:0000a170       $tryMap$??$_Insert_nohint@AEAU?$pair@QEAUID3D11DeviceContext@@V?$weak_ptr@UContextResources@Impl@SpriteBatch@DirectX@@@std@@@std@@PEAU?$_Tree_node@U?$pair@QEAUID3D11DeviceContext@@V?$weak_ptr@UContextResources@Impl@SpriteBatch@DirectX@@@std@@@std@@PEAX@2@@?$_Tree@V?$_Tmap_traits@PEAUID3D11DeviceContext@@V?$weak_ptr@UContextResources@Impl@SpriteBatch@DirectX@@@std@@U?$less@PEAUID3D11DeviceContext@@@3@V?$allocator@U?$pair@QEAUID3D11DeviceContext@@V?$weak_ptr@UContextResources@Impl@SpriteBatch@DirectX@@@std@@@std@@@3@$0A@@std@@@std@@IEAA?AU?$pair@V?$_Tree_iterator@V?$_Tree_val@U?$_Tree_simple_types@U?$pair@QEAUID3D11DeviceContext@@V?$weak_ptr@UContextResources@Impl@SpriteBatch@DirectX@@@std@@@std@@@std@@@std@@@std@@_N@1@_NAEAU?$pair@QEAUID3D11DeviceContext@@V?$weak_ptr@UContextResources@Impl@SpriteBatch@DirectX@@@std@@@1@PEAU?$_Tree_node@U?$pair@QEAUID3D11DeviceContext@@V?$weak_ptr@UContextResources@Impl@SpriteBatch@DirectX@@@std@@@std@@PEAX@1@@Z 0000000140036170     DirectXTK:SpriteBatch.obj
 0002:0000a184       $handlerMap$0$??$_Insert_nohint@AEAU?$pair@QEAUID3D11Device@@V?$weak_ptr@UDeviceResources@Impl@SpriteBatch@DirectX@@@std@@@std@@PEAU?$_Tree_node@U?$pair@QEAUID3D11Device@@V?$weak_ptr@UDeviceResources@Impl@SpriteBatch@DirectX@@@std@@@std@@PEAX@2@@?$_Tree@V?$_Tmap_traits@PEAUID3D11Device@@V?$weak_ptr@UDeviceResources@Impl@SpriteBatch@DirectX@@@std@@U?$less@PEAUID3D11Device@@@3@V?$allocator@U?$pair@QEAUID3D11Device@@V?$weak_ptr@UDeviceResources@Impl@SpriteBatch@DirectX@@@std@@@std@@@3@$0A@@std@@@std@@IEAA?AU?$pair@V?$_Tree_iterator@V?$_Tree_val@U?$_Tree_simple_types@U?$pair@QEAUID3D11Device@@V?$weak_ptr@UDeviceResources@Impl@SpriteBatch@DirectX@@@std@@@std@@@std@@@std@@@std@@_N@1@_NAEAU?$pair@QEAUID3D11Device@@V?$weak_ptr@UDeviceResources@Impl@SpriteBatch@DirectX@@@std@@@1@PEAU?$_Tree_node@U?$pair@QEAUID3D11Device@@V?$weak_ptr@UDeviceResources@Impl@SpriteBatch@DirectX@@@std@@@std@@PEAX@1@@Z 0000000140036184     DirectXTK:SpriteBatch.obj
 0002:0000a184       $handlerMap$0$??$_Insert_nohint@AEAU?$pair@QEAUID3D11Device@@V?$weak_ptr@VImpl@CommonStates@DirectX@@@std@@@std@@PEAU?$_Tree_node@U?$pair@QEAUID3D11Device@@V?$weak_ptr@VImpl@CommonStates@DirectX@@@std@@@std@@PEAX@2@@?$_Tree@V?$_Tmap_traits@PEAUID3D11Device@@V?$weak_ptr@VImpl@CommonStates@DirectX@@@std@@U?$less@PEAUID3D11Device@@@3@V?$allocator@U?$pair@QEAUID3D11Device@@V?$weak_ptr@VImpl@CommonStates@DirectX@@@std@@@std@@@3@$0A@@std@@@std@@IEAA?AU?$pair@V?$_Tree_iterator@V?$_Tree_val@U?$_Tree_simple_types@U?$pair@QEAUID3D11Device@@V?$weak_ptr@VImpl@CommonStates@DirectX@@@std@@@std@@@std@@@std@@@std@@_N@1@_NAEAU?$pair@QEAUID3D11Device@@V?$weak_ptr@VImpl@CommonStates@DirectX@@@std@@@1@PEAU?$_Tree_node@U?$pair@QEAUID3D11Device@@V?$weak_ptr@VImpl@CommonStates@DirectX@@@std@@@std@@PEAX@1@@Z 0000000140036184     DirectXTK:CommonStates.obj
 0002:0000a184       $handlerMap$0$??$_Insert_nohint@AEAU?$pair@QEAUID3D11DeviceContext@@V?$weak_ptr@UContextResources@Impl@SpriteBatch@DirectX@@@std@@@std@@PEAU?$_Tree_node@U?$pair@QEAUID3D11DeviceContext@@V?$weak_ptr@UContextResources@Impl@SpriteBatch@DirectX@@@std@@@std@@PEAX@2@@?$_Tree@V?$_Tmap_traits@PEAUID3D11DeviceContext@@V?$weak_ptr@UContextResources@Impl@SpriteBatch@DirectX@@@std@@U?$less@PEAUID3D11DeviceContext@@@3@V?$allocator@U?$pair@QEAUID3D11DeviceContext@@V?$weak_ptr@UContextResources@Impl@SpriteBatch@DirectX@@@std@@@std@@@3@$0A@@std@@@std@@IEAA?AU?$pair@V?$_Tree_iterator@V?$_Tree_val@U?$_Tree_simple_types@U?$pair@QEAUID3D11DeviceContext@@V?$weak_ptr@UContextResources@Impl@SpriteBatch@DirectX@@@std@@@std@@@std@@@std@@@std@@_N@1@_NAEAU?$pair@QEAUID3D11DeviceContext@@V?$weak_ptr@UContextResources@Impl@SpriteBatch@DirectX@@@std@@@1@PEAU?$_Tree_node@U?$pair@QEAUID3D11DeviceContext@@V?$weak_ptr@UContextResources@Impl@SpriteBatch@DirectX@@@std@@@std@@PEAX@1@@Z 0000000140036184     DirectXTK:SpriteBatch.obj
 0002:0000a198       $ip2state$??$_Insert_nohint@AEAU?$pair@QEAUID3D11Device@@V?$weak_ptr@UDeviceResources@Impl@SpriteBatch@DirectX@@@std@@@std@@PEAU?$_Tree_node@U?$pair@QEAUID3D11Device@@V?$weak_ptr@UDeviceResources@Impl@SpriteBatch@DirectX@@@std@@@std@@PEAX@2@@?$_Tree@V?$_Tmap_traits@PEAUID3D11Device@@V?$weak_ptr@UDeviceResources@Impl@SpriteBatch@DirectX@@@std@@U?$less@PEAUID3D11Device@@@3@V?$allocator@U?$pair@QEAUID3D11Device@@V?$weak_ptr@UDeviceResources@Impl@SpriteBatch@DirectX@@@std@@@std@@@3@$0A@@std@@@std@@IEAA?AU?$pair@V?$_Tree_iterator@V?$_Tree_val@U?$_Tree_simple_types@U?$pair@QEAUID3D11Device@@V?$weak_ptr@UDeviceResources@Impl@SpriteBatch@DirectX@@@std@@@std@@@std@@@std@@@std@@_N@1@_NAEAU?$pair@QEAUID3D11Device@@V?$weak_ptr@UDeviceResources@Impl@SpriteBatch@DirectX@@@std@@@1@PEAU?$_Tree_node@U?$pair@QEAUID3D11Device@@V?$weak_ptr@UDeviceResources@Impl@SpriteBatch@DirectX@@@std@@@std@@PEAX@1@@Z 0000000140036198     DirectXTK:SpriteBatch.obj
 0002:0000a198       $ip2state$??$_Insert_nohint@AEAU?$pair@QEAUID3D11Device@@V?$weak_ptr@VImpl@CommonStates@DirectX@@@std@@@std@@PEAU?$_Tree_node@U?$pair@QEAUID3D11Device@@V?$weak_ptr@VImpl@CommonStates@DirectX@@@std@@@std@@PEAX@2@@?$_Tree@V?$_Tmap_traits@PEAUID3D11Device@@V?$weak_ptr@VImpl@CommonStates@DirectX@@@std@@U?$less@PEAUID3D11Device@@@3@V?$allocator@U?$pair@QEAUID3D11Device@@V?$weak_ptr@VImpl@CommonStates@DirectX@@@std@@@std@@@3@$0A@@std@@@std@@IEAA?AU?$pair@V?$_Tree_iterator@V?$_Tree_val@U?$_Tree_simple_types@U?$pair@QEAUID3D11Device@@V?$weak_ptr@VImpl@CommonStates@DirectX@@@std@@@std@@@std@@@std@@@std@@_N@1@_NAEAU?$pair@QEAUID3D11Device@@V?$weak_ptr@VImpl@CommonStates@DirectX@@@std@@@1@PEAU?$_Tree_node@U?$pair@QEAUID3D11Device@@V?$weak_ptr@VImpl@CommonStates@DirectX@@@std@@@std@@PEAX@1@@Z 0000000140036198     DirectXTK:CommonStates.obj
 0002:0000a198       $ip2state$??$_Insert_nohint@AEAU?$pair@QEAUID3D11DeviceContext@@V?$weak_ptr@UContextResources@Impl@SpriteBatch@DirectX@@@std@@@std@@PEAU?$_Tree_node@U?$pair@QEAUID3D11DeviceContext@@V?$weak_ptr@UContextResources@Impl@SpriteBatch@DirectX@@@std@@@std@@PEAX@2@@?$_Tree@V?$_Tmap_traits@PEAUID3D11DeviceContext@@V?$weak_ptr@UContextResources@Impl@SpriteBatch@DirectX@@@std@@U?$less@PEAUID3D11DeviceContext@@@3@V?$allocator@U?$pair@QEAUID3D11DeviceContext@@V?$weak_ptr@UContextResources@Impl@SpriteBatch@DirectX@@@std@@@std@@@3@$0A@@std@@@std@@IEAA?AU?$pair@V?$_Tree_iterator@V?$_Tree_val@U?$_Tree_simple_types@U?$pair@QEAUID3D11DeviceContext@@V?$weak_ptr@UContextResources@Impl@SpriteBatch@DirectX@@@std@@@std@@@std@@@std@@@std@@_N@1@_NAEAU?$pair@QEAUID3D11DeviceContext@@V?$weak_ptr@UContextResources@Impl@SpriteBatch@DirectX@@@std@@@1@PEAU?$_Tree_node@U?$pair@QEAUID3D11DeviceContext@@V?$weak_ptr@UContextResources@Impl@SpriteBatch@DirectX@@@std@@@std@@PEAX@1@@Z 0000000140036198     DirectXTK:SpriteBatch.obj
 0002:0000a1a8       $unwind$?catch$1@?0???$_Insert_nohint@AEAU?$pair@QEAUID3D11Device@@V?$weak_ptr@UDeviceResources@Impl@SpriteBatch@DirectX@@@std@@@std@@PEAU?$_Tree_node@U?$pair@QEAUID3D11Device@@V?$weak_ptr@UDeviceResources@Impl@SpriteBatch@DirectX@@@std@@@std@@PEAX@2@@?$_Tree@V?$_Tmap_traits@PEAUID3D11Device@@V?$weak_ptr@UDeviceResources@Impl@SpriteBatch@DirectX@@@std@@U?$less@PEAUID3D11Device@@@3@V?$allocator@U?$pair@QEAUID3D11Device@@V?$weak_ptr@UDeviceResources@Impl@SpriteBatch@DirectX@@@std@@@std@@@3@$0A@@std@@@std@@IEAA?AU?$pair@V?$_Tree_iterator@V?$_Tree_val@U?$_Tree_simple_types@U?$pair@QEAUID3D11Device@@V?$weak_ptr@UDeviceResources@Impl@SpriteBatch@DirectX@@@std@@@std@@@std@@@std@@@std@@_N@1@_NAEAU?$pair@QEAUID3D11Device@@V?$weak_ptr@UDeviceResources@Impl@SpriteBatch@DirectX@@@std@@@1@PEAU?$_Tree_node@U?$pair@QEAUID3D11Device@@V?$weak_ptr@UDeviceResources@Impl@SpriteBatch@DirectX@@@std@@@std@@PEAX@1@@Z@4HA 00000001400361a8     DirectXTK:SpriteBatch.obj
 0002:0000a1a8       $unwind$?catch$1@?0???$_Insert_nohint@AEAU?$pair@QEAUID3D11DeviceContext@@V?$weak_ptr@UContextResources@Impl@SpriteBatch@DirectX@@@std@@@std@@PEAU?$_Tree_node@U?$pair@QEAUID3D11DeviceContext@@V?$weak_ptr@UContextResources@Impl@SpriteBatch@DirectX@@@std@@@std@@PEAX@2@@?$_Tree@V?$_Tmap_traits@PEAUID3D11DeviceContext@@V?$weak_ptr@UContextResources@Impl@SpriteBatch@DirectX@@@std@@U?$less@PEAUID3D11DeviceContext@@@3@V?$allocator@U?$pair@QEAUID3D11DeviceContext@@V?$weak_ptr@UContextResources@Impl@SpriteBatch@DirectX@@@std@@@std@@@3@$0A@@std@@@std@@IEAA?AU?$pair@V?$_Tree_iterator@V?$_Tree_val@U?$_Tree_simple_types@U?$pair@QEAUID3D11DeviceContext@@V?$weak_ptr@UContextResources@Impl@SpriteBatch@DirectX@@@std@@@std@@@std@@@std@@@std@@_N@1@_NAEAU?$pair@QEAUID3D11DeviceContext@@V?$weak_ptr@UContextResources@Impl@SpriteBatch@DirectX@@@std@@@1@PEAU?$_Tree_node@U?$pair@QEAUID3D11DeviceContext@@V?$weak_ptr@UContextResources@Impl@SpriteBatch@DirectX@@@std@@@std@@PEAX@1@@Z@4HA 00000001400361a8     DirectXTK:SpriteBatch.obj
 0002:0000a1a8       $unwind$?catch$1@?0???$_Insert_nohint@AEAU?$pair@QEAUID3D11Device@@V?$weak_ptr@VImpl@CommonStates@DirectX@@@std@@@std@@PEAU?$_Tree_node@U?$pair@QEAUID3D11Device@@V?$weak_ptr@VImpl@CommonStates@DirectX@@@std@@@std@@PEAX@2@@?$_Tree@V?$_Tmap_traits@PEAUID3D11Device@@V?$weak_ptr@VImpl@CommonStates@DirectX@@@std@@U?$less@PEAUID3D11Device@@@3@V?$allocator@U?$pair@QEAUID3D11Device@@V?$weak_ptr@VImpl@CommonStates@DirectX@@@std@@@std@@@3@$0A@@std@@@std@@IEAA?AU?$pair@V?$_Tree_iterator@V?$_Tree_val@U?$_Tree_simple_types@U?$pair@QEAUID3D11Device@@V?$weak_ptr@VImpl@CommonStates@DirectX@@@std@@@std@@@std@@@std@@@std@@_N@1@_NAEAU?$pair@QEAUID3D11Device@@V?$weak_ptr@VImpl@CommonStates@DirectX@@@std@@@1@PEAU?$_Tree_node@U?$pair@QEAUID3D11Device@@V?$weak_ptr@VImpl@CommonStates@DirectX@@@std@@@std@@PEAX@1@@Z@4HA 00000001400361a8     DirectXTK:CommonStates.obj
 0002:0000a1b8       $unwind$??$_Guess_median_unchecked@PEAPEBUSpriteInfo@Impl@SpriteBatch@DirectX@@V<lambda_c8cd3344139af936846f26b5e655a233>@@@std@@YAXPEAPEBUSpriteInfo@Impl@SpriteBatch@DirectX@@00V<lambda_c8cd3344139af936846f26b5e655a233>@@@Z 00000001400361b8     DirectXTK:SpriteBatch.obj
 0002:0000a1b8       $unwind$??$_Guess_median_unchecked@PEAPEBUSpriteInfo@Impl@SpriteBatch@DirectX@@V<lambda_9b5ae69721589d94e761d5c8d20d011a>@@@std@@YAXPEAPEBUSpriteInfo@Impl@SpriteBatch@DirectX@@00V<lambda_9b5ae69721589d94e761d5c8d20d011a>@@@Z 00000001400361b8     DirectXTK:SpriteBatch.obj
 0002:0000a1b8       $unwind$??$_Guess_median_unchecked@PEAPEBUSpriteInfo@Impl@SpriteBatch@DirectX@@V<lambda_9829e134287828d35661b3276427a812>@@@std@@YAXPEAPEBUSpriteInfo@Impl@SpriteBatch@DirectX@@00V<lambda_9829e134287828d35661b3276427a812>@@@Z 00000001400361b8     DirectXTK:SpriteBatch.obj
 0002:0000a1c0       $chain$0$??$_Guess_median_unchecked@PEAPEBUSpriteInfo@Impl@SpriteBatch@DirectX@@V<lambda_9829e134287828d35661b3276427a812>@@@std@@YAXPEAPEBUSpriteInfo@Impl@SpriteBatch@DirectX@@00V<lambda_9829e134287828d35661b3276427a812>@@@Z 00000001400361c0     DirectXTK:SpriteBatch.obj
 0002:0000a1d4       $chain$1$??$_Guess_median_unchecked@PEAPEBUSpriteInfo@Impl@SpriteBatch@DirectX@@V<lambda_9829e134287828d35661b3276427a812>@@@std@@YAXPEAPEBUSpriteInfo@Impl@SpriteBatch@DirectX@@00V<lambda_9829e134287828d35661b3276427a812>@@@Z 00000001400361d4     DirectXTK:SpriteBatch.obj
 0002:0000a1e8       $chain$2$??$_Guess_median_unchecked@PEAPEBUSpriteInfo@Impl@SpriteBatch@DirectX@@V<lambda_9829e134287828d35661b3276427a812>@@@std@@YAXPEAPEBUSpriteInfo@Impl@SpriteBatch@DirectX@@00V<lambda_9829e134287828d35661b3276427a812>@@@Z 00000001400361e8     DirectXTK:SpriteBatch.obj
 0002:0000a1f8       $chain$3$??$_Guess_median_unchecked@PEAPEBUSpriteInfo@Impl@SpriteBatch@DirectX@@V<lambda_9829e134287828d35661b3276427a812>@@@std@@YAXPEAPEBUSpriteInfo@Impl@SpriteBatch@DirectX@@00V<lambda_9829e134287828d35661b3276427a812>@@@Z 00000001400361f8     DirectXTK:SpriteBatch.obj
 0002:0000a208       $unwind$??$_Pop_heap_hole_by_index@PEAPEBUSpriteInfo@Impl@SpriteBatch@DirectX@@PEBU1234@V<lambda_9829e134287828d35661b3276427a812>@@@std@@YAXPEAPEBUSpriteInfo@Impl@SpriteBatch@DirectX@@_J1$$QEAPEBU1234@V<lambda_9829e134287828d35661b3276427a812>@@@Z 0000000140036208     DirectXTK:SpriteBatch.obj
 0002:0000a218       $chain$0$??$_Guess_median_unchecked@PEAPEBUSpriteInfo@Impl@SpriteBatch@DirectX@@V<lambda_c8cd3344139af936846f26b5e655a233>@@@std@@YAXPEAPEBUSpriteInfo@Impl@SpriteBatch@DirectX@@00V<lambda_c8cd3344139af936846f26b5e655a233>@@@Z 0000000140036218     DirectXTK:SpriteBatch.obj
 0002:0000a22c       $chain$1$??$_Guess_median_unchecked@PEAPEBUSpriteInfo@Impl@SpriteBatch@DirectX@@V<lambda_c8cd3344139af936846f26b5e655a233>@@@std@@YAXPEAPEBUSpriteInfo@Impl@SpriteBatch@DirectX@@00V<lambda_c8cd3344139af936846f26b5e655a233>@@@Z 000000014003622c     DirectXTK:SpriteBatch.obj
 0002:0000a23c       $unwind$??$_Pop_heap_hole_by_index@PEAPEBUSpriteInfo@Impl@SpriteBatch@DirectX@@PEBU1234@V<lambda_9b5ae69721589d94e761d5c8d20d011a>@@@std@@YAXPEAPEBUSpriteInfo@Impl@SpriteBatch@DirectX@@_J1$$QEAPEBU1234@V<lambda_9b5ae69721589d94e761d5c8d20d011a>@@@Z 000000014003623c     DirectXTK:SpriteBatch.obj
 0002:0000a23c       $unwind$??$_Pop_heap_hole_by_index@PEAPEBUSpriteInfo@Impl@SpriteBatch@DirectX@@PEBU1234@V<lambda_c8cd3344139af936846f26b5e655a233>@@@std@@YAXPEAPEBUSpriteInfo@Impl@SpriteBatch@DirectX@@_J1$$QEAPEBU1234@V<lambda_c8cd3344139af936846f26b5e655a233>@@@Z 000000014003623c     DirectXTK:SpriteBatch.obj
 0002:0000a248       $chain$0$??$_Guess_median_unchecked@PEAPEBUSpriteInfo@Impl@SpriteBatch@DirectX@@V<lambda_9b5ae69721589d94e761d5c8d20d011a>@@@std@@YAXPEAPEBUSpriteInfo@Impl@SpriteBatch@DirectX@@00V<lambda_9b5ae69721589d94e761d5c8d20d011a>@@@Z 0000000140036248     DirectXTK:SpriteBatch.obj
 0002:0000a25c       $chain$1$??$_Guess_median_unchecked@PEAPEBUSpriteInfo@Impl@SpriteBatch@DirectX@@V<lambda_9b5ae69721589d94e761d5c8d20d011a>@@@std@@YAXPEAPEBUSpriteInfo@Impl@SpriteBatch@DirectX@@00V<lambda_9b5ae69721589d94e761d5c8d20d011a>@@@Z 000000014003625c     DirectXTK:SpriteBatch.obj
 0002:0000a26c       $unwind$??$_Insert_at@AEAU?$pair@QEAUID3D11Device@@V?$weak_ptr@VImpl@CommonStates@DirectX@@@std@@@std@@PEAU?$_Tree_node@U?$pair@QEAUID3D11Device@@V?$weak_ptr@VImpl@CommonStates@DirectX@@@std@@@std@@PEAX@2@@?$_Tree@V?$_Tmap_traits@PEAUID3D11Device@@V?$weak_ptr@VImpl@CommonStates@DirectX@@@std@@U?$less@PEAUID3D11Device@@@3@V?$allocator@U?$pair@QEAUID3D11Device@@V?$weak_ptr@VImpl@CommonStates@DirectX@@@std@@@std@@@3@$0A@@std@@@std@@IEAA?AV?$_Tree_iterator@V?$_Tree_val@U?$_Tree_simple_types@U?$pair@QEAUID3D11Device@@V?$weak_ptr@VImpl@CommonStates@DirectX@@@std@@@std@@@std@@@std@@@1@_NPEAU?$_Tree_node@U?$pair@QEAUID3D11Device@@V?$weak_ptr@VImpl@CommonStates@DirectX@@@std@@@std@@PEAX@1@AEAU?$pair@QEAUID3D11Device@@V?$weak_ptr@VImpl@CommonStates@DirectX@@@std@@@1@1@Z 000000014003626c     DirectXTK:CommonStates.obj
 0002:0000a26c       $unwind$??$_Insert_at@AEAU?$pair@QEAUID3D11Device@@V?$weak_ptr@UDeviceResources@Impl@SpriteBatch@DirectX@@@std@@@std@@PEAU?$_Tree_node@U?$pair@QEAUID3D11Device@@V?$weak_ptr@UDeviceResources@Impl@SpriteBatch@DirectX@@@std@@@std@@PEAX@2@@?$_Tree@V?$_Tmap_traits@PEAUID3D11Device@@V?$weak_ptr@UDeviceResources@Impl@SpriteBatch@DirectX@@@std@@U?$less@PEAUID3D11Device@@@3@V?$allocator@U?$pair@QEAUID3D11Device@@V?$weak_ptr@UDeviceResources@Impl@SpriteBatch@DirectX@@@std@@@std@@@3@$0A@@std@@@std@@IEAA?AV?$_Tree_iterator@V?$_Tree_val@U?$_Tree_simple_types@U?$pair@QEAUID3D11Device@@V?$weak_ptr@UDeviceResources@Impl@SpriteBatch@DirectX@@@std@@@std@@@std@@@std@@@1@_NPEAU?$_Tree_node@U?$pair@QEAUID3D11Device@@V?$weak_ptr@UDeviceResources@Impl@SpriteBatch@DirectX@@@std@@@std@@PEAX@1@AEAU?$pair@QEAUID3D11Device@@V?$weak_ptr@UDeviceResources@Impl@SpriteBatch@DirectX@@@std@@@1@1@Z 000000014003626c     DirectXTK:SpriteBatch.obj
 0002:0000a26c       $unwind$??$_Insert_at@AEAU?$pair@QEAUID3D11DeviceContext@@V?$weak_ptr@UContextResources@Impl@SpriteBatch@DirectX@@@std@@@std@@PEAU?$_Tree_node@U?$pair@QEAUID3D11DeviceContext@@V?$weak_ptr@UContextResources@Impl@SpriteBatch@DirectX@@@std@@@std@@PEAX@2@@?$_Tree@V?$_Tmap_traits@PEAUID3D11DeviceContext@@V?$weak_ptr@UContextResources@Impl@SpriteBatch@DirectX@@@std@@U?$less@PEAUID3D11DeviceContext@@@3@V?$allocator@U?$pair@QEAUID3D11DeviceContext@@V?$weak_ptr@UContextResources@Impl@SpriteBatch@DirectX@@@std@@@std@@@3@$0A@@std@@@std@@IEAA?AV?$_Tree_iterator@V?$_Tree_val@U?$_Tree_simple_types@U?$pair@QEAUID3D11DeviceContext@@V?$weak_ptr@UContextResources@Impl@SpriteBatch@DirectX@@@std@@@std@@@std@@@std@@@1@_NPEAU?$_Tree_node@U?$pair@QEAUID3D11DeviceContext@@V?$weak_ptr@UContextResources@Impl@SpriteBatch@DirectX@@@std@@@std@@PEAX@1@AEAU?$pair@QEAUID3D11DeviceContext@@V?$weak_ptr@UContextResources@Impl@SpriteBatch@DirectX@@@std@@@1@1@Z 000000014003626c     DirectXTK:SpriteBatch.obj
 0002:0000a278       $chain$1$??$_Insert_at@AEAU?$pair@QEAUID3D11Device@@V?$weak_ptr@UDeviceResources@Impl@SpriteBatch@DirectX@@@std@@@std@@PEAU?$_Tree_node@U?$pair@QEAUID3D11Device@@V?$weak_ptr@UDeviceResources@Impl@SpriteBatch@DirectX@@@std@@@std@@PEAX@2@@?$_Tree@V?$_Tmap_traits@PEAUID3D11Device@@V?$weak_ptr@UDeviceResources@Impl@SpriteBatch@DirectX@@@std@@U?$less@PEAUID3D11Device@@@3@V?$allocator@U?$pair@QEAUID3D11Device@@V?$weak_ptr@UDeviceResources@Impl@SpriteBatch@DirectX@@@std@@@std@@@3@$0A@@std@@@std@@IEAA?AV?$_Tree_iterator@V?$_Tree_val@U?$_Tree_simple_types@U?$pair@QEAUID3D11Device@@V?$weak_ptr@UDeviceResources@Impl@SpriteBatch@DirectX@@@std@@@std@@@std@@@std@@@1@_NPEAU?$_Tree_node@U?$pair@QEAUID3D11Device@@V?$weak_ptr@UDeviceResources@Impl@SpriteBatch@DirectX@@@std@@@std@@PEAX@1@AEAU?$pair@QEAUID3D11Device@@V?$weak_ptr@UDeviceResources@Impl@SpriteBatch@DirectX@@@std@@@1@1@Z 0000000140036278     DirectXTK:SpriteBatch.obj
 0002:0000a278       $chain$1$??$_Insert_at@AEAU?$pair@QEAUID3D11Device@@V?$weak_ptr@VImpl@CommonStates@DirectX@@@std@@@std@@PEAU?$_Tree_node@U?$pair@QEAUID3D11Device@@V?$weak_ptr@VImpl@CommonStates@DirectX@@@std@@@std@@PEAX@2@@?$_Tree@V?$_Tmap_traits@PEAUID3D11Device@@V?$weak_ptr@VImpl@CommonStates@DirectX@@@std@@U?$less@PEAUID3D11Device@@@3@V?$allocator@U?$pair@QEAUID3D11Device@@V?$weak_ptr@VImpl@CommonStates@DirectX@@@std@@@std@@@3@$0A@@std@@@std@@IEAA?AV?$_Tree_iterator@V?$_Tree_val@U?$_Tree_simple_types@U?$pair@QEAUID3D11Device@@V?$weak_ptr@VImpl@CommonStates@DirectX@@@std@@@std@@@std@@@std@@@1@_NPEAU?$_Tree_node@U?$pair@QEAUID3D11Device@@V?$weak_ptr@VImpl@CommonStates@DirectX@@@std@@@std@@PEAX@1@AEAU?$pair@QEAUID3D11Device@@V?$weak_ptr@VImpl@CommonStates@DirectX@@@std@@@1@1@Z 0000000140036278     DirectXTK:CommonStates.obj
 0002:0000a278       $chain$1$??$_Insert_at@AEAU?$pair@QEAUID3D11DeviceContext@@V?$weak_ptr@UContextResources@Impl@SpriteBatch@DirectX@@@std@@@std@@PEAU?$_Tree_node@U?$pair@QEAUID3D11DeviceContext@@V?$weak_ptr@UContextResources@Impl@SpriteBatch@DirectX@@@std@@@std@@PEAX@2@@?$_Tree@V?$_Tmap_traits@PEAUID3D11DeviceContext@@V?$weak_ptr@UContextResources@Impl@SpriteBatch@DirectX@@@std@@U?$less@PEAUID3D11DeviceContext@@@3@V?$allocator@U?$pair@QEAUID3D11DeviceContext@@V?$weak_ptr@UContextResources@Impl@SpriteBatch@DirectX@@@std@@@std@@@3@$0A@@std@@@std@@IEAA?AV?$_Tree_iterator@V?$_Tree_val@U?$_Tree_simple_types@U?$pair@QEAUID3D11DeviceContext@@V?$weak_ptr@UContextResources@Impl@SpriteBatch@DirectX@@@std@@@std@@@std@@@std@@@1@_NPEAU?$_Tree_node@U?$pair@QEAUID3D11DeviceContext@@V?$weak_ptr@UContextResources@Impl@SpriteBatch@DirectX@@@std@@@std@@PEAX@1@AEAU?$pair@QEAUID3D11DeviceContext@@V?$weak_ptr@UContextResources@Impl@SpriteBatch@DirectX@@@std@@@1@1@Z 0000000140036278     DirectXTK:SpriteBatch.obj
 0002:0000a290       $chain$3$??$_Insert_at@AEAU?$pair@QEAUID3D11Device@@V?$weak_ptr@VImpl@CommonStates@DirectX@@@std@@@std@@PEAU?$_Tree_node@U?$pair@QEAUID3D11Device@@V?$weak_ptr@VImpl@CommonStates@DirectX@@@std@@@std@@PEAX@2@@?$_Tree@V?$_Tmap_traits@PEAUID3D11Device@@V?$weak_ptr@VImpl@CommonStates@DirectX@@@std@@U?$less@PEAUID3D11Device@@@3@V?$allocator@U?$pair@QEAUID3D11Device@@V?$weak_ptr@VImpl@CommonStates@DirectX@@@std@@@std@@@3@$0A@@std@@@std@@IEAA?AV?$_Tree_iterator@V?$_Tree_val@U?$_Tree_simple_types@U?$pair@QEAUID3D11Device@@V?$weak_ptr@VImpl@CommonStates@DirectX@@@std@@@std@@@std@@@std@@@1@_NPEAU?$_Tree_node@U?$pair@QEAUID3D11Device@@V?$weak_ptr@VImpl@CommonStates@DirectX@@@std@@@std@@PEAX@1@AEAU?$pair@QEAUID3D11Device@@V?$weak_ptr@VImpl@CommonStates@DirectX@@@std@@@1@1@Z 0000000140036290     DirectXTK:CommonStates.obj
 0002:0000a290       $chain$3$??$_Insert_at@AEAU?$pair@QEAUID3D11Device@@V?$weak_ptr@UDeviceResources@Impl@SpriteBatch@DirectX@@@std@@@std@@PEAU?$_Tree_node@U?$pair@QEAUID3D11Device@@V?$weak_ptr@UDeviceResources@Impl@SpriteBatch@DirectX@@@std@@@std@@PEAX@2@@?$_Tree@V?$_Tmap_traits@PEAUID3D11Device@@V?$weak_ptr@UDeviceResources@Impl@SpriteBatch@DirectX@@@std@@U?$less@PEAUID3D11Device@@@3@V?$allocator@U?$pair@QEAUID3D11Device@@V?$weak_ptr@UDeviceResources@Impl@SpriteBatch@DirectX@@@std@@@std@@@3@$0A@@std@@@std@@IEAA?AV?$_Tree_iterator@V?$_Tree_val@U?$_Tree_simple_types@U?$pair@QEAUID3D11Device@@V?$weak_ptr@UDeviceResources@Impl@SpriteBatch@DirectX@@@std@@@std@@@std@@@std@@@1@_NPEAU?$_Tree_node@U?$pair@QEAUID3D11Device@@V?$weak_ptr@UDeviceResources@Impl@SpriteBatch@DirectX@@@std@@@std@@PEAX@1@AEAU?$pair@QEAUID3D11Device@@V?$weak_ptr@UDeviceResources@Impl@SpriteBatch@DirectX@@@std@@@1@1@Z 0000000140036290     DirectXTK:SpriteBatch.obj
 0002:0000a290       $chain$3$??$_Insert_at@AEAU?$pair@QEAUID3D11DeviceContext@@V?$weak_ptr@UContextResources@Impl@SpriteBatch@DirectX@@@std@@@std@@PEAU?$_Tree_node@U?$pair@QEAUID3D11DeviceContext@@V?$weak_ptr@UContextResources@Impl@SpriteBatch@DirectX@@@std@@@std@@PEAX@2@@?$_Tree@V?$_Tmap_traits@PEAUID3D11DeviceContext@@V?$weak_ptr@UContextResources@Impl@SpriteBatch@DirectX@@@std@@U?$less@PEAUID3D11DeviceContext@@@3@V?$allocator@U?$pair@QEAUID3D11DeviceContext@@V?$weak_ptr@UContextResources@Impl@SpriteBatch@DirectX@@@std@@@std@@@3@$0A@@std@@@std@@IEAA?AV?$_Tree_iterator@V?$_Tree_val@U?$_Tree_simple_types@U?$pair@QEAUID3D11DeviceContext@@V?$weak_ptr@UContextResources@Impl@SpriteBatch@DirectX@@@std@@@std@@@std@@@std@@@1@_NPEAU?$_Tree_node@U?$pair@QEAUID3D11DeviceContext@@V?$weak_ptr@UContextResources@Impl@SpriteBatch@DirectX@@@std@@@std@@PEAX@1@AEAU?$pair@QEAUID3D11DeviceContext@@V?$weak_ptr@UContextResources@Impl@SpriteBatch@DirectX@@@std@@@1@1@Z 0000000140036290     DirectXTK:SpriteBatch.obj
 0002:0000a2a0       $unwind$??0SpriteFont@DirectX@@QEAA@PEAUID3D11Device@@PEB_W_N@Z 00000001400362a0     DirectXTK:SpriteFont.obj
 0002:0000a2bc       $stateUnwindMap$??0SpriteFont@DirectX@@QEAA@PEAUID3D11Device@@PEB_W_N@Z 00000001400362bc     DirectXTK:SpriteFont.obj
 0002:0000a2d8       $ip2state$??0SpriteFont@DirectX@@QEAA@PEAUID3D11Device@@PEB_W_N@Z 00000001400362d8     DirectXTK:SpriteFont.obj
 0002:0000a2f8       $unwind$?MeasureString@SpriteFont@DirectX@@QEBQ?AT__m128@@PEB_W@Z 00000001400362f8     DirectXTK:SpriteFont.obj
 0002:0000a31c       $chain$1$?MeasureString@SpriteFont@DirectX@@QEBQ?AT__m128@@PEB_W@Z 000000014003631c     DirectXTK:SpriteFont.obj
 0002:0000a334       $chain$2$?MeasureString@SpriteFont@DirectX@@QEBQ?AT__m128@@PEB_W@Z 0000000140036334     DirectXTK:SpriteFont.obj
 0002:0000a344       $unwind$?DrawString@SpriteFont@DirectX@@QEBQXPEAVSpriteBatch@2@PEBDAEBUXMFLOAT2@2@T__m128@@M2MW4SpriteEffects@2@M@Z 0000000140036344     DirectXTK:SpriteFont.obj
 0002:0000a368       $unwind$??R?$default_delete@VImpl@SpriteFont@DirectX@@@std@@QEBAXPEAVImpl@SpriteFont@DirectX@@@Z 0000000140036368     DirectXTK:SpriteFont.obj
 0002:0000a380       $ip2state$??R?$default_delete@VImpl@SpriteFont@DirectX@@@std@@QEBAXPEAVImpl@SpriteFont@DirectX@@@Z 0000000140036380     DirectXTK:SpriteFont.obj
 0002:0000a388       $unwind$??0Impl@SpriteFont@DirectX@@QEAA@PEAUID3D11Device@@PEAVBinaryReader@2@_N@Z 0000000140036388     DirectXTK:SpriteFont.obj
 0002:0000a3b0       $stateUnwindMap$??0Impl@SpriteFont@DirectX@@QEAA@PEAUID3D11Device@@PEAVBinaryReader@2@_N@Z 00000001400363b0     DirectXTK:SpriteFont.obj
 0002:0000a3d0       $ip2state$??0Impl@SpriteFont@DirectX@@QEAA@PEAUID3D11Device@@PEAVBinaryReader@2@_N@Z 00000001400363d0     DirectXTK:SpriteFont.obj
 0002:0000a418       $unwind$?ConvertUTF8@Impl@SpriteFont@DirectX@@QEAAPEB_WPEBD@Z 0000000140036418     DirectXTK:SpriteFont.obj
 0002:0000a428       $unwind$??$Read@I@BinaryReader@DirectX@@QEAAAEBIXZ 0000000140036428     DirectXTK:SpriteFont.obj
 0002:0000a430       $unwind$??$ForEachGlyph@V<lambda_ea59ae01f682360545abc2266ba2a092>@@@Impl@SpriteFont@DirectX@@QEBAXPEB_WV<lambda_ea59ae01f682360545abc2266ba2a092>@@@Z 0000000140036430     DirectXTK:SpriteFont.obj
 0002:0000a44c       $chain$3$??$ForEachGlyph@V<lambda_ea59ae01f682360545abc2266ba2a092>@@@Impl@SpriteFont@DirectX@@QEBAXPEB_WV<lambda_ea59ae01f682360545abc2266ba2a092>@@@Z 000000014003644c     DirectXTK:SpriteFont.obj
 0002:0000a46c       $chain$4$??$ForEachGlyph@V<lambda_ea59ae01f682360545abc2266ba2a092>@@@Impl@SpriteFont@DirectX@@QEBAXPEB_WV<lambda_ea59ae01f682360545abc2266ba2a092>@@@Z 000000014003646c     DirectXTK:SpriteFont.obj
 0002:0000a47c       $unwind$?CreateDDSTextureFromFile@DirectX@@YAJPEAUID3D11Device@@PEB_WPEAPEAUID3D11Resource@@PEAPEAUID3D11ShaderResourceView@@_KPEAW4DDS_ALPHA_MODE@1@@Z 000000014003647c     DirectXTK:DDSTextureLoader.obj
 0002:0000a498       $stateUnwindMap$?CreateDDSTextureFromFile@DirectX@@YAJPEAUID3D11Device@@PEB_WPEAPEAUID3D11Resource@@PEAPEAUID3D11ShaderResourceView@@_KPEAW4DDS_ALPHA_MODE@1@@Z 0000000140036498     DirectXTK:DDSTextureLoader.obj
 0002:0000a4a0       $ip2state$?CreateDDSTextureFromFile@DirectX@@YAJPEAUID3D11Device@@PEB_WPEAPEAUID3D11Resource@@PEAPEAUID3D11ShaderResourceView@@_KPEAW4DDS_ALPHA_MODE@1@@Z 00000001400364a0     DirectXTK:DDSTextureLoader.obj
 0002:0000a4a8       $unwind$?LoadTextureDataFromFile@LoaderHelpers@DirectX@@YAJPEB_WAEAV?$unique_ptr@$$BY0A@EU?$default_delete@$$BY0A@E@std@@@std@@PEAPEBUDDS_HEADER@2@PEAPEBEPEA_K@Z 00000001400364a8     DirectXTK:DDSTextureLoader.obj
 0002:0000a4c0       $chain$1$?LoadTextureDataFromFile@LoaderHelpers@DirectX@@YAJPEB_WAEAV?$unique_ptr@$$BY0A@EU?$default_delete@$$BY0A@E@std@@@std@@PEAPEBUDDS_HEADER@2@PEAPEBEPEA_K@Z 00000001400364c0     DirectXTK:DDSTextureLoader.obj
 0002:0000a4d8       $chain$2$?LoadTextureDataFromFile@LoaderHelpers@DirectX@@YAJPEB_WAEAV?$unique_ptr@$$BY0A@EU?$default_delete@$$BY0A@E@std@@@std@@PEAPEBUDDS_HEADER@2@PEAPEBEPEA_K@Z 00000001400364d8     DirectXTK:DDSTextureLoader.obj
 0002:0000a4ec       $chain$3$?LoadTextureDataFromFile@LoaderHelpers@DirectX@@YAJPEB_WAEAV?$unique_ptr@$$BY0A@EU?$default_delete@$$BY0A@E@std@@@std@@PEAPEBUDDS_HEADER@2@PEAPEBEPEA_K@Z 00000001400364ec     DirectXTK:DDSTextureLoader.obj
 0002:0000a4fc       $chain$4$?LoadTextureDataFromFile@LoaderHelpers@DirectX@@YAJPEB_WAEAV?$unique_ptr@$$BY0A@EU?$default_delete@$$BY0A@E@std@@@std@@PEAPEBUDDS_HEADER@2@PEAPEBEPEA_K@Z 00000001400364fc     DirectXTK:DDSTextureLoader.obj
 0002:0000a50c       $unwind$?FillInitData@?A0x3c71273c@@YAJ_K0000W4DXGI_FORMAT@@00PEBEAEA_K333PEAUD3D11_SUBRESOURCE_DATA@@@Z 000000014003650c     DirectXTK:DDSTextureLoader.obj
 0002:0000a518       $chain$4$?FillInitData@?A0x3c71273c@@YAJ_K0000W4DXGI_FORMAT@@00PEBEAEA_K333PEAUD3D11_SUBRESOURCE_DATA@@@Z 0000000140036518     DirectXTK:DDSTextureLoader.obj
 0002:0000a53c       $chain$6$?FillInitData@?A0x3c71273c@@YAJ_K0000W4DXGI_FORMAT@@00PEBEAEA_K333PEAUD3D11_SUBRESOURCE_DATA@@@Z 000000014003653c     DirectXTK:DDSTextureLoader.obj
 0002:0000a560       $chain$7$?FillInitData@?A0x3c71273c@@YAJ_K0000W4DXGI_FORMAT@@00PEBEAEA_K333PEAUD3D11_SUBRESOURCE_DATA@@@Z 0000000140036560     DirectXTK:DDSTextureLoader.obj
 0002:0000a570       $unwind$?CreateD3DResources@?A0x3c71273c@@YAJPEAUID3D11Device@@I_K1111W4DXGI_FORMAT@@W4D3D11_USAGE@@III_N4PEBUD3D11_SUBRESOURCE_DATA@@PEAPEAUID3D11Resource@@PEAPEAUID3D11ShaderResourceView@@@Z 0000000140036570     DirectXTK:DDSTextureLoader.obj
 0002:0000a588       $chain$3$?CreateD3DResources@?A0x3c71273c@@YAJPEAUID3D11Device@@I_K1111W4DXGI_FORMAT@@W4D3D11_USAGE@@III_N4PEBUD3D11_SUBRESOURCE_DATA@@PEAPEAUID3D11Resource@@PEAPEAUID3D11ShaderResourceView@@@Z 0000000140036588     DirectXTK:DDSTextureLoader.obj
 0002:0000a5a8       $chain$4$?CreateD3DResources@?A0x3c71273c@@YAJPEAUID3D11Device@@I_K1111W4DXGI_FORMAT@@W4D3D11_USAGE@@III_N4PEBUD3D11_SUBRESOURCE_DATA@@PEAPEAUID3D11Resource@@PEAPEAUID3D11ShaderResourceView@@@Z 00000001400365a8     DirectXTK:DDSTextureLoader.obj
 0002:0000a5b8       $unwind$?CreateTextureFromDDS@?A0x3c71273c@@YAJPEAUID3D11Device@@PEAUID3D11DeviceContext@@PEBUDDS_HEADER@DirectX@@PEBE_K4W4D3D11_USAGE@@III_NPEAPEAUID3D11Resource@@PEAPEAUID3D11ShaderResourceView@@@Z 00000001400365b8     DirectXTK:DDSTextureLoader.obj
 0002:0000a5dc       $stateUnwindMap$?CreateTextureFromDDS@?A0x3c71273c@@YAJPEAUID3D11Device@@PEAUID3D11DeviceContext@@PEBUDDS_HEADER@DirectX@@PEBE_K4W4D3D11_USAGE@@III_NPEAPEAUID3D11Resource@@PEAPEAUID3D11ShaderResourceView@@@Z 00000001400365dc     DirectXTK:DDSTextureLoader.obj
 0002:0000a5e8       $ip2state$?CreateTextureFromDDS@?A0x3c71273c@@YAJPEAUID3D11Device@@PEAUID3D11DeviceContext@@PEBUDDS_HEADER@DirectX@@PEBE_K4W4D3D11_USAGE@@III_NPEAPEAUID3D11Resource@@PEAPEAUID3D11ShaderResourceView@@@Z 00000001400365e8     DirectXTK:DDSTextureLoader.obj
 0002:0000a610       $chain$0$??1CommonStates@DirectX@@UEAA@XZ 0000000140036610     DirectXTK:CommonStates.obj
 0002:0000a624       $chain$1$??1CommonStates@DirectX@@UEAA@XZ 0000000140036624     DirectXTK:CommonStates.obj
 0002:0000a634       $unwind$?AlphaBlend@CommonStates@DirectX@@QEBAPEAUID3D11BlendState@@XZ 0000000140036634     DirectXTK:CommonStates.obj
 0002:0000a654       $stateUnwindMap$?AlphaBlend@CommonStates@DirectX@@QEBAPEAUID3D11BlendState@@XZ 0000000140036654     DirectXTK:CommonStates.obj
 0002:0000a654       $stateUnwindMap$?DepthNone@CommonStates@DirectX@@QEBAPEAUID3D11DepthStencilState@@XZ 0000000140036654     DirectXTK:CommonStates.obj
 0002:0000a654       $stateUnwindMap$?CullCounterClockwise@CommonStates@DirectX@@QEBAPEAUID3D11RasterizerState@@XZ 0000000140036654     DirectXTK:CommonStates.obj
 0002:0000a654       $stateUnwindMap$?LinearClamp@CommonStates@DirectX@@QEBAPEAUID3D11SamplerState@@XZ 0000000140036654     DirectXTK:CommonStates.obj
 0002:0000a668       $ip2state$?AlphaBlend@CommonStates@DirectX@@QEBAPEAUID3D11BlendState@@XZ 0000000140036668     DirectXTK:CommonStates.obj
 0002:0000a690       $unwind$?DepthNone@CommonStates@DirectX@@QEBAPEAUID3D11DepthStencilState@@XZ 0000000140036690     DirectXTK:CommonStates.obj
 0002:0000a6b0       $ip2state$?DepthNone@CommonStates@DirectX@@QEBAPEAUID3D11DepthStencilState@@XZ 00000001400366b0     DirectXTK:CommonStates.obj
 0002:0000a6d8       $unwind$?CullCounterClockwise@CommonStates@DirectX@@QEBAPEAUID3D11RasterizerState@@XZ 00000001400366d8     DirectXTK:CommonStates.obj
 0002:0000a6f8       $ip2state$?CullCounterClockwise@CommonStates@DirectX@@QEBAPEAUID3D11RasterizerState@@XZ 00000001400366f8     DirectXTK:CommonStates.obj
 0002:0000a720       $unwind$?LinearClamp@CommonStates@DirectX@@QEBAPEAUID3D11SamplerState@@XZ 0000000140036720     DirectXTK:CommonStates.obj
 0002:0000a740       $ip2state$?LinearClamp@CommonStates@DirectX@@QEBAPEAUID3D11SamplerState@@XZ 0000000140036740     DirectXTK:CommonStates.obj
 0002:0000a768       $unwind$??_GCommonStates@DirectX@@UEAAPEAXI@Z 0000000140036768     DirectXTK:CommonStates.obj
 0002:0000a770       $chain$1$??_GCommonStates@DirectX@@UEAAPEAXI@Z 0000000140036770     DirectXTK:CommonStates.obj
 0002:0000a788       $chain$2$??_GCommonStates@DirectX@@UEAAPEAXI@Z 0000000140036788     DirectXTK:CommonStates.obj
 0002:0000a79c       $chain$3$??_GCommonStates@DirectX@@UEAAPEAXI@Z 000000014003679c     DirectXTK:CommonStates.obj
 0002:0000a7ac       $chain$4$??_GCommonStates@DirectX@@UEAAPEAXI@Z 00000001400367ac     DirectXTK:CommonStates.obj
 0002:0000a7bc       $unwind$??1Impl@CommonStates@DirectX@@QEAA@XZ 00000001400367bc     DirectXTK:CommonStates.obj
 0002:0000a7d0       $ip2state$??1Impl@CommonStates@DirectX@@QEAA@XZ 00000001400367d0     DirectXTK:CommonStates.obj
 0002:0000a7d8       $unwind$?DemandCreate@?$SharedResourcePool@PEAUID3D11Device@@VImpl@CommonStates@DirectX@@$$V@DirectX@@QEAA?AV?$shared_ptr@VImpl@CommonStates@DirectX@@@std@@PEAUID3D11Device@@@Z 00000001400367d8     DirectXTK:CommonStates.obj
 0002:0000a7fc       $stateUnwindMap$?DemandCreate@?$SharedResourcePool@PEAUID3D11Device@@VImpl@CommonStates@DirectX@@$$V@DirectX@@QEAA?AV?$shared_ptr@VImpl@CommonStates@DirectX@@@std@@PEAUID3D11Device@@@Z 00000001400367fc     DirectXTK:CommonStates.obj
 0002:0000a820       $ip2state$?DemandCreate@?$SharedResourcePool@PEAUID3D11Device@@VImpl@CommonStates@DirectX@@$$V@DirectX@@QEAA?AV?$shared_ptr@VImpl@CommonStates@DirectX@@@std@@PEAUID3D11Device@@@Z 0000000140036820     DirectXTK:CommonStates.obj
 0002:0000a860       $unwind$??__E?instancePool@Impl@CommonStates@DirectX@@2V?$SharedResourcePool@PEAUID3D11Device@@VImpl@CommonStates@DirectX@@$$V@3@A@@YAXXZ 0000000140036860     DirectXTK:CommonStates.obj
 0002:0000a878       $ip2state$??__E?instancePool@Impl@CommonStates@DirectX@@2V?$SharedResourcePool@PEAUID3D11Device@@VImpl@CommonStates@DirectX@@$$V@3@A@@YAXXZ 0000000140036878     DirectXTK:CommonStates.obj
 0002:0000a888       $chain$0$??__F?instancePool@Impl@CommonStates@DirectX@@2V?$SharedResourcePool@PEAUID3D11Device@@VImpl@CommonStates@DirectX@@$$V@3@A@@YAXXZ 0000000140036888     DirectXTK:CommonStates.obj
 0002:0000a89c       $chain$1$??__F?instancePool@Impl@CommonStates@DirectX@@2V?$SharedResourcePool@PEAUID3D11Device@@VImpl@CommonStates@DirectX@@$$V@3@A@@YAXXZ 000000014003689c     DirectXTK:CommonStates.obj
 0002:0000a8ac       $unwind$?_Destroy@?$_Ref_count_obj@UWrappedData@?$SharedResourcePool@PEAUID3D11Device@@VImpl@CommonStates@DirectX@@$$V@DirectX@@@std@@EEAAXXZ 00000001400368ac     DirectXTK:CommonStates.obj
 0002:0000a8c8       $ip2state$?_Destroy@?$_Ref_count_obj@UWrappedData@?$SharedResourcePool@PEAUID3D11Device@@VImpl@CommonStates@DirectX@@$$V@DirectX@@@std@@EEAAXXZ 00000001400368c8     DirectXTK:CommonStates.obj
 0002:0000a8d8       $unwind$??0BinaryReader@DirectX@@QEAA@PEB_W@Z 00000001400368d8     DirectXTK:BinaryReader.obj
 0002:0000a8f0       $stateUnwindMap$??0BinaryReader@DirectX@@QEAA@PEB_W@Z 00000001400368f0     DirectXTK:BinaryReader.obj
 0002:0000a8f8       $ip2state$??0BinaryReader@DirectX@@QEAA@PEB_W@Z 00000001400368f8     DirectXTK:BinaryReader.obj
 0002:0000a900       $unwind$?ReadEntireFile@BinaryReader@DirectX@@SAJPEB_WAEAV?$unique_ptr@$$BY0A@EU?$default_delete@$$BY0A@E@std@@@std@@PEA_K@Z 0000000140036900     DirectXTK:BinaryReader.obj
 0002:0000a91c       $stateUnwindMap$?ReadEntireFile@BinaryReader@DirectX@@SAJPEB_WAEAV?$unique_ptr@$$BY0A@EU?$default_delete@$$BY0A@E@std@@@std@@PEA_K@Z 000000014003691c     DirectXTK:BinaryReader.obj
 0002:0000a928       $ip2state$?ReadEntireFile@BinaryReader@DirectX@@SAJPEB_WAEAV?$unique_ptr@$$BY0A@EU?$default_delete@$$BY0A@E@std@@@std@@PEA_K@Z 0000000140036928     DirectXTK:BinaryReader.obj
 0002:0000a938       $unwind$??1_Fac_tidy_reg_t@std@@QEAA@XZ 0000000140036938     msvcprt:locale0_implib.obj
 0002:0000a948       $ip2state$??1_Fac_tidy_reg_t@std@@QEAA@XZ 0000000140036948     msvcprt:locale0_implib.obj
 0002:0000a950       $xdatasym                  0000000140036950     MSVCRT:amdsecgs.obj
 0002:0000a954       $unwind$?__scrt_initialize_thread_safe_statics@@YAHXZ 0000000140036954     MSVCRT:thread_safe_statics.obj
 0002:0000a970       $ip2state$?__scrt_initialize_thread_safe_statics@@YAHXZ 0000000140036970     MSVCRT:thread_safe_statics.obj
 0002:0000a978       $unwind$?__scrt_common_main_seh@@YAHXZ 0000000140036978     MSVCRT:exe_winmain.obj
 0002:0000a9ac       $unwind$__scrt_is_nonwritable_in_current_image 00000001400369ac     MSVCRT:utility.obj
 0002:0000a9cc       $unwind$__scrt_is_nonwritable_in_current_image$filt$0 00000001400369cc     MSVCRT:utility.obj
 0002:0000a9d4       $unwind$__GSHandlerCheckCommon 00000001400369d4     MSVCRT:gshandler.obj
 0002:0000a9dc       $unwind$__GSHandlerCheck_EH 00000001400369dc     MSVCRT:gshandlereh.obj
 0002:0000a9f4       $unwind$__report_gsfailure 00000001400369f4     MSVCRT:gs_report.obj
 0002:0000a9fc       $unwind$capture_previous_context 00000001400369fc     MSVCRT:gs_report.obj
 0002:0000aa08       $unwind$__scrt_get_show_window_mode 0000000140036a08     MSVCRT:utility_desktop.obj
 0002:0000aa10       $unwind$__scrt_fastfail    0000000140036a10     MSVCRT:utility_desktop.obj
 0002:0000aa20       $unwind$??2@YAPEAX_KAEBUnothrow_t@std@@@Z 0000000140036a20     MSVCRT:new_scalar_nothrow.obj
 0002:0000aa30       $tryMap$??2@YAPEAX_KAEBUnothrow_t@std@@@Z 0000000140036a30     MSVCRT:new_scalar_nothrow.obj
 0002:0000aa44       $handlerMap$0$??2@YAPEAX_KAEBUnothrow_t@std@@@Z 0000000140036a44     MSVCRT:new_scalar_nothrow.obj
 0002:0000aa58       $ip2state$??2@YAPEAX_KAEBUnothrow_t@std@@@Z 0000000140036a58     MSVCRT:new_scalar_nothrow.obj
 0002:0000aa60       $unwind$?catch$0@?0???2@YAPEAX_KAEBUnothrow_t@std@@@Z@4HA 0000000140036a60     MSVCRT:new_scalar_nothrow.obj
 0002:0000aa70       $unwind$__security_init_cookie 0000000140036a70     MSVCRT:gs_support.obj
 0002:0000aa7c       $unwind$__isa_available_init 0000000140036a7c     MSVCRT:cpu_disp.obj
 0002:0000aa90       $xdatasym                  0000000140036a90     MSVCRT:guard_dispatch.obj
 0002:0000b5f2       .idata$6                   00000001400375f2     kernel32:KERNEL32.dll
 0002:0000b71e       .idata$6                   000000014003771e     user32:USER32.dll
 0002:0000b73c       .idata$6                   000000014003773c     gdi32:GDI32.dll
 0002:0000b76e       .idata$6                   000000014003776e     ole32:ole32.dll
 0002:0000c052       .idata$6                   0000000140038052     msvcprt:MSVCP140.dll
 0002:0000c080       .idata$6                   0000000140038080     d3d11:d3d11.dll
 0002:0000c09e       .idata$6                   000000014003809e     DXGI:dxgi.dll
 0002:0000c0be       .idata$6                   00000001400380be     dinput8:DINPUT8.dll
 0002:0000c0ca       .idata$6                   00000001400380ca     dsound:DSOUND.dll
 0002:0000c0e4       .idata$6                   00000001400380e4     winmm:WINMM.dll
 0002:0000c104       .idata$6                   0000000140038104     D3DCompiler:D3DCOMPILER_47.dll
 0002:0000c12c       .idata$6                   000000014003812c     dbghelp:dbghelp.dll
 0002:0000c1d4       .idata$6                   00000001400381d4     vcruntime:VCRUNTIME140.dll
 0002:0000c546       .idata$6                   0000000140038546     ucrt:api-ms-win-crt-stdio-l1-1-0.dll
 0002:0000c566       .idata$6                   0000000140038566     ucrt:api-ms-win-crt-filesystem-l1-1-0.dll
 0002:0000c58c       .idata$6                   000000014003858c     ucrt:api-ms-win-crt-runtime-l1-1-0.dll
 0002:0000c5ae       .idata$6                   00000001400385ae     ucrt:api-ms-win-crt-utility-l1-1-0.dll
 0002:0000c5d0       .idata$6                   00000001400385d0     ucrt:api-ms-win-crt-time-l1-1-0.dll
 0002:0000c5f0       .idata$6                   00000001400385f0     ucrt:api-ms-win-crt-convert-l1-1-0.dll
 0002:0000c612       .idata$6                   0000000140038612     ucrt:api-ms-win-crt-heap-l1-1-0.dll
 0002:0000c632       .idata$6                   0000000140038632     ucrt:api-ms-win-crt-string-l1-1-0.dll
 0002:0000c654       .idata$6                   0000000140038654     ucrt:api-ms-win-crt-math-l1-1-0.dll
 0002:0000c674       .idata$6                   0000000140038674     ucrt:api-ms-win-crt-locale-l1-1-0.dll
 0003:00000000       ?cornerOffsets@?1??RenderSprite@Impl@SpriteBatch@DirectX@@CQXPEBUSpriteInfo@234@PEAUVertexPositionColorTexture@4@T__m128@@2@Z@4PAUXMVECTORF32@4@A 0000000140039000     DirectXTK:SpriteBatch.obj
 0003:00000040       ?axisDirectionTable@?1??DrawString@SpriteFont@DirectX@@QEBQXPEAVSpriteBatch@3@PEB_WT__m128@@2M22W4SpriteEffects@3@M@Z@4PAUXMVECTORF32@3@A 0000000140039040     DirectXTK:SpriteFont.obj
 0003:00000080       ?axisIsMirroredTable@?1??DrawString@SpriteFont@DirectX@@QEBQXPEAVSpriteBatch@3@PEB_WT__m128@@2M22W4SpriteEffects@3@M@Z@4PAUXMVECTORF32@3@A 0000000140039080     DirectXTK:SpriteFont.obj
 0003:000000c0       c_rgodfDIMouse             00000001400390c0     dinput8:dilib1.obj
 0003:000001b0       ?g_WICFormats@?A0x045efb5a@@3QBUWICTranslate@1@B 00000001400391b0     WICTextureLoader.obj
 0003:00000ba0       ??_R0?AV<lambda_1856210cd80753f453a720b271b36d84>@@@8 0000000140039ba0     MyWindow.obj
 0003:00000be0       ??_R0?AV<lambda_8428100451a99eadb03cdd6da5665923>@@@8 0000000140039be0     MyWindow.obj
 0003:00000c20       ??_R0?AV?$_Func_impl_no_alloc@V<lambda_b380b310eac20a0affe63a9a70f9138e>@@X$$V@std@@@8 0000000140039c20     MyWindow.obj
 0003:00000c90       ??_R0?AV?$_Func_impl_no_alloc@V<lambda_1856210cd80753f453a720b271b36d84>@@X$$V@std@@@8 0000000140039c90     MyWindow.obj
 0003:00000d30       ??_R0?AV?$_Func_impl_no_alloc@V<lambda_8428100451a99eadb03cdd6da5665923>@@X$$V@std@@@8 0000000140039d30     MyWindow.obj
 0003:00000da0       ??_R0?AV?$_Func_impl_no_alloc@V<lambda_5f9abd3739344823e020e2d1c2ef80c6>@@X$$V@std@@@8 0000000140039da0     MyWindow.obj
 0003:00000e10       ??_R0?AV<lambda_5f9abd3739344823e020e2d1c2ef80c6>@@@8 0000000140039e10     MyWindow.obj
 0003:00000e50       ??_R0?AV<lambda_b380b310eac20a0affe63a9a70f9138e>@@@8 0000000140039e50     MyWindow.obj
 0003:00000e90       ??_R0?AV?$_Func_impl_no_alloc@V<lambda_f96e08f4b5f6c13e985e24a004212e97>@@X$$V@std@@@8 0000000140039e90     MyWindow.obj
 0003:00000f00       ??_R0?AV?$_Func_impl_no_alloc@V<lambda_b08b30c21e5111fbb4fbffe517896bc0>@@X$$V@std@@@8 0000000140039f00     MyWindow.obj
 0003:00000f70       ??_R0?AV<lambda_f96e08f4b5f6c13e985e24a004212e97>@@@8 0000000140039f70     MyWindow.obj
 0003:00000fb0       ??_R0?AV<lambda_b08b30c21e5111fbb4fbffe517896bc0>@@@8 0000000140039fb0     MyWindow.obj
 0003:00000ff0       ??_R0?AV?$_Func_impl_no_alloc@V<lambda_3775f2d2be3acf40b03245c878d70ee1>@@X$$V@std@@@8 0000000140039ff0     MyWindow.obj
 0003:00001060       ??_R0?AV<lambda_3775f2d2be3acf40b03245c878d70ee1>@@@8 000000014003a060     MyWindow.obj
 0003:00001110       ??_R0?AV<lambda_3de1022e0e4f3428918652e077d8319b>@@@8 000000014003a110     Shop.obj
 0003:00001150       ??_R0?AV<lambda_e15a1fae8d706ca9371bd1c03b271ef7>@@@8 000000014003a150     Shop.obj
 0003:00001190       ??_R0?AV<lambda_e4cb84e2ef1f0348c8ad9af04ceb4c4f>@@@8 000000014003a190     Shop.obj
 0003:000011d0       ??_R0?AV?$_Func_impl_no_alloc@V<lambda_e15a1fae8d706ca9371bd1c03b271ef7>@@X$$V@std@@@8 000000014003a1d0     Shop.obj
 0003:00001240       ??_R0?AV?$_Func_impl_no_alloc@V<lambda_d2a719c930d707c67105e86afa12be81>@@X$$V@std@@@8 000000014003a240     Shop.obj
 0003:000012b0       ??_R0?AV<lambda_d2a719c930d707c67105e86afa12be81>@@@8 000000014003a2b0     Shop.obj
 0003:000012f0       ??_R0?AV?$_Func_impl_no_alloc@V<lambda_e4cb84e2ef1f0348c8ad9af04ceb4c4f>@@X$$V@std@@@8 000000014003a2f0     Shop.obj
 0003:00001360       ??_R0?AV?$_Func_impl_no_alloc@V<lambda_3de1022e0e4f3428918652e077d8319b>@@X$$V@std@@@8 000000014003a360     Shop.obj
 0003:000013d0       ??_R0?AV?$_Func_impl_no_alloc@V<lambda_414998facd772942244f71127261ad86>@@X$$V@std@@@8 000000014003a3d0     Shop.obj
 0003:00001440       ??_R0?AV<lambda_414998facd772942244f71127261ad86>@@@8 000000014003a440     Shop.obj
 0003:00001600       ?_Fac_tidy_reg@std@@3U_Fac_tidy_reg_t@1@B 000000014003a600     msvcprt:locale0_implib.obj
 0003:00001608       ?_Fac_head@std@@3PEAU_Fac_node@1@EA 000000014003a608     msvcprt:locale0_implib.obj
 0003:00001618       ?_Tss_mutex@@3U_RTL_CRITICAL_SECTION@@A 000000014003a618     MSVCRT:thread_safe_statics.obj
 0003:00001640       ?_Tss_cv@@3U_RTL_CONDITION_VARIABLE@@A 000000014003a640     MSVCRT:thread_safe_statics.obj
 0003:00001648       ?_Tss_event@@3PEAXEA       000000014003a648     MSVCRT:thread_safe_statics.obj
 0003:00001650       ?encoded_sleep_condition_variable_cs@@3P6AHPEAU_RTL_CONDITION_VARIABLE@@PEAU_RTL_CRITICAL_SECTION@@K@ZEA 000000014003a650     MSVCRT:thread_safe_statics.obj
 0003:00001658       ?encoded_wake_all_condition_variable@@3P6AXPEAU_RTL_CONDITION_VARIABLE@@@ZEA 000000014003a658     MSVCRT:thread_safe_statics.obj
 0003:00001670       ?is_initialized_as_dll@@3_NA 000000014003a670     MSVCRT:utility.obj
 0003:00001671       ?module_local_atexit_table_initialized@@3_NA 000000014003a671     MSVCRT:utility.obj
 0003:00001678       ?module_local_atexit_table@@3U_onexit_table_t@@A 000000014003a678     MSVCRT:utility.obj
 0003:00001690       ?module_local_at_quick_exit_table@@3U_onexit_table_t@@A 000000014003a690     MSVCRT:utility.obj
 0003:000016b0       GS_ExceptionRecord         000000014003a6b0     MSVCRT:gs_report.obj
 0003:00001750       GS_ContextRecord           000000014003a750     MSVCRT:gs_report.obj
 0003:00001c60       ?frameCounter@?1??Run@MyWindow@@AEAA_NXZ@4HA 000000014003ac60     MyWindow.obj
 0003:00001c64       ?currentFrame@?1??CalcFPS@MyWindow@@AEAAXXZ@4HA 000000014003ac64     MyWindow.obj
 0003:00001c78       ?ApplicationHandle@@3PEAVMyWindow@@EA 000000014003ac78     MyWindow.obj
 0003:00001c80       ?g_WICConvert@?A0x045efb5a@@3QBUWICConvert@1@B 000000014003ac80     WICTextureLoader.obj
 0003:00002160       ?s_initOnce@?1??_GetWIC@?A0x045efb5a@@YAPEAUIWICImagingFactory@@XZ@4T_RTL_RUN_ONCE@@A 000000014003b160     WICTextureLoader.obj
 0003:00002168       ?prevTicks@?1??CalcFPS@MyWindow@@AEAAXXZ@4MA 000000014003b168     MyWindow.obj
 0003:0000216c       ?$TSS0@?1??CalcFPS@MyWindow@@AEAAXXZ@4HA 000000014003b16c     MyWindow.obj
 0003:00002170       ?frameTimes@?1??CalcFPS@MyWindow@@AEAAXXZ@4PAMA 000000014003b170     MyWindow.obj
 0004:00000000       $pdata$??__E?contextResourcesPool@Impl@SpriteBatch@DirectX@@0V?$SharedResourcePool@PEAUID3D11DeviceContext@@UContextResources@Impl@SpriteBatch@DirectX@@$$V@3@A@@YAXXZ 000000014003c000     DirectXTK:SpriteBatch.obj
 0004:0000000c       $pdata$??__E?deviceResourcesPool@Impl@SpriteBatch@DirectX@@0V?$SharedResourcePool@PEAUID3D11Device@@UDeviceResources@Impl@SpriteBatch@DirectX@@$$V@3@A@@YAXXZ 000000014003c00c     DirectXTK:SpriteBatch.obj
 0004:00000018       $pdata$??__E?instancePool@Impl@CommonStates@DirectX@@2V?$SharedResourcePool@PEAUID3D11Device@@VImpl@CommonStates@DirectX@@$$V@3@A@@YAXXZ 000000014003c018     DirectXTK:CommonStates.obj
 0004:00000024       $pdata$??0exception@std@@QEAA@AEBV01@@Z 000000014003c024     Animation.obj
 0004:00000030       $pdata$??_Gbad_cast@std@@UEAAPEAXI@Z 000000014003c030     Animation.obj
 0004:00000030       $pdata$??_Gexception@std@@UEAAPEAXI@Z 000000014003c030     Animation.obj
 0004:0000003c       $pdata$??1locale@std@@QEAA@XZ 000000014003c03c     Animation.obj
 0004:00000048       $pdata$?XMVectorSin@DirectX@@YQ?AT__m128@@T2@@Z 000000014003c048     Animation.obj
 0004:00000054       $pdata$?XMVectorATan@DirectX@@YQ?AT__m128@@T2@@Z 000000014003c054     Animation.obj
 0004:00000060       $pdata$?XMVectorATan2@DirectX@@YQ?AT__m128@@T2@0@Z 000000014003c060     Animation.obj
 0004:0000006c       $pdata$?XMMatrixMultiply@DirectX@@YQ?AUXMMATRIX@1@U21@AEBU21@@Z 000000014003c06c     Animation.obj
 0004:00000078       $pdata$?XMMatrixInverse@DirectX@@YQ?AUXMMATRIX@1@PEAT__m128@@U21@@Z 000000014003c078     Animation.obj
 0004:00000084       $pdata$?XMQuaternionSlerpV@DirectX@@YQ?AT__m128@@T2@00@Z 000000014003c084     Animation.obj
 0004:00000090       $pdata$?XMQuaternionRotationMatrix@DirectX@@YQ?AT__m128@@UXMMATRIX@1@@Z 000000014003c090     Animation.obj
 0004:0000009c       $pdata$??1anim_clip@@QEAA@XZ 000000014003c09c     Animation.obj
 0004:000000a8       $pdata$?RecursiveJointCalc@Animation@@QEAA?AV?$array@Ufloat4@@$03@std@@IAEAV?$vector@V?$array@Ufloat4@@$03@std@@V?$allocator@V?$array@Ufloat4@@$03@std@@@2@@3@AEAV?$vector@HV?$allocator@H@std@@@3@@Z 000000014003c0a8     Animation.obj
 0004:000000b4       $pdata$?Flatten@Animation@@QEAA?AV?$vector@V?$array@Ufloat4@@$03@std@@V?$allocator@V?$array@Ufloat4@@$03@std@@@2@@std@@V23@V?$vector@HV?$allocator@H@std@@@3@@Z 000000014003c0b4     Animation.obj
 0004:000000c0       $pdata$??0Animation@@QEAA@PEBDPEAUID3D11Device@@@Z 000000014003c0c0     Animation.obj
 0004:000000cc       $pdata$?ReadAnimFile@Animation@@QEAAXPEBDPEAUID3D11Device@@@Z 000000014003c0cc     Animation.obj
 0004:000000d8       $pdata$??_D?$basic_fstream@DU?$char_traits@D@std@@@std@@QEAAXXZ 000000014003c0d8     Animation.obj
 0004:000000e4       $pdata$?LerpJoints@Animation@@QEAA?AV?$vector@V?$array@Ufloat4@@$03@std@@V?$allocator@V?$array@Ufloat4@@$03@std@@@2@@std@@V23@0MV?$vector@HV?$allocator@H@std@@@3@@Z 000000014003c0e4     Animation.obj
 0004:000000f0       $pdata$?SetJoints@Animation@@QEAAXM@Z 000000014003c0f0     Animation.obj
 0004:000000fc       $pdata$??1?$vector@IV?$allocator@I@std@@@std@@QEAA@XZ 000000014003c0fc     graphicsclass.obj
 0004:000000fc       $pdata$??1?$vector@HV?$allocator@H@std@@@std@@QEAA@XZ 000000014003c0fc     Animation.obj
 0004:00000108       $pdata$??0?$vector@IV?$allocator@I@std@@@std@@QEAA@AEBV01@@Z 000000014003c108     Model.obj
 0004:00000108       $pdata$??0?$vector@HV?$allocator@H@std@@@std@@QEAA@AEBV01@@Z 000000014003c108     Animation.obj
 0004:00000114       $pdata$0$??0?$vector@IV?$allocator@I@std@@@std@@QEAA@AEBV01@@Z 000000014003c114     Model.obj
 0004:00000114       $pdata$0$??0?$vector@HV?$allocator@H@std@@@std@@QEAA@AEBV01@@Z 000000014003c114     Animation.obj
 0004:00000120       $pdata$1$??0?$vector@HV?$allocator@H@std@@@std@@QEAA@AEBV01@@Z 000000014003c120     Animation.obj
 0004:00000120       $pdata$1$??0?$vector@IV?$allocator@I@std@@@std@@QEAA@AEBV01@@Z 000000014003c120     Model.obj
 0004:0000012c       $pdata$??1?$vector@V?$array@Ufloat4@@$03@std@@V?$allocator@V?$array@Ufloat4@@$03@std@@@2@@std@@QEAA@XZ 000000014003c12c     Animation.obj
 0004:0000012c       $pdata$?_Tidy@?$vector@V?$array@Ufloat4@@$03@std@@V?$allocator@V?$array@Ufloat4@@$03@std@@@2@@std@@AEAAXXZ 000000014003c12c     Animation.obj
 0004:00000138       $pdata$??0?$vector@V?$array@Ufloat4@@$03@std@@V?$allocator@V?$array@Ufloat4@@$03@std@@@2@@std@@QEAA@AEBV01@@Z 000000014003c138     Animation.obj
 0004:00000144       $pdata$0$??0?$vector@V?$array@Ufloat4@@$03@std@@V?$allocator@V?$array@Ufloat4@@$03@std@@@2@@std@@QEAA@AEBV01@@Z 000000014003c144     Animation.obj
 0004:00000150       $pdata$1$??0?$vector@V?$array@Ufloat4@@$03@std@@V?$allocator@V?$array@Ufloat4@@$03@std@@@2@@std@@QEAA@AEBV01@@Z 000000014003c150     Animation.obj
 0004:0000015c       $pdata$??1?$basic_string@DU?$char_traits@D@std@@V?$allocator@D@2@@std@@QEAA@XZ 000000014003c15c     Animation.obj
 0004:0000015c       $pdata$?_Tidy_deallocate@?$basic_string@DU?$char_traits@D@std@@V?$allocator@D@2@@std@@QEAAXXZ 000000014003c15c     Animation.obj
 0004:00000168       $pdata$??0?$basic_fstream@DU?$char_traits@D@std@@@std@@QEAA@PEBDHH@Z 000000014003c168     Animation.obj
 0004:00000174       $pdata$?imbue@?$basic_filebuf@DU?$char_traits@D@std@@@std@@MEAAXAEBVlocale@2@@Z 000000014003c174     Animation.obj
 0004:00000180       $pdata$?sync@?$basic_filebuf@DU?$char_traits@D@std@@@std@@MEAAHXZ 000000014003c180     Animation.obj
 0004:0000018c       $pdata$?setbuf@?$basic_filebuf@DU?$char_traits@D@std@@@std@@MEAAPEAV?$basic_streambuf@DU?$char_traits@D@std@@@2@PEAD_J@Z 000000014003c18c     Animation.obj
 0004:00000198       $pdata$?seekpos@?$basic_filebuf@DU?$char_traits@D@std@@@std@@MEAA?AV?$fpos@U_Mbstatet@@@2@V32@H@Z 000000014003c198     Animation.obj
 0004:000001a4       $pdata$?seekoff@?$basic_filebuf@DU?$char_traits@D@std@@@std@@MEAA?AV?$fpos@U_Mbstatet@@@2@_JHH@Z 000000014003c1a4     Animation.obj
 0004:000001b0       $pdata$?xsputn@?$basic_filebuf@DU?$char_traits@D@std@@@std@@MEAA_JPEBD_J@Z 000000014003c1b0     Animation.obj
 0004:000001bc       $pdata$?xsgetn@?$basic_filebuf@DU?$char_traits@D@std@@@std@@MEAA_JPEAD_J@Z 000000014003c1bc     Animation.obj
 0004:000001c8       $pdata$?uflow@?$basic_filebuf@DU?$char_traits@D@std@@@std@@MEAAHXZ 000000014003c1c8     Animation.obj
 0004:000001d4       $pdata$?underflow@?$basic_filebuf@DU?$char_traits@D@std@@@std@@MEAAHXZ 000000014003c1d4     Animation.obj
 0004:000001e0       $pdata$0$?underflow@?$basic_filebuf@DU?$char_traits@D@std@@@std@@MEAAHXZ 000000014003c1e0     Animation.obj
 0004:000001ec       $pdata$2$?underflow@?$basic_filebuf@DU?$char_traits@D@std@@@std@@MEAAHXZ 000000014003c1ec     Animation.obj
 0004:000001f8       $pdata$?pbackfail@?$basic_filebuf@DU?$char_traits@D@std@@@std@@MEAAHH@Z 000000014003c1f8     Animation.obj
 0004:00000204       $pdata$?overflow@?$basic_filebuf@DU?$char_traits@D@std@@@std@@MEAAHH@Z 000000014003c204     Animation.obj
 0004:00000210       $pdata$0$?overflow@?$basic_filebuf@DU?$char_traits@D@std@@@std@@MEAAHH@Z 000000014003c210     Animation.obj
 0004:0000021c       $pdata$1$?overflow@?$basic_filebuf@DU?$char_traits@D@std@@@std@@MEAAHH@Z 000000014003c21c     Animation.obj
 0004:00000228       $pdata$??1?$basic_filebuf@DU?$char_traits@D@std@@@std@@UEAA@XZ 000000014003c228     Animation.obj
 0004:00000234       $pdata$??_G?$basic_fstream@DU?$char_traits@D@std@@@std@@UEAAPEAXI@Z 000000014003c234     Animation.obj
 0004:00000240       $pdata$??_G?$basic_filebuf@DU?$char_traits@D@std@@@std@@UEAAPEAXI@Z 000000014003c240     Animation.obj
 0004:0000024c       $pdata$?_Tidy@?$vector@Ukeyframe@@V?$allocator@Ukeyframe@@@std@@@std@@AEAAXXZ 000000014003c24c     Animation.obj
 0004:00000258       $pdata$?_Buy@?$vector@V?$array@Ufloat4@@$03@std@@V?$allocator@V?$array@Ufloat4@@$03@std@@@2@@std@@AEAA_N_K@Z 000000014003c258     Animation.obj
 0004:00000264       $pdata$?_Endwrite@?$basic_filebuf@DU?$char_traits@D@std@@@std@@IEAA_NXZ 000000014003c264     Animation.obj
 0004:00000270       $pdata$?_Init@?$basic_filebuf@DU?$char_traits@D@std@@@std@@IEAAXPEAU_iobuf@@W4_Initfl@12@@Z 000000014003c270     Animation.obj
 0004:0000027c       $pdata$?close@?$basic_filebuf@DU?$char_traits@D@std@@@std@@QEAAPEAV12@XZ 000000014003c27c     Animation.obj
 0004:00000288       $pdata$?open@?$basic_filebuf@DU?$char_traits@D@std@@@std@@QEAAPEAV12@PEBDHH@Z 000000014003c288     Animation.obj
 0004:00000294       $pdata$?_Xlength@?$vector@V?$array@Ufloat4@@$03@std@@V?$allocator@V?$array@Ufloat4@@$03@std@@@2@@std@@CAXXZ 000000014003c294     Animation.obj
 0004:00000294       $pdata$?_Xlength@?$vector@PEAVGameObject@@V?$allocator@PEAVGameObject@@@std@@@std@@CAXXZ 000000014003c294     EnemyManager.obj
 0004:00000294       $pdata$?_Xlength@?$vector@USphere@@V?$allocator@USphere@@@std@@@std@@CAXXZ 000000014003c294     GameObject.obj
 0004:00000294       $pdata$?_Xlength@?$vector@Ukeyframe@@V?$allocator@Ukeyframe@@@std@@@std@@CAXXZ 000000014003c294     Animation.obj
 0004:00000294       $pdata$?_Xlength@?$vector@PEAVPickup@@V?$allocator@PEAVPickup@@@std@@@std@@CAXXZ 000000014003c294     GameManager.obj
 0004:00000294       $pdata$?_Xlength@?$vector@PEAVSound@@V?$allocator@PEAVSound@@@std@@@std@@CAXXZ 000000014003c294     Enemy.obj
 0004:00000294       $pdata$?_Xlength@?$vector@PEAVBullet@@V?$allocator@PEAVBullet@@@std@@@std@@CAXXZ 000000014003c294     GameManager.obj
 0004:00000294       $pdata$?_Xlength@?$vector@PEAVEnemy@@V?$allocator@PEAVEnemy@@@std@@@std@@CAXXZ 000000014003c294     EnemyManager.obj
 0004:00000294       $pdata$?_Xlength@?$vector@PEAVGun@@V?$allocator@PEAVGun@@@std@@@std@@CAXXZ 000000014003c294     GameManager.obj
 0004:00000294       $pdata$?_Xlength@?$vector@IV?$allocator@I@std@@@std@@CAXXZ 000000014003c294     Model.obj
 0004:00000294       $pdata$?_Xlength@?$vector@UVertex@@V?$allocator@UVertex@@@std@@@std@@CAXXZ 000000014003c294     Model.obj
 0004:00000294       $pdata$?_Xlength@?$vector@PEAVUIElement@@V?$allocator@PEAVUIElement@@@std@@@std@@CAXXZ 000000014003c294     UIManager.obj
 0004:00000294       $pdata$?_Xlength@?$vector@PEAVAnimation@@V?$allocator@PEAVAnimation@@@std@@@std@@CAXXZ 000000014003c294     GameObject.obj
 0004:00000294       $pdata$?_Xlength@?$vector@Umaterial_t@@V?$allocator@Umaterial_t@@@std@@@std@@CAXXZ 000000014003c294     Model.obj
 0004:00000294       $pdata$?_Xlength@?$vector@V?$array@D$0BAE@@std@@V?$allocator@V?$array@D$0BAE@@std@@@2@@std@@CAXXZ 000000014003c294     Model.obj
 0004:00000294       $pdata$?_Xlength@?$vector@HV?$allocator@H@std@@@std@@CAXXZ 000000014003c294     Animation.obj
 0004:000002a0       $pdata$??$_Emplace_reallocate@H@?$vector@HV?$allocator@H@std@@@std@@QEAAPEAHQEAH$$QEAH@Z 000000014003c2a0     GameObject.obj
 0004:000002a0       $pdata$??$_Emplace_reallocate@AEBH@?$vector@HV?$allocator@H@std@@@std@@QEAAPEAHQEAHAEBH@Z 000000014003c2a0     Animation.obj
 0004:000002ac       $pdata$2$??$_Emplace_reallocate@H@?$vector@HV?$allocator@H@std@@@std@@QEAAPEAHQEAH$$QEAH@Z 000000014003c2ac     GameObject.obj
 0004:000002ac       $pdata$2$??$_Emplace_reallocate@AEBH@?$vector@HV?$allocator@H@std@@@std@@QEAAPEAHQEAHAEBH@Z 000000014003c2ac     Animation.obj
 0004:000002b8       $pdata$4$??$_Emplace_reallocate@AEBH@?$vector@HV?$allocator@H@std@@@std@@QEAAPEAHQEAHAEBH@Z 000000014003c2b8     Animation.obj
 0004:000002b8       $pdata$4$??$_Emplace_reallocate@H@?$vector@HV?$allocator@H@std@@@std@@QEAAPEAHQEAH$$QEAH@Z 000000014003c2b8     GameObject.obj
 0004:000002c4       $pdata$5$??$_Emplace_reallocate@AEBH@?$vector@HV?$allocator@H@std@@@std@@QEAAPEAHQEAHAEBH@Z 000000014003c2c4     Animation.obj
 0004:000002c4       $pdata$5$??$_Emplace_reallocate@H@?$vector@HV?$allocator@H@std@@@std@@QEAAPEAHQEAH$$QEAH@Z 000000014003c2c4     GameObject.obj
 0004:000002d0       $pdata$??$_Resize@V<lambda_753cb66179afa6340adadd7109f91d2f>@@@?$vector@Ukeyframe@@V?$allocator@Ukeyframe@@@std@@@std@@AEAAX_KV<lambda_753cb66179afa6340adadd7109f91d2f>@@@Z 000000014003c2d0     Animation.obj
 0004:000002dc       $pdata$0$??$_Resize@V<lambda_753cb66179afa6340adadd7109f91d2f>@@@?$vector@Ukeyframe@@V?$allocator@Ukeyframe@@@std@@@std@@AEAAX_KV<lambda_753cb66179afa6340adadd7109f91d2f>@@@Z 000000014003c2dc     Animation.obj
 0004:000002e8       $pdata$1$??$_Resize@V<lambda_753cb66179afa6340adadd7109f91d2f>@@@?$vector@Ukeyframe@@V?$allocator@Ukeyframe@@@std@@@std@@AEAAX_KV<lambda_753cb66179afa6340adadd7109f91d2f>@@@Z 000000014003c2e8     Animation.obj
 0004:000002f4       $pdata$2$??$_Resize@V<lambda_753cb66179afa6340adadd7109f91d2f>@@@?$vector@Ukeyframe@@V?$allocator@Ukeyframe@@@std@@@std@@AEAAX_KV<lambda_753cb66179afa6340adadd7109f91d2f>@@@Z 000000014003c2f4     Animation.obj
 0004:00000300       $pdata$3$??$_Resize@V<lambda_753cb66179afa6340adadd7109f91d2f>@@@?$vector@Ukeyframe@@V?$allocator@Ukeyframe@@@std@@@std@@AEAAX_KV<lambda_753cb66179afa6340adadd7109f91d2f>@@@Z 000000014003c300     Animation.obj
 0004:0000030c       $pdata$??$_Resize@V<lambda_3bf83ccb702bae8a49d568d66998a612>@@@?$vector@V?$array@Ufloat4@@$03@std@@V?$allocator@V?$array@Ufloat4@@$03@std@@@2@@std@@AEAAX_KV<lambda_3bf83ccb702bae8a49d568d66998a612>@@@Z 000000014003c30c     Animation.obj
 0004:00000318       $pdata$0$??$_Resize@V<lambda_3bf83ccb702bae8a49d568d66998a612>@@@?$vector@V?$array@Ufloat4@@$03@std@@V?$allocator@V?$array@Ufloat4@@$03@std@@@2@@std@@AEAAX_KV<lambda_3bf83ccb702bae8a49d568d66998a612>@@@Z 000000014003c318     Animation.obj
 0004:00000324       $pdata$1$??$_Resize@V<lambda_3bf83ccb702bae8a49d568d66998a612>@@@?$vector@V?$array@Ufloat4@@$03@std@@V?$allocator@V?$array@Ufloat4@@$03@std@@@2@@std@@AEAAX_KV<lambda_3bf83ccb702bae8a49d568d66998a612>@@@Z 000000014003c324     Animation.obj
 0004:00000330       $pdata$??$_Emplace_reallocate@V?$array@Ufloat4@@$03@std@@@?$vector@V?$array@Ufloat4@@$03@std@@V?$allocator@V?$array@Ufloat4@@$03@std@@@2@@std@@QEAAPEAV?$array@Ufloat4@@$03@1@QEAV21@$$QEAV21@@Z 000000014003c330     Animation.obj
 0004:00000330       $pdata$??$_Emplace_reallocate@AEBV?$array@Ufloat4@@$03@std@@@?$vector@V?$array@Ufloat4@@$03@std@@V?$allocator@V?$array@Ufloat4@@$03@std@@@2@@std@@QEAAPEAV?$array@Ufloat4@@$03@1@QEAV21@AEBV21@@Z 000000014003c330     Animation.obj
 0004:0000033c       $pdata$2$??$_Emplace_reallocate@AEBV?$array@Ufloat4@@$03@std@@@?$vector@V?$array@Ufloat4@@$03@std@@V?$allocator@V?$array@Ufloat4@@$03@std@@@2@@std@@QEAAPEAV?$array@Ufloat4@@$03@1@QEAV21@AEBV21@@Z 000000014003c33c     Animation.obj
 0004:0000033c       $pdata$2$??$_Emplace_reallocate@V?$array@Ufloat4@@$03@std@@@?$vector@V?$array@Ufloat4@@$03@std@@V?$allocator@V?$array@Ufloat4@@$03@std@@@2@@std@@QEAAPEAV?$array@Ufloat4@@$03@1@QEAV21@$$QEAV21@@Z 000000014003c33c     Animation.obj
 0004:00000348       $pdata$3$??$_Emplace_reallocate@V?$array@Ufloat4@@$03@std@@@?$vector@V?$array@Ufloat4@@$03@std@@V?$allocator@V?$array@Ufloat4@@$03@std@@@2@@std@@QEAAPEAV?$array@Ufloat4@@$03@1@QEAV21@$$QEAV21@@Z 000000014003c348     Animation.obj
 0004:00000348       $pdata$3$??$_Emplace_reallocate@AEBV?$array@Ufloat4@@$03@std@@@?$vector@V?$array@Ufloat4@@$03@std@@V?$allocator@V?$array@Ufloat4@@$03@std@@@2@@std@@QEAAPEAV?$array@Ufloat4@@$03@1@QEAV21@AEBV21@@Z 000000014003c348     Animation.obj
 0004:00000354       $pdata$??$use_facet@V?$codecvt@DDU_Mbstatet@@@std@@@std@@YAAEBV?$codecvt@DDU_Mbstatet@@@0@AEBVlocale@0@@Z 000000014003c354     Animation.obj
 0004:00000360       $pdata$??$_Reallocate_grow_by@V<lambda_319d5e083f45f90dcdce5dce53cbb275>@@D@?$basic_string@DU?$char_traits@D@std@@V?$allocator@D@2@@std@@QEAAAEAV01@_KV<lambda_319d5e083f45f90dcdce5dce53cbb275>@@D@Z 000000014003c360     Animation.obj
 0004:0000036c       $pdata$2$??$_Reallocate_grow_by@V<lambda_319d5e083f45f90dcdce5dce53cbb275>@@D@?$basic_string@DU?$char_traits@D@std@@V?$allocator@D@2@@std@@QEAAAEAV01@_KV<lambda_319d5e083f45f90dcdce5dce53cbb275>@@D@Z 000000014003c36c     Animation.obj
 0004:00000378       $pdata$3$??$_Reallocate_grow_by@V<lambda_319d5e083f45f90dcdce5dce53cbb275>@@D@?$basic_string@DU?$char_traits@D@std@@V?$allocator@D@2@@std@@QEAAAEAV01@_KV<lambda_319d5e083f45f90dcdce5dce53cbb275>@@D@Z 000000014003c378     Animation.obj
 0004:00000384       $pdata$??$_Destroy_range@V?$allocator@Ukeyframe@@@std@@@std@@YAXPEAUkeyframe@@0AEAV?$allocator@Ukeyframe@@@0@@Z 000000014003c384     Animation.obj
 0004:00000390       $pdata$1$??$_Destroy_range@V?$allocator@Ukeyframe@@@std@@@std@@YAXPEAUkeyframe@@0AEAV?$allocator@Ukeyframe@@@0@@Z 000000014003c390     Animation.obj
 0004:0000039c       $pdata$2$??$_Destroy_range@V?$allocator@Ukeyframe@@@std@@@std@@YAXPEAUkeyframe@@0AEAV?$allocator@Ukeyframe@@@0@@Z 000000014003c39c     Animation.obj
 0004:000003a8       $pdata$3$??$_Destroy_range@V?$allocator@Ukeyframe@@@std@@@std@@YAXPEAUkeyframe@@0AEAV?$allocator@Ukeyframe@@@0@@Z 000000014003c3a8     Animation.obj
 0004:000003b4       $pdata$??0bad_cast@std@@QEAA@AEBV01@@Z 000000014003c3b4     Animation.obj
 0004:000003c0       $pdata$??1?$unique_ptr@V_Facet_base@std@@U?$default_delete@V_Facet_base@std@@@2@@std@@QEAA@XZ 000000014003c3c0     Animation.obj
 0004:000003cc       $pdata$?_Change_array@?$vector@V?$array@Ufloat4@@$03@std@@V?$allocator@V?$array@Ufloat4@@$03@std@@@2@@std@@AEAAXQEAV?$array@Ufloat4@@$03@2@_K1@Z 000000014003c3cc     Animation.obj
 0004:000003d8       $pdata$?_Xlen@?$basic_string@DU?$char_traits@D@std@@V?$allocator@D@2@@std@@SAXXZ 000000014003c3d8     Animation.obj
 0004:000003e4       $pdata$??$_Assign_range@PEAV?$array@Ufloat4@@$03@std@@@?$vector@V?$array@Ufloat4@@$03@std@@V?$allocator@V?$array@Ufloat4@@$03@std@@@2@@std@@AEAAXPEAV?$array@Ufloat4@@$03@1@0Uforward_iterator_tag@1@@Z 000000014003c3e4     Animation.obj
 0004:000003f0       $pdata$??0Bullet@@QEAA@M@Z 000000014003c3f0     Bullet.obj
 0004:000003fc       $pdata$?Initialize@Bullet@@QEAA_NPEAUID3D11Device@@PEBDUfloat3@@2V?$basic_string@DU?$char_traits@D@std@@V?$allocator@D@2@@std@@M@Z 000000014003c3fc     Bullet.obj
 0004:00000408       $pdata$?Update@Bullet@@UEAAXM@Z 000000014003c408     Bullet.obj
 0004:00000414       $pdata$??0?$basic_string@DU?$char_traits@D@std@@V?$allocator@D@2@@std@@QEAA@AEBV01@@Z 000000014003c414     Bullet.obj
 0004:00000420       $pdata$?assign@?$basic_string@DU?$char_traits@D@std@@V?$allocator@D@2@@std@@QEAAAEAV12@QEBD_K@Z 000000014003c420     Bullet.obj
 0004:0000042c       $pdata$0$?assign@?$basic_string@DU?$char_traits@D@std@@V?$allocator@D@2@@std@@QEAAAEAV12@QEBD_K@Z 000000014003c42c     Bullet.obj
 0004:00000438       $pdata$2$?assign@?$basic_string@DU?$char_traits@D@std@@V?$allocator@D@2@@std@@QEAAAEAV12@QEBD_K@Z 000000014003c438     Bullet.obj
 0004:00000444       $pdata$3$?assign@?$basic_string@DU?$char_traits@D@std@@V?$allocator@D@2@@std@@QEAAAEAV12@QEBD_K@Z 000000014003c444     Bullet.obj
 0004:00000450       $pdata$?XMVectorSinCos@DirectX@@YQXPEAT__m128@@0T2@@Z 000000014003c450     DebugCamera.obj
 0004:0000045c       $pdata$?XMMatrixRotationRollPitchYawFromVector@DirectX@@YQ?AUXMMATRIX@1@T__m128@@@Z 000000014003c45c     DebugCamera.obj
 0004:00000468       $pdata$?XMMatrixLookToLH@DirectX@@YQ?AUXMMATRIX@1@T__m128@@00@Z 000000014003c468     DebugCamera.obj
 0004:00000474       $pdata$?XMQuaternionRotationRollPitchYawFromVector@DirectX@@YQ?AT__m128@@T2@@Z 000000014003c474     DebugCamera.obj
 0004:00000480       $pdata$?Update@DebugCamera@@QEAAXXZ 000000014003c480     DebugCamera.obj
 0004:0000048c       $pdata$?SubHealth@Enemy@@QEAAXMW4DamageType@1@PEAUHWND__@@@Z 000000014003c48c     Enemy.obj
 0004:00000498       $pdata$??1?$vector@PEAVPickup@@V?$allocator@PEAVPickup@@@std@@@std@@QEAA@XZ 000000014003c498     graphicsclass.obj
 0004:00000498       $pdata$??1?$vector@PEAVGameObject@@V?$allocator@PEAVGameObject@@@std@@@std@@QEAA@XZ 000000014003c498     EnemyManager.obj
 0004:00000498       $pdata$??1?$vector@PEAVAnimation@@V?$allocator@PEAVAnimation@@@std@@@std@@QEAA@XZ 000000014003c498     GameObject.obj
 0004:00000498       $pdata$??1?$vector@PEAVEnemy@@V?$allocator@PEAVEnemy@@@std@@@std@@QEAA@XZ 000000014003c498     EnemyManager.obj
 0004:00000498       $pdata$??1?$vector@PEAVBullet@@V?$allocator@PEAVBullet@@@std@@@std@@QEAA@XZ 000000014003c498     graphicsclass.obj
 0004:00000498       $pdata$??1?$vector@PEAVSound@@V?$allocator@PEAVSound@@@std@@@std@@QEAA@XZ 000000014003c498     Enemy.obj
 0004:00000498       $pdata$??1?$vector@PEBUSpriteInfo@Impl@SpriteBatch@DirectX@@V?$allocator@PEBUSpriteInfo@Impl@SpriteBatch@DirectX@@@std@@@std@@QEAA@XZ 000000014003c498     DirectXTK:SpriteBatch.obj
 0004:00000498       $pdata$??1?$vector@PEAVGun@@V?$allocator@PEAVGun@@@std@@@std@@QEAA@XZ 000000014003c498     Player.obj
 0004:000004a4       $pdata$??0?$vector@PEAVBullet@@V?$allocator@PEAVBullet@@@std@@@std@@QEAA@AEBV01@@Z 000000014003c4a4     GameManager.obj
 0004:000004a4       $pdata$??0?$vector@PEAVPickup@@V?$allocator@PEAVPickup@@@std@@@std@@QEAA@AEBV01@@Z 000000014003c4a4     GameManager.obj
 0004:000004a4       $pdata$??0?$vector@PEAVGameObject@@V?$allocator@PEAVGameObject@@@std@@@std@@QEAA@AEBV01@@Z 000000014003c4a4     EnemyManager.obj
 0004:000004a4       $pdata$??0?$vector@PEAVEnemy@@V?$allocator@PEAVEnemy@@@std@@@std@@QEAA@AEBV01@@Z 000000014003c4a4     EnemyManager.obj
 0004:000004a4       $pdata$??0?$vector@PEAVSound@@V?$allocator@PEAVSound@@@std@@@std@@QEAA@AEBV01@@Z 000000014003c4a4     Enemy.obj
 0004:000004b0       $pdata$0$??0?$vector@PEAVBullet@@V?$allocator@PEAVBullet@@@std@@@std@@QEAA@AEBV01@@Z 000000014003c4b0     GameManager.obj
 0004:000004b0       $pdata$0$??0?$vector@PEAVSound@@V?$allocator@PEAVSound@@@std@@@std@@QEAA@AEBV01@@Z 000000014003c4b0     Enemy.obj
 0004:000004b0       $pdata$0$??0?$vector@PEAVGameObject@@V?$allocator@PEAVGameObject@@@std@@@std@@QEAA@AEBV01@@Z 000000014003c4b0     EnemyManager.obj
 0004:000004b0       $pdata$0$??0?$vector@PEAVPickup@@V?$allocator@PEAVPickup@@@std@@@std@@QEAA@AEBV01@@Z 000000014003c4b0     GameManager.obj
 0004:000004b0       $pdata$0$??0?$vector@PEAVEnemy@@V?$allocator@PEAVEnemy@@@std@@@std@@QEAA@AEBV01@@Z 000000014003c4b0     EnemyManager.obj
 0004:000004bc       $pdata$1$??0?$vector@PEAVPickup@@V?$allocator@PEAVPickup@@@std@@@std@@QEAA@AEBV01@@Z 000000014003c4bc     GameManager.obj
 0004:000004bc       $pdata$1$??0?$vector@PEAVBullet@@V?$allocator@PEAVBullet@@@std@@@std@@QEAA@AEBV01@@Z 000000014003c4bc     GameManager.obj
 0004:000004bc       $pdata$1$??0?$vector@PEAVGameObject@@V?$allocator@PEAVGameObject@@@std@@@std@@QEAA@AEBV01@@Z 000000014003c4bc     EnemyManager.obj
 0004:000004bc       $pdata$1$??0?$vector@PEAVEnemy@@V?$allocator@PEAVEnemy@@@std@@@std@@QEAA@AEBV01@@Z 000000014003c4bc     EnemyManager.obj
 0004:000004bc       $pdata$1$??0?$vector@PEAVSound@@V?$allocator@PEAVSound@@@std@@@std@@QEAA@AEBV01@@Z 000000014003c4bc     Enemy.obj
 0004:000004c8       $pdata$??$_Emplace_reallocate@AEBQEAVPickup@@@?$vector@PEAVPickup@@V?$allocator@PEAVPickup@@@std@@@std@@QEAAPEAPEAVPickup@@QEAPEAV2@AEBQEAV2@@Z 000000014003c4c8     GameManager.obj
 0004:000004c8       $pdata$??$_Emplace_reallocate@AEBQEAVSound@@@?$vector@PEAVSound@@V?$allocator@PEAVSound@@@std@@@std@@QEAAPEAPEAVSound@@QEAPEAV2@AEBQEAV2@@Z 000000014003c4c8     Enemy.obj
 0004:000004c8       $pdata$??$_Emplace_reallocate@PEAVEnemy@@@?$vector@PEAVEnemy@@V?$allocator@PEAVEnemy@@@std@@@std@@QEAAPEAPEAVEnemy@@QEAPEAV2@$$QEAPEAV2@@Z 000000014003c4c8     EnemyManager.obj
 0004:000004c8       $pdata$??$_Emplace_reallocate@PEAVGameObject@@@?$vector@PEAVGameObject@@V?$allocator@PEAVGameObject@@@std@@@std@@QEAAPEAPEAVGameObject@@QEAPEAV2@$$QEAPEAV2@@Z 000000014003c4c8     GameManager.obj
 0004:000004c8       $pdata$??$_Emplace_reallocate@AEBQEAVUIElement@@@?$vector@PEAVUIElement@@V?$allocator@PEAVUIElement@@@std@@@std@@QEAAPEAPEAVUIElement@@QEAPEAV2@AEBQEAV2@@Z 000000014003c4c8     UIManager.obj
 0004:000004c8       $pdata$??$_Emplace_reallocate@PEAVBullet@@@?$vector@PEAVBullet@@V?$allocator@PEAVBullet@@@std@@@std@@QEAAPEAPEAVBullet@@QEAPEAV2@$$QEAPEAV2@@Z 000000014003c4c8     GameManager.obj
 0004:000004c8       $pdata$??$_Emplace_reallocate@AEBQEAVGun@@@?$vector@PEAVGun@@V?$allocator@PEAVGun@@@std@@@std@@QEAAPEAPEAVGun@@QEAPEAV2@AEBQEAV2@@Z 000000014003c4c8     GameManager.obj
 0004:000004d4       $pdata$2$??$_Emplace_reallocate@AEBQEAVUIElement@@@?$vector@PEAVUIElement@@V?$allocator@PEAVUIElement@@@std@@@std@@QEAAPEAPEAVUIElement@@QEAPEAV2@AEBQEAV2@@Z 000000014003c4d4     UIManager.obj
 0004:000004d4       $pdata$2$??$_Emplace_reallocate@PEAVGameObject@@@?$vector@PEAVGameObject@@V?$allocator@PEAVGameObject@@@std@@@std@@QEAAPEAPEAVGameObject@@QEAPEAV2@$$QEAPEAV2@@Z 000000014003c4d4     GameManager.obj
 0004:000004d4       $pdata$2$??$_Emplace_reallocate@AEBQEAVGun@@@?$vector@PEAVGun@@V?$allocator@PEAVGun@@@std@@@std@@QEAAPEAPEAVGun@@QEAPEAV2@AEBQEAV2@@Z 000000014003c4d4     GameManager.obj
 0004:000004d4       $pdata$2$??$_Emplace_reallocate@PEAVEnemy@@@?$vector@PEAVEnemy@@V?$allocator@PEAVEnemy@@@std@@@std@@QEAAPEAPEAVEnemy@@QEAPEAV2@$$QEAPEAV2@@Z 000000014003c4d4     EnemyManager.obj
 0004:000004d4       $pdata$2$??$_Emplace_reallocate@AEBQEAVSound@@@?$vector@PEAVSound@@V?$allocator@PEAVSound@@@std@@@std@@QEAAPEAPEAVSound@@QEAPEAV2@AEBQEAV2@@Z 000000014003c4d4     Enemy.obj
 0004:000004d4       $pdata$2$??$_Emplace_reallocate@AEBQEAVPickup@@@?$vector@PEAVPickup@@V?$allocator@PEAVPickup@@@std@@@std@@QEAAPEAPEAVPickup@@QEAPEAV2@AEBQEAV2@@Z 000000014003c4d4     GameManager.obj
 0004:000004d4       $pdata$2$??$_Emplace_reallocate@PEAVBullet@@@?$vector@PEAVBullet@@V?$allocator@PEAVBullet@@@std@@@std@@QEAAPEAPEAVBullet@@QEAPEAV2@$$QEAPEAV2@@Z 000000014003c4d4     GameManager.obj
 0004:000004e0       $pdata$4$??$_Emplace_reallocate@AEBQEAVPickup@@@?$vector@PEAVPickup@@V?$allocator@PEAVPickup@@@std@@@std@@QEAAPEAPEAVPickup@@QEAPEAV2@AEBQEAV2@@Z 000000014003c4e0     GameManager.obj
 0004:000004e0       $pdata$4$??$_Emplace_reallocate@AEBQEAVGun@@@?$vector@PEAVGun@@V?$allocator@PEAVGun@@@std@@@std@@QEAAPEAPEAVGun@@QEAPEAV2@AEBQEAV2@@Z 000000014003c4e0     GameManager.obj
 0004:000004e0       $pdata$4$??$_Emplace_reallocate@PEAVBullet@@@?$vector@PEAVBullet@@V?$allocator@PEAVBullet@@@std@@@std@@QEAAPEAPEAVBullet@@QEAPEAV2@$$QEAPEAV2@@Z 000000014003c4e0     GameManager.obj
 0004:000004e0       $pdata$4$??$_Emplace_reallocate@AEBQEAVSound@@@?$vector@PEAVSound@@V?$allocator@PEAVSound@@@std@@@std@@QEAAPEAPEAVSound@@QEAPEAV2@AEBQEAV2@@Z 000000014003c4e0     Enemy.obj
 0004:000004e0       $pdata$4$??$_Emplace_reallocate@PEAVGameObject@@@?$vector@PEAVGameObject@@V?$allocator@PEAVGameObject@@@std@@@std@@QEAAPEAPEAVGameObject@@QEAPEAV2@$$QEAPEAV2@@Z 000000014003c4e0     GameManager.obj
 0004:000004e0       $pdata$4$??$_Emplace_reallocate@AEBQEAVUIElement@@@?$vector@PEAVUIElement@@V?$allocator@PEAVUIElement@@@std@@@std@@QEAAPEAPEAVUIElement@@QEAPEAV2@AEBQEAV2@@Z 000000014003c4e0     UIManager.obj
 0004:000004e0       $pdata$4$??$_Emplace_reallocate@PEAVEnemy@@@?$vector@PEAVEnemy@@V?$allocator@PEAVEnemy@@@std@@@std@@QEAAPEAPEAVEnemy@@QEAPEAV2@$$QEAPEAV2@@Z 000000014003c4e0     EnemyManager.obj
 0004:000004ec       $pdata$5$??$_Emplace_reallocate@PEAVGameObject@@@?$vector@PEAVGameObject@@V?$allocator@PEAVGameObject@@@std@@@std@@QEAAPEAPEAVGameObject@@QEAPEAV2@$$QEAPEAV2@@Z 000000014003c4ec     GameManager.obj
 0004:000004ec       $pdata$5$??$_Emplace_reallocate@PEAVBullet@@@?$vector@PEAVBullet@@V?$allocator@PEAVBullet@@@std@@@std@@QEAAPEAPEAVBullet@@QEAPEAV2@$$QEAPEAV2@@Z 000000014003c4ec     GameManager.obj
 0004:000004ec       $pdata$5$??$_Emplace_reallocate@AEBQEAVSound@@@?$vector@PEAVSound@@V?$allocator@PEAVSound@@@std@@@std@@QEAAPEAPEAVSound@@QEAPEAV2@AEBQEAV2@@Z 000000014003c4ec     Enemy.obj
 0004:000004ec       $pdata$5$??$_Emplace_reallocate@AEBQEAVUIElement@@@?$vector@PEAVUIElement@@V?$allocator@PEAVUIElement@@@std@@@std@@QEAAPEAPEAVUIElement@@QEAPEAV2@AEBQEAV2@@Z 000000014003c4ec     UIManager.obj
 0004:000004ec       $pdata$5$??$_Emplace_reallocate@PEAVEnemy@@@?$vector@PEAVEnemy@@V?$allocator@PEAVEnemy@@@std@@@std@@QEAAPEAPEAVEnemy@@QEAPEAV2@$$QEAPEAV2@@Z 000000014003c4ec     EnemyManager.obj
 0004:000004ec       $pdata$5$??$_Emplace_reallocate@AEBQEAVPickup@@@?$vector@PEAVPickup@@V?$allocator@PEAVPickup@@@std@@@std@@QEAAPEAPEAVPickup@@QEAPEAV2@AEBQEAV2@@Z 000000014003c4ec     GameManager.obj
 0004:000004ec       $pdata$5$??$_Emplace_reallocate@AEBQEAVGun@@@?$vector@PEAVGun@@V?$allocator@PEAVGun@@@std@@@std@@QEAAPEAPEAVGun@@QEAPEAV2@AEBQEAV2@@Z 000000014003c4ec     GameManager.obj
 0004:000004f8       $pdata$?Initialize@EnemyManager@@QEAAXPEAUID3D11Device@@@Z 000000014003c4f8     EnemyManager.obj
 0004:00000504       $pdata$?Update@EnemyManager@@QEAAXMPEAVPlayer@@V?$vector@PEAVGameObject@@V?$allocator@PEAVGameObject@@@std@@@std@@AEAV?$vector@PEAVBullet@@V?$allocator@PEAVBullet@@@std@@@4@PEAUID3D11Device@@@Z 000000014003c504     EnemyManager.obj
 0004:00000510       $pdata$?CalculateObstacleSeperation@EnemyManager@@QEAA?AUfloat3@@AEAVTarget@@V?$vector@PEAVGameObject@@V?$allocator@PEAVGameObject@@@std@@@std@@@Z 000000014003c510     EnemyManager.obj
 0004:0000051c       $pdata$6$?CalculateObstacleSeperation@EnemyManager@@QEAA?AUfloat3@@AEAVTarget@@V?$vector@PEAVGameObject@@V?$allocator@PEAVGameObject@@@std@@@std@@@Z 000000014003c51c     EnemyManager.obj
 0004:00000528       $pdata$13$?CalculateObstacleSeperation@EnemyManager@@QEAA?AUfloat3@@AEAVTarget@@V?$vector@PEAVGameObject@@V?$allocator@PEAVGameObject@@@std@@@std@@@Z 000000014003c528     EnemyManager.obj
 0004:00000534       $pdata$14$?CalculateObstacleSeperation@EnemyManager@@QEAA?AUfloat3@@AEAVTarget@@V?$vector@PEAVGameObject@@V?$allocator@PEAVGameObject@@@std@@@std@@@Z 000000014003c534     EnemyManager.obj
 0004:00000540       $pdata$15$?CalculateObstacleSeperation@EnemyManager@@QEAA?AUfloat3@@AEAVTarget@@V?$vector@PEAVGameObject@@V?$allocator@PEAVGameObject@@@std@@@std@@@Z 000000014003c540     EnemyManager.obj
 0004:0000054c       $pdata$16$?CalculateObstacleSeperation@EnemyManager@@QEAA?AUfloat3@@AEAVTarget@@V?$vector@PEAVGameObject@@V?$allocator@PEAVGameObject@@@std@@@std@@@Z 000000014003c54c     EnemyManager.obj
 0004:00000558       $pdata$?StartNewRound@EnemyManager@@QEAAXXZ 000000014003c558     EnemyManager.obj
 0004:00000564       $pdata$?Construct@Frustum@@QEAAXMUXMMATRIX@DirectX@@0@Z 000000014003c564     Frustum.obj
 0004:00000570       $pdata$??0GameObject@@QEAA@XZ 000000014003c570     GameObject.obj
 0004:0000057c       $pdata$??1GameObject@@QEAA@XZ 000000014003c57c     GameObject.obj
 0004:00000588       $pdata$?GetParent@GameObject@@QEAAHHV?$vector@HV?$allocator@H@std@@@std@@@Z 000000014003c588     GameObject.obj
 0004:00000594       $pdata$?Update@GameObject@@UEAAXM@Z 000000014003c594     GameObject.obj
 0004:000005a0       $pdata$?AddAninimation@GameObject@@QEAAXPEBDPEAUID3D11Device@@H@Z 000000014003c5a0     GameObject.obj
 0004:000005ac       $pdata$?Shutdown@GameObject@@UEAAXXZ 000000014003c5ac     GameObject.obj
 0004:000005b8       $pdata$??1?$vector@USphere@@V?$allocator@USphere@@@std@@@std@@QEAA@XZ 000000014003c5b8     GameObject.obj
 0004:000005c4       $pdata$??0?$vector@Ukeyframe@@V?$allocator@Ukeyframe@@@std@@@std@@QEAA@AEBV01@@Z 000000014003c5c4     GameObject.obj
 0004:000005d0       $pdata$??$_Emplace_reallocate@AEBUSphere@@@?$vector@USphere@@V?$allocator@USphere@@@std@@@std@@QEAAPEAUSphere@@QEAU2@AEBU2@@Z 000000014003c5d0     GameObject.obj
 0004:000005dc       $pdata$1$??$_Emplace_reallocate@AEBUSphere@@@?$vector@USphere@@V?$allocator@USphere@@@std@@@std@@QEAAPEAUSphere@@QEAU2@AEBU2@@Z 000000014003c5dc     GameObject.obj
 0004:000005e8       $pdata$3$??$_Emplace_reallocate@AEBUSphere@@@?$vector@USphere@@V?$allocator@USphere@@@std@@@std@@QEAAPEAUSphere@@QEAU2@AEBU2@@Z 000000014003c5e8     GameObject.obj
 0004:000005f4       $pdata$4$??$_Emplace_reallocate@AEBUSphere@@@?$vector@USphere@@V?$allocator@USphere@@@std@@@std@@QEAAPEAUSphere@@QEAU2@AEBU2@@Z 000000014003c5f4     GameObject.obj
 0004:00000600       $pdata$??$_Resize@V<lambda_5faba587ae6cafb8bb5bc4a9224fce8d>@@@?$vector@PEAVAnimation@@V?$allocator@PEAVAnimation@@@std@@@std@@AEAAX_KV<lambda_5faba587ae6cafb8bb5bc4a9224fce8d>@@@Z 000000014003c600     GameObject.obj
 0004:0000060c       $pdata$0$??$_Resize@V<lambda_5faba587ae6cafb8bb5bc4a9224fce8d>@@@?$vector@PEAVAnimation@@V?$allocator@PEAVAnimation@@@std@@@std@@AEAAX_KV<lambda_5faba587ae6cafb8bb5bc4a9224fce8d>@@@Z 000000014003c60c     GameObject.obj
 0004:00000618       $pdata$1$??$_Resize@V<lambda_5faba587ae6cafb8bb5bc4a9224fce8d>@@@?$vector@PEAVAnimation@@V?$allocator@PEAVAnimation@@@std@@@std@@AEAAX_KV<lambda_5faba587ae6cafb8bb5bc4a9224fce8d>@@@Z 000000014003c618     GameObject.obj
 0004:00000624       $pdata$2$??$_Resize@V<lambda_5faba587ae6cafb8bb5bc4a9224fce8d>@@@?$vector@PEAVAnimation@@V?$allocator@PEAVAnimation@@@std@@@std@@AEAAX_KV<lambda_5faba587ae6cafb8bb5bc4a9224fce8d>@@@Z 000000014003c624     GameObject.obj
 0004:00000630       $pdata$3$??$_Resize@V<lambda_5faba587ae6cafb8bb5bc4a9224fce8d>@@@?$vector@PEAVAnimation@@V?$allocator@PEAVAnimation@@@std@@@std@@AEAAX_KV<lambda_5faba587ae6cafb8bb5bc4a9224fce8d>@@@Z 000000014003c630     GameObject.obj
 0004:0000063c       $pdata$?Initialize@DX@@QEAA_NHH_NPEAUHWND__@@0MM@Z 000000014003c63c     dxstuff.obj
 0004:00000648       $pdata$1$?Initialize@DX@@QEAA_NHH_NPEAUHWND__@@0MM@Z 000000014003c648     dxstuff.obj
 0004:00000654       $pdata$2$?Initialize@DX@@QEAA_NHH_NPEAUHWND__@@0MM@Z 000000014003c654     dxstuff.obj
 0004:00000660       $pdata$??1?$_Func_class@X$$V@std@@QEAA@XZ 000000014003c660     graphicsclass.obj
 0004:00000660       $pdata$??1?$function@$$A6AXXZ@std@@QEAA@XZ 000000014003c660     graphicsclass.obj
 0004:0000066c       $pdata$?Initialize@Graphics@@QEAA_NHHPEAUHWND__@@PEAVInputManager@@@Z 000000014003c66c     graphicsclass.obj
 0004:00000678       $pdata$?Shutdown@Graphics@@QEAAXXZ 000000014003c678     graphicsclass.obj
 0004:00000684       $pdata$?Render@Graphics@@QEAA_NPEAVInputManager@@PEAVPlayer@@V?$vector@PEAVBullet@@V?$allocator@PEAVBullet@@@std@@@std@@V?$vector@PEAVEnemy@@V?$allocator@PEAVEnemy@@@std@@@5@V?$vector@PEAVGameObject@@V?$allocator@PEAVGameObject@@@std@@@5@V?$vector@PEAVPickup@@V?$allocator@PEAVPickup@@@std@@@5@@Z 000000014003c684     graphicsclass.obj
 0004:00000690       $pdata$?to_string@std@@YA?AV?$basic_string@DU?$char_traits@D@std@@V?$allocator@D@2@@1@H@Z 000000014003c690     GameManager.obj
 0004:0000069c       $pdata$?to_string@std@@YA?AV?$basic_string@DU?$char_traits@D@std@@V?$allocator@D@2@@1@I@Z 000000014003c69c     GameManager.obj
 0004:000006a8       $pdata$?MovingSphereToSphere@@YA_NAEBUSphere@@AEBUfloat3@@0AEAM@Z 000000014003c6a8     GameManager.obj
 0004:000006b4       $pdata$?SetText@TextElement@@QEAAXV?$basic_string@DU?$char_traits@D@std@@V?$allocator@D@2@@std@@@Z 000000014003c6b4     GameManager.obj
 0004:000006c0       $pdata$??0GameManager@@QEAA@XZ 000000014003c6c0     GameManager.obj
 0004:000006cc       $pdata$?UpdateScoreText@GameManager@@QEAAXXZ 000000014003c6cc     GameManager.obj
 0004:000006d8       $pdata$?UpdateHealthText@GameManager@@QEAAXXZ 000000014003c6d8     GameManager.obj
 0004:000006e4       $pdata$?UpdateTimerText@GameManager@@QEAAXM@Z 000000014003c6e4     GameManager.obj
 0004:000006f0       $pdata$?UpdateDamageTimerText@GameManager@@QEAAXXZ 000000014003c6f0     GameManager.obj
 0004:000006fc       $pdata$?ShootBullets@GameManager@@QEAAXXZ 000000014003c6fc     GameManager.obj
 0004:00000708       $pdata$?SpawnHealthPickup@GameManager@@QEAAXUfloat3@@@Z 000000014003c708     GameManager.obj
 0004:00000714       $pdata$?SpawnDamagePickup@GameManager@@QEAAXUfloat3@@@Z 000000014003c714     GameManager.obj
 0004:00000720       $pdata$?Update@GameManager@@QEAAXMM@Z 000000014003c720     GameManager.obj
 0004:0000072c       $pdata$?Initialize@GameManager@@QEAA_NHHPEAUHWND__@@@Z 000000014003c72c     GameManager.obj
 0004:00000738       $pdata$?ShutDown@GameManager@@QEAAXXZ 000000014003c738     GameManager.obj
 0004:00000744       $pdata$??0?$vector@USphere@@V?$allocator@USphere@@@std@@@std@@QEAA@AEBV01@@Z 000000014003c744     GameManager.obj
 0004:00000750       $pdata$0$??0?$vector@USphere@@V?$allocator@USphere@@@std@@@std@@QEAA@AEBV01@@Z 000000014003c750     GameManager.obj
 0004:0000075c       $pdata$1$??0?$vector@USphere@@V?$allocator@USphere@@@std@@@std@@QEAA@AEBV01@@Z 000000014003c75c     GameManager.obj
 0004:00000768       $pdata$??$?HDU?$char_traits@D@std@@V?$allocator@D@1@@std@@YA?AV?$basic_string@DU?$char_traits@D@std@@V?$allocator@D@2@@0@QEBD$$QEAV10@@Z 000000014003c768     GameManager.obj
 0004:00000774       $pdata$1$??$?HDU?$char_traits@D@std@@V?$allocator@D@1@@std@@YA?AV?$basic_string@DU?$char_traits@D@std@@V?$allocator@D@2@@0@QEBD$$QEAV10@@Z 000000014003c774     GameManager.obj
 0004:00000780       $pdata$2$??$?HDU?$char_traits@D@std@@V?$allocator@D@1@@std@@YA?AV?$basic_string@DU?$char_traits@D@std@@V?$allocator@D@2@@0@QEBD$$QEAV10@@Z 000000014003c780     GameManager.obj
 0004:0000078c       $pdata$??$_Reallocate_grow_by@V<lambda_f3a66ab6a0570788f31503db83886f49>@@_KPEBD_K@?$basic_string@DU?$char_traits@D@std@@V?$allocator@D@2@@std@@QEAAAEAV01@_KV<lambda_f3a66ab6a0570788f31503db83886f49>@@_KPEBD2@Z 000000014003c78c     GameManager.obj
 0004:00000798       $pdata$2$??$_Reallocate_grow_by@V<lambda_f3a66ab6a0570788f31503db83886f49>@@_KPEBD_K@?$basic_string@DU?$char_traits@D@std@@V?$allocator@D@2@@std@@QEAAAEAV01@_KV<lambda_f3a66ab6a0570788f31503db83886f49>@@_KPEBD2@Z 000000014003c798     GameManager.obj
 0004:000007a4       $pdata$3$??$_Reallocate_grow_by@V<lambda_f3a66ab6a0570788f31503db83886f49>@@_KPEBD_K@?$basic_string@DU?$char_traits@D@std@@V?$allocator@D@2@@std@@QEAAAEAV01@_KV<lambda_f3a66ab6a0570788f31503db83886f49>@@_KPEBD2@Z 000000014003c7a4     GameManager.obj
 0004:000007b0       $pdata$?XMVectorACos@DirectX@@YQ?AT__m128@@T2@@Z 000000014003c7b0     Camera.obj
 0004:000007bc       $pdata$?Update@Camera@@QEAAXUXMFLOAT3@DirectX@@@Z 000000014003c7bc     Camera.obj
 0004:000007c8       $pdata$?GetInput@Camera@@QEAAXPEAVInputManager@@MAEAUXMMATRIX@DirectX@@PEAVPlayer@@@Z 000000014003c7c8     Camera.obj
 0004:000007d4       $pdata$?SetCharacterPosition@Camera@@QEAAXNAEAT__m128@@AEAUXMMATRIX@DirectX@@@Z 000000014003c7d4     Camera.obj
 0004:000007e0       $pdata$?ReadMeshFile@Model@@AEAAXPEBDPEAUID3D11Device@@@Z 000000014003c7e0     Model.obj
 0004:000007ec       $pdata$?Initialize@Model@@QEAA_NPEBDPEAUID3D11Device@@@Z 000000014003c7ec     Model.obj
 0004:000007f8       $pdata$?Render@Model@@QEAAXPEAUID3D11DeviceContext@@@Z 000000014003c7f8     Model.obj
 0004:00000804       $pdata$?Shutdown@Model@@QEAAXXZ 000000014003c804     Model.obj
 0004:00000810       $pdata$??1?$vector@Umaterial_t@@V?$allocator@Umaterial_t@@@std@@@std@@QEAA@XZ 000000014003c810     Model.obj
 0004:0000081c       $pdata$??1?$vector@V?$array@D$0BAE@@std@@V?$allocator@V?$array@D$0BAE@@std@@@2@@std@@QEAA@XZ 000000014003c81c     Model.obj
 0004:00000828       $pdata$?_Tidy@?$vector@UVertex@@V?$allocator@UVertex@@@std@@@std@@AEAAXXZ 000000014003c828     Model.obj
 0004:00000834       $pdata$??$_Resize@V<lambda_3dc4585328ffa41edbf28992c66dc9db>@@@?$vector@Umaterial_t@@V?$allocator@Umaterial_t@@@std@@@std@@AEAAX_KV<lambda_3dc4585328ffa41edbf28992c66dc9db>@@@Z 000000014003c834     Model.obj
 0004:00000840       $pdata$1$??$_Resize@V<lambda_3dc4585328ffa41edbf28992c66dc9db>@@@?$vector@Umaterial_t@@V?$allocator@Umaterial_t@@@std@@@std@@AEAAX_KV<lambda_3dc4585328ffa41edbf28992c66dc9db>@@@Z 000000014003c840     Model.obj
 0004:0000084c       $pdata$2$??$_Resize@V<lambda_3dc4585328ffa41edbf28992c66dc9db>@@@?$vector@Umaterial_t@@V?$allocator@Umaterial_t@@@std@@@std@@AEAAX_KV<lambda_3dc4585328ffa41edbf28992c66dc9db>@@@Z 000000014003c84c     Model.obj
 0004:00000858       $pdata$3$??$_Resize@V<lambda_3dc4585328ffa41edbf28992c66dc9db>@@@?$vector@Umaterial_t@@V?$allocator@Umaterial_t@@@std@@@std@@AEAAX_KV<lambda_3dc4585328ffa41edbf28992c66dc9db>@@@Z 000000014003c858     Model.obj
 0004:00000864       $pdata$4$??$_Resize@V<lambda_3dc4585328ffa41edbf28992c66dc9db>@@@?$vector@Umaterial_t@@V?$allocator@Umaterial_t@@@std@@@std@@AEAAX_KV<lambda_3dc4585328ffa41edbf28992c66dc9db>@@@Z 000000014003c864     Model.obj
 0004:00000870       $pdata$??$_Resize@V<lambda_90a86d33119e9cefaad228fe3fc3f04c>@@@?$vector@V?$array@D$0BAE@@std@@V?$allocator@V?$array@D$0BAE@@std@@@2@@std@@AEAAX_KV<lambda_90a86d33119e9cefaad228fe3fc3f04c>@@@Z 000000014003c870     Model.obj
 0004:0000087c       $pdata$0$??$_Resize@V<lambda_90a86d33119e9cefaad228fe3fc3f04c>@@@?$vector@V?$array@D$0BAE@@std@@V?$allocator@V?$array@D$0BAE@@std@@@2@@std@@AEAAX_KV<lambda_90a86d33119e9cefaad228fe3fc3f04c>@@@Z 000000014003c87c     Model.obj
 0004:00000888       $pdata$1$??$_Resize@V<lambda_90a86d33119e9cefaad228fe3fc3f04c>@@@?$vector@V?$array@D$0BAE@@std@@V?$allocator@V?$array@D$0BAE@@std@@@2@@std@@AEAAX_KV<lambda_90a86d33119e9cefaad228fe3fc3f04c>@@@Z 000000014003c888     Model.obj
 0004:00000894       $pdata$2$??$_Resize@V<lambda_90a86d33119e9cefaad228fe3fc3f04c>@@@?$vector@V?$array@D$0BAE@@std@@V?$allocator@V?$array@D$0BAE@@std@@@2@@std@@AEAAX_KV<lambda_90a86d33119e9cefaad228fe3fc3f04c>@@@Z 000000014003c894     Model.obj
 0004:000008a0       $pdata$3$??$_Resize@V<lambda_90a86d33119e9cefaad228fe3fc3f04c>@@@?$vector@V?$array@D$0BAE@@std@@V?$allocator@V?$array@D$0BAE@@std@@@2@@std@@AEAAX_KV<lambda_90a86d33119e9cefaad228fe3fc3f04c>@@@Z 000000014003c8a0     Model.obj
 0004:000008ac       $pdata$??$_Resize@V<lambda_a3e9ab7309acaaa5a225906574bbc117>@@@?$vector@IV?$allocator@I@std@@@std@@AEAAX_KV<lambda_a3e9ab7309acaaa5a225906574bbc117>@@@Z 000000014003c8ac     Model.obj
 0004:000008b8       $pdata$0$??$_Resize@V<lambda_a3e9ab7309acaaa5a225906574bbc117>@@@?$vector@IV?$allocator@I@std@@@std@@AEAAX_KV<lambda_a3e9ab7309acaaa5a225906574bbc117>@@@Z 000000014003c8b8     Model.obj
 0004:000008c4       $pdata$1$??$_Resize@V<lambda_a3e9ab7309acaaa5a225906574bbc117>@@@?$vector@IV?$allocator@I@std@@@std@@AEAAX_KV<lambda_a3e9ab7309acaaa5a225906574bbc117>@@@Z 000000014003c8c4     Model.obj
 0004:000008d0       $pdata$2$??$_Resize@V<lambda_a3e9ab7309acaaa5a225906574bbc117>@@@?$vector@IV?$allocator@I@std@@@std@@AEAAX_KV<lambda_a3e9ab7309acaaa5a225906574bbc117>@@@Z 000000014003c8d0     Model.obj
 0004:000008dc       $pdata$3$??$_Resize@V<lambda_a3e9ab7309acaaa5a225906574bbc117>@@@?$vector@IV?$allocator@I@std@@@std@@AEAAX_KV<lambda_a3e9ab7309acaaa5a225906574bbc117>@@@Z 000000014003c8dc     Model.obj
 0004:000008e8       $pdata$??$_Resize@V<lambda_189af720543607fa3630bc45f408d767>@@@?$vector@UVertex@@V?$allocator@UVertex@@@std@@@std@@AEAAX_KV<lambda_189af720543607fa3630bc45f408d767>@@@Z 000000014003c8e8     Model.obj
 0004:000008f4       $pdata$0$??$_Resize@V<lambda_189af720543607fa3630bc45f408d767>@@@?$vector@UVertex@@V?$allocator@UVertex@@@std@@@std@@AEAAX_KV<lambda_189af720543607fa3630bc45f408d767>@@@Z 000000014003c8f4     Model.obj
 0004:00000900       $pdata$1$??$_Resize@V<lambda_189af720543607fa3630bc45f408d767>@@@?$vector@UVertex@@V?$allocator@UVertex@@@std@@@std@@AEAAX_KV<lambda_189af720543607fa3630bc45f408d767>@@@Z 000000014003c900     Model.obj
 0004:0000090c       $pdata$2$??$_Resize@V<lambda_189af720543607fa3630bc45f408d767>@@@?$vector@UVertex@@V?$allocator@UVertex@@@std@@@std@@AEAAX_KV<lambda_189af720543607fa3630bc45f408d767>@@@Z 000000014003c90c     Model.obj
 0004:00000918       $pdata$3$??$_Resize@V<lambda_189af720543607fa3630bc45f408d767>@@@?$vector@UVertex@@V?$allocator@UVertex@@@std@@@std@@AEAAX_KV<lambda_189af720543607fa3630bc45f408d767>@@@Z 000000014003c918     Model.obj
 0004:00000924       $pdata$?Run@MyWindow@@AEAA_NXZ 000000014003c924     MyWindow.obj
 0004:00000930       $pdata$?Initialize@MyWindow@@QEAA_NXZ 000000014003c930     MyWindow.obj
 0004:0000093c       $pdata$?Render@MyWindow@@QEAAXXZ 000000014003c93c     MyWindow.obj
 0004:00000948       $pdata$?WndProc@@YA_JPEAUHWND__@@I_K_J@Z 000000014003c948     MyWindow.obj
 0004:00000954       $pdata$??4?$basic_string@DU?$char_traits@D@std@@V?$allocator@D@2@@std@@QEAAAEAV01@$$QEAV01@@Z 000000014003c954     MyWindow.obj
 0004:00000960       $pdata$??$?HDU?$char_traits@D@std@@V?$allocator@D@1@@std@@YA?AV?$basic_string@DU?$char_traits@D@std@@V?$allocator@D@2@@0@QEBDAEBV10@@Z 000000014003c960     MyWindow.obj
 0004:0000096c       $pdata$??$_Reallocate_grow_by@V<lambda_65e615be2a453ca0576c979606f46740>@@PEBD_K@?$basic_string@DU?$char_traits@D@std@@V?$allocator@D@2@@std@@QEAAAEAV01@_KV<lambda_65e615be2a453ca0576c979606f46740>@@PEBD_K@Z 000000014003c96c     MyWindow.obj
 0004:00000978       $pdata$3$??$_Reallocate_grow_by@V<lambda_65e615be2a453ca0576c979606f46740>@@PEBD_K@?$basic_string@DU?$char_traits@D@std@@V?$allocator@D@2@@std@@QEAAAEAV01@_KV<lambda_65e615be2a453ca0576c979606f46740>@@PEBD_K@Z 000000014003c978     MyWindow.obj
 0004:00000984       $pdata$4$??$_Reallocate_grow_by@V<lambda_65e615be2a453ca0576c979606f46740>@@PEBD_K@?$basic_string@DU?$char_traits@D@std@@V?$allocator@D@2@@std@@QEAAAEAV01@_KV<lambda_65e615be2a453ca0576c979606f46740>@@PEBD_K@Z 000000014003c984     MyWindow.obj
 0004:00000990       $pdata$?_Reset_move@?$_Func_class@X$$V@std@@IEAAX$$QEAV12@@Z 000000014003c990     MyWindow.obj
 0004:0000099c       $pdata$??$_Reallocate_grow_by@V<lambda_9013ee9e23efe4882b67eff5b0ecf103>@@$$V@?$basic_string@DU?$char_traits@D@std@@V?$allocator@D@2@@std@@QEAAAEAV01@_KV<lambda_9013ee9e23efe4882b67eff5b0ecf103>@@@Z 000000014003c99c     MyWindow.obj
 0004:000009a8       $pdata$2$??$_Reallocate_grow_by@V<lambda_9013ee9e23efe4882b67eff5b0ecf103>@@$$V@?$basic_string@DU?$char_traits@D@std@@V?$allocator@D@2@@std@@QEAAAEAV01@_KV<lambda_9013ee9e23efe4882b67eff5b0ecf103>@@@Z 000000014003c9a8     MyWindow.obj
 0004:000009b4       $pdata$3$??$_Reallocate_grow_by@V<lambda_9013ee9e23efe4882b67eff5b0ecf103>@@$$V@?$basic_string@DU?$char_traits@D@std@@V?$allocator@D@2@@std@@QEAAAEAV01@_KV<lambda_9013ee9e23efe4882b67eff5b0ecf103>@@@Z 000000014003c9b4     MyWindow.obj
 0004:000009c0       $pdata$?Update@PhysicsComponent@@QEAAXM@Z 000000014003c9c0     PhysicsComponent.obj
 0004:000009cc       $pdata$2$?Update@PhysicsComponent@@QEAAXM@Z 000000014003c9cc     PhysicsComponent.obj
 0004:000009d8       $pdata$3$?Update@PhysicsComponent@@QEAAXM@Z 000000014003c9d8     PhysicsComponent.obj
 0004:000009e4       $pdata$?Initialize@Player@@UEAA_NPEBDPEAUID3D11Device@@@Z 000000014003c9e4     Player.obj
 0004:000009f0       $pdata$?Update@Player@@UEAAXM@Z 000000014003c9f0     Player.obj
 0004:000009fc       $pdata$?LerpJoint@@YA?AV?$array@Ufloat4@@$03@std@@V12@0M@Z 000000014003c9fc     Player.obj
 0004:00000a08       $pdata$?SetSkeletonLines@Player@@QEAA?AV?$vector@V?$array@Ufloat4@@$03@std@@V?$allocator@V?$array@Ufloat4@@$03@std@@@2@@std@@Uanim_clip@@0MM@Z 000000014003ca08     Player.obj
 0004:00000a14       $pdata$??0RangedEnemy@@QEAA@XZ 000000014003ca14     RangedEnemy.obj
 0004:00000a20       $pdata$?Initialize@RangedEnemy@@UEAA_NPEAUID3D11Device@@PEBDUfloat3@@@Z 000000014003ca20     RangedEnemy.obj
 0004:00000a2c       $pdata$?Update@RangedEnemy@@UEAAXMPEAVPlayer@@AEAV?$vector@PEAVBullet@@V?$allocator@PEAVBullet@@@std@@@std@@PEAUID3D11Device@@@Z 000000014003ca2c     RangedEnemy.obj
 0004:00000a38       $pdata$1$?Update@RangedEnemy@@UEAAXMPEAVPlayer@@AEAV?$vector@PEAVBullet@@V?$allocator@PEAVBullet@@@std@@@std@@PEAUID3D11Device@@@Z 000000014003ca38     RangedEnemy.obj
 0004:00000a44       $pdata$3$?Update@RangedEnemy@@UEAAXMPEAVPlayer@@AEAV?$vector@PEAVBullet@@V?$allocator@PEAVBullet@@@std@@@std@@PEAUID3D11Device@@@Z 000000014003ca44     RangedEnemy.obj
 0004:00000a50       $pdata$2$?Update@RangedEnemy@@UEAAXMPEAVPlayer@@AEAV?$vector@PEAVBullet@@V?$allocator@PEAVBullet@@@std@@@std@@PEAUID3D11Device@@@Z 000000014003ca50     RangedEnemy.obj
 0004:00000a5c       $pdata$?Attack@RangedEnemy@@QEAAXPEAVPlayer@@AEAV?$vector@PEAVBullet@@V?$allocator@PEAVBullet@@@std@@@std@@PEAUID3D11Device@@@Z 000000014003ca5c     RangedEnemy.obj
 0004:00000a68       $pdata$?errorFunc@@YAJPEAU_EXCEPTION_POINTERS@@@Z 000000014003ca68     RobotAnnihilation.obj
 0004:00000a74       $pdata$WinMain             000000014003ca74     RobotAnnihilation.obj
 0004:00000a80       $pdata$?Shutdown@ShaderManager@@QEAAXXZ 000000014003ca80     ShaderManager.obj
 0004:00000a8c       $pdata$??0Item@Shop@@QEAA@W4WEAPONTYPE@1@MMMMV?$basic_string@DU?$char_traits@D@std@@V?$allocator@D@2@@std@@@Z 000000014003ca8c     Shop.obj
 0004:00000a98       $pdata$??1?$map@V?$basic_string@DU?$char_traits@D@std@@V?$allocator@D@2@@std@@PEAVUIElement@@U?$less@V?$basic_string@DU?$char_traits@D@std@@V?$allocator@D@2@@std@@@2@V?$allocator@U?$pair@$$CBV?$basic_string@DU?$char_traits@D@std@@V?$allocator@D@2@@std@@PEAVUIElement@@@std@@@2@@std@@QEAA@XZ 000000014003ca98     Shop.obj
 0004:00000aa4       $pdata$?Initialize@Shop@@QEAA_NXZ 000000014003caa4     Shop.obj
 0004:00000ab0       $pdata$?ShowARStats@Shop@@QEAAXXZ 000000014003cab0     Shop.obj
 0004:00000abc       $pdata$?ShowSMGStats@Shop@@QEAAXXZ 000000014003cabc     Shop.obj
 0004:00000ac8       $pdata$?ShowPistolStats@Shop@@QEAAXXZ 000000014003cac8     Shop.obj
 0004:00000ad4       $pdata$?ShowMeleStats@Shop@@QEAAXXZ 000000014003cad4     Shop.obj
 0004:00000ae0       $pdata$?Update@Shop@@QEAAXXZ 000000014003cae0     Shop.obj
 0004:00000aec       $pdata$??1Shop@@QEAA@XZ    000000014003caec     Shop.obj
 0004:00000af8       $pdata$??A?$map@V?$basic_string@DU?$char_traits@D@std@@V?$allocator@D@2@@std@@PEAVUIElement@@U?$less@V?$basic_string@DU?$char_traits@D@std@@V?$allocator@D@2@@std@@@2@V?$allocator@U?$pair@$$CBV?$basic_string@DU?$char_traits@D@std@@V?$allocator@D@2@@std@@PEAVUIElement@@@std@@@2@@std@@QEAAAEAPEAVUIElement@@$$QEAV?$basic_string@DU?$char_traits@D@std@@V?$allocator@D@2@@1@@Z 000000014003caf8     Shop.obj
 0004:00000af8       $pdata$??A?$map@V?$basic_string@DU?$char_traits@D@std@@V?$allocator@D@2@@std@@PEAUItem@Shop@@U?$less@V?$basic_string@DU?$char_traits@D@std@@V?$allocator@D@2@@std@@@2@V?$allocator@U?$pair@$$CBV?$basic_string@DU?$char_traits@D@std@@V?$allocator@D@2@@std@@PEAUItem@Shop@@@std@@@2@@std@@QEAAAEAPEAUItem@Shop@@$$QEAV?$basic_string@DU?$char_traits@D@std@@V?$allocator@D@2@@1@@Z 000000014003caf8     Shop.obj
 0004:00000b04       $pdata$1$??A?$map@V?$basic_string@DU?$char_traits@D@std@@V?$allocator@D@2@@std@@PEAVUIElement@@U?$less@V?$basic_string@DU?$char_traits@D@std@@V?$allocator@D@2@@std@@@2@V?$allocator@U?$pair@$$CBV?$basic_string@DU?$char_traits@D@std@@V?$allocator@D@2@@std@@PEAVUIElement@@@std@@@2@@std@@QEAAAEAPEAVUIElement@@$$QEAV?$basic_string@DU?$char_traits@D@std@@V?$allocator@D@2@@1@@Z 000000014003cb04     Shop.obj
 0004:00000b04       $pdata$1$??A?$map@V?$basic_string@DU?$char_traits@D@std@@V?$allocator@D@2@@std@@PEAUItem@Shop@@U?$less@V?$basic_string@DU?$char_traits@D@std@@V?$allocator@D@2@@std@@@2@V?$allocator@U?$pair@$$CBV?$basic_string@DU?$char_traits@D@std@@V?$allocator@D@2@@std@@PEAUItem@Shop@@@std@@@2@@std@@QEAAAEAPEAUItem@Shop@@$$QEAV?$basic_string@DU?$char_traits@D@std@@V?$allocator@D@2@@1@@Z 000000014003cb04     Shop.obj
 0004:00000b10       $pdata$2$??A?$map@V?$basic_string@DU?$char_traits@D@std@@V?$allocator@D@2@@std@@PEAUItem@Shop@@U?$less@V?$basic_string@DU?$char_traits@D@std@@V?$allocator@D@2@@std@@@2@V?$allocator@U?$pair@$$CBV?$basic_string@DU?$char_traits@D@std@@V?$allocator@D@2@@std@@PEAUItem@Shop@@@std@@@2@@std@@QEAAAEAPEAUItem@Shop@@$$QEAV?$basic_string@DU?$char_traits@D@std@@V?$allocator@D@2@@1@@Z 000000014003cb10     Shop.obj
 0004:00000b10       $pdata$2$??A?$map@V?$basic_string@DU?$char_traits@D@std@@V?$allocator@D@2@@std@@PEAVUIElement@@U?$less@V?$basic_string@DU?$char_traits@D@std@@V?$allocator@D@2@@std@@@2@V?$allocator@U?$pair@$$CBV?$basic_string@DU?$char_traits@D@std@@V?$allocator@D@2@@std@@PEAVUIElement@@@std@@@2@@std@@QEAAAEAPEAVUIElement@@$$QEAV?$basic_string@DU?$char_traits@D@std@@V?$allocator@D@2@@1@@Z 000000014003cb10     Shop.obj
 0004:00000b1c       $pdata$3$??A?$map@V?$basic_string@DU?$char_traits@D@std@@V?$allocator@D@2@@std@@PEAUItem@Shop@@U?$less@V?$basic_string@DU?$char_traits@D@std@@V?$allocator@D@2@@std@@@2@V?$allocator@U?$pair@$$CBV?$basic_string@DU?$char_traits@D@std@@V?$allocator@D@2@@std@@PEAUItem@Shop@@@std@@@2@@std@@QEAAAEAPEAUItem@Shop@@$$QEAV?$basic_string@DU?$char_traits@D@std@@V?$allocator@D@2@@1@@Z 000000014003cb1c     Shop.obj
 0004:00000b1c       $pdata$3$??A?$map@V?$basic_string@DU?$char_traits@D@std@@V?$allocator@D@2@@std@@PEAVUIElement@@U?$less@V?$basic_string@DU?$char_traits@D@std@@V?$allocator@D@2@@std@@@2@V?$allocator@U?$pair@$$CBV?$basic_string@DU?$char_traits@D@std@@V?$allocator@D@2@@std@@PEAVUIElement@@@std@@@2@@std@@QEAAAEAPEAVUIElement@@$$QEAV?$basic_string@DU?$char_traits@D@std@@V?$allocator@D@2@@1@@Z 000000014003cb1c     Shop.obj
 0004:00000b28       $pdata$4$??A?$map@V?$basic_string@DU?$char_traits@D@std@@V?$allocator@D@2@@std@@PEAUItem@Shop@@U?$less@V?$basic_string@DU?$char_traits@D@std@@V?$allocator@D@2@@std@@@2@V?$allocator@U?$pair@$$CBV?$basic_string@DU?$char_traits@D@std@@V?$allocator@D@2@@std@@PEAUItem@Shop@@@std@@@2@@std@@QEAAAEAPEAUItem@Shop@@$$QEAV?$basic_string@DU?$char_traits@D@std@@V?$allocator@D@2@@1@@Z 000000014003cb28     Shop.obj
 0004:00000b28       $pdata$4$??A?$map@V?$basic_string@DU?$char_traits@D@std@@V?$allocator@D@2@@std@@PEAVUIElement@@U?$less@V?$basic_string@DU?$char_traits@D@std@@V?$allocator@D@2@@std@@@2@V?$allocator@U?$pair@$$CBV?$basic_string@DU?$char_traits@D@std@@V?$allocator@D@2@@std@@PEAVUIElement@@@std@@@2@@std@@QEAAAEAPEAVUIElement@@$$QEAV?$basic_string@DU?$char_traits@D@std@@V?$allocator@D@2@@1@@Z 000000014003cb28     Shop.obj
 0004:00000b34       $pdata$?_Erase@?$_Tree@V?$_Tmap_traits@V?$basic_string@DU?$char_traits@D@std@@V?$allocator@D@2@@std@@PEAVUIElement@@U?$less@V?$basic_string@DU?$char_traits@D@std@@V?$allocator@D@2@@std@@@2@V?$allocator@U?$pair@$$CBV?$basic_string@DU?$char_traits@D@std@@V?$allocator@D@2@@std@@PEAVUIElement@@@std@@@2@$0A@@std@@@std@@IEAAXPEAU?$_Tree_node@U?$pair@$$CBV?$basic_string@DU?$char_traits@D@std@@V?$allocator@D@2@@std@@PEAVUIElement@@@std@@PEAX@2@@Z 000000014003cb34     Shop.obj
 0004:00000b34       $pdata$?_Erase@?$_Tree@V?$_Tmap_traits@V?$basic_string@DU?$char_traits@D@std@@V?$allocator@D@2@@std@@PEAUItem@Shop@@U?$less@V?$basic_string@DU?$char_traits@D@std@@V?$allocator@D@2@@std@@@2@V?$allocator@U?$pair@$$CBV?$basic_string@DU?$char_traits@D@std@@V?$allocator@D@2@@std@@PEAUItem@Shop@@@std@@@2@$0A@@std@@@std@@IEAAXPEAU?$_Tree_node@U?$pair@$$CBV?$basic_string@DU?$char_traits@D@std@@V?$allocator@D@2@@std@@PEAUItem@Shop@@@std@@PEAX@2@@Z 000000014003cb34     Shop.obj
 0004:00000b40       $pdata$0$?_Erase@?$_Tree@V?$_Tmap_traits@V?$basic_string@DU?$char_traits@D@std@@V?$allocator@D@2@@std@@PEAVUIElement@@U?$less@V?$basic_string@DU?$char_traits@D@std@@V?$allocator@D@2@@std@@@2@V?$allocator@U?$pair@$$CBV?$basic_string@DU?$char_traits@D@std@@V?$allocator@D@2@@std@@PEAVUIElement@@@std@@@2@$0A@@std@@@std@@IEAAXPEAU?$_Tree_node@U?$pair@$$CBV?$basic_string@DU?$char_traits@D@std@@V?$allocator@D@2@@std@@PEAVUIElement@@@std@@PEAX@2@@Z 000000014003cb40     Shop.obj
 0004:00000b40       $pdata$0$?_Erase@?$_Tree@V?$_Tmap_traits@V?$basic_string@DU?$char_traits@D@std@@V?$allocator@D@2@@std@@PEAUItem@Shop@@U?$less@V?$basic_string@DU?$char_traits@D@std@@V?$allocator@D@2@@std@@@2@V?$allocator@U?$pair@$$CBV?$basic_string@DU?$char_traits@D@std@@V?$allocator@D@2@@std@@PEAUItem@Shop@@@std@@@2@$0A@@std@@@std@@IEAAXPEAU?$_Tree_node@U?$pair@$$CBV?$basic_string@DU?$char_traits@D@std@@V?$allocator@D@2@@std@@PEAUItem@Shop@@@std@@PEAX@2@@Z 000000014003cb40     Shop.obj
 0004:00000b4c       $pdata$1$?_Erase@?$_Tree@V?$_Tmap_traits@V?$basic_string@DU?$char_traits@D@std@@V?$allocator@D@2@@std@@PEAVUIElement@@U?$less@V?$basic_string@DU?$char_traits@D@std@@V?$allocator@D@2@@std@@@2@V?$allocator@U?$pair@$$CBV?$basic_string@DU?$char_traits@D@std@@V?$allocator@D@2@@std@@PEAVUIElement@@@std@@@2@$0A@@std@@@std@@IEAAXPEAU?$_Tree_node@U?$pair@$$CBV?$basic_string@DU?$char_traits@D@std@@V?$allocator@D@2@@std@@PEAVUIElement@@@std@@PEAX@2@@Z 000000014003cb4c     Shop.obj
 0004:00000b4c       $pdata$1$?_Erase@?$_Tree@V?$_Tmap_traits@V?$basic_string@DU?$char_traits@D@std@@V?$allocator@D@2@@std@@PEAUItem@Shop@@U?$less@V?$basic_string@DU?$char_traits@D@std@@V?$allocator@D@2@@std@@@2@V?$allocator@U?$pair@$$CBV?$basic_string@DU?$char_traits@D@std@@V?$allocator@D@2@@std@@PEAUItem@Shop@@@std@@@2@$0A@@std@@@std@@IEAAXPEAU?$_Tree_node@U?$pair@$$CBV?$basic_string@DU?$char_traits@D@std@@V?$allocator@D@2@@std@@PEAUItem@Shop@@@std@@PEAX@2@@Z 000000014003cb4c     Shop.obj
 0004:00000b58       $pdata$2$?_Erase@?$_Tree@V?$_Tmap_traits@V?$basic_string@DU?$char_traits@D@std@@V?$allocator@D@2@@std@@PEAUItem@Shop@@U?$less@V?$basic_string@DU?$char_traits@D@std@@V?$allocator@D@2@@std@@@2@V?$allocator@U?$pair@$$CBV?$basic_string@DU?$char_traits@D@std@@V?$allocator@D@2@@std@@PEAUItem@Shop@@@std@@@2@$0A@@std@@@std@@IEAAXPEAU?$_Tree_node@U?$pair@$$CBV?$basic_string@DU?$char_traits@D@std@@V?$allocator@D@2@@std@@PEAUItem@Shop@@@std@@PEAX@2@@Z 000000014003cb58     Shop.obj
 0004:00000b58       $pdata$2$?_Erase@?$_Tree@V?$_Tmap_traits@V?$basic_string@DU?$char_traits@D@std@@V?$allocator@D@2@@std@@PEAVUIElement@@U?$less@V?$basic_string@DU?$char_traits@D@std@@V?$allocator@D@2@@std@@@2@V?$allocator@U?$pair@$$CBV?$basic_string@DU?$char_traits@D@std@@V?$allocator@D@2@@std@@PEAVUIElement@@@std@@@2@$0A@@std@@@std@@IEAAXPEAU?$_Tree_node@U?$pair@$$CBV?$basic_string@DU?$char_traits@D@std@@V?$allocator@D@2@@std@@PEAVUIElement@@@std@@PEAX@2@@Z 000000014003cb58     Shop.obj
 0004:00000b64       $pdata$?erase@?$_Tree@V?$_Tmap_traits@V?$basic_string@DU?$char_traits@D@std@@V?$allocator@D@2@@std@@PEAVUIElement@@U?$less@V?$basic_string@DU?$char_traits@D@std@@V?$allocator@D@2@@std@@@2@V?$allocator@U?$pair@$$CBV?$basic_string@DU?$char_traits@D@std@@V?$allocator@D@2@@std@@PEAVUIElement@@@std@@@2@$0A@@std@@@std@@QEAA?AV?$_Tree_iterator@V?$_Tree_val@U?$_Tree_simple_types@U?$pair@$$CBV?$basic_string@DU?$char_traits@D@std@@V?$allocator@D@2@@std@@PEAVUIElement@@@std@@@std@@@std@@@2@V?$_Tree_const_iterator@V?$_Tree_val@U?$_Tree_simple_types@U?$pair@$$CBV?$basic_string@DU?$char_traits@D@std@@V?$allocator@D@2@@std@@PEAVUIElement@@@std@@@std@@@std@@@2@0@Z 000000014003cb64     Shop.obj
 0004:00000b64       $pdata$?erase@?$_Tree@V?$_Tmap_traits@V?$basic_string@DU?$char_traits@D@std@@V?$allocator@D@2@@std@@PEAUItem@Shop@@U?$less@V?$basic_string@DU?$char_traits@D@std@@V?$allocator@D@2@@std@@@2@V?$allocator@U?$pair@$$CBV?$basic_string@DU?$char_traits@D@std@@V?$allocator@D@2@@std@@PEAUItem@Shop@@@std@@@2@$0A@@std@@@std@@QEAA?AV?$_Tree_iterator@V?$_Tree_val@U?$_Tree_simple_types@U?$pair@$$CBV?$basic_string@DU?$char_traits@D@std@@V?$allocator@D@2@@std@@PEAUItem@Shop@@@std@@@std@@@std@@@2@V?$_Tree_const_iterator@V?$_Tree_val@U?$_Tree_simple_types@U?$pair@$$CBV?$basic_string@DU?$char_traits@D@std@@V?$allocator@D@2@@std@@PEAUItem@Shop@@@std@@@std@@@std@@@2@0@Z 000000014003cb64     Shop.obj
 0004:00000b70       $pdata$?_Extract@?$_Tree_val@U?$_Tree_simple_types@U?$pair@$$CBV?$basic_string@DU?$char_traits@D@std@@V?$allocator@D@2@@std@@PEAVUIElement@@@std@@@std@@@std@@QEAAPEAU?$_Tree_node@U?$pair@$$CBV?$basic_string@DU?$char_traits@D@std@@V?$allocator@D@2@@std@@PEAVUIElement@@@std@@PEAX@2@V?$_Tree_const_iterator@V?$_Tree_val@U?$_Tree_simple_types@U?$pair@$$CBV?$basic_string@DU?$char_traits@D@std@@V?$allocator@D@2@@std@@PEAVUIElement@@@std@@@std@@@std@@@2@@Z 000000014003cb70     Shop.obj
 0004:00000b70       $pdata$?_Extract@?$_Tree_val@U?$_Tree_simple_types@U?$pair@$$CBV?$basic_string@DU?$char_traits@D@std@@V?$allocator@D@2@@std@@PEAUItem@Shop@@@std@@@std@@@std@@QEAAPEAU?$_Tree_node@U?$pair@$$CBV?$basic_string@DU?$char_traits@D@std@@V?$allocator@D@2@@std@@PEAUItem@Shop@@@std@@PEAX@2@V?$_Tree_const_iterator@V?$_Tree_val@U?$_Tree_simple_types@U?$pair@$$CBV?$basic_string@DU?$char_traits@D@std@@V?$allocator@D@2@@std@@PEAUItem@Shop@@@std@@@std@@@std@@@2@@Z 000000014003cb70     Shop.obj
 0004:00000b7c       $pdata$?_Buyheadnode@?$_Tree_comp_alloc@V?$_Tmap_traits@V?$basic_string@DU?$char_traits@D@std@@V?$allocator@D@2@@std@@PEAVUIElement@@U?$less@V?$basic_string@DU?$char_traits@D@std@@V?$allocator@D@2@@std@@@2@V?$allocator@U?$pair@$$CBV?$basic_string@DU?$char_traits@D@std@@V?$allocator@D@2@@std@@PEAVUIElement@@@std@@@2@$0A@@std@@@std@@QEAAPEAU?$_Tree_node@U?$pair@$$CBV?$basic_string@DU?$char_traits@D@std@@V?$allocator@D@2@@std@@PEAVUIElement@@@std@@PEAX@2@XZ 000000014003cb7c     Shop.obj
 0004:00000b7c       $pdata$?_Buyheadnode@?$_Tree_comp_alloc@V?$_Tmap_traits@V?$basic_string@DU?$char_traits@D@std@@V?$allocator@D@2@@std@@PEAUItem@Shop@@U?$less@V?$basic_string@DU?$char_traits@D@std@@V?$allocator@D@2@@std@@@2@V?$allocator@U?$pair@$$CBV?$basic_string@DU?$char_traits@D@std@@V?$allocator@D@2@@std@@PEAUItem@Shop@@@std@@@2@$0A@@std@@@std@@QEAAPEAU?$_Tree_node@U?$pair@$$CBV?$basic_string@DU?$char_traits@D@std@@V?$allocator@D@2@@std@@PEAUItem@Shop@@@std@@PEAX@2@XZ 000000014003cb7c     Shop.obj
 0004:00000b88       $pdata$??$_Buynode@AEBUpiecewise_construct_t@std@@V?$tuple@$$QEAV?$basic_string@DU?$char_traits@D@std@@V?$allocator@D@2@@std@@@2@V?$tuple@$$V@2@@?$_Tree_comp_alloc@V?$_Tmap_traits@V?$basic_string@DU?$char_traits@D@std@@V?$allocator@D@2@@std@@PEAVUIElement@@U?$less@V?$basic_string@DU?$char_traits@D@std@@V?$allocator@D@2@@std@@@2@V?$allocator@U?$pair@$$CBV?$basic_string@DU?$char_traits@D@std@@V?$allocator@D@2@@std@@PEAVUIElement@@@std@@@2@$0A@@std@@@std@@QEAAPEAU?$_Tree_node@U?$pair@$$CBV?$basic_string@DU?$char_traits@D@std@@V?$allocator@D@2@@std@@PEAVUIElement@@@std@@PEAX@1@AEBUpiecewise_construct_t@1@$$QEAV?$tuple@$$QEAV?$basic_string@DU?$char_traits@D@std@@V?$allocator@D@2@@std@@@1@$$QEAV?$tuple@$$V@1@@Z 000000014003cb88     Shop.obj
 0004:00000b88       $pdata$??$_Buynode@AEBUpiecewise_construct_t@std@@V?$tuple@$$QEAV?$basic_string@DU?$char_traits@D@std@@V?$allocator@D@2@@std@@@2@V?$tuple@$$V@2@@?$_Tree_comp_alloc@V?$_Tmap_traits@V?$basic_string@DU?$char_traits@D@std@@V?$allocator@D@2@@std@@PEAUItem@Shop@@U?$less@V?$basic_string@DU?$char_traits@D@std@@V?$allocator@D@2@@std@@@2@V?$allocator@U?$pair@$$CBV?$basic_string@DU?$char_traits@D@std@@V?$allocator@D@2@@std@@PEAUItem@Shop@@@std@@@2@$0A@@std@@@std@@QEAAPEAU?$_Tree_node@U?$pair@$$CBV?$basic_string@DU?$char_traits@D@std@@V?$allocator@D@2@@std@@PEAUItem@Shop@@@std@@PEAX@1@AEBUpiecewise_construct_t@1@$$QEAV?$tuple@$$QEAV?$basic_string@DU?$char_traits@D@std@@V?$allocator@D@2@@std@@@1@$$QEAV?$tuple@$$V@1@@Z 000000014003cb88     Shop.obj
 0004:00000b94       $pdata$??$_Insert_hint@AEAU?$pair@$$CBV?$basic_string@DU?$char_traits@D@std@@V?$allocator@D@2@@std@@PEAVUIElement@@@std@@PEAU?$_Tree_node@U?$pair@$$CBV?$basic_string@DU?$char_traits@D@std@@V?$allocator@D@2@@std@@PEAVUIElement@@@std@@PEAX@2@@?$_Tree@V?$_Tmap_traits@V?$basic_string@DU?$char_traits@D@std@@V?$allocator@D@2@@std@@PEAVUIElement@@U?$less@V?$basic_string@DU?$char_traits@D@std@@V?$allocator@D@2@@std@@@2@V?$allocator@U?$pair@$$CBV?$basic_string@DU?$char_traits@D@std@@V?$allocator@D@2@@std@@PEAVUIElement@@@std@@@2@$0A@@std@@@std@@IEAA?AV?$_Tree_iterator@V?$_Tree_val@U?$_Tree_simple_types@U?$pair@$$CBV?$basic_string@DU?$char_traits@D@std@@V?$allocator@D@2@@std@@PEAVUIElement@@@std@@@std@@@std@@@1@V?$_Tree_const_iterator@V?$_Tree_val@U?$_Tree_simple_types@U?$pair@$$CBV?$basic_string@DU?$char_traits@D@std@@V?$allocator@D@2@@std@@PEAVUIElement@@@std@@@std@@@std@@@1@AEAU?$pair@$$CBV?$basic_string@DU?$char_traits@D@std@@V?$allocator@D@2@@std@@PEAVUIElement@@@1@PEAU?$_Tree_node@U?$pair@$$CBV?$basic_string@DU?$char_traits@D@std@@V?$allocator@D@2@@std@@PEAVUIElement@@@std@@PEAX@1@@Z 000000014003cb94     Shop.obj
 0004:00000b94       $pdata$??$_Insert_hint@AEAU?$pair@$$CBV?$basic_string@DU?$char_traits@D@std@@V?$allocator@D@2@@std@@PEAUItem@Shop@@@std@@PEAU?$_Tree_node@U?$pair@$$CBV?$basic_string@DU?$char_traits@D@std@@V?$allocator@D@2@@std@@PEAUItem@Shop@@@std@@PEAX@2@@?$_Tree@V?$_Tmap_traits@V?$basic_string@DU?$char_traits@D@std@@V?$allocator@D@2@@std@@PEAUItem@Shop@@U?$less@V?$basic_string@DU?$char_traits@D@std@@V?$allocator@D@2@@std@@@2@V?$allocator@U?$pair@$$CBV?$basic_string@DU?$char_traits@D@std@@V?$allocator@D@2@@std@@PEAUItem@Shop@@@std@@@2@$0A@@std@@@std@@IEAA?AV?$_Tree_iterator@V?$_Tree_val@U?$_Tree_simple_types@U?$pair@$$CBV?$basic_string@DU?$char_traits@D@std@@V?$allocator@D@2@@std@@PEAUItem@Shop@@@std@@@std@@@std@@@1@V?$_Tree_const_iterator@V?$_Tree_val@U?$_Tree_simple_types@U?$pair@$$CBV?$basic_string@DU?$char_traits@D@std@@V?$allocator@D@2@@std@@PEAUItem@Shop@@@std@@@std@@@std@@@1@AEAU?$pair@$$CBV?$basic_string@DU?$char_traits@D@std@@V?$allocator@D@2@@std@@PEAUItem@Shop@@@1@PEAU?$_Tree_node@U?$pair@$$CBV?$basic_string@DU?$char_traits@D@std@@V?$allocator@D@2@@std@@PEAUItem@Shop@@@std@@PEAX@1@@Z 000000014003cb94     Shop.obj
 0004:00000ba0       $pdata$?_Buynode0@?$_Tree_comp_alloc@V?$_Tmap_traits@V?$basic_string@DU?$char_traits@D@std@@V?$allocator@D@2@@std@@PEAUItem@Shop@@U?$less@V?$basic_string@DU?$char_traits@D@std@@V?$allocator@D@2@@std@@@2@V?$allocator@U?$pair@$$CBV?$basic_string@DU?$char_traits@D@std@@V?$allocator@D@2@@std@@PEAUItem@Shop@@@std@@@2@$0A@@std@@@std@@QEAAPEAU?$_Tree_node@U?$pair@$$CBV?$basic_string@DU?$char_traits@D@std@@V?$allocator@D@2@@std@@PEAUItem@Shop@@@std@@PEAX@2@XZ 000000014003cba0     Shop.obj
 0004:00000ba0       $pdata$?_Buynode0@?$_Tree_comp_alloc@V?$_Tmap_traits@V?$basic_string@DU?$char_traits@D@std@@V?$allocator@D@2@@std@@PEAVUIElement@@U?$less@V?$basic_string@DU?$char_traits@D@std@@V?$allocator@D@2@@std@@@2@V?$allocator@U?$pair@$$CBV?$basic_string@DU?$char_traits@D@std@@V?$allocator@D@2@@std@@PEAVUIElement@@@std@@@2@$0A@@std@@@std@@QEAAPEAU?$_Tree_node@U?$pair@$$CBV?$basic_string@DU?$char_traits@D@std@@V?$allocator@D@2@@std@@PEAVUIElement@@@std@@PEAX@2@XZ 000000014003cba0     Shop.obj
 0004:00000bac       $pdata$?_Destroy_if_node@?$_Tree@V?$_Tmap_traits@V?$basic_string@DU?$char_traits@D@std@@V?$allocator@D@2@@std@@PEAUItem@Shop@@U?$less@V?$basic_string@DU?$char_traits@D@std@@V?$allocator@D@2@@std@@@2@V?$allocator@U?$pair@$$CBV?$basic_string@DU?$char_traits@D@std@@V?$allocator@D@2@@std@@PEAUItem@Shop@@@std@@@2@$0A@@std@@@std@@IEAAXPEAU?$_Tree_node@U?$pair@$$CBV?$basic_string@DU?$char_traits@D@std@@V?$allocator@D@2@@std@@PEAUItem@Shop@@@std@@PEAX@2@@Z 000000014003cbac     Shop.obj
 0004:00000bac       $pdata$?_Destroy_if_node@?$_Tree@V?$_Tmap_traits@V?$basic_string@DU?$char_traits@D@std@@V?$allocator@D@2@@std@@PEAVUIElement@@U?$less@V?$basic_string@DU?$char_traits@D@std@@V?$allocator@D@2@@std@@@2@V?$allocator@U?$pair@$$CBV?$basic_string@DU?$char_traits@D@std@@V?$allocator@D@2@@std@@PEAVUIElement@@@std@@@2@$0A@@std@@@std@@IEAAXPEAU?$_Tree_node@U?$pair@$$CBV?$basic_string@DU?$char_traits@D@std@@V?$allocator@D@2@@std@@PEAVUIElement@@@std@@PEAX@2@@Z 000000014003cbac     Shop.obj
 0004:00000bb8       $pdata$??$_Insert_at@AEAU?$pair@$$CBV?$basic_string@DU?$char_traits@D@std@@V?$allocator@D@2@@std@@PEAUItem@Shop@@@std@@PEAU?$_Tree_node@U?$pair@$$CBV?$basic_string@DU?$char_traits@D@std@@V?$allocator@D@2@@std@@PEAUItem@Shop@@@std@@PEAX@2@@?$_Tree@V?$_Tmap_traits@V?$basic_string@DU?$char_traits@D@std@@V?$allocator@D@2@@std@@PEAUItem@Shop@@U?$less@V?$basic_string@DU?$char_traits@D@std@@V?$allocator@D@2@@std@@@2@V?$allocator@U?$pair@$$CBV?$basic_string@DU?$char_traits@D@std@@V?$allocator@D@2@@std@@PEAUItem@Shop@@@std@@@2@$0A@@std@@@std@@IEAA?AV?$_Tree_iterator@V?$_Tree_val@U?$_Tree_simple_types@U?$pair@$$CBV?$basic_string@DU?$char_traits@D@std@@V?$allocator@D@2@@std@@PEAUItem@Shop@@@std@@@std@@@std@@@1@_NPEAU?$_Tree_node@U?$pair@$$CBV?$basic_string@DU?$char_traits@D@std@@V?$allocator@D@2@@std@@PEAUItem@Shop@@@std@@PEAX@1@AEAU?$pair@$$CBV?$basic_string@DU?$char_traits@D@std@@V?$allocator@D@2@@std@@PEAUItem@Shop@@@1@1@Z 000000014003cbb8     Shop.obj
 0004:00000bb8       $pdata$??$_Insert_at@AEAU?$pair@$$CBV?$basic_string@DU?$char_traits@D@std@@V?$allocator@D@2@@std@@PEAVUIElement@@@std@@PEAU?$_Tree_node@U?$pair@$$CBV?$basic_string@DU?$char_traits@D@std@@V?$allocator@D@2@@std@@PEAVUIElement@@@std@@PEAX@2@@?$_Tree@V?$_Tmap_traits@V?$basic_string@DU?$char_traits@D@std@@V?$allocator@D@2@@std@@PEAVUIElement@@U?$less@V?$basic_string@DU?$char_traits@D@std@@V?$allocator@D@2@@std@@@2@V?$allocator@U?$pair@$$CBV?$basic_string@DU?$char_traits@D@std@@V?$allocator@D@2@@std@@PEAVUIElement@@@std@@@2@$0A@@std@@@std@@IEAA?AV?$_Tree_iterator@V?$_Tree_val@U?$_Tree_simple_types@U?$pair@$$CBV?$basic_string@DU?$char_traits@D@std@@V?$allocator@D@2@@std@@PEAVUIElement@@@std@@@std@@@std@@@1@_NPEAU?$_Tree_node@U?$pair@$$CBV?$basic_string@DU?$char_traits@D@std@@V?$allocator@D@2@@std@@PEAVUIElement@@@std@@PEAX@1@AEAU?$pair@$$CBV?$basic_string@DU?$char_traits@D@std@@V?$allocator@D@2@@std@@PEAVUIElement@@@1@1@Z 000000014003cbb8     Shop.obj
 0004:00000bc4       $pdata$??$_Insert_nohint@AEAU?$pair@$$CBV?$basic_string@DU?$char_traits@D@std@@V?$allocator@D@2@@std@@PEAUItem@Shop@@@std@@PEAU?$_Tree_node@U?$pair@$$CBV?$basic_string@DU?$char_traits@D@std@@V?$allocator@D@2@@std@@PEAUItem@Shop@@@std@@PEAX@2@@?$_Tree@V?$_Tmap_traits@V?$basic_string@DU?$char_traits@D@std@@V?$allocator@D@2@@std@@PEAUItem@Shop@@U?$less@V?$basic_string@DU?$char_traits@D@std@@V?$allocator@D@2@@std@@@2@V?$allocator@U?$pair@$$CBV?$basic_string@DU?$char_traits@D@std@@V?$allocator@D@2@@std@@PEAUItem@Shop@@@std@@@2@$0A@@std@@@std@@IEAA?AU?$pair@V?$_Tree_iterator@V?$_Tree_val@U?$_Tree_simple_types@U?$pair@$$CBV?$basic_string@DU?$char_traits@D@std@@V?$allocator@D@2@@std@@PEAUItem@Shop@@@std@@@std@@@std@@@std@@_N@1@_NAEAU?$pair@$$CBV?$basic_string@DU?$char_traits@D@std@@V?$allocator@D@2@@std@@PEAUItem@Shop@@@1@PEAU?$_Tree_node@U?$pair@$$CBV?$basic_string@DU?$char_traits@D@std@@V?$allocator@D@2@@std@@PEAUItem@Shop@@@std@@PEAX@1@@Z 000000014003cbc4     Shop.obj
 0004:00000bc4       $pdata$??$_Insert_nohint@AEAU?$pair@$$CBV?$basic_string@DU?$char_traits@D@std@@V?$allocator@D@2@@std@@PEAVUIElement@@@std@@PEAU?$_Tree_node@U?$pair@$$CBV?$basic_string@DU?$char_traits@D@std@@V?$allocator@D@2@@std@@PEAVUIElement@@@std@@PEAX@2@@?$_Tree@V?$_Tmap_traits@V?$basic_string@DU?$char_traits@D@std@@V?$allocator@D@2@@std@@PEAVUIElement@@U?$less@V?$basic_string@DU?$char_traits@D@std@@V?$allocator@D@2@@std@@@2@V?$allocator@U?$pair@$$CBV?$basic_string@DU?$char_traits@D@std@@V?$allocator@D@2@@std@@PEAVUIElement@@@std@@@2@$0A@@std@@@std@@IEAA?AU?$pair@V?$_Tree_iterator@V?$_Tree_val@U?$_Tree_simple_types@U?$pair@$$CBV?$basic_string@DU?$char_traits@D@std@@V?$allocator@D@2@@std@@PEAVUIElement@@@std@@@std@@@std@@@std@@_N@1@_NAEAU?$pair@$$CBV?$basic_string@DU?$char_traits@D@std@@V?$allocator@D@2@@std@@PEAVUIElement@@@1@PEAU?$_Tree_node@U?$pair@$$CBV?$basic_string@DU?$char_traits@D@std@@V?$allocator@D@2@@std@@PEAVUIElement@@@std@@PEAX@1@@Z 000000014003cbc4     Shop.obj
 0004:00000bd0       $pdata$?CompileShaders@SkyboxShader@@AEAA_NPEAUID3D11Device@@PEA_W1@Z 000000014003cbd0     SkyboxShader.obj
 0004:00000bdc       $pdata$?ProcessShaderErrors@SkyboxShader@@AEAAXPEAUID3D10Blob@@@Z 000000014003cbdc     SkyboxShader.obj
 0004:00000bdc       $pdata$?ProcessShaderErrors@AnimatedShader@@AEAAXPEAUID3D10Blob@@@Z 000000014003cbdc     shaderstuff.obj
 0004:00000bdc       $pdata$?ProcessShaderErrors@StaticShader@@AEAAXPEAUID3D10Blob@@@Z 000000014003cbdc     StaticShader.obj
 0004:00000be8       $pdata$??_D?$basic_ofstream@DU?$char_traits@D@std@@@std@@QEAAXXZ 000000014003cbe8     SkyboxShader.obj
 0004:00000bf4       $pdata$?UpdateShaderBuffers@SkyboxShader@@AEAA_NPEAUID3D11DeviceContext@@UXMMATRIX@DirectX@@11PEAUID3D11ShaderResourceView@@@Z 000000014003cbf4     SkyboxShader.obj
 0004:00000c00       $pdata$??0?$basic_ofstream@DU?$char_traits@D@std@@@std@@QEAA@XZ 000000014003cc00     SkyboxShader.obj
 0004:00000c0c       $pdata$??_G?$basic_ofstream@DU?$char_traits@D@std@@@std@@UEAAPEAXI@Z 000000014003cc0c     SkyboxShader.obj
 0004:00000c18       $pdata$??$?6U?$char_traits@D@std@@@std@@YAAEAV?$basic_ostream@DU?$char_traits@D@std@@@0@AEAV10@D@Z 000000014003cc18     SkyboxShader.obj
 0004:00000c24       $pdata$??1sentry@?$basic_ostream@DU?$char_traits@D@std@@@std@@QEAA@XZ 000000014003cc24     SkyboxShader.obj
 0004:00000c30       $pdata$??1_Sentry_base@?$basic_ostream@DU?$char_traits@D@std@@@std@@QEAA@XZ 000000014003cc30     SkyboxShader.obj
 0004:00000c3c       $pdata$?Initialize@Sound@@QEAA_NPEAUHWND__@@@Z 000000014003cc3c     Sound.obj
 0004:00000c48       $pdata$?LoadWaveFile@Sound@@AEAA_NPEBDPEAPEAUIDirectSoundBuffer8@@@Z 000000014003cc48     Sound.obj
 0004:00000c54       $pdata$?Render@StaticShader@@QEAA_NPEAUID3D11DeviceContext@@HUXMMATRIX@DirectX@@11PEAUID3D11ShaderResourceView@@UXMFLOAT3@4@UXMFLOAT4@4@QEAU74@54444444@Z 000000014003cc54     StaticShader.obj
 0004:00000c60       $pdata$?CompileShaders@StaticShader@@AEAA_NPEAUID3D11Device@@PEA_W1@Z 000000014003cc60     StaticShader.obj
 0004:00000c6c       $pdata$??1UIElement@@QEAA@XZ 000000014003cc6c     UIElement.obj
 0004:00000c78       $pdata$??0TextElement@@QEAA@UtagRECT@@_N1Ufloat2@@HPEAD@Z 000000014003cc78     UIElement.obj
 0004:00000c84       $pdata$?Update@ButtonElement@@UEAAXXZ 000000014003cc84     UIElement.obj
 0004:00000c90       $pdata$?SetDefaultTexture@ButtonElement@@QEAAXPEBD@Z 000000014003cc90     UIElement.obj
 0004:00000c9c       $pdata$?SetMouseOverTexture@ButtonElement@@QEAAXPEBD@Z 000000014003cc9c     UIElement.obj
 0004:00000ca8       $pdata$?SetMouseClickTexture@ButtonElement@@QEAAXPEBD@Z 000000014003cca8     UIElement.obj
 0004:00000cb4       $pdata$??0Target@@QEAA@XZ  000000014003ccb4     Target.obj
 0004:00000cc0       $pdata$?Initialize@Target@@UEAA_NPEAUID3D11Device@@PEBDUfloat3@@@Z 000000014003ccc0     Target.obj
 0004:00000ccc       $pdata$?Update@Target@@UEAAXMPEAVPlayer@@AEAV?$vector@PEAVBullet@@V?$allocator@PEAVBullet@@@std@@@std@@PEAUID3D11Device@@@Z 000000014003cccc     Target.obj
 0004:00000cd8       $pdata$?Render@UIManager@@QEAAXAEAV?$unique_ptr@VSpriteBatch@DirectX@@U?$default_delete@VSpriteBatch@DirectX@@@std@@@std@@AEAV?$unique_ptr@VSpriteFont@DirectX@@U?$default_delete@VSpriteFont@DirectX@@@std@@@3@1@Z 000000014003ccd8     UIManager.obj
 0004:00000ce4       $pdata$3$?Render@UIManager@@QEAAXAEAV?$unique_ptr@VSpriteBatch@DirectX@@U?$default_delete@VSpriteBatch@DirectX@@@std@@@std@@AEAV?$unique_ptr@VSpriteFont@DirectX@@U?$default_delete@VSpriteFont@DirectX@@@std@@@3@1@Z 000000014003cce4     UIManager.obj
 0004:00000cf0       $pdata$4$?Render@UIManager@@QEAAXAEAV?$unique_ptr@VSpriteBatch@DirectX@@U?$default_delete@VSpriteBatch@DirectX@@@std@@@std@@AEAV?$unique_ptr@VSpriteFont@DirectX@@U?$default_delete@VSpriteFont@DirectX@@@std@@@3@1@Z 000000014003ccf0     UIManager.obj
 0004:00000cfc       $pdata$?CreateText@UIManager@@QEAAPEAVUIElement@@UtagRECT@@_N1Ufloat2@@HPEBD@Z 000000014003ccfc     UIManager.obj
 0004:00000d08       $pdata$?CreateText@UIManager@@QEAAPEAVUIElement@@UtagRECT@@_N1Ufloat2@@HV?$basic_string@DU?$char_traits@D@std@@V?$allocator@D@2@@std@@@Z 000000014003cd08     UIManager.obj
 0004:00000d14       $pdata$?CreateImage@UIManager@@QEAAPEAVUIElement@@UtagRECT@@_N1Ufloat2@@PEBDPEAUID3D11Device@@@Z 000000014003cd14     UIManager.obj
 0004:00000d20       $pdata$?CreateButton@UIManager@@QEAAPEAVUIElement@@UtagRECT@@_N1Ufloat2@@PEAUID3D11Device@@HPEBD@Z 000000014003cd20     UIManager.obj
 0004:00000d2c       $pdata$?<lambda_invoker_cdecl>@<lambda_9db9824f8b18fe401689e63f3bf6b9e4>@@CAHPEAT_RTL_RUN_ONCE@@PEAXPEAPEAX@Z 000000014003cd2c     WICTextureLoader.obj
 0004:00000d38       $pdata$?_WICBitsPerPixel@?A0x045efb5a@@YA_KAEBU_GUID@@@Z 000000014003cd38     WICTextureLoader.obj
 0004:00000d44       $pdata$?CreateTextureFromWIC@?A0x045efb5a@@YAJPEAUID3D11Device@@PEAUID3D11DeviceContext@@PEAUIWICBitmapFrameDecode@@_KW4D3D11_USAGE@@IIIIPEAPEAUID3D11Resource@@PEAPEAUID3D11ShaderResourceView@@@Z 000000014003cd44     WICTextureLoader.obj
 0004:00000d50       $pdata$?CreateWICTextureFromFileEx@DirectX@@YAJPEAUID3D11Device@@PEAUID3D11DeviceContext@@PEB_W_KW4D3D11_USAGE@@IIIIPEAPEAUID3D11Resource@@PEAPEAUID3D11ShaderResourceView@@@Z 000000014003cd50     WICTextureLoader.obj
 0004:00000d5c       $pdata$?CompileShaders@AnimatedShader@@AEAA_NPEAUID3D11Device@@PEA_W1@Z 000000014003cd5c     shaderstuff.obj
 0004:00000d68       $pdata$?UpdateShaderBuffers@AnimatedShader@@AEAA_NPEAUID3D11DeviceContext@@UXMMATRIX@DirectX@@11PEAUID3D11ShaderResourceView@@UXMFLOAT3@4@UXMFLOAT4@4@V?$vector@V?$array@Ufloat4@@$03@std@@V?$allocator@V?$array@Ufloat4@@$03@std@@@2@@std@@QEAU74@64444444@Z 000000014003cd68     shaderstuff.obj
 0004:00000d74       $pdata$?_Destroy@?$_Ref_count_obj@UResourceMap@?$SharedResourcePool@PEAUID3D11Device@@UDeviceResources@Impl@SpriteBatch@DirectX@@$$V@DirectX@@@std@@EEAAXXZ 000000014003cd74     DirectXTK:SpriteBatch.obj
 0004:00000d74       $pdata$?_Destroy@?$_Ref_count_obj@UResourceMap@?$SharedResourcePool@PEAUID3D11Device@@VImpl@CommonStates@DirectX@@$$V@DirectX@@@std@@EEAAXXZ 000000014003cd74     DirectXTK:CommonStates.obj
 0004:00000d74       $pdata$?_Destroy@?$_Ref_count_obj@UResourceMap@?$SharedResourcePool@PEAUID3D11DeviceContext@@UContextResources@Impl@SpriteBatch@DirectX@@$$V@DirectX@@@std@@EEAAXXZ 000000014003cd74     DirectXTK:SpriteBatch.obj
 0004:00000d80       $pdata$??_G?$_Ref_count_obj@UResourceMap@?$SharedResourcePool@PEAUID3D11Device@@UDeviceResources@Impl@SpriteBatch@DirectX@@$$V@DirectX@@@std@@UEAAPEAXI@Z 000000014003cd80     DirectXTK:SpriteBatch.obj
 0004:00000d80       $pdata$??_G?$_Ref_count_obj@UResourceMap@?$SharedResourcePool@PEAUID3D11DeviceContext@@UContextResources@Impl@SpriteBatch@DirectX@@$$V@DirectX@@@std@@UEAAPEAXI@Z 000000014003cd80     DirectXTK:SpriteBatch.obj
 0004:00000d80       $pdata$??_G?$_Ref_count_obj@UResourceMap@?$SharedResourcePool@PEAUID3D11Device@@VImpl@CommonStates@DirectX@@$$V@DirectX@@@std@@UEAAPEAXI@Z 000000014003cd80     DirectXTK:CommonStates.obj
 0004:00000d8c       $pdata$??$_Buynode@AEAU?$pair@PEAUID3D11DeviceContext@@V?$shared_ptr@UWrappedData@?$SharedResourcePool@PEAUID3D11DeviceContext@@UContextResources@Impl@SpriteBatch@DirectX@@$$V@DirectX@@@std@@@std@@@?$_Tree_comp_alloc@V?$_Tmap_traits@PEAUID3D11DeviceContext@@V?$weak_ptr@UContextResources@Impl@SpriteBatch@DirectX@@@std@@U?$less@PEAUID3D11DeviceContext@@@3@V?$allocator@U?$pair@QEAUID3D11DeviceContext@@V?$weak_ptr@UContextResources@Impl@SpriteBatch@DirectX@@@std@@@std@@@3@$0A@@std@@@std@@QEAAPEAU?$_Tree_node@U?$pair@QEAUID3D11DeviceContext@@V?$weak_ptr@UContextResources@Impl@SpriteBatch@DirectX@@@std@@@std@@PEAX@1@AEAU?$pair@PEAUID3D11DeviceContext@@V?$shared_ptr@UWrappedData@?$SharedResourcePool@PEAUID3D11DeviceContext@@UContextResources@Impl@SpriteBatch@DirectX@@$$V@DirectX@@@std@@@1@@Z 000000014003cd8c     DirectXTK:SpriteBatch.obj
 0004:00000d8c       $pdata$??$_Buynode@AEAU?$pair@PEAUID3D11Device@@V?$shared_ptr@UWrappedData@?$SharedResourcePool@PEAUID3D11Device@@VImpl@CommonStates@DirectX@@$$V@DirectX@@@std@@@std@@@?$_Tree_comp_alloc@V?$_Tmap_traits@PEAUID3D11Device@@V?$weak_ptr@VImpl@CommonStates@DirectX@@@std@@U?$less@PEAUID3D11Device@@@3@V?$allocator@U?$pair@QEAUID3D11Device@@V?$weak_ptr@VImpl@CommonStates@DirectX@@@std@@@std@@@3@$0A@@std@@@std@@QEAAPEAU?$_Tree_node@U?$pair@QEAUID3D11Device@@V?$weak_ptr@VImpl@CommonStates@DirectX@@@std@@@std@@PEAX@1@AEAU?$pair@PEAUID3D11Device@@V?$shared_ptr@UWrappedData@?$SharedResourcePool@PEAUID3D11Device@@VImpl@CommonStates@DirectX@@$$V@DirectX@@@std@@@1@@Z 000000014003cd8c     DirectXTK:CommonStates.obj
 0004:00000d8c       $pdata$??$_Buynode@AEAU?$pair@PEAUID3D11Device@@V?$shared_ptr@UWrappedData@?$SharedResourcePool@PEAUID3D11Device@@UDeviceResources@Impl@SpriteBatch@DirectX@@$$V@DirectX@@@std@@@std@@@?$_Tree_comp_alloc@V?$_Tmap_traits@PEAUID3D11Device@@V?$weak_ptr@UDeviceResources@Impl@SpriteBatch@DirectX@@@std@@U?$less@PEAUID3D11Device@@@3@V?$allocator@U?$pair@QEAUID3D11Device@@V?$weak_ptr@UDeviceResources@Impl@SpriteBatch@DirectX@@@std@@@std@@@3@$0A@@std@@@std@@QEAAPEAU?$_Tree_node@U?$pair@QEAUID3D11Device@@V?$weak_ptr@UDeviceResources@Impl@SpriteBatch@DirectX@@@std@@@std@@PEAX@1@AEAU?$pair@PEAUID3D11Device@@V?$shared_ptr@UWrappedData@?$SharedResourcePool@PEAUID3D11Device@@UDeviceResources@Impl@SpriteBatch@DirectX@@$$V@DirectX@@@std@@@1@@Z 000000014003cd8c     DirectXTK:SpriteBatch.obj
 0004:00000d98       $pdata$??$_Emplace_reallocate@AEAPEAUID3D11ShaderResourceView@@@?$vector@V?$ComPtr@UID3D11ShaderResourceView@@@WRL@Microsoft@@V?$allocator@V?$ComPtr@UID3D11ShaderResourceView@@@WRL@Microsoft@@@std@@@std@@QEAAPEAV?$ComPtr@UID3D11ShaderResourceView@@@WRL@Microsoft@@QEAV234@AEAPEAUID3D11ShaderResourceView@@@Z 000000014003cd98     DirectXTK:SpriteBatch.obj
 0004:00000da4       $pdata$??$_Emplace_reallocate@AEBF@?$vector@FV?$allocator@F@std@@@std@@QEAAPEAFQEAFAEBF@Z 000000014003cda4     DirectXTK:SpriteBatch.obj
 0004:00000da4       $pdata$??$_Emplace_reallocate@F@?$vector@FV?$allocator@F@std@@@std@@QEAAPEAFQEAF$$QEAF@Z 000000014003cda4     DirectXTK:SpriteBatch.obj
 0004:00000db0       $pdata$??$_Guess_median_unchecked@PEAPEBUSpriteInfo@Impl@SpriteBatch@DirectX@@V<lambda_9829e134287828d35661b3276427a812>@@@std@@YAXPEAPEBUSpriteInfo@Impl@SpriteBatch@DirectX@@00V<lambda_9829e134287828d35661b3276427a812>@@@Z 000000014003cdb0     DirectXTK:SpriteBatch.obj
 0004:00000dbc       $pdata$0$??$_Guess_median_unchecked@PEAPEBUSpriteInfo@Impl@SpriteBatch@DirectX@@V<lambda_9829e134287828d35661b3276427a812>@@@std@@YAXPEAPEBUSpriteInfo@Impl@SpriteBatch@DirectX@@00V<lambda_9829e134287828d35661b3276427a812>@@@Z 000000014003cdbc     DirectXTK:SpriteBatch.obj
 0004:00000dc8       $pdata$1$??$_Guess_median_unchecked@PEAPEBUSpriteInfo@Impl@SpriteBatch@DirectX@@V<lambda_9829e134287828d35661b3276427a812>@@@std@@YAXPEAPEBUSpriteInfo@Impl@SpriteBatch@DirectX@@00V<lambda_9829e134287828d35661b3276427a812>@@@Z 000000014003cdc8     DirectXTK:SpriteBatch.obj
 0004:00000dd4       $pdata$2$??$_Guess_median_unchecked@PEAPEBUSpriteInfo@Impl@SpriteBatch@DirectX@@V<lambda_9829e134287828d35661b3276427a812>@@@std@@YAXPEAPEBUSpriteInfo@Impl@SpriteBatch@DirectX@@00V<lambda_9829e134287828d35661b3276427a812>@@@Z 000000014003cdd4     DirectXTK:SpriteBatch.obj
 0004:00000de0       $pdata$3$??$_Guess_median_unchecked@PEAPEBUSpriteInfo@Impl@SpriteBatch@DirectX@@V<lambda_9829e134287828d35661b3276427a812>@@@std@@YAXPEAPEBUSpriteInfo@Impl@SpriteBatch@DirectX@@00V<lambda_9829e134287828d35661b3276427a812>@@@Z 000000014003cde0     DirectXTK:SpriteBatch.obj
 0004:00000dec       $pdata$??$_Guess_median_unchecked@PEAPEBUSpriteInfo@Impl@SpriteBatch@DirectX@@V<lambda_9b5ae69721589d94e761d5c8d20d011a>@@@std@@YAXPEAPEBUSpriteInfo@Impl@SpriteBatch@DirectX@@00V<lambda_9b5ae69721589d94e761d5c8d20d011a>@@@Z 000000014003cdec     DirectXTK:SpriteBatch.obj
 0004:00000df8       $pdata$0$??$_Guess_median_unchecked@PEAPEBUSpriteInfo@Impl@SpriteBatch@DirectX@@V<lambda_9b5ae69721589d94e761d5c8d20d011a>@@@std@@YAXPEAPEBUSpriteInfo@Impl@SpriteBatch@DirectX@@00V<lambda_9b5ae69721589d94e761d5c8d20d011a>@@@Z 000000014003cdf8     DirectXTK:SpriteBatch.obj
 0004:00000e04       $pdata$1$??$_Guess_median_unchecked@PEAPEBUSpriteInfo@Impl@SpriteBatch@DirectX@@V<lambda_9b5ae69721589d94e761d5c8d20d011a>@@@std@@YAXPEAPEBUSpriteInfo@Impl@SpriteBatch@DirectX@@00V<lambda_9b5ae69721589d94e761d5c8d20d011a>@@@Z 000000014003ce04     DirectXTK:SpriteBatch.obj
 0004:00000e10       $pdata$??$_Guess_median_unchecked@PEAPEBUSpriteInfo@Impl@SpriteBatch@DirectX@@V<lambda_c8cd3344139af936846f26b5e655a233>@@@std@@YAXPEAPEBUSpriteInfo@Impl@SpriteBatch@DirectX@@00V<lambda_c8cd3344139af936846f26b5e655a233>@@@Z 000000014003ce10     DirectXTK:SpriteBatch.obj
 0004:00000e1c       $pdata$0$??$_Guess_median_unchecked@PEAPEBUSpriteInfo@Impl@SpriteBatch@DirectX@@V<lambda_c8cd3344139af936846f26b5e655a233>@@@std@@YAXPEAPEBUSpriteInfo@Impl@SpriteBatch@DirectX@@00V<lambda_c8cd3344139af936846f26b5e655a233>@@@Z 000000014003ce1c     DirectXTK:SpriteBatch.obj
 0004:00000e28       $pdata$1$??$_Guess_median_unchecked@PEAPEBUSpriteInfo@Impl@SpriteBatch@DirectX@@V<lambda_c8cd3344139af936846f26b5e655a233>@@@std@@YAXPEAPEBUSpriteInfo@Impl@SpriteBatch@DirectX@@00V<lambda_c8cd3344139af936846f26b5e655a233>@@@Z 000000014003ce28     DirectXTK:SpriteBatch.obj
 0004:00000e34       $pdata$??$_Insert_at@AEAU?$pair@QEAUID3D11Device@@V?$weak_ptr@UDeviceResources@Impl@SpriteBatch@DirectX@@@std@@@std@@PEAU?$_Tree_node@U?$pair@QEAUID3D11Device@@V?$weak_ptr@UDeviceResources@Impl@SpriteBatch@DirectX@@@std@@@std@@PEAX@2@@?$_Tree@V?$_Tmap_traits@PEAUID3D11Device@@V?$weak_ptr@UDeviceResources@Impl@SpriteBatch@DirectX@@@std@@U?$less@PEAUID3D11Device@@@3@V?$allocator@U?$pair@QEAUID3D11Device@@V?$weak_ptr@UDeviceResources@Impl@SpriteBatch@DirectX@@@std@@@std@@@3@$0A@@std@@@std@@IEAA?AV?$_Tree_iterator@V?$_Tree_val@U?$_Tree_simple_types@U?$pair@QEAUID3D11Device@@V?$weak_ptr@UDeviceResources@Impl@SpriteBatch@DirectX@@@std@@@std@@@std@@@std@@@1@_NPEAU?$_Tree_node@U?$pair@QEAUID3D11Device@@V?$weak_ptr@UDeviceResources@Impl@SpriteBatch@DirectX@@@std@@@std@@PEAX@1@AEAU?$pair@QEAUID3D11Device@@V?$weak_ptr@UDeviceResources@Impl@SpriteBatch@DirectX@@@std@@@1@1@Z 000000014003ce34     DirectXTK:SpriteBatch.obj
 0004:00000e34       $pdata$??$_Insert_at@AEAU?$pair@QEAUID3D11Device@@V?$weak_ptr@VImpl@CommonStates@DirectX@@@std@@@std@@PEAU?$_Tree_node@U?$pair@QEAUID3D11Device@@V?$weak_ptr@VImpl@CommonStates@DirectX@@@std@@@std@@PEAX@2@@?$_Tree@V?$_Tmap_traits@PEAUID3D11Device@@V?$weak_ptr@VImpl@CommonStates@DirectX@@@std@@U?$less@PEAUID3D11Device@@@3@V?$allocator@U?$pair@QEAUID3D11Device@@V?$weak_ptr@VImpl@CommonStates@DirectX@@@std@@@std@@@3@$0A@@std@@@std@@IEAA?AV?$_Tree_iterator@V?$_Tree_val@U?$_Tree_simple_types@U?$pair@QEAUID3D11Device@@V?$weak_ptr@VImpl@CommonStates@DirectX@@@std@@@std@@@std@@@std@@@1@_NPEAU?$_Tree_node@U?$pair@QEAUID3D11Device@@V?$weak_ptr@VImpl@CommonStates@DirectX@@@std@@@std@@PEAX@1@AEAU?$pair@QEAUID3D11Device@@V?$weak_ptr@VImpl@CommonStates@DirectX@@@std@@@1@1@Z 000000014003ce34     DirectXTK:CommonStates.obj
 0004:00000e34       $pdata$??$_Insert_at@AEAU?$pair@QEAUID3D11DeviceContext@@V?$weak_ptr@UContextResources@Impl@SpriteBatch@DirectX@@@std@@@std@@PEAU?$_Tree_node@U?$pair@QEAUID3D11DeviceContext@@V?$weak_ptr@UContextResources@Impl@SpriteBatch@DirectX@@@std@@@std@@PEAX@2@@?$_Tree@V?$_Tmap_traits@PEAUID3D11DeviceContext@@V?$weak_ptr@UContextResources@Impl@SpriteBatch@DirectX@@@std@@U?$less@PEAUID3D11DeviceContext@@@3@V?$allocator@U?$pair@QEAUID3D11DeviceContext@@V?$weak_ptr@UContextResources@Impl@SpriteBatch@DirectX@@@std@@@std@@@3@$0A@@std@@@std@@IEAA?AV?$_Tree_iterator@V?$_Tree_val@U?$_Tree_simple_types@U?$pair@QEAUID3D11DeviceContext@@V?$weak_ptr@UContextResources@Impl@SpriteBatch@DirectX@@@std@@@std@@@std@@@std@@@1@_NPEAU?$_Tree_node@U?$pair@QEAUID3D11DeviceContext@@V?$weak_ptr@UContextResources@Impl@SpriteBatch@DirectX@@@std@@@std@@PEAX@1@AEAU?$pair@QEAUID3D11DeviceContext@@V?$weak_ptr@UContextResources@Impl@SpriteBatch@DirectX@@@std@@@1@1@Z 000000014003ce34     DirectXTK:SpriteBatch.obj
 0004:00000e40       $pdata$1$??$_Insert_at@AEAU?$pair@QEAUID3D11DeviceContext@@V?$weak_ptr@UContextResources@Impl@SpriteBatch@DirectX@@@std@@@std@@PEAU?$_Tree_node@U?$pair@QEAUID3D11DeviceContext@@V?$weak_ptr@UContextResources@Impl@SpriteBatch@DirectX@@@std@@@std@@PEAX@2@@?$_Tree@V?$_Tmap_traits@PEAUID3D11DeviceContext@@V?$weak_ptr@UContextResources@Impl@SpriteBatch@DirectX@@@std@@U?$less@PEAUID3D11DeviceContext@@@3@V?$allocator@U?$pair@QEAUID3D11DeviceContext@@V?$weak_ptr@UContextResources@Impl@SpriteBatch@DirectX@@@std@@@std@@@3@$0A@@std@@@std@@IEAA?AV?$_Tree_iterator@V?$_Tree_val@U?$_Tree_simple_types@U?$pair@QEAUID3D11DeviceContext@@V?$weak_ptr@UContextResources@Impl@SpriteBatch@DirectX@@@std@@@std@@@std@@@std@@@1@_NPEAU?$_Tree_node@U?$pair@QEAUID3D11DeviceContext@@V?$weak_ptr@UContextResources@Impl@SpriteBatch@DirectX@@@std@@@std@@PEAX@1@AEAU?$pair@QEAUID3D11DeviceContext@@V?$weak_ptr@UContextResources@Impl@SpriteBatch@DirectX@@@std@@@1@1@Z 000000014003ce40     DirectXTK:SpriteBatch.obj
 0004:00000e40       $pdata$1$??$_Insert_at@AEAU?$pair@QEAUID3D11Device@@V?$weak_ptr@VImpl@CommonStates@DirectX@@@std@@@std@@PEAU?$_Tree_node@U?$pair@QEAUID3D11Device@@V?$weak_ptr@VImpl@CommonStates@DirectX@@@std@@@std@@PEAX@2@@?$_Tree@V?$_Tmap_traits@PEAUID3D11Device@@V?$weak_ptr@VImpl@CommonStates@DirectX@@@std@@U?$less@PEAUID3D11Device@@@3@V?$allocator@U?$pair@QEAUID3D11Device@@V?$weak_ptr@VImpl@CommonStates@DirectX@@@std@@@std@@@3@$0A@@std@@@std@@IEAA?AV?$_Tree_iterator@V?$_Tree_val@U?$_Tree_simple_types@U?$pair@QEAUID3D11Device@@V?$weak_ptr@VImpl@CommonStates@DirectX@@@std@@@std@@@std@@@std@@@1@_NPEAU?$_Tree_node@U?$pair@QEAUID3D11Device@@V?$weak_ptr@VImpl@CommonStates@DirectX@@@std@@@std@@PEAX@1@AEAU?$pair@QEAUID3D11Device@@V?$weak_ptr@VImpl@CommonStates@DirectX@@@std@@@1@1@Z 000000014003ce40     DirectXTK:CommonStates.obj
 0004:00000e40       $pdata$1$??$_Insert_at@AEAU?$pair@QEAUID3D11Device@@V?$weak_ptr@UDeviceResources@Impl@SpriteBatch@DirectX@@@std@@@std@@PEAU?$_Tree_node@U?$pair@QEAUID3D11Device@@V?$weak_ptr@UDeviceResources@Impl@SpriteBatch@DirectX@@@std@@@std@@PEAX@2@@?$_Tree@V?$_Tmap_traits@PEAUID3D11Device@@V?$weak_ptr@UDeviceResources@Impl@SpriteBatch@DirectX@@@std@@U?$less@PEAUID3D11Device@@@3@V?$allocator@U?$pair@QEAUID3D11Device@@V?$weak_ptr@UDeviceResources@Impl@SpriteBatch@DirectX@@@std@@@std@@@3@$0A@@std@@@std@@IEAA?AV?$_Tree_iterator@V?$_Tree_val@U?$_Tree_simple_types@U?$pair@QEAUID3D11Device@@V?$weak_ptr@UDeviceResources@Impl@SpriteBatch@DirectX@@@std@@@std@@@std@@@std@@@1@_NPEAU?$_Tree_node@U?$pair@QEAUID3D11Device@@V?$weak_ptr@UDeviceResources@Impl@SpriteBatch@DirectX@@@std@@@std@@PEAX@1@AEAU?$pair@QEAUID3D11Device@@V?$weak_ptr@UDeviceResources@Impl@SpriteBatch@DirectX@@@std@@@1@1@Z 000000014003ce40     DirectXTK:SpriteBatch.obj
 0004:00000e4c       $pdata$3$??$_Insert_at@AEAU?$pair@QEAUID3D11Device@@V?$weak_ptr@UDeviceResources@Impl@SpriteBatch@DirectX@@@std@@@std@@PEAU?$_Tree_node@U?$pair@QEAUID3D11Device@@V?$weak_ptr@UDeviceResources@Impl@SpriteBatch@DirectX@@@std@@@std@@PEAX@2@@?$_Tree@V?$_Tmap_traits@PEAUID3D11Device@@V?$weak_ptr@UDeviceResources@Impl@SpriteBatch@DirectX@@@std@@U?$less@PEAUID3D11Device@@@3@V?$allocator@U?$pair@QEAUID3D11Device@@V?$weak_ptr@UDeviceResources@Impl@SpriteBatch@DirectX@@@std@@@std@@@3@$0A@@std@@@std@@IEAA?AV?$_Tree_iterator@V?$_Tree_val@U?$_Tree_simple_types@U?$pair@QEAUID3D11Device@@V?$weak_ptr@UDeviceResources@Impl@SpriteBatch@DirectX@@@std@@@std@@@std@@@std@@@1@_NPEAU?$_Tree_node@U?$pair@QEAUID3D11Device@@V?$weak_ptr@UDeviceResources@Impl@SpriteBatch@DirectX@@@std@@@std@@PEAX@1@AEAU?$pair@QEAUID3D11Device@@V?$weak_ptr@UDeviceResources@Impl@SpriteBatch@DirectX@@@std@@@1@1@Z 000000014003ce4c     DirectXTK:SpriteBatch.obj
 0004:00000e4c       $pdata$3$??$_Insert_at@AEAU?$pair@QEAUID3D11DeviceContext@@V?$weak_ptr@UContextResources@Impl@SpriteBatch@DirectX@@@std@@@std@@PEAU?$_Tree_node@U?$pair@QEAUID3D11DeviceContext@@V?$weak_ptr@UContextResources@Impl@SpriteBatch@DirectX@@@std@@@std@@PEAX@2@@?$_Tree@V?$_Tmap_traits@PEAUID3D11DeviceContext@@V?$weak_ptr@UContextResources@Impl@SpriteBatch@DirectX@@@std@@U?$less@PEAUID3D11DeviceContext@@@3@V?$allocator@U?$pair@QEAUID3D11DeviceContext@@V?$weak_ptr@UContextResources@Impl@SpriteBatch@DirectX@@@std@@@std@@@3@$0A@@std@@@std@@IEAA?AV?$_Tree_iterator@V?$_Tree_val@U?$_Tree_simple_types@U?$pair@QEAUID3D11DeviceContext@@V?$weak_ptr@UContextResources@Impl@SpriteBatch@DirectX@@@std@@@std@@@std@@@std@@@1@_NPEAU?$_Tree_node@U?$pair@QEAUID3D11DeviceContext@@V?$weak_ptr@UContextResources@Impl@SpriteBatch@DirectX@@@std@@@std@@PEAX@1@AEAU?$pair@QEAUID3D11DeviceContext@@V?$weak_ptr@UContextResources@Impl@SpriteBatch@DirectX@@@std@@@1@1@Z 000000014003ce4c     DirectXTK:SpriteBatch.obj
 0004:00000e4c       $pdata$3$??$_Insert_at@AEAU?$pair@QEAUID3D11Device@@V?$weak_ptr@VImpl@CommonStates@DirectX@@@std@@@std@@PEAU?$_Tree_node@U?$pair@QEAUID3D11Device@@V?$weak_ptr@VImpl@CommonStates@DirectX@@@std@@@std@@PEAX@2@@?$_Tree@V?$_Tmap_traits@PEAUID3D11Device@@V?$weak_ptr@VImpl@CommonStates@DirectX@@@std@@U?$less@PEAUID3D11Device@@@3@V?$allocator@U?$pair@QEAUID3D11Device@@V?$weak_ptr@VImpl@CommonStates@DirectX@@@std@@@std@@@3@$0A@@std@@@std@@IEAA?AV?$_Tree_iterator@V?$_Tree_val@U?$_Tree_simple_types@U?$pair@QEAUID3D11Device@@V?$weak_ptr@VImpl@CommonStates@DirectX@@@std@@@std@@@std@@@std@@@1@_NPEAU?$_Tree_node@U?$pair@QEAUID3D11Device@@V?$weak_ptr@VImpl@CommonStates@DirectX@@@std@@@std@@PEAX@1@AEAU?$pair@QEAUID3D11Device@@V?$weak_ptr@VImpl@CommonStates@DirectX@@@std@@@1@1@Z 000000014003ce4c     DirectXTK:CommonStates.obj
 0004:00000e58       $pdata$??$_Insert_nohint@AEAU?$pair@QEAUID3D11Device@@V?$weak_ptr@VImpl@CommonStates@DirectX@@@std@@@std@@PEAU?$_Tree_node@U?$pair@QEAUID3D11Device@@V?$weak_ptr@VImpl@CommonStates@DirectX@@@std@@@std@@PEAX@2@@?$_Tree@V?$_Tmap_traits@PEAUID3D11Device@@V?$weak_ptr@VImpl@CommonStates@DirectX@@@std@@U?$less@PEAUID3D11Device@@@3@V?$allocator@U?$pair@QEAUID3D11Device@@V?$weak_ptr@VImpl@CommonStates@DirectX@@@std@@@std@@@3@$0A@@std@@@std@@IEAA?AU?$pair@V?$_Tree_iterator@V?$_Tree_val@U?$_Tree_simple_types@U?$pair@QEAUID3D11Device@@V?$weak_ptr@VImpl@CommonStates@DirectX@@@std@@@std@@@std@@@std@@@std@@_N@1@_NAEAU?$pair@QEAUID3D11Device@@V?$weak_ptr@VImpl@CommonStates@DirectX@@@std@@@1@PEAU?$_Tree_node@U?$pair@QEAUID3D11Device@@V?$weak_ptr@VImpl@CommonStates@DirectX@@@std@@@std@@PEAX@1@@Z 000000014003ce58     DirectXTK:CommonStates.obj
 0004:00000e58       $pdata$??$_Insert_nohint@AEAU?$pair@QEAUID3D11DeviceContext@@V?$weak_ptr@UContextResources@Impl@SpriteBatch@DirectX@@@std@@@std@@PEAU?$_Tree_node@U?$pair@QEAUID3D11DeviceContext@@V?$weak_ptr@UContextResources@Impl@SpriteBatch@DirectX@@@std@@@std@@PEAX@2@@?$_Tree@V?$_Tmap_traits@PEAUID3D11DeviceContext@@V?$weak_ptr@UContextResources@Impl@SpriteBatch@DirectX@@@std@@U?$less@PEAUID3D11DeviceContext@@@3@V?$allocator@U?$pair@QEAUID3D11DeviceContext@@V?$weak_ptr@UContextResources@Impl@SpriteBatch@DirectX@@@std@@@std@@@3@$0A@@std@@@std@@IEAA?AU?$pair@V?$_Tree_iterator@V?$_Tree_val@U?$_Tree_simple_types@U?$pair@QEAUID3D11DeviceContext@@V?$weak_ptr@UContextResources@Impl@SpriteBatch@DirectX@@@std@@@std@@@std@@@std@@@std@@_N@1@_NAEAU?$pair@QEAUID3D11DeviceContext@@V?$weak_ptr@UContextResources@Impl@SpriteBatch@DirectX@@@std@@@1@PEAU?$_Tree_node@U?$pair@QEAUID3D11DeviceContext@@V?$weak_ptr@UContextResources@Impl@SpriteBatch@DirectX@@@std@@@std@@PEAX@1@@Z 000000014003ce58     DirectXTK:SpriteBatch.obj
 0004:00000e58       $pdata$??$_Insert_nohint@AEAU?$pair@QEAUID3D11Device@@V?$weak_ptr@UDeviceResources@Impl@SpriteBatch@DirectX@@@std@@@std@@PEAU?$_Tree_node@U?$pair@QEAUID3D11Device@@V?$weak_ptr@UDeviceResources@Impl@SpriteBatch@DirectX@@@std@@@std@@PEAX@2@@?$_Tree@V?$_Tmap_traits@PEAUID3D11Device@@V?$weak_ptr@UDeviceResources@Impl@SpriteBatch@DirectX@@@std@@U?$less@PEAUID3D11Device@@@3@V?$allocator@U?$pair@QEAUID3D11Device@@V?$weak_ptr@UDeviceResources@Impl@SpriteBatch@DirectX@@@std@@@std@@@3@$0A@@std@@@std@@IEAA?AU?$pair@V?$_Tree_iterator@V?$_Tree_val@U?$_Tree_simple_types@U?$pair@QEAUID3D11Device@@V?$weak_ptr@UDeviceResources@Impl@SpriteBatch@DirectX@@@std@@@std@@@std@@@std@@@std@@_N@1@_NAEAU?$pair@QEAUID3D11Device@@V?$weak_ptr@UDeviceResources@Impl@SpriteBatch@DirectX@@@std@@@1@PEAU?$_Tree_node@U?$pair@QEAUID3D11Device@@V?$weak_ptr@UDeviceResources@Impl@SpriteBatch@DirectX@@@std@@@std@@PEAX@1@@Z 000000014003ce58     DirectXTK:SpriteBatch.obj
 0004:00000e64       $pdata$??$_Partition_by_median_guess_unchecked@PEAPEBUSpriteInfo@Impl@SpriteBatch@DirectX@@V<lambda_9b5ae69721589d94e761d5c8d20d011a>@@@std@@YA?AU?$pair@PEAPEBUSpriteInfo@Impl@SpriteBatch@DirectX@@PEAPEBU1234@@0@PEAPEBUSpriteInfo@Impl@SpriteBatch@DirectX@@0V<lambda_9b5ae69721589d94e761d5c8d20d011a>@@@Z 000000014003ce64     DirectXTK:SpriteBatch.obj
 0004:00000e70       $pdata$??$_Partition_by_median_guess_unchecked@PEAPEBUSpriteInfo@Impl@SpriteBatch@DirectX@@V<lambda_c8cd3344139af936846f26b5e655a233>@@@std@@YA?AU?$pair@PEAPEBUSpriteInfo@Impl@SpriteBatch@DirectX@@PEAPEBU1234@@0@PEAPEBUSpriteInfo@Impl@SpriteBatch@DirectX@@0V<lambda_c8cd3344139af936846f26b5e655a233>@@@Z 000000014003ce70     DirectXTK:SpriteBatch.obj
 0004:00000e7c       $pdata$??$_Pop_heap_hole_by_index@PEAPEBUSpriteInfo@Impl@SpriteBatch@DirectX@@PEBU1234@V<lambda_9829e134287828d35661b3276427a812>@@@std@@YAXPEAPEBUSpriteInfo@Impl@SpriteBatch@DirectX@@_J1$$QEAPEBU1234@V<lambda_9829e134287828d35661b3276427a812>@@@Z 000000014003ce7c     DirectXTK:SpriteBatch.obj
 0004:00000e88       $pdata$??$_Pop_heap_hole_by_index@PEAPEBUSpriteInfo@Impl@SpriteBatch@DirectX@@PEBU1234@V<lambda_9b5ae69721589d94e761d5c8d20d011a>@@@std@@YAXPEAPEBUSpriteInfo@Impl@SpriteBatch@DirectX@@_J1$$QEAPEBU1234@V<lambda_9b5ae69721589d94e761d5c8d20d011a>@@@Z 000000014003ce88     DirectXTK:SpriteBatch.obj
 0004:00000e94       $pdata$??$_Pop_heap_hole_by_index@PEAPEBUSpriteInfo@Impl@SpriteBatch@DirectX@@PEBU1234@V<lambda_c8cd3344139af936846f26b5e655a233>@@@std@@YAXPEAPEBUSpriteInfo@Impl@SpriteBatch@DirectX@@_J1$$QEAPEBU1234@V<lambda_c8cd3344139af936846f26b5e655a233>@@@Z 000000014003ce94     DirectXTK:SpriteBatch.obj
 0004:00000ea0       $pdata$??$_Resize@V<lambda_e8c6c8b564571a11716b943a92ab7d7d>@@@?$vector@PEBUSpriteInfo@Impl@SpriteBatch@DirectX@@V?$allocator@PEBUSpriteInfo@Impl@SpriteBatch@DirectX@@@std@@@std@@AEAAX_KV<lambda_e8c6c8b564571a11716b943a92ab7d7d>@@@Z 000000014003cea0     DirectXTK:SpriteBatch.obj
 0004:00000eac       $pdata$??$_Sort_unchecked@PEAPEBUSpriteInfo@Impl@SpriteBatch@DirectX@@V<lambda_9829e134287828d35661b3276427a812>@@@std@@YAXPEAPEBUSpriteInfo@Impl@SpriteBatch@DirectX@@0_JV<lambda_9829e134287828d35661b3276427a812>@@@Z 000000014003ceac     DirectXTK:SpriteBatch.obj
 0004:00000eb8       $pdata$??$_Sort_unchecked@PEAPEBUSpriteInfo@Impl@SpriteBatch@DirectX@@V<lambda_9b5ae69721589d94e761d5c8d20d011a>@@@std@@YAXPEAPEBUSpriteInfo@Impl@SpriteBatch@DirectX@@0_JV<lambda_9b5ae69721589d94e761d5c8d20d011a>@@@Z 000000014003ceb8     DirectXTK:SpriteBatch.obj
 0004:00000ec4       $pdata$??$_Sort_unchecked@PEAPEBUSpriteInfo@Impl@SpriteBatch@DirectX@@V<lambda_c8cd3344139af936846f26b5e655a233>@@@std@@YAXPEAPEBUSpriteInfo@Impl@SpriteBatch@DirectX@@0_JV<lambda_c8cd3344139af936846f26b5e655a233>@@@Z 000000014003cec4     DirectXTK:SpriteBatch.obj
 0004:00000ed0       $pdata$??$make_unique@VImpl@SpriteBatch@DirectX@@AEAPEAUID3D11DeviceContext@@$0A@@std@@YA?AV?$unique_ptr@VImpl@SpriteBatch@DirectX@@U?$default_delete@VImpl@SpriteBatch@DirectX@@@std@@@0@AEAPEAUID3D11DeviceContext@@@Z 000000014003ced0     DirectXTK:SpriteBatch.obj
 0004:00000edc       $pdata$??$sprintf_s@$0EA@@@YAHAEAY0EA@DPEBDZZ 000000014003cedc     DirectXTK:SpriteBatch.obj
 0004:00000ee8       $pdata$??0ContextResources@Impl@SpriteBatch@DirectX@@QEAA@PEAUID3D11DeviceContext@@@Z 000000014003cee8     DirectXTK:SpriteBatch.obj
 0004:00000ef4       $pdata$??0DeviceResources@Impl@SpriteBatch@DirectX@@QEAA@PEAUID3D11Device@@@Z 000000014003cef4     DirectXTK:SpriteBatch.obj
 0004:00000f00       $pdata$??0SpriteBatch@DirectX@@QEAA@PEAUID3D11DeviceContext@@@Z 000000014003cf00     DirectXTK:SpriteBatch.obj
 0004:00000f0c       $pdata$??0bad_alloc@std@@QEAA@AEBV01@@Z 000000014003cf0c     DirectXTK:SpriteBatch.obj
 0004:00000f18       $pdata$??0com_exception@DirectX@@QEAA@AEBV01@@Z 000000014003cf18     DirectXTK:SpriteBatch.obj
 0004:00000f24       $pdata$??0exception@std@@QEAA@QEBD@Z 000000014003cf24     DirectXTK:SpriteBatch.obj
 0004:00000f30       $pdata$??1?$ConstantBuffer@UXMMATRIX@DirectX@@@DirectX@@QEAA@XZ 000000014003cf30     DirectXTK:SpriteBatch.obj
 0004:00000f3c       $pdata$??1?$lock_guard@Vmutex@std@@@std@@QEAA@XZ 000000014003cf3c     DirectXTK:SpriteBatch.obj
 0004:00000f48       $pdata$??1?$pair@PEAUID3D11DeviceContext@@V?$shared_ptr@UWrappedData@?$SharedResourcePool@PEAUID3D11DeviceContext@@UContextResources@Impl@SpriteBatch@DirectX@@$$V@DirectX@@@std@@@std@@QEAA@XZ 000000014003cf48     DirectXTK:SpriteBatch.obj
 0004:00000f48       $pdata$??1?$pair@PEAUID3D11Device@@V?$shared_ptr@UWrappedData@?$SharedResourcePool@PEAUID3D11Device@@UDeviceResources@Impl@SpriteBatch@DirectX@@$$V@DirectX@@@std@@@std@@QEAA@XZ 000000014003cf48     DirectXTK:SpriteBatch.obj
 0004:00000f48       $pdata$??1?$pair@PEAUID3D11Device@@V?$shared_ptr@UWrappedData@?$SharedResourcePool@PEAUID3D11Device@@VImpl@CommonStates@DirectX@@$$V@DirectX@@@std@@@std@@QEAA@XZ 000000014003cf48     DirectXTK:CommonStates.obj
 0004:00000f54       $pdata$0$??1?$pair@PEAUID3D11DeviceContext@@V?$shared_ptr@UWrappedData@?$SharedResourcePool@PEAUID3D11DeviceContext@@UContextResources@Impl@SpriteBatch@DirectX@@$$V@DirectX@@@std@@@std@@QEAA@XZ 000000014003cf54     DirectXTK:SpriteBatch.obj
 0004:00000f54       $pdata$0$??1?$pair@PEAUID3D11Device@@V?$shared_ptr@UWrappedData@?$SharedResourcePool@PEAUID3D11Device@@UDeviceResources@Impl@SpriteBatch@DirectX@@$$V@DirectX@@@std@@@std@@QEAA@XZ 000000014003cf54     DirectXTK:SpriteBatch.obj
 0004:00000f54       $pdata$0$??1?$pair@PEAUID3D11Device@@V?$shared_ptr@UWrappedData@?$SharedResourcePool@PEAUID3D11Device@@VImpl@CommonStates@DirectX@@$$V@DirectX@@@std@@@std@@QEAA@XZ 000000014003cf54     DirectXTK:CommonStates.obj
 0004:00000f60       $pdata$1$??1?$pair@PEAUID3D11DeviceContext@@V?$shared_ptr@UWrappedData@?$SharedResourcePool@PEAUID3D11DeviceContext@@UContextResources@Impl@SpriteBatch@DirectX@@$$V@DirectX@@@std@@@std@@QEAA@XZ 000000014003cf60     DirectXTK:SpriteBatch.obj
 0004:00000f60       $pdata$1$??1?$pair@PEAUID3D11Device@@V?$shared_ptr@UWrappedData@?$SharedResourcePool@PEAUID3D11Device@@VImpl@CommonStates@DirectX@@$$V@DirectX@@@std@@@std@@QEAA@XZ 000000014003cf60     DirectXTK:CommonStates.obj
 0004:00000f60       $pdata$1$??1?$pair@PEAUID3D11Device@@V?$shared_ptr@UWrappedData@?$SharedResourcePool@PEAUID3D11Device@@UDeviceResources@Impl@SpriteBatch@DirectX@@$$V@DirectX@@@std@@@std@@QEAA@XZ 000000014003cf60     DirectXTK:SpriteBatch.obj
 0004:00000f6c       $pdata$??1?$shared_ptr@UWrappedData@?$SharedResourcePool@PEAUID3D11Device@@UDeviceResources@Impl@SpriteBatch@DirectX@@$$V@DirectX@@@std@@QEAA@XZ 000000014003cf6c     DirectXTK:SpriteBatch.obj
 0004:00000f6c       $pdata$??1?$shared_ptr@UWrappedData@?$SharedResourcePool@PEAUID3D11Device@@VImpl@CommonStates@DirectX@@$$V@DirectX@@@std@@QEAA@XZ 000000014003cf6c     DirectXTK:CommonStates.obj
 0004:00000f6c       $pdata$??1?$shared_ptr@UDeviceResources@Impl@SpriteBatch@DirectX@@@std@@QEAA@XZ 000000014003cf6c     DirectXTK:SpriteBatch.obj
 0004:00000f6c       $pdata$??1?$shared_ptr@UWrappedData@?$SharedResourcePool@PEAUID3D11DeviceContext@@UContextResources@Impl@SpriteBatch@DirectX@@$$V@DirectX@@@std@@QEAA@XZ 000000014003cf6c     DirectXTK:SpriteBatch.obj
 0004:00000f78       $pdata$0$??1?$shared_ptr@UDeviceResources@Impl@SpriteBatch@DirectX@@@std@@QEAA@XZ 000000014003cf78     DirectXTK:SpriteBatch.obj
 0004:00000f78       $pdata$0$??1?$shared_ptr@UWrappedData@?$SharedResourcePool@PEAUID3D11Device@@UDeviceResources@Impl@SpriteBatch@DirectX@@$$V@DirectX@@@std@@QEAA@XZ 000000014003cf78     DirectXTK:SpriteBatch.obj
 0004:00000f78       $pdata$0$??1?$shared_ptr@UWrappedData@?$SharedResourcePool@PEAUID3D11DeviceContext@@UContextResources@Impl@SpriteBatch@DirectX@@$$V@DirectX@@@std@@QEAA@XZ 000000014003cf78     DirectXTK:SpriteBatch.obj
 0004:00000f78       $pdata$0$??1?$shared_ptr@UWrappedData@?$SharedResourcePool@PEAUID3D11Device@@VImpl@CommonStates@DirectX@@$$V@DirectX@@@std@@QEAA@XZ 000000014003cf78     DirectXTK:CommonStates.obj
 0004:00000f84       $pdata$1$??1?$shared_ptr@UWrappedData@?$SharedResourcePool@PEAUID3D11Device@@VImpl@CommonStates@DirectX@@$$V@DirectX@@@std@@QEAA@XZ 000000014003cf84     DirectXTK:CommonStates.obj
 0004:00000f84       $pdata$1$??1?$shared_ptr@UWrappedData@?$SharedResourcePool@PEAUID3D11DeviceContext@@UContextResources@Impl@SpriteBatch@DirectX@@$$V@DirectX@@@std@@QEAA@XZ 000000014003cf84     DirectXTK:SpriteBatch.obj
 0004:00000f84       $pdata$1$??1?$shared_ptr@UWrappedData@?$SharedResourcePool@PEAUID3D11Device@@UDeviceResources@Impl@SpriteBatch@DirectX@@$$V@DirectX@@@std@@QEAA@XZ 000000014003cf84     DirectXTK:SpriteBatch.obj
 0004:00000f84       $pdata$1$??1?$shared_ptr@UDeviceResources@Impl@SpriteBatch@DirectX@@@std@@QEAA@XZ 000000014003cf84     DirectXTK:SpriteBatch.obj
 0004:00000f90       $pdata$??1?$vector@FV?$allocator@F@std@@@std@@QEAA@XZ 000000014003cf90     DirectXTK:SpriteBatch.obj
 0004:00000f9c       $pdata$??1?$vector@V?$ComPtr@UID3D11ShaderResourceView@@@WRL@Microsoft@@V?$allocator@V?$ComPtr@UID3D11ShaderResourceView@@@WRL@Microsoft@@@std@@@std@@QEAA@XZ 000000014003cf9c     DirectXTK:SpriteBatch.obj
 0004:00000fa8       $pdata$??1DeviceResources@Impl@SpriteBatch@DirectX@@QEAA@XZ 000000014003cfa8     DirectXTK:SpriteBatch.obj
 0004:00000fb4       $pdata$??1Impl@SpriteBatch@DirectX@@QEAA@XZ 000000014003cfb4     DirectXTK:SpriteBatch.obj
 0004:00000fc0       $pdata$??1WrappedData@?$SharedResourcePool@PEAUID3D11DeviceContext@@UContextResources@Impl@SpriteBatch@DirectX@@$$V@DirectX@@QEAA@XZ 000000014003cfc0     DirectXTK:SpriteBatch.obj
 0004:00000fcc       $pdata$??_G?$_Ref_count_obj@UWrappedData@?$SharedResourcePool@PEAUID3D11Device@@UDeviceResources@Impl@SpriteBatch@DirectX@@$$V@DirectX@@@std@@UEAAPEAXI@Z 000000014003cfcc     DirectXTK:SpriteBatch.obj
 0004:00000fd8       $pdata$??_G?$_Ref_count_obj@UWrappedData@?$SharedResourcePool@PEAUID3D11DeviceContext@@UContextResources@Impl@SpriteBatch@DirectX@@$$V@DirectX@@@std@@UEAAPEAXI@Z 000000014003cfd8     DirectXTK:SpriteBatch.obj
 0004:00000fe4       $pdata$??_GSpriteBatch@DirectX@@UEAAPEAXI@Z 000000014003cfe4     DirectXTK:SpriteBatch.obj
 0004:00000ff0       $pdata$??_Gruntime_error@std@@UEAAPEAXI@Z 000000014003cff0     DirectXTK:SpriteFont.obj
 0004:00000ff0       $pdata$??_Goverflow_error@std@@UEAAPEAXI@Z 000000014003cff0     DirectXTK:SpriteFont.obj
 0004:00000ff0       $pdata$??_Gbad_alloc@std@@UEAAPEAXI@Z 000000014003cff0     DirectXTK:SpriteBatch.obj
 0004:00000ff0       $pdata$??_Gbad_array_new_length@std@@UEAAPEAXI@Z 000000014003cff0     MSVCRT:throw_bad_alloc.obj
 0004:00000ffc       $pdata$??_Gcom_exception@DirectX@@UEAAPEAXI@Z 000000014003cffc     DirectXTK:SpriteBatch.obj
 0004:00001008       $pdata$?Begin@Impl@SpriteBatch@DirectX@@QEAQXW4SpriteSortMode@3@PEAUID3D11BlendState@@PEAUID3D11SamplerState@@PEAUID3D11DepthStencilState@@PEAUID3D11RasterizerState@@AEAV?$function@$$A6AXXZ@std@@UXMMATRIX@3@@Z 000000014003d008     DirectXTK:SpriteBatch.obj
 0004:00001014       $pdata$?Begin@SpriteBatch@DirectX@@QEAQXW4SpriteSortMode@2@PEAUID3D11BlendState@@PEAUID3D11SamplerState@@PEAUID3D11DepthStencilState@@PEAUID3D11RasterizerState@@V?$function@$$A6AXXZ@std@@UXMMATRIX@2@@Z 000000014003d014     DirectXTK:SpriteBatch.obj
 0004:00001020       $pdata$?CreateIndexValues@DeviceResources@Impl@SpriteBatch@DirectX@@CA?AV?$vector@FV?$allocator@F@std@@@std@@XZ 000000014003d020     DirectXTK:SpriteBatch.obj
 0004:0000102c       $pdata$?DemandCreate@?$SharedResourcePool@PEAUID3D11Device@@UDeviceResources@Impl@SpriteBatch@DirectX@@$$V@DirectX@@QEAA?AV?$shared_ptr@UDeviceResources@Impl@SpriteBatch@DirectX@@@std@@PEAUID3D11Device@@@Z 000000014003d02c     DirectXTK:SpriteBatch.obj
 0004:00001038       $pdata$?DemandCreate@?$SharedResourcePool@PEAUID3D11DeviceContext@@UContextResources@Impl@SpriteBatch@DirectX@@$$V@DirectX@@QEAA?AV?$shared_ptr@UContextResources@Impl@SpriteBatch@DirectX@@@std@@PEAUID3D11DeviceContext@@@Z 000000014003d038     DirectXTK:SpriteBatch.obj
 0004:00001044       $pdata$?Draw@Impl@SpriteBatch@DirectX@@QEAQXPEAUID3D11ShaderResourceView@@T__m128@@PEBUtagRECT@@11H@Z 000000014003d044     DirectXTK:SpriteBatch.obj
 0004:00001050       $pdata$1$?Draw@Impl@SpriteBatch@DirectX@@QEAQXPEAUID3D11ShaderResourceView@@T__m128@@PEBUtagRECT@@11H@Z 000000014003d050     DirectXTK:SpriteBatch.obj
 0004:0000105c       $pdata$3$?Draw@Impl@SpriteBatch@DirectX@@QEAQXPEAUID3D11ShaderResourceView@@T__m128@@PEBUtagRECT@@11H@Z 000000014003d05c     DirectXTK:SpriteBatch.obj
 0004:00001068       $pdata$4$?Draw@Impl@SpriteBatch@DirectX@@QEAQXPEAUID3D11ShaderResourceView@@T__m128@@PEBUtagRECT@@11H@Z 000000014003d068     DirectXTK:SpriteBatch.obj
 0004:00001074       $pdata$?Draw@SpriteBatch@DirectX@@QEAQXPEAUID3D11ShaderResourceView@@AEBUtagRECT@@T__m128@@@Z 000000014003d074     DirectXTK:SpriteBatch.obj
 0004:00001080       $pdata$?Draw@SpriteBatch@DirectX@@QEAQXPEAUID3D11ShaderResourceView@@T__m128@@PEBUtagRECT@@1M11W4SpriteEffects@2@M@Z 000000014003d080     DirectXTK:SpriteBatch.obj
 0004:0000108c       $pdata$?End@SpriteBatch@DirectX@@QEAAXXZ 000000014003d08c     DirectXTK:SpriteBatch.obj
 0004:00001098       $pdata$0$?End@SpriteBatch@DirectX@@QEAAXXZ 000000014003d098     DirectXTK:SpriteBatch.obj
 0004:000010a4       $pdata$1$?End@SpriteBatch@DirectX@@QEAAXXZ 000000014003d0a4     DirectXTK:SpriteBatch.obj
 0004:000010b0       $pdata$?FlushBatch@Impl@SpriteBatch@DirectX@@AEAAXXZ 000000014003d0b0     DirectXTK:SpriteBatch.obj
 0004:000010bc       $pdata$3$?FlushBatch@Impl@SpriteBatch@DirectX@@AEAAXXZ 000000014003d0bc     DirectXTK:SpriteBatch.obj
 0004:000010c8       $pdata$4$?FlushBatch@Impl@SpriteBatch@DirectX@@AEAAXXZ 000000014003d0c8     DirectXTK:SpriteBatch.obj
 0004:000010d4       $pdata$5$?FlushBatch@Impl@SpriteBatch@DirectX@@AEAAXXZ 000000014003d0d4     DirectXTK:SpriteBatch.obj
 0004:000010e0       $pdata$?GetViewportTransform@Impl@SpriteBatch@DirectX@@AEAA?AUXMMATRIX@3@PEAUID3D11DeviceContext@@W4DXGI_MODE_ROTATION@@@Z 000000014003d0e0     DirectXTK:SpriteBatch.obj
 0004:000010ec       $pdata$1$?GetViewportTransform@Impl@SpriteBatch@DirectX@@AEAA?AUXMMATRIX@3@PEAUID3D11DeviceContext@@W4DXGI_MODE_ROTATION@@@Z 000000014003d0ec     DirectXTK:SpriteBatch.obj
 0004:000010f8       $pdata$2$?GetViewportTransform@Impl@SpriteBatch@DirectX@@AEAA?AUXMMATRIX@3@PEAUID3D11DeviceContext@@W4DXGI_MODE_ROTATION@@@Z 000000014003d0f8     DirectXTK:SpriteBatch.obj
 0004:00001104       $pdata$?PrepareForRendering@Impl@SpriteBatch@DirectX@@AEAAXXZ 000000014003d104     DirectXTK:SpriteBatch.obj
 0004:00001110       $pdata$?RenderBatch@Impl@SpriteBatch@DirectX@@AEAAXPEAUID3D11ShaderResourceView@@PEBQEBUSpriteInfo@123@_K@Z 000000014003d110     DirectXTK:SpriteBatch.obj
 0004:0000111c       $pdata$?RenderSprite@Impl@SpriteBatch@DirectX@@CQXPEBUSpriteInfo@123@PEAUVertexPositionColorTexture@3@T__m128@@2@Z 000000014003d11c     DirectXTK:SpriteBatch.obj
 0004:00001128       $pdata$0$?RenderSprite@Impl@SpriteBatch@DirectX@@CQXPEBUSpriteInfo@123@PEAUVertexPositionColorTexture@3@T__m128@@2@Z 000000014003d128     DirectXTK:SpriteBatch.obj
 0004:00001134       $pdata$1$?RenderSprite@Impl@SpriteBatch@DirectX@@CQXPEBUSpriteInfo@123@PEAUVertexPositionColorTexture@3@T__m128@@2@Z 000000014003d134     DirectXTK:SpriteBatch.obj
 0004:00001140       $pdata$2$?RenderSprite@Impl@SpriteBatch@DirectX@@CQXPEBUSpriteInfo@123@PEAUVertexPositionColorTexture@3@T__m128@@2@Z 000000014003d140     DirectXTK:SpriteBatch.obj
 0004:0000114c       $pdata$3$?RenderSprite@Impl@SpriteBatch@DirectX@@CQXPEBUSpriteInfo@123@PEAUVertexPositionColorTexture@3@T__m128@@2@Z 000000014003d14c     DirectXTK:SpriteBatch.obj
 0004:00001158       $pdata$?_Buyheadnode@?$_Tree_comp_alloc@V?$_Tmap_traits@PEAUID3D11Device@@V?$weak_ptr@UDeviceResources@Impl@SpriteBatch@DirectX@@@std@@U?$less@PEAUID3D11Device@@@3@V?$allocator@U?$pair@QEAUID3D11Device@@V?$weak_ptr@UDeviceResources@Impl@SpriteBatch@DirectX@@@std@@@std@@@3@$0A@@std@@@std@@QEAAPEAU?$_Tree_node@U?$pair@QEAUID3D11Device@@V?$weak_ptr@UDeviceResources@Impl@SpriteBatch@DirectX@@@std@@@std@@PEAX@2@XZ 000000014003d158     DirectXTK:SpriteBatch.obj
 0004:00001158       $pdata$?_Buyheadnode@?$_Tree_comp_alloc@V?$_Tmap_traits@PEAUID3D11DeviceContext@@V?$weak_ptr@UContextResources@Impl@SpriteBatch@DirectX@@@std@@U?$less@PEAUID3D11DeviceContext@@@3@V?$allocator@U?$pair@QEAUID3D11DeviceContext@@V?$weak_ptr@UContextResources@Impl@SpriteBatch@DirectX@@@std@@@std@@@3@$0A@@std@@@std@@QEAAPEAU?$_Tree_node@U?$pair@QEAUID3D11DeviceContext@@V?$weak_ptr@UContextResources@Impl@SpriteBatch@DirectX@@@std@@@std@@PEAX@2@XZ 000000014003d158     DirectXTK:SpriteBatch.obj
 0004:00001158       $pdata$?_Buyheadnode@?$_Tree_comp_alloc@V?$_Tmap_traits@PEAUID3D11Device@@V?$weak_ptr@VImpl@CommonStates@DirectX@@@std@@U?$less@PEAUID3D11Device@@@3@V?$allocator@U?$pair@QEAUID3D11Device@@V?$weak_ptr@VImpl@CommonStates@DirectX@@@std@@@std@@@3@$0A@@std@@@std@@QEAAPEAU?$_Tree_node@U?$pair@QEAUID3D11Device@@V?$weak_ptr@VImpl@CommonStates@DirectX@@@std@@@std@@PEAX@2@XZ 000000014003d158     DirectXTK:CommonStates.obj
 0004:00001164       $pdata$?_Buynode0@?$_Tree_comp_alloc@V?$_Tmap_traits@PEAUID3D11Device@@V?$weak_ptr@UDeviceResources@Impl@SpriteBatch@DirectX@@@std@@U?$less@PEAUID3D11Device@@@3@V?$allocator@U?$pair@QEAUID3D11Device@@V?$weak_ptr@UDeviceResources@Impl@SpriteBatch@DirectX@@@std@@@std@@@3@$0A@@std@@@std@@QEAAPEAU?$_Tree_node@U?$pair@QEAUID3D11Device@@V?$weak_ptr@UDeviceResources@Impl@SpriteBatch@DirectX@@@std@@@std@@PEAX@2@XZ 000000014003d164     DirectXTK:SpriteBatch.obj
 0004:00001164       $pdata$?_Buynode0@?$_Tree_comp_alloc@V?$_Tmap_traits@PEAUID3D11Device@@V?$weak_ptr@VImpl@CommonStates@DirectX@@@std@@U?$less@PEAUID3D11Device@@@3@V?$allocator@U?$pair@QEAUID3D11Device@@V?$weak_ptr@VImpl@CommonStates@DirectX@@@std@@@std@@@3@$0A@@std@@@std@@QEAAPEAU?$_Tree_node@U?$pair@QEAUID3D11Device@@V?$weak_ptr@VImpl@CommonStates@DirectX@@@std@@@std@@PEAX@2@XZ 000000014003d164     DirectXTK:CommonStates.obj
 0004:00001164       $pdata$?_Buynode0@?$_Tree_comp_alloc@V?$_Tmap_traits@PEAUID3D11DeviceContext@@V?$weak_ptr@UContextResources@Impl@SpriteBatch@DirectX@@@std@@U?$less@PEAUID3D11DeviceContext@@@3@V?$allocator@U?$pair@QEAUID3D11DeviceContext@@V?$weak_ptr@UContextResources@Impl@SpriteBatch@DirectX@@@std@@@std@@@3@$0A@@std@@@std@@QEAAPEAU?$_Tree_node@U?$pair@QEAUID3D11DeviceContext@@V?$weak_ptr@UContextResources@Impl@SpriteBatch@DirectX@@@std@@@std@@PEAX@2@XZ 000000014003d164     DirectXTK:SpriteBatch.obj
 0004:00001170       $pdata$?_Change_array@?$vector@FV?$allocator@F@std@@@std@@AEAAXQEAF_K1@Z 000000014003d170     DirectXTK:SpriteBatch.obj
 0004:0000117c       $pdata$?_Destroy@?$_Ref_count_obj@UWrappedData@?$SharedResourcePool@PEAUID3D11Device@@UDeviceResources@Impl@SpriteBatch@DirectX@@$$V@DirectX@@@std@@EEAAXXZ 000000014003d17c     DirectXTK:SpriteBatch.obj
 0004:00001188       $pdata$?_Destroy@?$vector@V?$ComPtr@UID3D11ShaderResourceView@@@WRL@Microsoft@@V?$allocator@V?$ComPtr@UID3D11ShaderResourceView@@@WRL@Microsoft@@@std@@@std@@AEAAXPEAV?$ComPtr@UID3D11ShaderResourceView@@@WRL@Microsoft@@0@Z 000000014003d188     DirectXTK:SpriteBatch.obj
 0004:00001194       $pdata$0$?_Destroy@?$vector@V?$ComPtr@UID3D11ShaderResourceView@@@WRL@Microsoft@@V?$allocator@V?$ComPtr@UID3D11ShaderResourceView@@@WRL@Microsoft@@@std@@@std@@AEAAXPEAV?$ComPtr@UID3D11ShaderResourceView@@@WRL@Microsoft@@0@Z 000000014003d194     DirectXTK:SpriteBatch.obj
 0004:000011a0       $pdata$1$?_Destroy@?$vector@V?$ComPtr@UID3D11ShaderResourceView@@@WRL@Microsoft@@V?$allocator@V?$ComPtr@UID3D11ShaderResourceView@@@WRL@Microsoft@@@std@@@std@@AEAAXPEAV?$ComPtr@UID3D11ShaderResourceView@@@WRL@Microsoft@@0@Z 000000014003d1a0     DirectXTK:SpriteBatch.obj
 0004:000011ac       $pdata$?_Destroy_if_node@?$_Tree@V?$_Tmap_traits@PEAUID3D11DeviceContext@@V?$weak_ptr@UContextResources@Impl@SpriteBatch@DirectX@@@std@@U?$less@PEAUID3D11DeviceContext@@@3@V?$allocator@U?$pair@QEAUID3D11DeviceContext@@V?$weak_ptr@UContextResources@Impl@SpriteBatch@DirectX@@@std@@@std@@@3@$0A@@std@@@std@@IEAAXPEAU?$_Tree_node@U?$pair@QEAUID3D11DeviceContext@@V?$weak_ptr@UContextResources@Impl@SpriteBatch@DirectX@@@std@@@std@@PEAX@2@@Z 000000014003d1ac     DirectXTK:SpriteBatch.obj
 0004:000011ac       $pdata$?_Destroy_if_node@?$_Tree@V?$_Tmap_traits@PEAUID3D11Device@@V?$weak_ptr@UDeviceResources@Impl@SpriteBatch@DirectX@@@std@@U?$less@PEAUID3D11Device@@@3@V?$allocator@U?$pair@QEAUID3D11Device@@V?$weak_ptr@UDeviceResources@Impl@SpriteBatch@DirectX@@@std@@@std@@@3@$0A@@std@@@std@@IEAAXPEAU?$_Tree_node@U?$pair@QEAUID3D11Device@@V?$weak_ptr@UDeviceResources@Impl@SpriteBatch@DirectX@@@std@@@std@@PEAX@2@@Z 000000014003d1ac     DirectXTK:SpriteBatch.obj
 0004:000011ac       $pdata$?_Destroy_if_node@?$_Tree@V?$_Tmap_traits@PEAUID3D11Device@@V?$weak_ptr@VImpl@CommonStates@DirectX@@@std@@U?$less@PEAUID3D11Device@@@3@V?$allocator@U?$pair@QEAUID3D11Device@@V?$weak_ptr@VImpl@CommonStates@DirectX@@@std@@@std@@@3@$0A@@std@@@std@@IEAAXPEAU?$_Tree_node@U?$pair@QEAUID3D11Device@@V?$weak_ptr@VImpl@CommonStates@DirectX@@@std@@@std@@PEAX@2@@Z 000000014003d1ac     DirectXTK:CommonStates.obj
 0004:000011b8       $pdata$?_Erase@?$_Tree@V?$_Tmap_traits@PEAUID3D11DeviceContext@@V?$weak_ptr@UContextResources@Impl@SpriteBatch@DirectX@@@std@@U?$less@PEAUID3D11DeviceContext@@@3@V?$allocator@U?$pair@QEAUID3D11DeviceContext@@V?$weak_ptr@UContextResources@Impl@SpriteBatch@DirectX@@@std@@@std@@@3@$0A@@std@@@std@@IEAAXPEAU?$_Tree_node@U?$pair@QEAUID3D11DeviceContext@@V?$weak_ptr@UContextResources@Impl@SpriteBatch@DirectX@@@std@@@std@@PEAX@2@@Z 000000014003d1b8     DirectXTK:SpriteBatch.obj
 0004:000011b8       $pdata$?_Erase@?$_Tree@V?$_Tmap_traits@PEAUID3D11Device@@V?$weak_ptr@VImpl@CommonStates@DirectX@@@std@@U?$less@PEAUID3D11Device@@@3@V?$allocator@U?$pair@QEAUID3D11Device@@V?$weak_ptr@VImpl@CommonStates@DirectX@@@std@@@std@@@3@$0A@@std@@@std@@IEAAXPEAU?$_Tree_node@U?$pair@QEAUID3D11Device@@V?$weak_ptr@VImpl@CommonStates@DirectX@@@std@@@std@@PEAX@2@@Z 000000014003d1b8     DirectXTK:CommonStates.obj
 0004:000011b8       $pdata$?_Erase@?$_Tree@V?$_Tmap_traits@PEAUID3D11Device@@V?$weak_ptr@UDeviceResources@Impl@SpriteBatch@DirectX@@@std@@U?$less@PEAUID3D11Device@@@3@V?$allocator@U?$pair@QEAUID3D11Device@@V?$weak_ptr@UDeviceResources@Impl@SpriteBatch@DirectX@@@std@@@std@@@3@$0A@@std@@@std@@IEAAXPEAU?$_Tree_node@U?$pair@QEAUID3D11Device@@V?$weak_ptr@UDeviceResources@Impl@SpriteBatch@DirectX@@@std@@@std@@PEAX@2@@Z 000000014003d1b8     DirectXTK:SpriteBatch.obj
 0004:000011c4       $pdata$?_Extract@?$_Tree_val@U?$_Tree_simple_types@U?$pair@QEAUID3D11Device@@V?$weak_ptr@VImpl@CommonStates@DirectX@@@std@@@std@@@std@@@std@@QEAAPEAU?$_Tree_node@U?$pair@QEAUID3D11Device@@V?$weak_ptr@VImpl@CommonStates@DirectX@@@std@@@std@@PEAX@2@V?$_Tree_const_iterator@V?$_Tree_val@U?$_Tree_simple_types@U?$pair@QEAUID3D11Device@@V?$weak_ptr@VImpl@CommonStates@DirectX@@@std@@@std@@@std@@@std@@@2@@Z 000000014003d1c4     DirectXTK:CommonStates.obj
 0004:000011c4       $pdata$?_Extract@?$_Tree_val@U?$_Tree_simple_types@U?$pair@QEAUID3D11Device@@V?$weak_ptr@UDeviceResources@Impl@SpriteBatch@DirectX@@@std@@@std@@@std@@@std@@QEAAPEAU?$_Tree_node@U?$pair@QEAUID3D11Device@@V?$weak_ptr@UDeviceResources@Impl@SpriteBatch@DirectX@@@std@@@std@@PEAX@2@V?$_Tree_const_iterator@V?$_Tree_val@U?$_Tree_simple_types@U?$pair@QEAUID3D11Device@@V?$weak_ptr@UDeviceResources@Impl@SpriteBatch@DirectX@@@std@@@std@@@std@@@std@@@2@@Z 000000014003d1c4     DirectXTK:SpriteBatch.obj
 0004:000011c4       $pdata$?_Extract@?$_Tree_val@U?$_Tree_simple_types@U?$pair@QEAUID3D11DeviceContext@@V?$weak_ptr@UContextResources@Impl@SpriteBatch@DirectX@@@std@@@std@@@std@@@std@@QEAAPEAU?$_Tree_node@U?$pair@QEAUID3D11DeviceContext@@V?$weak_ptr@UContextResources@Impl@SpriteBatch@DirectX@@@std@@@std@@PEAX@2@V?$_Tree_const_iterator@V?$_Tree_val@U?$_Tree_simple_types@U?$pair@QEAUID3D11DeviceContext@@V?$weak_ptr@UContextResources@Impl@SpriteBatch@DirectX@@@std@@@std@@@std@@@std@@@2@@Z 000000014003d1c4     DirectXTK:SpriteBatch.obj
 0004:000011d0       $pdata$1$?_Extract@?$_Tree_val@U?$_Tree_simple_types@U?$pair@QEAUID3D11DeviceContext@@V?$weak_ptr@UContextResources@Impl@SpriteBatch@DirectX@@@std@@@std@@@std@@@std@@QEAAPEAU?$_Tree_node@U?$pair@QEAUID3D11DeviceContext@@V?$weak_ptr@UContextResources@Impl@SpriteBatch@DirectX@@@std@@@std@@PEAX@2@V?$_Tree_const_iterator@V?$_Tree_val@U?$_Tree_simple_types@U?$pair@QEAUID3D11DeviceContext@@V?$weak_ptr@UContextResources@Impl@SpriteBatch@DirectX@@@std@@@std@@@std@@@std@@@2@@Z 000000014003d1d0     DirectXTK:SpriteBatch.obj
 0004:000011d0       $pdata$1$?_Extract@?$_Tree_val@U?$_Tree_simple_types@U?$pair@QEAUID3D11Device@@V?$weak_ptr@UDeviceResources@Impl@SpriteBatch@DirectX@@@std@@@std@@@std@@@std@@QEAAPEAU?$_Tree_node@U?$pair@QEAUID3D11Device@@V?$weak_ptr@UDeviceResources@Impl@SpriteBatch@DirectX@@@std@@@std@@PEAX@2@V?$_Tree_const_iterator@V?$_Tree_val@U?$_Tree_simple_types@U?$pair@QEAUID3D11Device@@V?$weak_ptr@UDeviceResources@Impl@SpriteBatch@DirectX@@@std@@@std@@@std@@@std@@@2@@Z 000000014003d1d0     DirectXTK:SpriteBatch.obj
 0004:000011d0       $pdata$1$?_Extract@?$_Tree_val@U?$_Tree_simple_types@U?$pair@QEAUID3D11Device@@V?$weak_ptr@VImpl@CommonStates@DirectX@@@std@@@std@@@std@@@std@@QEAAPEAU?$_Tree_node@U?$pair@QEAUID3D11Device@@V?$weak_ptr@VImpl@CommonStates@DirectX@@@std@@@std@@PEAX@2@V?$_Tree_const_iterator@V?$_Tree_val@U?$_Tree_simple_types@U?$pair@QEAUID3D11Device@@V?$weak_ptr@VImpl@CommonStates@DirectX@@@std@@@std@@@std@@@std@@@2@@Z 000000014003d1d0     DirectXTK:CommonStates.obj
 0004:000011dc       $pdata$2$?_Extract@?$_Tree_val@U?$_Tree_simple_types@U?$pair@QEAUID3D11DeviceContext@@V?$weak_ptr@UContextResources@Impl@SpriteBatch@DirectX@@@std@@@std@@@std@@@std@@QEAAPEAU?$_Tree_node@U?$pair@QEAUID3D11DeviceContext@@V?$weak_ptr@UContextResources@Impl@SpriteBatch@DirectX@@@std@@@std@@PEAX@2@V?$_Tree_const_iterator@V?$_Tree_val@U?$_Tree_simple_types@U?$pair@QEAUID3D11DeviceContext@@V?$weak_ptr@UContextResources@Impl@SpriteBatch@DirectX@@@std@@@std@@@std@@@std@@@2@@Z 000000014003d1dc     DirectXTK:SpriteBatch.obj
 0004:000011dc       $pdata$2$?_Extract@?$_Tree_val@U?$_Tree_simple_types@U?$pair@QEAUID3D11Device@@V?$weak_ptr@VImpl@CommonStates@DirectX@@@std@@@std@@@std@@@std@@QEAAPEAU?$_Tree_node@U?$pair@QEAUID3D11Device@@V?$weak_ptr@VImpl@CommonStates@DirectX@@@std@@@std@@PEAX@2@V?$_Tree_const_iterator@V?$_Tree_val@U?$_Tree_simple_types@U?$pair@QEAUID3D11Device@@V?$weak_ptr@VImpl@CommonStates@DirectX@@@std@@@std@@@std@@@std@@@2@@Z 000000014003d1dc     DirectXTK:CommonStates.obj
 0004:000011dc       $pdata$2$?_Extract@?$_Tree_val@U?$_Tree_simple_types@U?$pair@QEAUID3D11Device@@V?$weak_ptr@UDeviceResources@Impl@SpriteBatch@DirectX@@@std@@@std@@@std@@@std@@QEAAPEAU?$_Tree_node@U?$pair@QEAUID3D11Device@@V?$weak_ptr@UDeviceResources@Impl@SpriteBatch@DirectX@@@std@@@std@@PEAX@2@V?$_Tree_const_iterator@V?$_Tree_val@U?$_Tree_simple_types@U?$pair@QEAUID3D11Device@@V?$weak_ptr@UDeviceResources@Impl@SpriteBatch@DirectX@@@std@@@std@@@std@@@std@@@2@@Z 000000014003d1dc     DirectXTK:SpriteBatch.obj
 0004:000011e8       $pdata$3$?_Extract@?$_Tree_val@U?$_Tree_simple_types@U?$pair@QEAUID3D11DeviceContext@@V?$weak_ptr@UContextResources@Impl@SpriteBatch@DirectX@@@std@@@std@@@std@@@std@@QEAAPEAU?$_Tree_node@U?$pair@QEAUID3D11DeviceContext@@V?$weak_ptr@UContextResources@Impl@SpriteBatch@DirectX@@@std@@@std@@PEAX@2@V?$_Tree_const_iterator@V?$_Tree_val@U?$_Tree_simple_types@U?$pair@QEAUID3D11DeviceContext@@V?$weak_ptr@UContextResources@Impl@SpriteBatch@DirectX@@@std@@@std@@@std@@@std@@@2@@Z 000000014003d1e8     DirectXTK:SpriteBatch.obj
 0004:000011e8       $pdata$3$?_Extract@?$_Tree_val@U?$_Tree_simple_types@U?$pair@QEAUID3D11Device@@V?$weak_ptr@UDeviceResources@Impl@SpriteBatch@DirectX@@@std@@@std@@@std@@@std@@QEAAPEAU?$_Tree_node@U?$pair@QEAUID3D11Device@@V?$weak_ptr@UDeviceResources@Impl@SpriteBatch@DirectX@@@std@@@std@@PEAX@2@V?$_Tree_const_iterator@V?$_Tree_val@U?$_Tree_simple_types@U?$pair@QEAUID3D11Device@@V?$weak_ptr@UDeviceResources@Impl@SpriteBatch@DirectX@@@std@@@std@@@std@@@std@@@2@@Z 000000014003d1e8     DirectXTK:SpriteBatch.obj
 0004:000011e8       $pdata$3$?_Extract@?$_Tree_val@U?$_Tree_simple_types@U?$pair@QEAUID3D11Device@@V?$weak_ptr@VImpl@CommonStates@DirectX@@@std@@@std@@@std@@@std@@QEAAPEAU?$_Tree_node@U?$pair@QEAUID3D11Device@@V?$weak_ptr@VImpl@CommonStates@DirectX@@@std@@@std@@PEAX@2@V?$_Tree_const_iterator@V?$_Tree_val@U?$_Tree_simple_types@U?$pair@QEAUID3D11Device@@V?$weak_ptr@VImpl@CommonStates@DirectX@@@std@@@std@@@std@@@std@@@2@@Z 000000014003d1e8     DirectXTK:CommonStates.obj
 0004:000011f4       $pdata$4$?_Extract@?$_Tree_val@U?$_Tree_simple_types@U?$pair@QEAUID3D11Device@@V?$weak_ptr@VImpl@CommonStates@DirectX@@@std@@@std@@@std@@@std@@QEAAPEAU?$_Tree_node@U?$pair@QEAUID3D11Device@@V?$weak_ptr@VImpl@CommonStates@DirectX@@@std@@@std@@PEAX@2@V?$_Tree_const_iterator@V?$_Tree_val@U?$_Tree_simple_types@U?$pair@QEAUID3D11Device@@V?$weak_ptr@VImpl@CommonStates@DirectX@@@std@@@std@@@std@@@std@@@2@@Z 000000014003d1f4     DirectXTK:CommonStates.obj
 0004:000011f4       $pdata$4$?_Extract@?$_Tree_val@U?$_Tree_simple_types@U?$pair@QEAUID3D11DeviceContext@@V?$weak_ptr@UContextResources@Impl@SpriteBatch@DirectX@@@std@@@std@@@std@@@std@@QEAAPEAU?$_Tree_node@U?$pair@QEAUID3D11DeviceContext@@V?$weak_ptr@UContextResources@Impl@SpriteBatch@DirectX@@@std@@@std@@PEAX@2@V?$_Tree_const_iterator@V?$_Tree_val@U?$_Tree_simple_types@U?$pair@QEAUID3D11DeviceContext@@V?$weak_ptr@UContextResources@Impl@SpriteBatch@DirectX@@@std@@@std@@@std@@@std@@@2@@Z 000000014003d1f4     DirectXTK:SpriteBatch.obj
 0004:000011f4       $pdata$4$?_Extract@?$_Tree_val@U?$_Tree_simple_types@U?$pair@QEAUID3D11Device@@V?$weak_ptr@UDeviceResources@Impl@SpriteBatch@DirectX@@@std@@@std@@@std@@@std@@QEAAPEAU?$_Tree_node@U?$pair@QEAUID3D11Device@@V?$weak_ptr@UDeviceResources@Impl@SpriteBatch@DirectX@@@std@@@std@@PEAX@2@V?$_Tree_const_iterator@V?$_Tree_val@U?$_Tree_simple_types@U?$pair@QEAUID3D11Device@@V?$weak_ptr@UDeviceResources@Impl@SpriteBatch@DirectX@@@std@@@std@@@std@@@std@@@2@@Z 000000014003d1f4     DirectXTK:SpriteBatch.obj
 0004:00001200       $pdata$?_Reallocate_exactly@?$vector@FV?$allocator@F@std@@@std@@AEAAX_K@Z 000000014003d200     DirectXTK:SpriteBatch.obj
 0004:0000120c       $pdata$?_Xlength@?$vector@PEBUSpriteInfo@Impl@SpriteBatch@DirectX@@V?$allocator@PEBUSpriteInfo@Impl@SpriteBatch@DirectX@@@std@@@std@@CAXXZ 000000014003d20c     DirectXTK:SpriteBatch.obj
 0004:0000120c       $pdata$?_Xlength@?$vector@V?$ComPtr@UID3D11ShaderResourceView@@@WRL@Microsoft@@V?$allocator@V?$ComPtr@UID3D11ShaderResourceView@@@WRL@Microsoft@@@std@@@std@@CAXXZ 000000014003d20c     DirectXTK:SpriteBatch.obj
 0004:0000120c       $pdata$?_Xlength@?$vector@UGlyph@SpriteFont@DirectX@@V?$allocator@UGlyph@SpriteFont@DirectX@@@std@@@std@@CAXXZ 000000014003d20c     DirectXTK:SpriteFont.obj
 0004:0000120c       $pdata$?_Xlength@?$vector@FV?$allocator@F@std@@@std@@CAXXZ 000000014003d20c     DirectXTK:SpriteBatch.obj
 0004:00001218       $pdata$?allocate@?$allocator@F@std@@QEAAPEAF_K@Z 000000014003d218     DirectXTK:SpriteBatch.obj
 0004:00001224       $pdata$?deallocate@?$allocator@F@std@@QEAAXQEAF_K@Z 000000014003d224     DirectXTK:SpriteBatch.obj
 0004:00001230       $pdata$?deallocate@?$allocator@V?$ComPtr@UID3D11ShaderResourceView@@@WRL@Microsoft@@@std@@QEAAXQEAV?$ComPtr@UID3D11ShaderResourceView@@@WRL@Microsoft@@_K@Z 000000014003d230     DirectXTK:SpriteBatch.obj
 0004:00001230       $pdata$?deallocate@?$allocator@PEBUSpriteInfo@Impl@SpriteBatch@DirectX@@@std@@QEAAXQEAPEBUSpriteInfo@Impl@SpriteBatch@DirectX@@_K@Z 000000014003d230     DirectXTK:SpriteBatch.obj
 0004:0000123c       $pdata$?deallocate@?$allocator@U?$_Tree_node@U?$pair@QEAUID3D11Device@@V?$weak_ptr@VImpl@CommonStates@DirectX@@@std@@@std@@PEAX@std@@@std@@QEAAXQEAU?$_Tree_node@U?$pair@QEAUID3D11Device@@V?$weak_ptr@VImpl@CommonStates@DirectX@@@std@@@std@@PEAX@2@_K@Z 000000014003d23c     DirectXTK:CommonStates.obj
 0004:0000123c       $pdata$?deallocate@?$allocator@U?$_Tree_node@U?$pair@QEAUID3D11Device@@V?$weak_ptr@UDeviceResources@Impl@SpriteBatch@DirectX@@@std@@@std@@PEAX@std@@@std@@QEAAXQEAU?$_Tree_node@U?$pair@QEAUID3D11Device@@V?$weak_ptr@UDeviceResources@Impl@SpriteBatch@DirectX@@@std@@@std@@PEAX@2@_K@Z 000000014003d23c     DirectXTK:SpriteBatch.obj
 0004:0000123c       $pdata$?deallocate@?$allocator@U?$_Tree_node@U?$pair@QEAUID3D11DeviceContext@@V?$weak_ptr@UContextResources@Impl@SpriteBatch@DirectX@@@std@@@std@@PEAX@std@@@std@@QEAAXQEAU?$_Tree_node@U?$pair@QEAUID3D11DeviceContext@@V?$weak_ptr@UContextResources@Impl@SpriteBatch@DirectX@@@std@@@std@@PEAX@2@_K@Z 000000014003d23c     DirectXTK:SpriteBatch.obj
 0004:00001248       $pdata$?erase@?$_Tree@V?$_Tmap_traits@PEAUID3D11Device@@V?$weak_ptr@VImpl@CommonStates@DirectX@@@std@@U?$less@PEAUID3D11Device@@@3@V?$allocator@U?$pair@QEAUID3D11Device@@V?$weak_ptr@VImpl@CommonStates@DirectX@@@std@@@std@@@3@$0A@@std@@@std@@QEAA?AV?$_Tree_iterator@V?$_Tree_val@U?$_Tree_simple_types@U?$pair@QEAUID3D11Device@@V?$weak_ptr@VImpl@CommonStates@DirectX@@@std@@@std@@@std@@@std@@@2@V?$_Tree_const_iterator@V?$_Tree_val@U?$_Tree_simple_types@U?$pair@QEAUID3D11Device@@V?$weak_ptr@VImpl@CommonStates@DirectX@@@std@@@std@@@std@@@std@@@2@0@Z 000000014003d248     DirectXTK:CommonStates.obj
 0004:00001248       $pdata$?erase@?$_Tree@V?$_Tmap_traits@PEAUID3D11Device@@V?$weak_ptr@UDeviceResources@Impl@SpriteBatch@DirectX@@@std@@U?$less@PEAUID3D11Device@@@3@V?$allocator@U?$pair@QEAUID3D11Device@@V?$weak_ptr@UDeviceResources@Impl@SpriteBatch@DirectX@@@std@@@std@@@3@$0A@@std@@@std@@QEAA?AV?$_Tree_iterator@V?$_Tree_val@U?$_Tree_simple_types@U?$pair@QEAUID3D11Device@@V?$weak_ptr@UDeviceResources@Impl@SpriteBatch@DirectX@@@std@@@std@@@std@@@std@@@2@V?$_Tree_const_iterator@V?$_Tree_val@U?$_Tree_simple_types@U?$pair@QEAUID3D11Device@@V?$weak_ptr@UDeviceResources@Impl@SpriteBatch@DirectX@@@std@@@std@@@std@@@std@@@2@0@Z 000000014003d248     DirectXTK:SpriteBatch.obj
 0004:00001248       $pdata$?erase@?$_Tree@V?$_Tmap_traits@PEAUID3D11DeviceContext@@V?$weak_ptr@UContextResources@Impl@SpriteBatch@DirectX@@@std@@U?$less@PEAUID3D11DeviceContext@@@3@V?$allocator@U?$pair@QEAUID3D11DeviceContext@@V?$weak_ptr@UContextResources@Impl@SpriteBatch@DirectX@@@std@@@std@@@3@$0A@@std@@@std@@QEAA?AV?$_Tree_iterator@V?$_Tree_val@U?$_Tree_simple_types@U?$pair@QEAUID3D11DeviceContext@@V?$weak_ptr@UContextResources@Impl@SpriteBatch@DirectX@@@std@@@std@@@std@@@std@@@2@V?$_Tree_const_iterator@V?$_Tree_val@U?$_Tree_simple_types@U?$pair@QEAUID3D11DeviceContext@@V?$weak_ptr@UContextResources@Impl@SpriteBatch@DirectX@@@std@@@std@@@std@@@std@@@2@0@Z 000000014003d248     DirectXTK:SpriteBatch.obj
 0004:00001254       $pdata$?erase@?$_Tree@V?$_Tmap_traits@PEAUID3D11DeviceContext@@V?$weak_ptr@UContextResources@Impl@SpriteBatch@DirectX@@@std@@U?$less@PEAUID3D11DeviceContext@@@3@V?$allocator@U?$pair@QEAUID3D11DeviceContext@@V?$weak_ptr@UContextResources@Impl@SpriteBatch@DirectX@@@std@@@std@@@3@$0A@@std@@@std@@QEAA?AV?$_Tree_iterator@V?$_Tree_val@U?$_Tree_simple_types@U?$pair@QEAUID3D11DeviceContext@@V?$weak_ptr@UContextResources@Impl@SpriteBatch@DirectX@@@std@@@std@@@std@@@std@@@2@V?$_Tree_const_iterator@V?$_Tree_val@U?$_Tree_simple_types@U?$pair@QEAUID3D11DeviceContext@@V?$weak_ptr@UContextResources@Impl@SpriteBatch@DirectX@@@std@@@std@@@std@@@std@@@2@@Z 000000014003d254     DirectXTK:SpriteBatch.obj
 0004:00001254       $pdata$?erase@?$_Tree@V?$_Tmap_traits@PEAUID3D11Device@@V?$weak_ptr@UDeviceResources@Impl@SpriteBatch@DirectX@@@std@@U?$less@PEAUID3D11Device@@@3@V?$allocator@U?$pair@QEAUID3D11Device@@V?$weak_ptr@UDeviceResources@Impl@SpriteBatch@DirectX@@@std@@@std@@@3@$0A@@std@@@std@@QEAA?AV?$_Tree_iterator@V?$_Tree_val@U?$_Tree_simple_types@U?$pair@QEAUID3D11Device@@V?$weak_ptr@UDeviceResources@Impl@SpriteBatch@DirectX@@@std@@@std@@@std@@@std@@@2@V?$_Tree_const_iterator@V?$_Tree_val@U?$_Tree_simple_types@U?$pair@QEAUID3D11Device@@V?$weak_ptr@UDeviceResources@Impl@SpriteBatch@DirectX@@@std@@@std@@@std@@@std@@@2@@Z 000000014003d254     DirectXTK:SpriteBatch.obj
 0004:00001254       $pdata$?erase@?$_Tree@V?$_Tmap_traits@PEAUID3D11Device@@V?$weak_ptr@VImpl@CommonStates@DirectX@@@std@@U?$less@PEAUID3D11Device@@@3@V?$allocator@U?$pair@QEAUID3D11Device@@V?$weak_ptr@VImpl@CommonStates@DirectX@@@std@@@std@@@3@$0A@@std@@@std@@QEAA?AV?$_Tree_iterator@V?$_Tree_val@U?$_Tree_simple_types@U?$pair@QEAUID3D11Device@@V?$weak_ptr@VImpl@CommonStates@DirectX@@@std@@@std@@@std@@@std@@@2@V?$_Tree_const_iterator@V?$_Tree_val@U?$_Tree_simple_types@U?$pair@QEAUID3D11Device@@V?$weak_ptr@VImpl@CommonStates@DirectX@@@std@@@std@@@std@@@std@@@2@@Z 000000014003d254     DirectXTK:CommonStates.obj
 0004:00001260       $pdata$?what@com_exception@DirectX@@UEBAPEBDXZ 000000014003d260     DirectXTK:SpriteBatch.obj
 0004:0000126c       $pdata$??$ForEachGlyph@V<lambda_ea59ae01f682360545abc2266ba2a092>@@@Impl@SpriteFont@DirectX@@QEBAXPEB_WV<lambda_ea59ae01f682360545abc2266ba2a092>@@@Z 000000014003d26c     DirectXTK:SpriteFont.obj
 0004:00001278       $pdata$3$??$ForEachGlyph@V<lambda_ea59ae01f682360545abc2266ba2a092>@@@Impl@SpriteFont@DirectX@@QEBAXPEB_WV<lambda_ea59ae01f682360545abc2266ba2a092>@@@Z 000000014003d278     DirectXTK:SpriteFont.obj
 0004:00001284       $pdata$4$??$ForEachGlyph@V<lambda_ea59ae01f682360545abc2266ba2a092>@@@Impl@SpriteFont@DirectX@@QEBAXPEB_WV<lambda_ea59ae01f682360545abc2266ba2a092>@@@Z 000000014003d284     DirectXTK:SpriteFont.obj
 0004:00001290       $pdata$??$Read@I@BinaryReader@DirectX@@QEAAAEBIXZ 000000014003d290     DirectXTK:SpriteFont.obj
 0004:0000129c       $pdata$??0Impl@SpriteFont@DirectX@@QEAA@PEAUID3D11Device@@PEAVBinaryReader@2@_N@Z 000000014003d29c     DirectXTK:SpriteFont.obj
 0004:000012a8       $pdata$??0SpriteFont@DirectX@@QEAA@PEAUID3D11Device@@PEB_W_N@Z 000000014003d2a8     DirectXTK:SpriteFont.obj
 0004:000012b4       $pdata$??0overflow_error@std@@QEAA@AEBV01@@Z 000000014003d2b4     DirectXTK:SpriteFont.obj
 0004:000012c0       $pdata$??0overflow_error@std@@QEAA@PEBD@Z 000000014003d2c0     DirectXTK:SpriteFont.obj
 0004:000012cc       $pdata$??0runtime_error@std@@QEAA@AEBV01@@Z 000000014003d2cc     DirectXTK:SpriteFont.obj
 0004:000012d8       $pdata$??1?$vector@UGlyph@SpriteFont@DirectX@@V?$allocator@UGlyph@SpriteFont@DirectX@@@std@@@std@@QEAA@XZ 000000014003d2d8     DirectXTK:SpriteFont.obj
 0004:000012e4       $pdata$??R?$default_delete@VImpl@SpriteFont@DirectX@@@std@@QEBAXPEAVImpl@SpriteFont@DirectX@@@Z 000000014003d2e4     DirectXTK:SpriteFont.obj
 0004:000012f0       $pdata$??_GSpriteFont@DirectX@@UEAAPEAXI@Z 000000014003d2f0     DirectXTK:SpriteFont.obj
 0004:000012fc       $pdata$?ConvertUTF8@Impl@SpriteFont@DirectX@@QEAAPEB_WPEBD@Z 000000014003d2fc     DirectXTK:SpriteFont.obj
 0004:00001308       $pdata$?DrawString@SpriteFont@DirectX@@QEBQXPEAVSpriteBatch@2@PEBDAEBUXMFLOAT2@2@T__m128@@M2MW4SpriteEffects@2@M@Z 000000014003d308     DirectXTK:SpriteFont.obj
 0004:00001314       $pdata$?FindGlyph@Impl@SpriteFont@DirectX@@QEBAPEBUGlyph@23@_W@Z 000000014003d314     DirectXTK:SpriteFont.obj
 0004:00001320       $pdata$?MeasureString@SpriteFont@DirectX@@QEBQ?AT__m128@@PEB_W@Z 000000014003d320     DirectXTK:SpriteFont.obj
 0004:0000132c       $pdata$1$?MeasureString@SpriteFont@DirectX@@QEBQ?AT__m128@@PEB_W@Z 000000014003d32c     DirectXTK:SpriteFont.obj
 0004:00001338       $pdata$2$?MeasureString@SpriteFont@DirectX@@QEBQ?AT__m128@@PEB_W@Z 000000014003d338     DirectXTK:SpriteFont.obj
 0004:00001344       $pdata$?_Buy@?$vector@UGlyph@SpriteFont@DirectX@@V?$allocator@UGlyph@SpriteFont@DirectX@@@std@@@std@@AEAA_N_K@Z 000000014003d344     DirectXTK:SpriteFont.obj
 0004:00001350       $pdata$?CreateD3DResources@?A0x3c71273c@@YAJPEAUID3D11Device@@I_K1111W4DXGI_FORMAT@@W4D3D11_USAGE@@III_N4PEBUD3D11_SUBRESOURCE_DATA@@PEAPEAUID3D11Resource@@PEAPEAUID3D11ShaderResourceView@@@Z 000000014003d350     DirectXTK:DDSTextureLoader.obj
 0004:0000135c       $pdata$3$?CreateD3DResources@?A0x3c71273c@@YAJPEAUID3D11Device@@I_K1111W4DXGI_FORMAT@@W4D3D11_USAGE@@III_N4PEBUD3D11_SUBRESOURCE_DATA@@PEAPEAUID3D11Resource@@PEAPEAUID3D11ShaderResourceView@@@Z 000000014003d35c     DirectXTK:DDSTextureLoader.obj
 0004:00001368       $pdata$4$?CreateD3DResources@?A0x3c71273c@@YAJPEAUID3D11Device@@I_K1111W4DXGI_FORMAT@@W4D3D11_USAGE@@III_N4PEBUD3D11_SUBRESOURCE_DATA@@PEAPEAUID3D11Resource@@PEAPEAUID3D11ShaderResourceView@@@Z 000000014003d368     DirectXTK:DDSTextureLoader.obj
 0004:00001374       $pdata$?CreateDDSTextureFromFile@DirectX@@YAJPEAUID3D11Device@@PEB_WPEAPEAUID3D11Resource@@PEAPEAUID3D11ShaderResourceView@@_KPEAW4DDS_ALPHA_MODE@1@@Z 000000014003d374     DirectXTK:DDSTextureLoader.obj
 0004:00001380       $pdata$?CreateTextureFromDDS@?A0x3c71273c@@YAJPEAUID3D11Device@@PEAUID3D11DeviceContext@@PEBUDDS_HEADER@DirectX@@PEBE_K4W4D3D11_USAGE@@III_NPEAPEAUID3D11Resource@@PEAPEAUID3D11ShaderResourceView@@@Z 000000014003d380     DirectXTK:DDSTextureLoader.obj
 0004:0000138c       $pdata$?FillInitData@?A0x3c71273c@@YAJ_K0000W4DXGI_FORMAT@@00PEBEAEA_K333PEAUD3D11_SUBRESOURCE_DATA@@@Z 000000014003d38c     DirectXTK:DDSTextureLoader.obj
 0004:00001398       $pdata$4$?FillInitData@?A0x3c71273c@@YAJ_K0000W4DXGI_FORMAT@@00PEBEAEA_K333PEAUD3D11_SUBRESOURCE_DATA@@@Z 000000014003d398     DirectXTK:DDSTextureLoader.obj
 0004:000013a4       $pdata$6$?FillInitData@?A0x3c71273c@@YAJ_K0000W4DXGI_FORMAT@@00PEBEAEA_K333PEAUD3D11_SUBRESOURCE_DATA@@@Z 000000014003d3a4     DirectXTK:DDSTextureLoader.obj
 0004:000013b0       $pdata$7$?FillInitData@?A0x3c71273c@@YAJ_K0000W4DXGI_FORMAT@@00PEBEAEA_K333PEAUD3D11_SUBRESOURCE_DATA@@@Z 000000014003d3b0     DirectXTK:DDSTextureLoader.obj
 0004:000013bc       $pdata$?GetSurfaceInfo@LoaderHelpers@DirectX@@YAJ_K0W4DXGI_FORMAT@@PEA_K22@Z 000000014003d3bc     DirectXTK:DDSTextureLoader.obj
 0004:000013c8       $pdata$?LoadTextureDataFromFile@LoaderHelpers@DirectX@@YAJPEB_WAEAV?$unique_ptr@$$BY0A@EU?$default_delete@$$BY0A@E@std@@@std@@PEAPEBUDDS_HEADER@2@PEAPEBEPEA_K@Z 000000014003d3c8     DirectXTK:DDSTextureLoader.obj
 0004:000013d4       $pdata$1$?LoadTextureDataFromFile@LoaderHelpers@DirectX@@YAJPEB_WAEAV?$unique_ptr@$$BY0A@EU?$default_delete@$$BY0A@E@std@@@std@@PEAPEBUDDS_HEADER@2@PEAPEBEPEA_K@Z 000000014003d3d4     DirectXTK:DDSTextureLoader.obj
 0004:000013e0       $pdata$2$?LoadTextureDataFromFile@LoaderHelpers@DirectX@@YAJPEB_WAEAV?$unique_ptr@$$BY0A@EU?$default_delete@$$BY0A@E@std@@@std@@PEAPEBUDDS_HEADER@2@PEAPEBEPEA_K@Z 000000014003d3e0     DirectXTK:DDSTextureLoader.obj
 0004:000013ec       $pdata$3$?LoadTextureDataFromFile@LoaderHelpers@DirectX@@YAJPEB_WAEAV?$unique_ptr@$$BY0A@EU?$default_delete@$$BY0A@E@std@@@std@@PEAPEBUDDS_HEADER@2@PEAPEBEPEA_K@Z 000000014003d3ec     DirectXTK:DDSTextureLoader.obj
 0004:000013f8       $pdata$4$?LoadTextureDataFromFile@LoaderHelpers@DirectX@@YAJPEB_WAEAV?$unique_ptr@$$BY0A@EU?$default_delete@$$BY0A@E@std@@@std@@PEAPEBUDDS_HEADER@2@PEAPEBEPEA_K@Z 000000014003d3f8     DirectXTK:DDSTextureLoader.obj
 0004:00001404       $pdata$??0CommonStates@DirectX@@QEAA@PEAUID3D11Device@@@Z 000000014003d404     DirectXTK:CommonStates.obj
 0004:00001410       $pdata$??1CommonStates@DirectX@@UEAA@XZ 000000014003d410     DirectXTK:CommonStates.obj
 0004:0000141c       $pdata$0$??1CommonStates@DirectX@@UEAA@XZ 000000014003d41c     DirectXTK:CommonStates.obj
 0004:00001428       $pdata$1$??1CommonStates@DirectX@@UEAA@XZ 000000014003d428     DirectXTK:CommonStates.obj
 0004:00001434       $pdata$??1Impl@CommonStates@DirectX@@QEAA@XZ 000000014003d434     DirectXTK:CommonStates.obj
 0004:00001440       $pdata$??_G?$_Ref_count_obj@UWrappedData@?$SharedResourcePool@PEAUID3D11Device@@VImpl@CommonStates@DirectX@@$$V@DirectX@@@std@@UEAAPEAXI@Z 000000014003d440     DirectXTK:CommonStates.obj
 0004:0000144c       $pdata$??_GCommonStates@DirectX@@UEAAPEAXI@Z 000000014003d44c     DirectXTK:CommonStates.obj
 0004:00001458       $pdata$1$??_GCommonStates@DirectX@@UEAAPEAXI@Z 000000014003d458     DirectXTK:CommonStates.obj
 0004:00001464       $pdata$2$??_GCommonStates@DirectX@@UEAAPEAXI@Z 000000014003d464     DirectXTK:CommonStates.obj
 0004:00001470       $pdata$3$??_GCommonStates@DirectX@@UEAAPEAXI@Z 000000014003d470     DirectXTK:CommonStates.obj
 0004:0000147c       $pdata$4$??_GCommonStates@DirectX@@UEAAPEAXI@Z 000000014003d47c     DirectXTK:CommonStates.obj
 0004:00001488       $pdata$?AlphaBlend@CommonStates@DirectX@@QEBAPEAUID3D11BlendState@@XZ 000000014003d488     DirectXTK:CommonStates.obj
 0004:00001494       $pdata$?CullCounterClockwise@CommonStates@DirectX@@QEBAPEAUID3D11RasterizerState@@XZ 000000014003d494     DirectXTK:CommonStates.obj
 0004:000014a0       $pdata$?DemandCreate@?$SharedResourcePool@PEAUID3D11Device@@VImpl@CommonStates@DirectX@@$$V@DirectX@@QEAA?AV?$shared_ptr@VImpl@CommonStates@DirectX@@@std@@PEAUID3D11Device@@@Z 000000014003d4a0     DirectXTK:CommonStates.obj
 0004:000014ac       $pdata$?DepthNone@CommonStates@DirectX@@QEBAPEAUID3D11DepthStencilState@@XZ 000000014003d4ac     DirectXTK:CommonStates.obj
 0004:000014b8       $pdata$?LinearClamp@CommonStates@DirectX@@QEBAPEAUID3D11SamplerState@@XZ 000000014003d4b8     DirectXTK:CommonStates.obj
 0004:000014c4       $pdata$?_Destroy@?$_Ref_count_obj@UWrappedData@?$SharedResourcePool@PEAUID3D11Device@@VImpl@CommonStates@DirectX@@$$V@DirectX@@@std@@EEAAXXZ 000000014003d4c4     DirectXTK:CommonStates.obj
 0004:000014d0       $pdata$??0BinaryReader@DirectX@@QEAA@PEB_W@Z 000000014003d4d0     DirectXTK:BinaryReader.obj
 0004:000014dc       $pdata$?ReadEntireFile@BinaryReader@DirectX@@SAJPEB_WAEAV?$unique_ptr@$$BY0A@EU?$default_delete@$$BY0A@E@std@@@std@@PEA_K@Z 000000014003d4dc     DirectXTK:BinaryReader.obj
 0004:000014e8       $pdata$??1_Fac_tidy_reg_t@std@@QEAA@XZ 000000014003d4e8     msvcprt:locale0_implib.obj
 0004:000014f4       $pdata$?_Facet_Register@std@@YAXPEAV_Facet_base@1@@Z 000000014003d4f4     msvcprt:locale0_implib.obj
 0004:0000150c       $pdata$??2@YAPEAX_K@Z      000000014003d50c     MSVCRT:new_scalar.obj
 0004:00001518       $pdata$??_Gtype_info@@UEAAPEAXI@Z 000000014003d518     MSVCRT:std_type_info_static.obj
 0004:00001524       $pdata$?__scrt_initialize_thread_safe_statics@@YAHXZ 000000014003d524     MSVCRT:thread_safe_statics.obj
 0004:00001530       $pdata$?__scrt_uninitialize_thread_safe_statics@@YAXXZ 000000014003d530     MSVCRT:thread_safe_statics.obj
 0004:0000153c       $pdata$_Init_thread_footer 000000014003d53c     MSVCRT:thread_safe_statics.obj
 0004:00001548       $pdata$_Init_thread_header 000000014003d548     MSVCRT:thread_safe_statics.obj
 0004:00001554       $pdata$_Init_thread_notify 000000014003d554     MSVCRT:thread_safe_statics.obj
 0004:00001560       $pdata$_Init_thread_wait   000000014003d560     MSVCRT:thread_safe_statics.obj
 0004:0000156c       $pdata$?pre_c_initialization@@YAHXZ 000000014003d56c     MSVCRT:exe_winmain.obj
 0004:00001578       $pdata$?post_pgo_initialization@@YAHXZ 000000014003d578     MSVCRT:exe_winmain.obj
 0004:00001584       $pdata$?pre_cpp_initialization@@YAXXZ 000000014003d584     MSVCRT:exe_winmain.obj
 0004:00001590       $pdata$?__scrt_common_main_seh@@YAHXZ 000000014003d590     MSVCRT:exe_winmain.obj
 0004:0000159c       $pdata$WinMainCRTStartup   000000014003d59c     MSVCRT:exe_winmain.obj
 0004:000015a8       $pdata$__scrt_acquire_startup_lock 000000014003d5a8     MSVCRT:utility.obj
 0004:000015b4       $pdata$__scrt_initialize_crt 000000014003d5b4     MSVCRT:utility.obj
 0004:000015c0       $pdata$__scrt_initialize_onexit_tables 000000014003d5c0     MSVCRT:utility.obj
 0004:000015cc       $pdata$__scrt_is_nonwritable_in_current_image 000000014003d5cc     MSVCRT:utility.obj
 0004:000015d8       $pdata$__scrt_release_startup_lock 000000014003d5d8     MSVCRT:utility.obj
 0004:000015e4       $pdata$__scrt_uninitialize_crt 000000014003d5e4     MSVCRT:utility.obj
 0004:000015f0       $pdata$_onexit             000000014003d5f0     MSVCRT:utility.obj
 0004:000015fc       $pdata$atexit              000000014003d5fc     MSVCRT:utility.obj
 0004:00001608       $pdata$__GSHandlerCheck    000000014003d608     MSVCRT:gshandler.obj
 0004:00001614       $pdata$__GSHandlerCheckCommon 000000014003d614     MSVCRT:gshandler.obj
 0004:00001620       $pdata$__GSHandlerCheck_EH 000000014003d620     MSVCRT:gshandlereh.obj
 0004:0000162c       $pdata$__raise_securityfailure 000000014003d62c     MSVCRT:gs_report.obj
 0004:00001638       $pdata$__report_gsfailure  000000014003d638     MSVCRT:gs_report.obj
 0004:00001644       $pdata$capture_previous_context 000000014003d644     MSVCRT:gs_report.obj
 0004:00001650       $pdata$??0bad_array_new_length@std@@QEAA@AEBV01@@Z 000000014003d650     MSVCRT:throw_bad_alloc.obj
 0004:0000165c       $pdata$?__scrt_throw_std_bad_alloc@@YAXXZ 000000014003d65c     MSVCRT:throw_bad_alloc.obj
 0004:00001668       $pdata$?__scrt_throw_std_bad_array_new_length@@YAXXZ 000000014003d668     MSVCRT:throw_bad_alloc.obj
 0004:00001674       $pdata$__scrt_fastfail     000000014003d674     MSVCRT:utility_desktop.obj
 0004:00001680       $pdata$__scrt_get_show_window_mode 000000014003d680     MSVCRT:utility_desktop.obj
 0004:0000168c       $pdata$__scrt_is_managed_app 000000014003d68c     MSVCRT:utility_desktop.obj
 0004:00001698       $pdata$__scrt_unhandled_exception_filter 000000014003d698     MSVCRT:utility_desktop.obj
 0004:000016a4       $pdata$??2@YAPEAX_KAEBUnothrow_t@std@@@Z 000000014003d6a4     MSVCRT:new_scalar_nothrow.obj
 0004:000016b0       $pdata$__security_init_cookie 000000014003d6b0     MSVCRT:gs_support.obj
 0004:000016bc       $pdata$__scrt_initialize_default_local_stdio_options 000000014003d6bc     MSVCRT:default_local_stdio_options.obj
 0004:000016c8       $pdata$_RTC_Initialize     000000014003d6c8     MSVCRT:initsect.obj
 0004:000016d4       $pdata$_RTC_Terminate      000000014003d6d4     MSVCRT:initsect.obj
 0004:000016e0       $pdata$__isa_available_init 000000014003d6e0     MSVCRT:cpu_disp.obj
 0004:000016f8       $pdata$?dtor$2@?0??Flatten@Animation@@QEAA?AV?$vector@V?$array@Ufloat4@@$03@std@@V?$allocator@V?$array@Ufloat4@@$03@std@@@2@@std@@V23@V?$vector@HV?$allocator@H@std@@@3@@Z@4HA 000000014003d6f8     Animation.obj
 0004:00001704       $pdata$?dtor$3@?0??LerpJoints@Animation@@QEAA?AV?$vector@V?$array@Ufloat4@@$03@std@@V?$allocator@V?$array@Ufloat4@@$03@std@@@2@@std@@V23@0MV?$vector@HV?$allocator@H@std@@@3@@Z@4HA 000000014003d704     Animation.obj
 0004:00001710       $pdata$?dtor$0@?0???0?$basic_fstream@DU?$char_traits@D@std@@@std@@QEAA@PEBDHH@Z@4HA 000000014003d710     Animation.obj
 0004:0000171c       $pdata$?dtor$0@?0??Initialize@EnemyManager@@QEAAXPEAUID3D11Device@@@Z@4HA 000000014003d71c     EnemyManager.obj
 0004:00001728       $pdata$?dtor$1@?0??Initialize@EnemyManager@@QEAAXPEAUID3D11Device@@@Z@4HA 000000014003d728     EnemyManager.obj
 0004:00001734       $pdata$?dtor$1@?0??Update@EnemyManager@@QEAAXMPEAVPlayer@@V?$vector@PEAVGameObject@@V?$allocator@PEAVGameObject@@@std@@@std@@AEAV?$vector@PEAVBullet@@V?$allocator@PEAVBullet@@@std@@@4@PEAUID3D11Device@@@Z@4HA 000000014003d734     EnemyManager.obj
 0004:00001740       $pdata$?dtor$2@?0??Update@EnemyManager@@QEAAXMPEAVPlayer@@V?$vector@PEAVGameObject@@V?$allocator@PEAVGameObject@@@std@@@std@@AEAV?$vector@PEAVBullet@@V?$allocator@PEAVBullet@@@std@@@4@PEAUID3D11Device@@@Z@4HA 000000014003d740     EnemyManager.obj
 0004:0000174c       $pdata$?dtor$0@?0??AddAninimation@GameObject@@QEAAXPEBDPEAUID3D11Device@@H@Z@4HA 000000014003d74c     GameObject.obj
 0004:00001758       $pdata$?catch$2@?0???0?$vector@Ukeyframe@@V?$allocator@Ukeyframe@@@std@@@std@@QEAA@AEBV01@@Z@4HA 000000014003d758     GameObject.obj
 0004:00001764       $pdata$?dtor$1@?0??Initialize@Graphics@@QEAA_NHHPEAUHWND__@@PEAVInputManager@@@Z@4HA 000000014003d764     graphicsclass.obj
 0004:00001770       $pdata$?dtor$2@?0??Initialize@Graphics@@QEAA_NHHPEAUHWND__@@PEAVInputManager@@@Z@4HA 000000014003d770     graphicsclass.obj
 0004:0000177c       $pdata$?dtor$9@?0??Initialize@Graphics@@QEAA_NHHPEAUHWND__@@PEAVInputManager@@@Z@4HA 000000014003d77c     graphicsclass.obj
 0004:00001788       $pdata$?dtor$10@?0??Initialize@Graphics@@QEAA_NHHPEAUHWND__@@PEAVInputManager@@@Z@4HA 000000014003d788     graphicsclass.obj
 0004:00001794       $pdata$?dtor$11@?0??Initialize@Graphics@@QEAA_NHHPEAUHWND__@@PEAVInputManager@@@Z@4HA 000000014003d794     graphicsclass.obj
 0004:000017a0       $pdata$?dtor$4@?0???0GameManager@@QEAA@XZ@4HA 000000014003d7a0     GameManager.obj
 0004:000017ac       $pdata$?dtor$0@?0??ShootBullets@GameManager@@QEAAXXZ@4HA 000000014003d7ac     GameManager.obj
 0004:000017b8       $pdata$?dtor$0@?0??SpawnDamagePickup@GameManager@@QEAAXUfloat3@@@Z@4HA 000000014003d7b8     GameManager.obj
 0004:000017b8       $pdata$?dtor$0@?0??SpawnHealthPickup@GameManager@@QEAAXUfloat3@@@Z@4HA 000000014003d7b8     GameManager.obj
 0004:000017c4       $pdata$?dtor$3@?0??Update@GameManager@@QEAAXMM@Z@4HA 000000014003d7c4     GameManager.obj
 0004:000017d0       $pdata$?dtor$67@?0??Update@GameManager@@QEAAXMM@Z@4HA 000000014003d7d0     GameManager.obj
 0004:000017dc       $pdata$?dtor$0@?0??Initialize@GameManager@@QEAA_NHHPEAUHWND__@@@Z@4HA 000000014003d7dc     GameManager.obj
 0004:000017e8       $pdata$?dtor$4@?0??Initialize@GameManager@@QEAA_NHHPEAUHWND__@@@Z@4HA 000000014003d7e8     GameManager.obj
 0004:000017f4       $pdata$?dtor$5@?0??Initialize@GameManager@@QEAA_NHHPEAUHWND__@@@Z@4HA 000000014003d7f4     GameManager.obj
 0004:00001800       $pdata$?dtor$0@?0??Initialize@MyWindow@@QEAA_NXZ@4HA 000000014003d800     MyWindow.obj
 0004:0000180c       $pdata$?dtor$0@?0???$?HDU?$char_traits@D@std@@V?$allocator@D@1@@std@@YA?AV?$basic_string@DU?$char_traits@D@std@@V?$allocator@D@2@@0@QEBDAEBV10@@Z@4HA 000000014003d80c     MyWindow.obj
 0004:00001818       $pdata$?dtor$2@?0??SetSkeletonLines@Player@@QEAA?AV?$vector@V?$array@Ufloat4@@$03@std@@V?$allocator@V?$array@Ufloat4@@$03@std@@@2@@std@@Uanim_clip@@0MM@Z@4HA 000000014003d818     Player.obj
 0004:00001824       $pdata$?dtor$0@?0??Attack@RangedEnemy@@QEAAXPEAVPlayer@@AEAV?$vector@PEAVBullet@@V?$allocator@PEAVBullet@@@std@@@std@@PEAUID3D11Device@@@Z@4HA 000000014003d824     RangedEnemy.obj
 0004:00001830       $pdata$?dtor$0@?0??Initialize@Shop@@QEAA_NXZ@4HA 000000014003d830     Shop.obj
 0004:0000183c       $pdata$?dtor$3@?0??Initialize@Shop@@QEAA_NXZ@4HA 000000014003d83c     Shop.obj
 0004:00001848       $pdata$?dtor$6@?0??Initialize@Shop@@QEAA_NXZ@4HA 000000014003d848     Shop.obj
 0004:00001854       $pdata$?dtor$9@?0??Initialize@Shop@@QEAA_NXZ@4HA 000000014003d854     Shop.obj
 0004:00001860       $pdata$?dtor$12@?0??Initialize@Shop@@QEAA_NXZ@4HA 000000014003d860     Shop.obj
 0004:0000186c       $pdata$?dtor$15@?0??Initialize@Shop@@QEAA_NXZ@4HA 000000014003d86c     Shop.obj
 0004:00001878       $pdata$?dtor$18@?0??Initialize@Shop@@QEAA_NXZ@4HA 000000014003d878     Shop.obj
 0004:00001884       $pdata$?dtor$21@?0??Initialize@Shop@@QEAA_NXZ@4HA 000000014003d884     Shop.obj
 0004:00001890       $pdata$?dtor$24@?0??Initialize@Shop@@QEAA_NXZ@4HA 000000014003d890     Shop.obj
 0004:0000189c       $pdata$?dtor$27@?0??Initialize@Shop@@QEAA_NXZ@4HA 000000014003d89c     Shop.obj
 0004:000018a8       $pdata$?dtor$30@?0??Initialize@Shop@@QEAA_NXZ@4HA 000000014003d8a8     Shop.obj
 0004:000018b4       $pdata$?dtor$33@?0??Initialize@Shop@@QEAA_NXZ@4HA 000000014003d8b4     Shop.obj
 0004:000018c0       $pdata$?dtor$36@?0??Initialize@Shop@@QEAA_NXZ@4HA 000000014003d8c0     Shop.obj
 0004:000018cc       $pdata$?catch$0@?0???$_Insert_hint@AEAU?$pair@$$CBV?$basic_string@DU?$char_traits@D@std@@V?$allocator@D@2@@std@@PEAUItem@Shop@@@std@@PEAU?$_Tree_node@U?$pair@$$CBV?$basic_string@DU?$char_traits@D@std@@V?$allocator@D@2@@std@@PEAUItem@Shop@@@std@@PEAX@2@@?$_Tree@V?$_Tmap_traits@V?$basic_string@DU?$char_traits@D@std@@V?$allocator@D@2@@std@@PEAUItem@Shop@@U?$less@V?$basic_string@DU?$char_traits@D@std@@V?$allocator@D@2@@std@@@2@V?$allocator@U?$pair@$$CBV?$basic_string@DU?$char_traits@D@std@@V?$allocator@D@2@@std@@PEAUItem@Shop@@@std@@@2@$0A@@std@@@std@@IEAA?AV?$_Tree_iterator@V?$_Tree_val@U?$_Tree_simple_types@U?$pair@$$CBV?$basic_string@DU?$char_traits@D@std@@V?$allocator@D@2@@std@@PEAUItem@Shop@@@std@@@std@@@std@@@1@V?$_Tree_const_iterator@V?$_Tree_val@U?$_Tree_simple_types@U?$pair@$$CBV?$basic_string@DU?$char_traits@D@std@@V?$allocator@D@2@@std@@PEAUItem@Shop@@@std@@@std@@@std@@@1@AEAU?$pair@$$CBV?$basic_string@DU?$char_traits@D@std@@V?$allocator@D@2@@std@@PEAUItem@Shop@@@1@PEAU?$_Tree_node@U?$pair@$$CBV?$basic_string@DU?$char_traits@D@std@@V?$allocator@D@2@@std@@PEAUItem@Shop@@@std@@PEAX@1@@Z@4HA 000000014003d8cc     Shop.obj
 0004:000018cc       $pdata$?catch$0@?0???$_Insert_hint@AEAU?$pair@$$CBV?$basic_string@DU?$char_traits@D@std@@V?$allocator@D@2@@std@@PEAVUIElement@@@std@@PEAU?$_Tree_node@U?$pair@$$CBV?$basic_string@DU?$char_traits@D@std@@V?$allocator@D@2@@std@@PEAVUIElement@@@std@@PEAX@2@@?$_Tree@V?$_Tmap_traits@V?$basic_string@DU?$char_traits@D@std@@V?$allocator@D@2@@std@@PEAVUIElement@@U?$less@V?$basic_string@DU?$char_traits@D@std@@V?$allocator@D@2@@std@@@2@V?$allocator@U?$pair@$$CBV?$basic_string@DU?$char_traits@D@std@@V?$allocator@D@2@@std@@PEAVUIElement@@@std@@@2@$0A@@std@@@std@@IEAA?AV?$_Tree_iterator@V?$_Tree_val@U?$_Tree_simple_types@U?$pair@$$CBV?$basic_string@DU?$char_traits@D@std@@V?$allocator@D@2@@std@@PEAVUIElement@@@std@@@std@@@std@@@1@V?$_Tree_const_iterator@V?$_Tree_val@U?$_Tree_simple_types@U?$pair@$$CBV?$basic_string@DU?$char_traits@D@std@@V?$allocator@D@2@@std@@PEAVUIElement@@@std@@@std@@@std@@@1@AEAU?$pair@$$CBV?$basic_string@DU?$char_traits@D@std@@V?$allocator@D@2@@std@@PEAVUIElement@@@1@PEAU?$_Tree_node@U?$pair@$$CBV?$basic_string@DU?$char_traits@D@std@@V?$allocator@D@2@@std@@PEAVUIElement@@@std@@PEAX@1@@Z@4HA 000000014003d8cc     Shop.obj
 0004:000018d8       $pdata$?catch$0@?0???$_Insert_nohint@AEAU?$pair@$$CBV?$basic_string@DU?$char_traits@D@std@@V?$allocator@D@2@@std@@PEAVUIElement@@@std@@PEAU?$_Tree_node@U?$pair@$$CBV?$basic_string@DU?$char_traits@D@std@@V?$allocator@D@2@@std@@PEAVUIElement@@@std@@PEAX@2@@?$_Tree@V?$_Tmap_traits@V?$basic_string@DU?$char_traits@D@std@@V?$allocator@D@2@@std@@PEAVUIElement@@U?$less@V?$basic_string@DU?$char_traits@D@std@@V?$allocator@D@2@@std@@@2@V?$allocator@U?$pair@$$CBV?$basic_string@DU?$char_traits@D@std@@V?$allocator@D@2@@std@@PEAVUIElement@@@std@@@2@$0A@@std@@@std@@IEAA?AU?$pair@V?$_Tree_iterator@V?$_Tree_val@U?$_Tree_simple_types@U?$pair@$$CBV?$basic_string@DU?$char_traits@D@std@@V?$allocator@D@2@@std@@PEAVUIElement@@@std@@@std@@@std@@@std@@_N@1@_NAEAU?$pair@$$CBV?$basic_string@DU?$char_traits@D@std@@V?$allocator@D@2@@std@@PEAVUIElement@@@1@PEAU?$_Tree_node@U?$pair@$$CBV?$basic_string@DU?$char_traits@D@std@@V?$allocator@D@2@@std@@PEAVUIElement@@@std@@PEAX@1@@Z@4HA 000000014003d8d8     Shop.obj
 0004:000018d8       $pdata$?catch$0@?0???$_Insert_nohint@AEAU?$pair@$$CBV?$basic_string@DU?$char_traits@D@std@@V?$allocator@D@2@@std@@PEAUItem@Shop@@@std@@PEAU?$_Tree_node@U?$pair@$$CBV?$basic_string@DU?$char_traits@D@std@@V?$allocator@D@2@@std@@PEAUItem@Shop@@@std@@PEAX@2@@?$_Tree@V?$_Tmap_traits@V?$basic_string@DU?$char_traits@D@std@@V?$allocator@D@2@@std@@PEAUItem@Shop@@U?$less@V?$basic_string@DU?$char_traits@D@std@@V?$allocator@D@2@@std@@@2@V?$allocator@U?$pair@$$CBV?$basic_string@DU?$char_traits@D@std@@V?$allocator@D@2@@std@@PEAUItem@Shop@@@std@@@2@$0A@@std@@@std@@IEAA?AU?$pair@V?$_Tree_iterator@V?$_Tree_val@U?$_Tree_simple_types@U?$pair@$$CBV?$basic_string@DU?$char_traits@D@std@@V?$allocator@D@2@@std@@PEAUItem@Shop@@@std@@@std@@@std@@@std@@_N@1@_NAEAU?$pair@$$CBV?$basic_string@DU?$char_traits@D@std@@V?$allocator@D@2@@std@@PEAUItem@Shop@@@1@PEAU?$_Tree_node@U?$pair@$$CBV?$basic_string@DU?$char_traits@D@std@@V?$allocator@D@2@@std@@PEAUItem@Shop@@@std@@PEAX@1@@Z@4HA 000000014003d8d8     Shop.obj
 0004:000018e4       $pdata$?dtor$0@?0???0?$basic_ofstream@DU?$char_traits@D@std@@@std@@QEAA@XZ@4HA 000000014003d8e4     SkyboxShader.obj
 0004:000018f0       $pdata$?catch$4@?0???$?6U?$char_traits@D@std@@@std@@YAAEAV?$basic_ostream@DU?$char_traits@D@std@@@0@AEAV10@D@Z@4HA 000000014003d8f0     SkyboxShader.obj
 0004:000018fc       $pdata$?dtor$0@?0??CreateText@UIManager@@QEAAPEAVUIElement@@UtagRECT@@_N1Ufloat2@@HPEBD@Z@4HA 000000014003d8fc     UIManager.obj
 0004:00001908       $pdata$?dtor$1@?0??CreateText@UIManager@@QEAAPEAVUIElement@@UtagRECT@@_N1Ufloat2@@HV?$basic_string@DU?$char_traits@D@std@@V?$allocator@D@2@@std@@@Z@4HA 000000014003d908     UIManager.obj
 0004:00001914       $pdata$?dtor$0@?0??CreateImage@UIManager@@QEAAPEAVUIElement@@UtagRECT@@_N1Ufloat2@@PEBDPEAUID3D11Device@@@Z@4HA 000000014003d914     UIManager.obj
 0004:00001920       $pdata$?dtor$0@?0??CreateButton@UIManager@@QEAAPEAVUIElement@@UtagRECT@@_N1Ufloat2@@PEAUID3D11Device@@HPEBD@Z@4HA 000000014003d920     UIManager.obj
 0004:0000192c       $pdata$?dtor$2@?0??CreateButton@UIManager@@QEAAPEAVUIElement@@UtagRECT@@_N1Ufloat2@@PEAUID3D11Device@@HPEBD@Z@4HA 000000014003d92c     UIManager.obj
 0004:00001938       $pdata$?catch$1@?0???$_Buynode@AEAU?$pair@PEAUID3D11Device@@V?$shared_ptr@UWrappedData@?$SharedResourcePool@PEAUID3D11Device@@VImpl@CommonStates@DirectX@@$$V@DirectX@@@std@@@std@@@?$_Tree_comp_alloc@V?$_Tmap_traits@PEAUID3D11Device@@V?$weak_ptr@VImpl@CommonStates@DirectX@@@std@@U?$less@PEAUID3D11Device@@@3@V?$allocator@U?$pair@QEAUID3D11Device@@V?$weak_ptr@VImpl@CommonStates@DirectX@@@std@@@std@@@3@$0A@@std@@@std@@QEAAPEAU?$_Tree_node@U?$pair@QEAUID3D11Device@@V?$weak_ptr@VImpl@CommonStates@DirectX@@@std@@@std@@PEAX@1@AEAU?$pair@PEAUID3D11Device@@V?$shared_ptr@UWrappedData@?$SharedResourcePool@PEAUID3D11Device@@VImpl@CommonStates@DirectX@@$$V@DirectX@@@std@@@1@@Z@4HA 000000014003d938     DirectXTK:CommonStates.obj
 0004:00001938       $pdata$?catch$1@?0???$_Buynode@AEAU?$pair@PEAUID3D11DeviceContext@@V?$shared_ptr@UWrappedData@?$SharedResourcePool@PEAUID3D11DeviceContext@@UContextResources@Impl@SpriteBatch@DirectX@@$$V@DirectX@@@std@@@std@@@?$_Tree_comp_alloc@V?$_Tmap_traits@PEAUID3D11DeviceContext@@V?$weak_ptr@UContextResources@Impl@SpriteBatch@DirectX@@@std@@U?$less@PEAUID3D11DeviceContext@@@3@V?$allocator@U?$pair@QEAUID3D11DeviceContext@@V?$weak_ptr@UContextResources@Impl@SpriteBatch@DirectX@@@std@@@std@@@3@$0A@@std@@@std@@QEAAPEAU?$_Tree_node@U?$pair@QEAUID3D11DeviceContext@@V?$weak_ptr@UContextResources@Impl@SpriteBatch@DirectX@@@std@@@std@@PEAX@1@AEAU?$pair@PEAUID3D11DeviceContext@@V?$shared_ptr@UWrappedData@?$SharedResourcePool@PEAUID3D11DeviceContext@@UContextResources@Impl@SpriteBatch@DirectX@@$$V@DirectX@@@std@@@1@@Z@4HA 000000014003d938     DirectXTK:SpriteBatch.obj
 0004:00001938       $pdata$?catch$1@?0???$_Buynode@AEAU?$pair@PEAUID3D11Device@@V?$shared_ptr@UWrappedData@?$SharedResourcePool@PEAUID3D11Device@@UDeviceResources@Impl@SpriteBatch@DirectX@@$$V@DirectX@@@std@@@std@@@?$_Tree_comp_alloc@V?$_Tmap_traits@PEAUID3D11Device@@V?$weak_ptr@UDeviceResources@Impl@SpriteBatch@DirectX@@@std@@U?$less@PEAUID3D11Device@@@3@V?$allocator@U?$pair@QEAUID3D11Device@@V?$weak_ptr@UDeviceResources@Impl@SpriteBatch@DirectX@@@std@@@std@@@3@$0A@@std@@@std@@QEAAPEAU?$_Tree_node@U?$pair@QEAUID3D11Device@@V?$weak_ptr@UDeviceResources@Impl@SpriteBatch@DirectX@@@std@@@std@@PEAX@1@AEAU?$pair@PEAUID3D11Device@@V?$shared_ptr@UWrappedData@?$SharedResourcePool@PEAUID3D11Device@@UDeviceResources@Impl@SpriteBatch@DirectX@@$$V@DirectX@@@std@@@1@@Z@4HA 000000014003d938     DirectXTK:SpriteBatch.obj
 0004:00001944       $pdata$?catch$6@?0???$_Emplace_reallocate@AEAPEAUID3D11ShaderResourceView@@@?$vector@V?$ComPtr@UID3D11ShaderResourceView@@@WRL@Microsoft@@V?$allocator@V?$ComPtr@UID3D11ShaderResourceView@@@WRL@Microsoft@@@std@@@std@@QEAAPEAV?$ComPtr@UID3D11ShaderResourceView@@@WRL@Microsoft@@QEAV234@AEAPEAUID3D11ShaderResourceView@@@Z@4HA 000000014003d944     DirectXTK:SpriteBatch.obj
 0004:00001950       $pdata$?catch$0@?0???$_Emplace_reallocate@F@?$vector@FV?$allocator@F@std@@@std@@QEAAPEAFQEAF$$QEAF@Z@4HA 000000014003d950     DirectXTK:SpriteBatch.obj
 0004:00001950       $pdata$?catch$0@?0???$_Emplace_reallocate@AEBF@?$vector@FV?$allocator@F@std@@@std@@QEAAPEAFQEAFAEBF@Z@4HA 000000014003d950     DirectXTK:SpriteBatch.obj
 0004:0000195c       $pdata$?catch$1@?0???$_Insert_nohint@AEAU?$pair@QEAUID3D11Device@@V?$weak_ptr@VImpl@CommonStates@DirectX@@@std@@@std@@PEAU?$_Tree_node@U?$pair@QEAUID3D11Device@@V?$weak_ptr@VImpl@CommonStates@DirectX@@@std@@@std@@PEAX@2@@?$_Tree@V?$_Tmap_traits@PEAUID3D11Device@@V?$weak_ptr@VImpl@CommonStates@DirectX@@@std@@U?$less@PEAUID3D11Device@@@3@V?$allocator@U?$pair@QEAUID3D11Device@@V?$weak_ptr@VImpl@CommonStates@DirectX@@@std@@@std@@@3@$0A@@std@@@std@@IEAA?AU?$pair@V?$_Tree_iterator@V?$_Tree_val@U?$_Tree_simple_types@U?$pair@QEAUID3D11Device@@V?$weak_ptr@VImpl@CommonStates@DirectX@@@std@@@std@@@std@@@std@@@std@@_N@1@_NAEAU?$pair@QEAUID3D11Device@@V?$weak_ptr@VImpl@CommonStates@DirectX@@@std@@@1@PEAU?$_Tree_node@U?$pair@QEAUID3D11Device@@V?$weak_ptr@VImpl@CommonStates@DirectX@@@std@@@std@@PEAX@1@@Z@4HA 000000014003d95c     DirectXTK:CommonStates.obj
 0004:0000195c       $pdata$?catch$1@?0???$_Insert_nohint@AEAU?$pair@QEAUID3D11DeviceContext@@V?$weak_ptr@UContextResources@Impl@SpriteBatch@DirectX@@@std@@@std@@PEAU?$_Tree_node@U?$pair@QEAUID3D11DeviceContext@@V?$weak_ptr@UContextResources@Impl@SpriteBatch@DirectX@@@std@@@std@@PEAX@2@@?$_Tree@V?$_Tmap_traits@PEAUID3D11DeviceContext@@V?$weak_ptr@UContextResources@Impl@SpriteBatch@DirectX@@@std@@U?$less@PEAUID3D11DeviceContext@@@3@V?$allocator@U?$pair@QEAUID3D11DeviceContext@@V?$weak_ptr@UContextResources@Impl@SpriteBatch@DirectX@@@std@@@std@@@3@$0A@@std@@@std@@IEAA?AU?$pair@V?$_Tree_iterator@V?$_Tree_val@U?$_Tree_simple_types@U?$pair@QEAUID3D11DeviceContext@@V?$weak_ptr@UContextResources@Impl@SpriteBatch@DirectX@@@std@@@std@@@std@@@std@@@std@@_N@1@_NAEAU?$pair@QEAUID3D11DeviceContext@@V?$weak_ptr@UContextResources@Impl@SpriteBatch@DirectX@@@std@@@1@PEAU?$_Tree_node@U?$pair@QEAUID3D11DeviceContext@@V?$weak_ptr@UContextResources@Impl@SpriteBatch@DirectX@@@std@@@std@@PEAX@1@@Z@4HA 000000014003d95c     DirectXTK:SpriteBatch.obj
 0004:0000195c       $pdata$?catch$1@?0???$_Insert_nohint@AEAU?$pair@QEAUID3D11Device@@V?$weak_ptr@UDeviceResources@Impl@SpriteBatch@DirectX@@@std@@@std@@PEAU?$_Tree_node@U?$pair@QEAUID3D11Device@@V?$weak_ptr@UDeviceResources@Impl@SpriteBatch@DirectX@@@std@@@std@@PEAX@2@@?$_Tree@V?$_Tmap_traits@PEAUID3D11Device@@V?$weak_ptr@UDeviceResources@Impl@SpriteBatch@DirectX@@@std@@U?$less@PEAUID3D11Device@@@3@V?$allocator@U?$pair@QEAUID3D11Device@@V?$weak_ptr@UDeviceResources@Impl@SpriteBatch@DirectX@@@std@@@std@@@3@$0A@@std@@@std@@IEAA?AU?$pair@V?$_Tree_iterator@V?$_Tree_val@U?$_Tree_simple_types@U?$pair@QEAUID3D11Device@@V?$weak_ptr@UDeviceResources@Impl@SpriteBatch@DirectX@@@std@@@std@@@std@@@std@@@std@@_N@1@_NAEAU?$pair@QEAUID3D11Device@@V?$weak_ptr@UDeviceResources@Impl@SpriteBatch@DirectX@@@std@@@1@PEAU?$_Tree_node@U?$pair@QEAUID3D11Device@@V?$weak_ptr@UDeviceResources@Impl@SpriteBatch@DirectX@@@std@@@std@@PEAX@1@@Z@4HA 000000014003d95c     DirectXTK:SpriteBatch.obj
 0004:00001968       $pdata$?catch$0@?0???$_Resize@V<lambda_e8c6c8b564571a11716b943a92ab7d7d>@@@?$vector@PEBUSpriteInfo@Impl@SpriteBatch@DirectX@@V?$allocator@PEBUSpriteInfo@Impl@SpriteBatch@DirectX@@@std@@@std@@AEAAX_KV<lambda_e8c6c8b564571a11716b943a92ab7d7d>@@@Z@4HA 000000014003d968     DirectXTK:SpriteBatch.obj
 0004:00001974       $pdata$?dtor$14@?0???$make_unique@VImpl@SpriteBatch@DirectX@@AEAPEAUID3D11DeviceContext@@$0A@@std@@YA?AV?$unique_ptr@VImpl@SpriteBatch@DirectX@@U?$default_delete@VImpl@SpriteBatch@DirectX@@@std@@@0@AEAPEAUID3D11DeviceContext@@@Z@4HA 000000014003d974     DirectXTK:SpriteBatch.obj
 0004:00001980       $pdata$?dtor$4@?0???0ContextResources@Impl@SpriteBatch@DirectX@@QEAA@PEAUID3D11DeviceContext@@@Z@4HA 000000014003d980     DirectXTK:SpriteBatch.obj
 0004:0000198c       $pdata$?dtor$7@?0???0ContextResources@Impl@SpriteBatch@DirectX@@QEAA@PEAUID3D11DeviceContext@@@Z@4HA 000000014003d98c     DirectXTK:SpriteBatch.obj
 0004:00001998       $pdata$?dtor$1@?0???__E?contextResourcesPool@Impl@SpriteBatch@DirectX@@0V?$SharedResourcePool@PEAUID3D11DeviceContext@@UContextResources@Impl@SpriteBatch@DirectX@@$$V@3@A@@YAXXZ@4HA 000000014003d998     DirectXTK:SpriteBatch.obj
 0004:00001998       $pdata$?dtor$1@?0???__E?deviceResourcesPool@Impl@SpriteBatch@DirectX@@0V?$SharedResourcePool@PEAUID3D11Device@@UDeviceResources@Impl@SpriteBatch@DirectX@@$$V@3@A@@YAXXZ@4HA 000000014003d998     DirectXTK:SpriteBatch.obj
 0004:00001998       $pdata$?dtor$1@?0???__E?instancePool@Impl@CommonStates@DirectX@@2V?$SharedResourcePool@PEAUID3D11Device@@VImpl@CommonStates@DirectX@@$$V@3@A@@YAXXZ@4HA 000000014003d998     DirectXTK:CommonStates.obj
 0004:000019a4       $pdata$?dtor$0@?0??CreateIndexValues@DeviceResources@Impl@SpriteBatch@DirectX@@CA?AV?$vector@FV?$allocator@F@std@@@std@@XZ@4HA 000000014003d9a4     DirectXTK:SpriteBatch.obj
 0004:000019b0       $pdata$?dtor$7@?0??DemandCreate@?$SharedResourcePool@PEAUID3D11Device@@UDeviceResources@Impl@SpriteBatch@DirectX@@$$V@DirectX@@QEAA?AV?$shared_ptr@UDeviceResources@Impl@SpriteBatch@DirectX@@@std@@PEAUID3D11Device@@@Z@4HA 000000014003d9b0     DirectXTK:SpriteBatch.obj
 0004:000019bc       $pdata$?dtor$7@?0??DemandCreate@?$SharedResourcePool@PEAUID3D11DeviceContext@@UContextResources@Impl@SpriteBatch@DirectX@@$$V@DirectX@@QEAA?AV?$shared_ptr@UContextResources@Impl@SpriteBatch@DirectX@@@std@@PEAUID3D11DeviceContext@@@Z@4HA 000000014003d9bc     DirectXTK:SpriteBatch.obj
 0004:000019c8       $pdata$?catch$0@?0??_Buyheadnode@?$_Tree_comp_alloc@V?$_Tmap_traits@PEAUID3D11Device@@V?$weak_ptr@VImpl@CommonStates@DirectX@@@std@@U?$less@PEAUID3D11Device@@@3@V?$allocator@U?$pair@QEAUID3D11Device@@V?$weak_ptr@VImpl@CommonStates@DirectX@@@std@@@std@@@3@$0A@@std@@@std@@QEAAPEAU?$_Tree_node@U?$pair@QEAUID3D11Device@@V?$weak_ptr@VImpl@CommonStates@DirectX@@@std@@@std@@PEAX@2@XZ@4HA 000000014003d9c8     DirectXTK:CommonStates.obj
 0004:000019c8       $pdata$?catch$0@?0??_Buyheadnode@?$_Tree_comp_alloc@V?$_Tmap_traits@PEAUID3D11Device@@V?$weak_ptr@UDeviceResources@Impl@SpriteBatch@DirectX@@@std@@U?$less@PEAUID3D11Device@@@3@V?$allocator@U?$pair@QEAUID3D11Device@@V?$weak_ptr@UDeviceResources@Impl@SpriteBatch@DirectX@@@std@@@std@@@3@$0A@@std@@@std@@QEAAPEAU?$_Tree_node@U?$pair@QEAUID3D11Device@@V?$weak_ptr@UDeviceResources@Impl@SpriteBatch@DirectX@@@std@@@std@@PEAX@2@XZ@4HA 000000014003d9c8     DirectXTK:SpriteBatch.obj
 0004:000019c8       $pdata$?catch$0@?0??_Buyheadnode@?$_Tree_comp_alloc@V?$_Tmap_traits@PEAUID3D11DeviceContext@@V?$weak_ptr@UContextResources@Impl@SpriteBatch@DirectX@@@std@@U?$less@PEAUID3D11DeviceContext@@@3@V?$allocator@U?$pair@QEAUID3D11DeviceContext@@V?$weak_ptr@UContextResources@Impl@SpriteBatch@DirectX@@@std@@@std@@@3@$0A@@std@@@std@@QEAAPEAU?$_Tree_node@U?$pair@QEAUID3D11DeviceContext@@V?$weak_ptr@UContextResources@Impl@SpriteBatch@DirectX@@@std@@@std@@PEAX@2@XZ@4HA 000000014003d9c8     DirectXTK:SpriteBatch.obj
 0004:000019d4       $pdata$?catch$0@?0??_Buynode0@?$_Tree_comp_alloc@V?$_Tmap_traits@PEAUID3D11DeviceContext@@V?$weak_ptr@UContextResources@Impl@SpriteBatch@DirectX@@@std@@U?$less@PEAUID3D11DeviceContext@@@3@V?$allocator@U?$pair@QEAUID3D11DeviceContext@@V?$weak_ptr@UContextResources@Impl@SpriteBatch@DirectX@@@std@@@std@@@3@$0A@@std@@@std@@QEAAPEAU?$_Tree_node@U?$pair@QEAUID3D11DeviceContext@@V?$weak_ptr@UContextResources@Impl@SpriteBatch@DirectX@@@std@@@std@@PEAX@2@XZ@4HA 000000014003d9d4     DirectXTK:SpriteBatch.obj
 0004:000019d4       $pdata$?catch$0@?0??_Buynode0@?$_Tree_comp_alloc@V?$_Tmap_traits@PEAUID3D11Device@@V?$weak_ptr@VImpl@CommonStates@DirectX@@@std@@U?$less@PEAUID3D11Device@@@3@V?$allocator@U?$pair@QEAUID3D11Device@@V?$weak_ptr@VImpl@CommonStates@DirectX@@@std@@@std@@@3@$0A@@std@@@std@@QEAAPEAU?$_Tree_node@U?$pair@QEAUID3D11Device@@V?$weak_ptr@VImpl@CommonStates@DirectX@@@std@@@std@@PEAX@2@XZ@4HA 000000014003d9d4     DirectXTK:CommonStates.obj
 0004:000019d4       $pdata$?catch$0@?0??_Buynode0@?$_Tree_comp_alloc@V?$_Tmap_traits@PEAUID3D11Device@@V?$weak_ptr@UDeviceResources@Impl@SpriteBatch@DirectX@@@std@@U?$less@PEAUID3D11Device@@@3@V?$allocator@U?$pair@QEAUID3D11Device@@V?$weak_ptr@UDeviceResources@Impl@SpriteBatch@DirectX@@@std@@@std@@@3@$0A@@std@@@std@@QEAAPEAU?$_Tree_node@U?$pair@QEAUID3D11Device@@V?$weak_ptr@UDeviceResources@Impl@SpriteBatch@DirectX@@@std@@@std@@PEAX@2@XZ@4HA 000000014003d9d4     DirectXTK:SpriteBatch.obj
 0004:000019e0       $pdata$?catch$0@?0??_Reallocate_exactly@?$vector@FV?$allocator@F@std@@@std@@AEAAX_K@Z@4HA 000000014003d9e0     DirectXTK:SpriteBatch.obj
 0004:000019ec       $pdata$?dtor$3@?0???0SpriteFont@DirectX@@QEAA@PEAUID3D11Device@@PEB_W_N@Z@4HA 000000014003d9ec     DirectXTK:SpriteFont.obj
 0004:000019f8       $pdata$?filt$0@?0??__scrt_common_main_seh@@YAHXZ@4HA 000000014003d9f8     MSVCRT:exe_winmain.obj
 0004:00001a04       $pdata$__scrt_is_nonwritable_in_current_image$filt$0 000000014003da04     MSVCRT:utility.obj
 0004:00001a10       $pdata$?catch$0@?0???2@YAPEAX_KAEBUnothrow_t@std@@@Z@4HA 000000014003da10     MSVCRT:new_scalar_nothrow.obj
 0004:00001a1c       $pdata$??__F?contextResourcesPool@Impl@SpriteBatch@DirectX@@0V?$SharedResourcePool@PEAUID3D11DeviceContext@@UContextResources@Impl@SpriteBatch@DirectX@@$$V@3@A@@YAXXZ 000000014003da1c     DirectXTK:SpriteBatch.obj
 0004:00001a28       $pdata$0$??__F?contextResourcesPool@Impl@SpriteBatch@DirectX@@0V?$SharedResourcePool@PEAUID3D11DeviceContext@@UContextResources@Impl@SpriteBatch@DirectX@@$$V@3@A@@YAXXZ 000000014003da28     DirectXTK:SpriteBatch.obj
 0004:00001a34       $pdata$1$??__F?contextResourcesPool@Impl@SpriteBatch@DirectX@@0V?$SharedResourcePool@PEAUID3D11DeviceContext@@UContextResources@Impl@SpriteBatch@DirectX@@$$V@3@A@@YAXXZ 000000014003da34     DirectXTK:SpriteBatch.obj
 0004:00001a40       $pdata$??__F?deviceResourcesPool@Impl@SpriteBatch@DirectX@@0V?$SharedResourcePool@PEAUID3D11Device@@UDeviceResources@Impl@SpriteBatch@DirectX@@$$V@3@A@@YAXXZ 000000014003da40     DirectXTK:SpriteBatch.obj
 0004:00001a4c       $pdata$0$??__F?deviceResourcesPool@Impl@SpriteBatch@DirectX@@0V?$SharedResourcePool@PEAUID3D11Device@@UDeviceResources@Impl@SpriteBatch@DirectX@@$$V@3@A@@YAXXZ 000000014003da4c     DirectXTK:SpriteBatch.obj
 0004:00001a58       $pdata$1$??__F?deviceResourcesPool@Impl@SpriteBatch@DirectX@@0V?$SharedResourcePool@PEAUID3D11Device@@UDeviceResources@Impl@SpriteBatch@DirectX@@$$V@3@A@@YAXXZ 000000014003da58     DirectXTK:SpriteBatch.obj
 0004:00001a64       $pdata$??__F?instancePool@Impl@CommonStates@DirectX@@2V?$SharedResourcePool@PEAUID3D11Device@@VImpl@CommonStates@DirectX@@$$V@3@A@@YAXXZ 000000014003da64     DirectXTK:CommonStates.obj
 0004:00001a70       $pdata$0$??__F?instancePool@Impl@CommonStates@DirectX@@2V?$SharedResourcePool@PEAUID3D11Device@@VImpl@CommonStates@DirectX@@$$V@3@A@@YAXXZ 000000014003da70     DirectXTK:CommonStates.obj
 0004:00001a7c       $pdata$1$??__F?instancePool@Impl@CommonStates@DirectX@@2V?$SharedResourcePool@PEAUID3D11Device@@VImpl@CommonStates@DirectX@@$$V@3@A@@YAXXZ 000000014003da7c     DirectXTK:CommonStates.obj
 0005:00000570       $R000000                   000000014003e570     RobotAnnihilation.res
 0005:000016d0       $R001160                   000000014003f6d0     RobotAnnihilation.res
 0005:00002578       $R002008                   0000000140040578     RobotAnnihilation.res
 0005:00002e20       $R0028B0                   0000000140040e20     RobotAnnihilation.res
 0005:00003388       $R002E18                   0000000140041388     RobotAnnihilation.res
 0005:00003c98       $R003728                   0000000140041c98     RobotAnnihilation.res
 0005:00007ec0       $R007950                   0000000140045ec0     RobotAnnihilation.res
 0005:0000a468       $R009EF8                   0000000140048468     RobotAnnihilation.res
 0005:0000b510       $R00AFA0                   0000000140049510     RobotAnnihilation.res
 0005:0000b978       $R00B408                   0000000140049978     RobotAnnihilation.res
 0005:0000ba00       $R00B490                   0000000140049a00     RobotAnnihilation.res
 0005:0000cb60       $R00C5F0                   000000014004ab60     RobotAnnihilation.res
 0005:0000da08       $R00D498                   000000014004ba08     RobotAnnihilation.res
 0005:0000e2b0       $R00DD40                   000000014004c2b0     RobotAnnihilation.res
 0005:0000e818       $R00E2A8                   000000014004c818     RobotAnnihilation.res
 0005:0000f128       $R00EBB8                   000000014004d128     RobotAnnihilation.res
 0005:00013350       $R012DE0                   0000000140051350     RobotAnnihilation.res
 0005:000158f8       $R015388                   00000001400538f8     RobotAnnihilation.res
 0005:000169a0       $R016430                   00000001400549a0     RobotAnnihilation.res
 0005:00016e08       $R016898                   0000000140054e08     RobotAnnihilation.res
 0005:00016e90       $R016920                   0000000140054e90     RobotAnnihilation.res
 0005:00016ee0       $R016970                   0000000140054ee0     RobotAnnihilation.res
 0005:00016ef0       $R016980                   0000000140054ef0     RobotAnnihilation.res
 0005:00017048       $R016AD8                   0000000140055048     RobotAnnihilation.res
 0005:000170b0       $R016B40                   00000001400550b0     RobotAnnihilation.res

 Exports

  ordinal    name

