 RobotAnnihilation

 Timestamp is 5cb785ea (Wed Apr 17 16:00:42 2019)

 Preferred load address is 0000000140000000

 Start         Length     Name                   Class
 0001:00000000 000006f0H .text$di                CODE
 0001:000006f0 0002e090H .text$mn                CODE
 0001:0002e780 00000020H .text$mn$00             CODE
 0001:0002e7a0 00001780H .text$x                 CODE
 0001:0002ff20 000000fcH .text$yd                CODE
 0002:00000000 00000618H .idata$5                DATA
 0002:00000618 00000010H .00cfg                  DATA
 0002:00000628 00000008H .CRT$XCA                DATA
 0002:00000630 00000008H .CRT$XCAA               DATA
 0002:00000638 00000008H .CRT$XCL                DATA
 0002:00000640 00000030H .CRT$XCU                DATA
 0002:00000670 00000008H .CRT$XCZ                DATA
 0002:00000678 00000008H .CRT$XIA                DATA
 0002:00000680 00000008H .CRT$XIAA               DATA
 0002:00000688 00000008H .CRT$XIAC               DATA
 0002:00000690 00000008H .CRT$XIC                DATA
 0002:00000698 00000008H .CRT$XIZ                DATA
 0002:000006a0 00000008H .CRT$XLA                DATA
 0002:000006a8 00000008H .CRT$XLZ                DATA
 0002:000006b0 00000008H .CRT$XPA                DATA
 0002:000006b8 00000008H .CRT$XPZ                DATA
 0002:000006c0 00000008H .CRT$XTA                DATA
 0002:000006c8 00000008H .CRT$XTZ                DATA
 0002:000006d0 00000000H .gfids$y                DATA
 0002:000006d0 000044b0H .rdata                  DATA
 0002:00004b80 00000030H .rdata$T                DATA
 0002:00004bb0 00001bf0H .rdata$r                DATA
 0002:000067a0 00000000H .rdata$zETW0            DATA
 0002:000067a0 00000000H .rdata$zETW9            DATA
 0002:000067a0 00000438H .rdata$zzzdbg           DATA
 0002:00006bd8 00000008H .rtc$IAA                DATA
 0002:00006be0 00000008H .rtc$IZZ                DATA
 0002:00006be8 00000008H .rtc$TAA                DATA
 0002:00006bf0 00000008H .rtc$TZZ                DATA
 0002:00006bf8 00000004H .tls                    DATA
 0002:00006bfc 00000004H .tls$                   DATA
 0002:00006c00 00000010H .tls$ZZZ                DATA
 0002:00006c10 00004d48H .xdata                  DATA
 0002:0000b958 00000270H .xdata$x                DATA
 0002:0000bbc8 00000000H minATL$__a              DATA
 0002:0000bbc8 00000000H minATL$__m              DATA
 0002:0000bbc8 00000000H minATL$__z              DATA
 0002:0000bbc8 00000000H .edata                  DATA
 0002:0000bbc8 000001ccH .idata$2                DATA
 0002:0000bd94 00000014H .idata$3                DATA
 0002:0000bda8 00000618H .idata$4                DATA
 0002:0000c3c0 0000136eH .idata$6                DATA
 0003:00000000 000002e0H .data                   DATA
 0003:000002e0 00001460H .data$r                 DATA
 0003:00001740 00000df0H .bss                    DATA
 0004:00000000 00001d7cH .pdata                  DATA
 0005:00000000 000004b0H .rsrc$01                DATA
 0005:000004b0 00010ca0H .rsrc$02                DATA

  Address         Publics by Value              Rva+Base               Lib:Object

 0000:00000000       __hybrid_code_map_count    0000000000000000     <absolute>
 0000:00000000       __hybrid_code_map          0000000000000000     <absolute>
 0000:00000000       __guard_iat_count          0000000000000000     <absolute>
 0000:00000000       __guard_longjmp_count      0000000000000000     <absolute>
 0000:00000000       __guard_longjmp_table      0000000000000000     <absolute>
 0000:00000000       __volatile_metadata        0000000000000000     <absolute>
 0000:00000000       __guard_iat_table          0000000000000000     <absolute>
 0000:00000000       __guard_fids_count         0000000000000000     <absolute>
 0000:00000000       ___safe_se_handler_count   0000000000000000     <absolute>
 0000:00000000       __enclave_config           0000000000000000     <absolute>
 0000:00000000       ___safe_se_handler_table   0000000000000000     <absolute>
 0000:00000000       __guard_fids_table         0000000000000000     <absolute>
 0000:00000000       __hybrid_auxiliary_iat     0000000000000000     <absolute>
 0000:00000000       __dynamic_value_reloc_table 0000000000000000     <absolute>
 0000:00000100       __guard_flags              0000000000000100     <absolute>
 0000:00000000       __ImageBase                0000000140000000     <linker-defined>
 0001:000006f0       ??0exception@std@@QEAA@AEBV01@@Z 00000001400016f0 f i Animation.obj
 0001:00000730       ??1exception@std@@UEAA@XZ  0000000140001730 f i Animation.obj
 0001:00000730       ??1bad_cast@std@@UEAA@XZ   0000000140001730 f i Animation.obj
 0001:00000750       ?what@exception@std@@UEBAPEBDXZ 0000000140001750 f i Animation.obj
 0001:00000770       ??_Gexception@std@@UEAAPEAXI@Z 0000000140001770 f i Animation.obj
 0001:00000770       ??_Gbad_cast@std@@UEAAPEAXI@Z 0000000140001770 f i Animation.obj
 0001:00000770       ??_Eexception@std@@UEAAPEAXI@Z 0000000140001770 f i * CIL library *:* CIL module *
 0001:00000770       ??_Ebad_cast@std@@UEAAPEAXI@Z 0000000140001770 f i * CIL library *:* CIL module *
 0001:000007c0       ??0bad_cast@std@@QEAA@XZ   00000001400017c0 f i Animation.obj
 0001:000007f0       ??1locale@std@@QEAA@XZ     00000001400017f0 f i Animation.obj
 0001:00000830       ?XMVectorSin@DirectX@@YQ?AT__m128@@T2@@Z 0000000140001830 f i Animation.obj
 0001:00000910       ?XMVectorATan@DirectX@@YQ?AT__m128@@T2@@Z 0000000140001910 f i Animation.obj
 0001:00000a30       ?XMVectorATan2@DirectX@@YQ?AT__m128@@T2@0@Z 0000000140001a30 f i Animation.obj
 0001:00000bd0       ?XMMatrixMultiply@DirectX@@YQ?AUXMMATRIX@1@U21@AEBU21@@Z 0000000140001bd0 f i Animation.obj
 0001:00000d20       ?XMMatrixInverse@DirectX@@YQ?AUXMMATRIX@1@PEAT__m128@@U21@@Z 0000000140001d20 f i Animation.obj
 0001:00001020       ?XMQuaternionSlerpV@DirectX@@YQ?AT__m128@@T2@00@Z 0000000140002020 f i Animation.obj
 0001:00001140       ?XMQuaternionRotationMatrix@DirectX@@YQ?AT__m128@@UXMMATRIX@1@@Z 0000000140002140 f i Animation.obj
 0001:000012c0       ??1anim_clip@@QEAA@XZ      00000001400022c0 f i Animation.obj
 0001:00001380       ?RecursiveJointCalc@Animation@@QEAA?AV?$array@Ufloat4@@$03@std@@IAEAV?$vector@V?$array@Ufloat4@@$03@std@@V?$allocator@V?$array@Ufloat4@@$03@std@@@2@@3@AEAV?$vector@HV?$allocator@H@std@@@3@@Z 0000000140002380 f   Animation.obj
 0001:00001550       ?Flatten@Animation@@QEAA?AV?$vector@V?$array@Ufloat4@@$03@std@@V?$allocator@V?$array@Ufloat4@@$03@std@@@2@@std@@V23@V?$vector@HV?$allocator@H@std@@@3@@Z 0000000140002550 f   Animation.obj
 0001:00001700       ??0Animation@@QEAA@PEBDPEAUID3D11Device@@@Z 0000000140002700 f   Animation.obj
 0001:00001940       ?ReadAnimFile@Animation@@QEAAXPEBDPEAUID3D11Device@@@Z 0000000140002940 f   Animation.obj
 0001:00002280       ??_D?$basic_fstream@DU?$char_traits@D@std@@@std@@QEAAXXZ 0000000140003280 f i Animation.obj
 0001:000022f0       ?LerpJoints@Animation@@QEAA?AV?$vector@V?$array@Ufloat4@@$03@std@@V?$allocator@V?$array@Ufloat4@@$03@std@@@2@@std@@V23@0M@Z 00000001400032f0 f   Animation.obj
 0001:00002920       ?SetJoints@Animation@@QEAAXM@Z 0000000140003920 f   Animation.obj
 0001:00002f50       ?SetFrameTime@Animation@@QEAAXM@Z 0000000140003f50 f   Animation.obj
 0001:00002f90       ??1?$vector@HV?$allocator@H@std@@@std@@QEAA@XZ 0000000140003f90 f i Animation.obj
 0001:00002f90       ??1?$vector@IV?$allocator@I@std@@@std@@QEAA@XZ 0000000140003f90 f i graphicsclass.obj
 0001:00002ff0       ??0?$vector@HV?$allocator@H@std@@@std@@QEAA@AEBV01@@Z 0000000140003ff0 f i Animation.obj
 0001:00002ff0       ??0?$vector@IV?$allocator@I@std@@@std@@QEAA@AEBV01@@Z 0000000140003ff0 f i Model.obj
 0001:000030e0       ??1?$vector@Ukeyframe@@V?$allocator@Ukeyframe@@@std@@@std@@QEAA@XZ 00000001400040e0 f i Animation.obj
 0001:000030f0       ??1?$vector@V?$array@Ufloat4@@$03@std@@V?$allocator@V?$array@Ufloat4@@$03@std@@@2@@std@@QEAA@XZ 00000001400040f0 f i Animation.obj
 0001:000030f0       ?_Tidy@?$vector@V?$array@Ufloat4@@$03@std@@V?$allocator@V?$array@Ufloat4@@$03@std@@@2@@std@@AEAAXXZ 00000001400040f0 f i Animation.obj
 0001:00003150       ??0?$vector@V?$array@Ufloat4@@$03@std@@V?$allocator@V?$array@Ufloat4@@$03@std@@@2@@std@@QEAA@AEBV01@@Z 0000000140004150 f i Animation.obj
 0001:000031c0       ?_Tidy_deallocate@?$basic_string@DU?$char_traits@D@std@@V?$allocator@D@2@@std@@QEAAXXZ 00000001400041c0 f i Animation.obj
 0001:000031c0       ??1?$basic_string@DU?$char_traits@D@std@@V?$allocator@D@2@@std@@QEAA@XZ 00000001400041c0 f i Animation.obj
 0001:00003220       ??0?$basic_fstream@DU?$char_traits@D@std@@@std@@QEAA@PEBDHH@Z 0000000140004220 f i Animation.obj
 0001:00003320       ?imbue@?$basic_filebuf@DU?$char_traits@D@std@@@std@@MEAAXAEBVlocale@2@@Z 0000000140004320 f i Animation.obj
 0001:00003370       ?sync@?$basic_filebuf@DU?$char_traits@D@std@@@std@@MEAAHXZ 0000000140004370 f i Animation.obj
 0001:000033c0       ?setbuf@?$basic_filebuf@DU?$char_traits@D@std@@@std@@MEAAPEAV?$basic_streambuf@DU?$char_traits@D@std@@@2@PEAD_J@Z 00000001400043c0 f i Animation.obj
 0001:00003420       ?seekpos@?$basic_filebuf@DU?$char_traits@D@std@@@std@@MEAA?AV?$fpos@U_Mbstatet@@@2@V32@H@Z 0000000140004420 f i Animation.obj
 0001:00003500       ?seekoff@?$basic_filebuf@DU?$char_traits@D@std@@@std@@MEAA?AV?$fpos@U_Mbstatet@@@2@_JHH@Z 0000000140004500 f i Animation.obj
 0001:000035e0       ?xsputn@?$basic_filebuf@DU?$char_traits@D@std@@@std@@MEAA_JPEBD_J@Z 00000001400045e0 f i Animation.obj
 0001:000036c0       ?xsgetn@?$basic_filebuf@DU?$char_traits@D@std@@@std@@MEAA_JPEAD_J@Z 00000001400046c0 f i Animation.obj
 0001:000037b0       ?uflow@?$basic_filebuf@DU?$char_traits@D@std@@@std@@MEAAHXZ 00000001400047b0 f i Animation.obj
 0001:00003a90       ?underflow@?$basic_filebuf@DU?$char_traits@D@std@@@std@@MEAAHXZ 0000000140004a90 f i Animation.obj
 0001:00003b00       ?pbackfail@?$basic_filebuf@DU?$char_traits@D@std@@@std@@MEAAHH@Z 0000000140004b00 f i Animation.obj
 0001:00003c00       ?overflow@?$basic_filebuf@DU?$char_traits@D@std@@@std@@MEAAHH@Z 0000000140004c00 f i Animation.obj
 0001:00003da0       ?_Unlock@?$basic_filebuf@DU?$char_traits@D@std@@@std@@UEAAXXZ 0000000140004da0 f i Animation.obj
 0001:00003dc0       ?_Lock@?$basic_filebuf@DU?$char_traits@D@std@@@std@@UEAAXXZ 0000000140004dc0 f i Animation.obj
 0001:00003de0       ??1?$basic_filebuf@DU?$char_traits@D@std@@@std@@UEAA@XZ 0000000140004de0 f i Animation.obj
 0001:00003e60       ??_E?$basic_fstream@DU?$char_traits@D@std@@@std@@UEAAPEAXI@Z 0000000140004e60 f i * CIL library *:* CIL module *
 0001:00003e60       ??_G?$basic_fstream@DU?$char_traits@D@std@@@std@@UEAAPEAXI@Z 0000000140004e60 f i Animation.obj
 0001:00003ea0       ??_G?$basic_filebuf@DU?$char_traits@D@std@@@std@@UEAAPEAXI@Z 0000000140004ea0 f i Animation.obj
 0001:00003ea0       ??_E?$basic_filebuf@DU?$char_traits@D@std@@@std@@UEAAPEAXI@Z 0000000140004ea0 f i * CIL library *:* CIL module *
 0001:00003ee0       ?_Tidy@?$vector@Ukeyframe@@V?$allocator@Ukeyframe@@@std@@@std@@AEAAXXZ 0000000140004ee0 f i Animation.obj
 0001:00003f50       ?_Buy@?$vector@V?$array@Ufloat4@@$03@std@@V?$allocator@V?$array@Ufloat4@@$03@std@@@2@@std@@AEAA_N_K@Z 0000000140004f50 f i Animation.obj
 0001:00004000       ?_Reset_back@?$basic_filebuf@DU?$char_traits@D@std@@@std@@AEAAXXZ 0000000140005000 f i Animation.obj
 0001:00004030       ?_Endwrite@?$basic_filebuf@DU?$char_traits@D@std@@@std@@IEAA_NXZ 0000000140005030 f i Animation.obj
 0001:00004100       ?_Init@?$basic_filebuf@DU?$char_traits@D@std@@@std@@IEAAXPEAU_iobuf@@W4_Initfl@12@@Z 0000000140005100 f i Animation.obj
 0001:000041c0       ?close@?$basic_filebuf@DU?$char_traits@D@std@@@std@@QEAAPEAV12@XZ 00000001400051c0 f i Animation.obj
 0001:00004240       ?open@?$basic_filebuf@DU?$char_traits@D@std@@@std@@QEAAPEAV12@PEBDHH@Z 0000000140005240 f i Animation.obj
 0001:00004320       ?_Xlength@?$vector@PEAVSound@@V?$allocator@PEAVSound@@@std@@@std@@CAXXZ 0000000140005320 f i EnemyManager.obj
 0001:00004320       ?_Xlength@?$vector@Umaterial_t@@V?$allocator@Umaterial_t@@@std@@@std@@CAXXZ 0000000140005320 f i Model.obj
 0001:00004320       ?_Xlength@?$vector@IV?$allocator@I@std@@@std@@CAXXZ 0000000140005320 f i Model.obj
 0001:00004320       ?_Xlength@?$vector@PEAVUIElement@@V?$allocator@PEAVUIElement@@@std@@@std@@CAXXZ 0000000140005320 f i UIManager.obj
 0001:00004320       ?_Xlength@?$vector@PEAVPickup@@V?$allocator@PEAVPickup@@@std@@@std@@CAXXZ 0000000140005320 f i GameManager.obj
 0001:00004320       ?_Xlength@?$vector@PEAVAnimation@@V?$allocator@PEAVAnimation@@@std@@@std@@CAXXZ 0000000140005320 f i GameObject.obj
 0001:00004320       ?_Xlength@?$vector@PEAVGun@@V?$allocator@PEAVGun@@@std@@@std@@CAXXZ 0000000140005320 f i GameManager.obj
 0001:00004320       ?_Xlength@?$vector@V?$array@D$0BAE@@std@@V?$allocator@V?$array@D$0BAE@@std@@@2@@std@@CAXXZ 0000000140005320 f i Model.obj
 0001:00004320       ?_Xlength@?$vector@Ukeyframe@@V?$allocator@Ukeyframe@@@std@@@std@@CAXXZ 0000000140005320 f i Animation.obj
 0001:00004320       ?_Xlength@?$vector@PEAVEnemy@@V?$allocator@PEAVEnemy@@@std@@@std@@CAXXZ 0000000140005320 f i EnemyManager.obj
 0001:00004320       ?_Xlength@?$vector@PEAVGameObject@@V?$allocator@PEAVGameObject@@@std@@@std@@CAXXZ 0000000140005320 f i EnemyManager.obj
 0001:00004320       ?_Xlength@?$vector@PEAVBullet@@V?$allocator@PEAVBullet@@@std@@@std@@CAXXZ 0000000140005320 f i GameManager.obj
 0001:00004320       ?_Xlength@?$vector@V?$array@Ufloat4@@$03@std@@V?$allocator@V?$array@Ufloat4@@$03@std@@@2@@std@@CAXXZ 0000000140005320 f i Animation.obj
 0001:00004320       ?_Xlength@?$vector@USphere@@V?$allocator@USphere@@@std@@@std@@CAXXZ 0000000140005320 f i GameObject.obj
 0001:00004320       ?_Xlength@?$vector@UVertex@@V?$allocator@UVertex@@@std@@@std@@CAXXZ 0000000140005320 f i Model.obj
 0001:00004320       ?_Xlength@?$vector@HV?$allocator@H@std@@@std@@CAXXZ 0000000140005320 f i Animation.obj
 0001:00004340       ??$_Emplace_reallocate@H@?$vector@HV?$allocator@H@std@@@std@@QEAAPEAHQEAH$$QEAH@Z 0000000140005340 f i GameObject.obj
 0001:00004340       ??$_Emplace_reallocate@AEBH@?$vector@HV?$allocator@H@std@@@std@@QEAAPEAHQEAHAEBH@Z 0000000140005340 f i Animation.obj
 0001:000044e0       ??$_Resize@V<lambda_753cb66179afa6340adadd7109f91d2f>@@@?$vector@Ukeyframe@@V?$allocator@Ukeyframe@@@std@@@std@@AEAAX_KV<lambda_753cb66179afa6340adadd7109f91d2f>@@@Z 00000001400054e0 f i Animation.obj
 0001:00004770       ??$_Resize@V<lambda_3bf83ccb702bae8a49d568d66998a612>@@@?$vector@V?$array@Ufloat4@@$03@std@@V?$allocator@V?$array@Ufloat4@@$03@std@@@2@@std@@AEAAX_KV<lambda_3bf83ccb702bae8a49d568d66998a612>@@@Z 0000000140005770 f i Animation.obj
 0001:000048f0       ??$_Emplace_reallocate@V?$array@Ufloat4@@$03@std@@@?$vector@V?$array@Ufloat4@@$03@std@@V?$allocator@V?$array@Ufloat4@@$03@std@@@2@@std@@QEAAPEAV?$array@Ufloat4@@$03@1@QEAV21@$$QEAV21@@Z 00000001400058f0 f i Animation.obj
 0001:000048f0       ??$_Emplace_reallocate@AEBV?$array@Ufloat4@@$03@std@@@?$vector@V?$array@Ufloat4@@$03@std@@V?$allocator@V?$array@Ufloat4@@$03@std@@@2@@std@@QEAAPEAV?$array@Ufloat4@@$03@1@QEAV21@AEBV21@@Z 00000001400058f0 f i Animation.obj
 0001:00004a70       ??$use_facet@V?$codecvt@DDU_Mbstatet@@@std@@@std@@YAAEBV?$codecvt@DDU_Mbstatet@@@0@AEBVlocale@0@@Z 0000000140005a70 f i Animation.obj
 0001:00004b90       ??$_Reallocate_grow_by@V<lambda_319d5e083f45f90dcdce5dce53cbb275>@@D@?$basic_string@DU?$char_traits@D@std@@V?$allocator@D@2@@std@@QEAAAEAV01@_KV<lambda_319d5e083f45f90dcdce5dce53cbb275>@@D@Z 0000000140005b90 f i Animation.obj
 0001:00004cf0       ??$_Destroy_range@V?$allocator@Ukeyframe@@@std@@@std@@YAXPEAUkeyframe@@0AEAV?$allocator@Ukeyframe@@@0@@Z 0000000140005cf0 f i Animation.obj
 0001:00004d80       ??0bad_cast@std@@QEAA@AEBV01@@Z 0000000140005d80 f i Animation.obj
 0001:00004dc0       ??1?$unique_ptr@V_Facet_base@std@@U?$default_delete@V_Facet_base@std@@@2@@std@@QEAA@XZ 0000000140005dc0 f i Animation.obj
 0001:00004df0       ?_Change_array@?$vector@V?$array@Ufloat4@@$03@std@@V?$allocator@V?$array@Ufloat4@@$03@std@@@2@@std@@AEAAXQEAV?$array@Ufloat4@@$03@2@_K1@Z 0000000140005df0 f i Animation.obj
 0001:00004e80       ?_Xlen@?$basic_string@DU?$char_traits@D@std@@V?$allocator@D@2@@std@@SAXXZ 0000000140005e80 f i Animation.obj
 0001:00004ea0       ??$_Assign_range@PEAV?$array@Ufloat4@@$03@std@@@?$vector@V?$array@Ufloat4@@$03@std@@V?$allocator@V?$array@Ufloat4@@$03@std@@@2@@std@@AEAAXPEAV?$array@Ufloat4@@$03@1@0Uforward_iterator_tag@1@@Z 0000000140005ea0 f i Animation.obj
 0001:00004ff0       ??1?$_Uninitialized_backout_al@PEAUkeyframe@@V?$allocator@Ukeyframe@@@std@@@std@@QEAA@XZ 0000000140005ff0 f i Animation.obj
 0001:00004ffc       ??_E?$basic_fstream@DU?$char_traits@D@std@@@std@@$4PPPPPPPM@A@EAAPEAXI@Z 0000000140005ffc f i Animation.obj
 0001:00005010       ??Gfloat3@@QEBAAEAU0@AEBU0@@Z 0000000140006010 f i BombEnemy.obj
 0001:00005010       ??Dfloat3@@QEBAAEAU0@AEBM@Z 0000000140006010 f i BombEnemy.obj
 0001:00005020       ?DitanceFloat3@@YAMUfloat3@@0@Z 0000000140006020 f i BombEnemy.obj
 0001:00005060       ?GetHealth@Player@@QEAAHXZ 0000000140006060 f i BombEnemy.obj
 0001:00005070       ?SetHealth@Player@@QEAAXH@Z 0000000140006070 f i BombEnemy.obj
 0001:00005080       _initialize_denormal_control 0000000140006080 f i MSVCRT:denormal_control.obj
 0001:00005080       _initialize_invalid_parameter_handler 0000000140006080 f i MSVCRT:invalid_parameter_handler.obj
 0001:00005080       ?Update@UIElement@@UEAAXM@Z 0000000140006080 f i UIElement.obj
 0001:00005080       ?Update@TextElement@@UEAAXM@Z 0000000140006080 f i UIElement.obj
 0001:00005080       ?Render@UIElement@@UEAAXXZ 0000000140006080 f i UIElement.obj
 0001:00005080       ?Update@Enemy@@UEAAXMPEAVPlayer@@AEAV?$vector@PEAVBullet@@V?$allocator@PEAVBullet@@@std@@@std@@PEAUID3D11Device@@PEAUHWND__@@@Z 0000000140006080 f i BombEnemy.obj
 0001:00005080       ?Update@ImageElement@@UEAAXM@Z 0000000140006080 f i UIElement.obj
 0001:00005080       _guard_check_icall_nop     0000000140006080 f i MSVCRT:guard_support.obj
 0001:00005090       ??0BombEnemy@@QEAA@XZ      0000000140006090 f   BombEnemy.obj
 0001:00005150       ??1Enemy@@QEAA@XZ          0000000140006150 f i BombEnemy.obj
 0001:00005160       ?Initialize@BombEnemy@@UEAA_NPEAUID3D11Device@@PEBDUfloat3@@@Z 0000000140006160 f   BombEnemy.obj
 0001:00005250       ?Update@BombEnemy@@QEAAXMPEAVPlayer@@AEAV?$vector@PEAVBullet@@V?$allocator@PEAVBullet@@@std@@@std@@PEAUID3D11Device@@AEAV?$vector@PEAVEnemy@@V?$allocator@PEAVEnemy@@@std@@@4@PEAUHWND__@@@Z 0000000140006250 f   BombEnemy.obj
 0001:00005470       ?Attack@BombEnemy@@QEAAXPEAVPlayer@@AEAV?$vector@PEAVEnemy@@V?$allocator@PEAVEnemy@@@std@@@std@@PEAUHWND__@@@Z 0000000140006470 f   BombEnemy.obj
 0001:000056a0       ??A?$vector@PEAVBullet@@V?$allocator@PEAVBullet@@@std@@@std@@QEAAAEAPEAVBullet@@_K@Z 00000001400066a0 f i graphicsclass.obj
 0001:000056a0       ??A?$vector@PEAVSound@@V?$allocator@PEAVSound@@@std@@@std@@QEAAAEAPEAVSound@@_K@Z 00000001400066a0 f i EnemyManager.obj
 0001:000056a0       ??A?$vector@PEAVEnemy@@V?$allocator@PEAVEnemy@@@std@@@std@@QEAAAEAPEAVEnemy@@_K@Z 00000001400066a0 f i BombEnemy.obj
 0001:000056a0       ??A?$vector@PEAVPickup@@V?$allocator@PEAVPickup@@@std@@@std@@QEAAAEAPEAVPickup@@_K@Z 00000001400066a0 f i graphicsclass.obj
 0001:000056a0       ??A?$vector@PEAVGameObject@@V?$allocator@PEAVGameObject@@@std@@@std@@QEAAAEAPEAVGameObject@@_K@Z 00000001400066a0 f i EnemyManager.obj
 0001:000056b0       ?size@?$vector@PEAVSound@@V?$allocator@PEAVSound@@@std@@@std@@QEBA_KXZ 00000001400066b0 f i EnemyManager.obj
 0001:000056b0       ?size@?$vector@PEAVPickup@@V?$allocator@PEAVPickup@@@std@@@std@@QEBA_KXZ 00000001400066b0 f i graphicsclass.obj
 0001:000056b0       ?size@?$vector@PEAVEnemy@@V?$allocator@PEAVEnemy@@@std@@@std@@QEBA_KXZ 00000001400066b0 f i BombEnemy.obj
 0001:000056b0       ?size@?$vector@PEAVGameObject@@V?$allocator@PEAVGameObject@@@std@@@std@@QEBA_KXZ 00000001400066b0 f i EnemyManager.obj
 0001:000056c0       ??0Bullet@@QEAA@M@Z        00000001400066c0 f   Bullet.obj
 0001:00005750       ?Initialize@Bullet@@QEAA_NPEAUID3D11Device@@PEBDUfloat3@@2V?$basic_string@DU?$char_traits@D@std@@V?$allocator@D@2@@std@@M@Z 0000000140006750 f   Bullet.obj
 0001:000059a0       ?Update@Bullet@@UEAAXM@Z   00000001400069a0 f   Bullet.obj
 0001:00005a00       ?SetDestroy@Bullet@@QEAAXXZ 0000000140006a00 f   Bullet.obj
 0001:00005a10       ??0?$basic_string@DU?$char_traits@D@std@@V?$allocator@D@2@@std@@QEAA@AEBV01@@Z 0000000140006a10 f i Bullet.obj
 0001:00005ae0       ?assign@?$basic_string@DU?$char_traits@D@std@@V?$allocator@D@2@@std@@QEAAAEAV12@QEBD_K@Z 0000000140006ae0 f i Bullet.obj
 0001:00005c40       ?XMVectorSinCos@DirectX@@YQXPEAT__m128@@0T2@@Z 0000000140006c40 f i DebugCamera.obj
 0001:00005da0       ?XMMatrixRotationRollPitchYawFromVector@DirectX@@YQ?AUXMMATRIX@1@T__m128@@@Z 0000000140006da0 f i DebugCamera.obj
 0001:00005e50       ?XMMatrixLookToLH@DirectX@@YQ?AUXMMATRIX@1@T__m128@@00@Z 0000000140006e50 f i DebugCamera.obj
 0001:00006060       ?XMQuaternionRotationRollPitchYawFromVector@DirectX@@YQ?AT__m128@@T2@@Z 0000000140007060 f i DebugCamera.obj
 0001:000061a0       ?XMScalarSinCos@DirectX@@YAXPEAM0M@Z 00000001400071a0 f i DebugCamera.obj
 0001:000062e0       ?Update@DebugCamera@@QEAAXXZ 00000001400072e0 f   DebugCamera.obj
 0001:00006590       __acrt_initialize          0000000140007590 f i MSVCRT:ucrt_stubs.obj
 0001:00006590       __acrt_uninitialize        0000000140007590 f i MSVCRT:ucrt_stubs.obj
 0001:00006590       __vcrt_initialize          0000000140007590 f i MSVCRT:ucrt_stubs.obj
 0001:00006590       _should_initialize_environment 0000000140007590 f i MSVCRT:env_mode.obj
 0001:00006590       ?Initialize@Enemy@@UEAA_NPEAUID3D11Device@@PEBDUfloat3@@@Z 0000000140007590 f i Enemy.obj
 0001:00006590       __vcrt_uninitialize        0000000140007590 f i MSVCRT:ucrt_stubs.obj
 0001:00006590       __scrt_stub_for_acrt_initialize 0000000140007590 f i MSVCRT:ucrt_stubs.obj
 0001:00006590       __scrt_stub_for_acrt_uninitialize 0000000140007590 f i MSVCRT:ucrt_stubs.obj
 0001:000065a0       ??0Enemy@@QEAA@XZ          00000001400075a0 f   Enemy.obj
 0001:00006610       ?SetDestroy@Enemy@@QEAAXXZ 0000000140007610 f   Enemy.obj
 0001:00006620       ?SubHealth@Enemy@@QEAAXMW4DamageType@1@PEAUHWND__@@@Z 0000000140007620 f   Enemy.obj
 0001:00006660       ?SphereToAABB@@YA_NUSphere@@UAABB@@@Z 0000000140007660 f i EnemyManager.obj
 0001:00006760       ?GetAABB@Player@@QEAA?AUAABB@@XZ 0000000140007760 f i EnemyManager.obj
 0001:00006780       ?Initialize@EnemyManager@@QEAAXPEAUID3D11Device@@@Z 0000000140007780 f   EnemyManager.obj
 0001:00006c80       ?Shutdown@EnemyManager@@QEAAXXZ 0000000140007c80 f   EnemyManager.obj
 0001:00006d30       ?Update@EnemyManager@@QEAAXMPEAVPlayer@@V?$vector@PEAVGameObject@@V?$allocator@PEAVGameObject@@@std@@@std@@AEAV?$vector@PEAVBullet@@V?$allocator@PEAVBullet@@@std@@@4@PEAUID3D11Device@@PEAUHWND__@@@Z 0000000140007d30 f   EnemyManager.obj
 0001:00007ad0       ?__autoclassinit2@Sound@@QEAAX_K@Z 0000000140008ad0 f i EnemyManager.obj
 0001:00007af0       ?_Getal@?$_Vector_alloc@U?$_Vec_base_types@PEBUSpriteInfo@Impl@SpriteBatch@DirectX@@V?$allocator@PEBUSpriteInfo@Impl@SpriteBatch@DirectX@@@std@@@std@@@std@@QEAAAEAV?$allocator@PEBUSpriteInfo@Impl@SpriteBatch@DirectX@@@2@XZ 0000000140008af0 f   DirectXTK:SpriteBatch.obj
 0001:00007af0       ?GetEnemies@EnemyManager@@QEAAAEAV?$vector@PEAVEnemy@@V?$allocator@PEAVEnemy@@@std@@@std@@XZ 0000000140008af0 f   EnemyManager.obj
 0001:00007af0       ?_Getal@?$_Vector_alloc@U?$_Vec_base_types@FV?$allocator@F@std@@@std@@@std@@QEAAAEAV?$allocator@F@2@XZ 0000000140008af0 f   DirectXTK:SpriteBatch.obj
 0001:00007b00       ?CalculateSeperation@EnemyManager@@QEAA?AUfloat3@@AEAVEnemy@@@Z 0000000140008b00 f   EnemyManager.obj
 0001:00007d20       ?CalculateObstacleSeperation@EnemyManager@@QEAA?AUfloat3@@AEAVEnemy@@V?$vector@PEAVGameObject@@V?$allocator@PEAVGameObject@@@std@@@std@@@Z 0000000140008d20 f   EnemyManager.obj
 0001:00007fe0       ?StartNewRound@EnemyManager@@QEAAXXZ 0000000140008fe0 f   EnemyManager.obj
 0001:00008030       ??1?$vector@PEBUSpriteInfo@Impl@SpriteBatch@DirectX@@V?$allocator@PEBUSpriteInfo@Impl@SpriteBatch@DirectX@@@std@@@std@@QEAA@XZ 0000000140009030 f i DirectXTK:SpriteBatch.obj
 0001:00008030       ?_Tidy@?$vector@PEAVSound@@V?$allocator@PEAVSound@@@std@@@std@@AEAAXXZ 0000000140009030 f i EnemyManager.obj
 0001:00008030       ??1?$vector@PEAVAnimation@@V?$allocator@PEAVAnimation@@@std@@@std@@QEAA@XZ 0000000140009030 f i GameObject.obj
 0001:00008030       ??1?$vector@PEAVGun@@V?$allocator@PEAVGun@@@std@@@std@@QEAA@XZ 0000000140009030 f i MyWindow.obj
 0001:00008030       ??1?$vector@PEAVBullet@@V?$allocator@PEAVBullet@@@std@@@std@@QEAA@XZ 0000000140009030 f i graphicsclass.obj
 0001:00008030       ??1?$vector@PEAVSound@@V?$allocator@PEAVSound@@@std@@@std@@QEAA@XZ 0000000140009030 f i EnemyManager.obj
 0001:00008030       ??1?$vector@PEAVPickup@@V?$allocator@PEAVPickup@@@std@@@std@@QEAA@XZ 0000000140009030 f i graphicsclass.obj
 0001:00008030       ??1?$vector@PEAVGameObject@@V?$allocator@PEAVGameObject@@@std@@@std@@QEAA@XZ 0000000140009030 f i EnemyManager.obj
 0001:00008030       ??1?$vector@PEAVEnemy@@V?$allocator@PEAVEnemy@@@std@@@std@@QEAA@XZ 0000000140009030 f i EnemyManager.obj
 0001:00008090       ??0?$vector@PEAVGameObject@@V?$allocator@PEAVGameObject@@@std@@@std@@QEAA@AEBV01@@Z 0000000140009090 f i EnemyManager.obj
 0001:00008090       ??0?$vector@PEAVPickup@@V?$allocator@PEAVPickup@@@std@@@std@@QEAA@AEBV01@@Z 0000000140009090 f i GameManager.obj
 0001:00008090       ??0?$vector@PEAVSound@@V?$allocator@PEAVSound@@@std@@@std@@QEAA@AEBV01@@Z 0000000140009090 f i GameManager.obj
 0001:00008090       ??0?$vector@PEAVBullet@@V?$allocator@PEAVBullet@@@std@@@std@@QEAA@AEBV01@@Z 0000000140009090 f i GameManager.obj
 0001:00008090       ??0?$vector@PEAVGun@@V?$allocator@PEAVGun@@@std@@@std@@QEAA@AEBV01@@Z 0000000140009090 f i MyWindow.obj
 0001:00008090       ??0?$vector@PEAVEnemy@@V?$allocator@PEAVEnemy@@@std@@@std@@QEAA@AEBV01@@Z 0000000140009090 f i GameManager.obj
 0001:00008180       ??$_Emplace_reallocate@AEBQEAVGun@@@?$vector@PEAVGun@@V?$allocator@PEAVGun@@@std@@@std@@QEAAPEAPEAVGun@@QEAPEAV2@AEBQEAV2@@Z 0000000140009180 f i GameManager.obj
 0001:00008180       ??$_Emplace_reallocate@PEAVEnemy@@@?$vector@PEAVEnemy@@V?$allocator@PEAVEnemy@@@std@@@std@@QEAAPEAPEAVEnemy@@QEAPEAV2@$$QEAPEAV2@@Z 0000000140009180 f i EnemyManager.obj
 0001:00008180       ??$_Emplace_reallocate@AEBQEAVUIElement@@@?$vector@PEAVUIElement@@V?$allocator@PEAVUIElement@@@std@@@std@@QEAAPEAPEAVUIElement@@QEAPEAV2@AEBQEAV2@@Z 0000000140009180 f i UIManager.obj
 0001:00008180       ??$_Emplace_reallocate@PEAVBullet@@@?$vector@PEAVBullet@@V?$allocator@PEAVBullet@@@std@@@std@@QEAAPEAPEAVBullet@@QEAPEAV2@$$QEAPEAV2@@Z 0000000140009180 f i GameManager.obj
 0001:00008180       ??$_Emplace_reallocate@AEBQEAVPickup@@@?$vector@PEAVPickup@@V?$allocator@PEAVPickup@@@std@@@std@@QEAAPEAPEAVPickup@@QEAPEAV2@AEBQEAV2@@Z 0000000140009180 f i GameManager.obj
 0001:00008180       ??$_Emplace_reallocate@PEAVGameObject@@@?$vector@PEAVGameObject@@V?$allocator@PEAVGameObject@@@std@@@std@@QEAAPEAPEAVGameObject@@QEAPEAV2@$$QEAPEAV2@@Z 0000000140009180 f i GameManager.obj
 0001:00008320       ??$_Emplace_reallocate@AEBQEAVSound@@@?$vector@PEAVSound@@V?$allocator@PEAVSound@@@std@@@std@@QEAAPEAPEAVSound@@QEAPEAV2@AEBQEAV2@@Z 0000000140009320 f i GameManager.obj
 0001:00008320       ??$_Emplace_reallocate@PEAVSound@@@?$vector@PEAVSound@@V?$allocator@PEAVSound@@@std@@@std@@QEAAPEAPEAVSound@@QEAPEAV2@$$QEAPEAV2@@Z 0000000140009320 f i EnemyManager.obj
 0001:00008470       ?_Change_array@?$vector@PEAVSound@@V?$allocator@PEAVSound@@@std@@@std@@AEAAXQEAPEAVSound@@_K1@Z 0000000140009470 f i EnemyManager.obj
 0001:00008500       ?Construct@Frustum@@QEAAXMUXMMATRIX@DirectX@@0@Z 0000000140009500 f   Frustum.obj
 0001:00008900       ?GetGraphicsEngine@Graphics@@QEAAPEAVDX@@XZ 0000000140009900 f   GameManager.obj
 0001:00008900       ?GetMouseInput@InputManager@@QEAAPEAUIDirectInputDevice8W@@XZ 0000000140009900 f   InputManager.obj
 0001:00008900       ?GetPhysicsComponent@GameObject@@QEAAPEAVPhysicsComponent@@XZ 0000000140009900 f   GameObject.obj
 0001:00008910       ?SetCurrMouseState@InputManager@@QEAAXXZ 0000000140009910 f   InputManager.obj
 0001:00008930       ??0GameObject@@QEAA@XZ     0000000140009930 f   GameObject.obj
 0001:00008a80       ??1GameObject@@QEAA@XZ     0000000140009a80 f   GameObject.obj
 0001:00008c30       ?GetParent@GameObject@@QEAAHHV?$vector@HV?$allocator@H@std@@@std@@@Z 0000000140009c30 f   GameObject.obj
 0001:00008d90       ?Update@GameObject@@UEAAXM@Z 0000000140009d90 f   GameObject.obj
 0001:00008e30       ?AddAninimation@GameObject@@QEAAXPEBDPEAUID3D11Device@@H@Z 0000000140009e30 f   GameObject.obj
 0001:00009140       ?Initialize@GameObject@@UEAA_NPEBDPEAUID3D11Device@@@Z 000000014000a140 f   GameObject.obj
 0001:00009150       ?Render@GameObject@@UEAAXPEAUID3D11DeviceContext@@@Z 000000014000a150 f   GameObject.obj
 0001:00009150       ?Render@Player@@UEAAXPEAUID3D11DeviceContext@@@Z 000000014000a150 f   Player.obj
 0001:00009160       ?Shutdown@GameObject@@UEAAXXZ 000000014000a160 f   GameObject.obj
 0001:00009330       ?GetCollider@GameObject@@QEAAPEAUSphere@@H@Z 000000014000a330 f   GameObject.obj
 0001:00009370       ?size@?$vector@USphere@@V?$allocator@USphere@@@std@@@std@@QEBA_KXZ 000000014000a370 f i GameObject.obj
 0001:00009380       ??1?$vector@USphere@@V?$allocator@USphere@@@std@@@std@@QEAA@XZ 000000014000a380 f i GameObject.obj
 0001:00009380       ?_Tidy@?$vector@USphere@@V?$allocator@USphere@@@std@@@std@@AEAAXXZ 000000014000a380 f i GameObject.obj
 0001:000093e0       ??0?$vector@Ukeyframe@@V?$allocator@Ukeyframe@@@std@@@std@@QEAA@AEBV01@@Z 000000014000a3e0 f i GameObject.obj
 0001:00009520       ??$_Emplace_reallocate@AEBUSphere@@@?$vector@USphere@@V?$allocator@USphere@@@std@@@std@@QEAAPEAUSphere@@QEAU2@AEBU2@@Z 000000014000a520 f i GameObject.obj
 0001:000096b0       ??$_Resize@V<lambda_5faba587ae6cafb8bb5bc4a9224fce8d>@@@?$vector@PEAVAnimation@@V?$allocator@PEAVAnimation@@@std@@@std@@AEAAX_KV<lambda_5faba587ae6cafb8bb5bc4a9224fce8d>@@@Z 000000014000a6b0 f i GameObject.obj
 0001:00009860       ?Initialize@DX@@QEAA_NHH_NPEAUHWND__@@0MM@Z 000000014000a860 f   dxstuff.obj
 0001:00009ea0       ?GetDevice@DX@@QEAAPEAUID3D11Device@@XZ 000000014000aea0 f   dxstuff.obj
 0001:00009eb0       ?GetType@Pickup@@QEAA?AW4PickupType@1@XZ 000000014000aeb0 f i graphicsclass.obj
 0001:00009ec0       ??1?$function@$$A6AXXZ@std@@QEAA@XZ 000000014000aec0 f i graphicsclass.obj
 0001:00009ec0       ??1?$_Func_class@X$$V@std@@QEAA@XZ 000000014000aec0 f i graphicsclass.obj
 0001:00009f00       ?Initialize@Graphics@@QEAA_NHHPEAUHWND__@@PEAVInputManager@@@Z 000000014000af00 f   graphicsclass.obj
 0001:0000a780       ?Shutdown@Graphics@@QEAAXXZ 000000014000b780 f   graphicsclass.obj
 0001:0000aa20       ?Render@Graphics@@QEAA_NPEAVInputManager@@PEAVPlayer@@V?$vector@PEAVBullet@@V?$allocator@PEAVBullet@@@std@@@std@@V?$vector@PEAVEnemy@@V?$allocator@PEAVEnemy@@@std@@@5@V?$vector@PEAVGameObject@@V?$allocator@PEAVGameObject@@@std@@@5@V?$vector@PEAVPickup@@V?$allocator@PEAVPickup@@@std@@@5@@Z 000000014000ba20 f   graphicsclass.obj
 0001:0000d750       ?Update@Graphics@@QEAAXPEAVInputManager@@MPEAVPlayer@@@Z 000000014000e750 f   graphicsclass.obj
 0001:0000d8f0       ?to_string@std@@YA?AV?$basic_string@DU?$char_traits@D@std@@V?$allocator@D@2@@1@H@Z 000000014000e8f0 f i GameManager.obj
 0001:0000d9d0       ?to_string@std@@YA?AV?$basic_string@DU?$char_traits@D@std@@V?$allocator@D@2@@1@I@Z 000000014000e9d0 f i GameManager.obj
 0001:0000da70       ?normalize@float3@@QEAAAEAU1@XZ 000000014000ea70 f i GameManager.obj
 0001:0000db10       ?DotProduct@@YAMUfloat3@@0@Z 000000014000eb10 f i GameManager.obj
 0001:0000db40       ?MovingSphereToSphere@@YA_NAEBUSphere@@AEBUfloat3@@0AEAM@Z 000000014000eb40 f i GameManager.obj
 0001:0000dcc0       ?lineCircle@@YA_NUSegment@@USphere@@@Z 000000014000ecc0 f i GameManager.obj
 0001:0000dd40       ?SqDistPointAABB@@YAMUfloat3@@UAABB@@@Z 000000014000ed40 f i GameManager.obj
 0001:0000de30       ?GetSounds@GameObject@@QEAA?AV?$vector@PEAVSound@@V?$allocator@PEAVSound@@@std@@@std@@XZ 000000014000ee30 f i GameManager.obj
 0001:0000de50       ?AddSound@GameObject@@QEAAXPEAVSound@@@Z 000000014000ee50 f i GameManager.obj
 0001:0000de90       ?GetColliders@GameObject@@QEAA?AV?$vector@USphere@@V?$allocator@USphere@@@std@@@std@@XZ 000000014000ee90 f i GameManager.obj
 0001:0000deb0       ?GetLifeTime@GameObject@@QEAAMXZ 000000014000eeb0 f i GameManager.obj
 0001:0000dec0       ?GetDamageAmount@Gun@@QEAAMXZ 000000014000eec0 f i GameManager.obj
 0001:0000ded0       ?SetCurrentGun@Player@@QEAAXH@Z 000000014000eed0 f i GameManager.obj
 0001:0000df00       ?GetCurrentGun@Player@@QEAAPEAVGun@@XZ 000000014000ef00 f i GameManager.obj
 0001:0000df10       ?isAttacking@Player@@QEAA_NXZ 000000014000ef10 f i GameManager.obj
 0001:0000df20       ?AddCurrency@Player@@QEAAXI@Z 000000014000ef20 f i GameManager.obj
 0001:0000df30       ?SetTimeDamage@Player@@QEAAXM@Z 000000014000ef30 f i GameManager.obj
 0001:0000df40       ?GetTimeDamage@Player@@QEAAMXZ 000000014000ef40 f i GameManager.obj
 0001:0000df50       ?GetHealth@Enemy@@QEAAMXZ  000000014000ef50 f i GameManager.obj
 0001:0000df60       ?GetCurrency@Enemy@@QEAAMXZ 000000014000ef60 f i GameManager.obj
 0001:0000df70       ?GetEnabled@UIElement@@QEAA_NXZ 000000014000ef70 f i GameManager.obj
 0001:0000df80       ?SetEnabled@UIElement@@QEAAX_N@Z 000000014000ef80 f i GameManager.obj
 0001:0000df90       ?SetPos@UIElement@@QEAAXJJ@Z 000000014000ef90 f i GameManager.obj
 0001:0000dff0       ?SetSize@UIElement@@QEAAXJJ@Z 000000014000eff0 f i GameManager.obj
 0001:0000e050       ?GetSize@UIElement@@QEAA?AUfloat2@@XZ 000000014000f050 f i GameManager.obj
 0001:0000e080       ?SetText@TextElement@@QEAAXV?$basic_string@DU?$char_traits@D@std@@V?$allocator@D@2@@std@@@Z 000000014000f080 f i GameManager.obj
 0001:0000e150       ?GetUIManager@GameManager@@QEAAPEAVUIManager@@XZ 000000014000f150 f i GameManager.obj
 0001:0000e160       ?GetEnemies@GameManager@@QEAAIXZ 000000014000f160 f i GameManager.obj
 0001:0000e180       ?GetHealth@GameManager@@QEAAIXZ 000000014000f180 f i GameManager.obj
 0001:0000e190       ?GetPlayer@GameManager@@QEAAPEAVPlayer@@XZ 000000014000f190 f i GameManager.obj
 0001:0000e1a0       ??0GameManager@@QEAA@XZ    000000014000f1a0 f   GameManager.obj
 0001:0000e3c0       ?UpdateScoreText@GameManager@@QEAAXXZ 000000014000f3c0 f   GameManager.obj
 0001:0000e6d0       ?UpdateHealthText@GameManager@@QEAAXXZ 000000014000f6d0 f   GameManager.obj
 0001:0000e9c0       ?UpdateWeaponText@GameManager@@QEAAXXZ 000000014000f9c0 f   GameManager.obj
 0001:0000ea50       ?UpdateTimerText@GameManager@@QEAAXM@Z 000000014000fa50 f   GameManager.obj
 0001:0000ebd0       ?UpdateCurrencyText@GameManager@@QEAAXXZ 000000014000fbd0 f   GameManager.obj
 0001:0000ed60       ?UpdateDamageTimerText@GameManager@@QEAAXXZ 000000014000fd60 f   GameManager.obj
 0001:0000eef0       ?GetGraphicsManager@GameManager@@QEAAPEAVGraphics@@XZ 000000014000fef0 f   GameManager.obj
 0001:0000ef00       ?ShootBullets@GameManager@@QEAAXXZ 000000014000ff00 f   GameManager.obj
 0001:0000f320       ?SpawnHealthPickup@GameManager@@QEAAXUfloat3@@@Z 0000000140010320 f   GameManager.obj
 0001:0000f460       ?SpawnDamagePickup@GameManager@@QEAAXUfloat3@@@Z 0000000140010460 f   GameManager.obj
 0001:0000f5a0       ??_GPlayer@@QEAAPEAXI@Z    00000001400105a0 f i GameManager.obj
 0001:0000f630       ??_GEnemyManager@@QEAAPEAXI@Z 0000000140010630 f i GameManager.obj
 0001:0000f700       ?Update@GameManager@@QEAAXMM@Z 0000000140010700 f   GameManager.obj
 0001:00011900       ?Render@GameManager@@QEAA_NXZ 0000000140012900 f   GameManager.obj
 0001:00011b30       ?Initialize@GameManager@@QEAA_NHHPEAUHWND__@@@Z 0000000140012b30 f   GameManager.obj
 0001:00012720       ?ShutDown@GameManager@@QEAAXXZ 0000000140013720 f   GameManager.obj
 0001:000128d0       ??H?$_Vector_iterator@V?$_Vector_val@U?$_Simple_types@PEAVPickup@@@std@@@std@@@std@@QEBA?AV01@_J@Z 00000001400138d0 f i GameManager.obj
 0001:000128e0       ?begin@?$vector@PEAVPickup@@V?$allocator@PEAVPickup@@@std@@@std@@QEAA?AV?$_Vector_iterator@V?$_Vector_val@U?$_Simple_types@PEAVPickup@@@std@@@std@@@2@XZ 00000001400138e0 f i GameManager.obj
 0001:000128e0       ?begin@?$vector@PEAVBullet@@V?$allocator@PEAVBullet@@@std@@@std@@QEAA?AV?$_Vector_iterator@V?$_Vector_val@U?$_Simple_types@PEAVBullet@@@std@@@std@@@2@XZ 00000001400138e0 f i GameManager.obj
 0001:000128f0       ?erase@?$vector@PEAVPickup@@V?$allocator@PEAVPickup@@@std@@@std@@QEAA?AV?$_Vector_iterator@V?$_Vector_val@U?$_Simple_types@PEAVPickup@@@std@@@std@@@2@V?$_Vector_const_iterator@V?$_Vector_val@U?$_Simple_types@PEAVPickup@@@std@@@std@@@2@@Z 00000001400138f0 f i GameManager.obj
 0001:000128f0       ?erase@?$vector@PEAVBullet@@V?$allocator@PEAVBullet@@@std@@@std@@QEAA?AV?$_Vector_iterator@V?$_Vector_val@U?$_Simple_types@PEAVBullet@@@std@@@std@@@2@V?$_Vector_const_iterator@V?$_Vector_val@U?$_Simple_types@PEAVBullet@@@std@@@std@@@2@@Z 00000001400138f0 f i GameManager.obj
 0001:00012940       ??0?$vector@USphere@@V?$allocator@USphere@@@std@@@std@@QEAA@AEBV01@@Z 0000000140013940 f i GameManager.obj
 0001:00012a20       ??$emplace_back@AEBQEAVSound@@@?$vector@PEAVSound@@V?$allocator@PEAVSound@@@std@@@std@@QEAAXAEBQEAVSound@@@Z 0000000140013a20 f i GameManager.obj
 0001:00012a40       ??$?HDU?$char_traits@D@std@@V?$allocator@D@1@@std@@YA?AV?$basic_string@DU?$char_traits@D@std@@V?$allocator@D@2@@0@QEBD$$QEAV10@@Z 0000000140013a40 f i GameManager.obj
 0001:00012c60       ?_Equal@?$basic_string@DU?$char_traits@D@std@@V?$allocator@D@2@@std@@QEBA_NQEBD@Z 0000000140013c60 f i GameManager.obj
 0001:00012cb0       ?_Reset_move@?$_Func_class@X$$V@std@@IEAAX$$QEAV12@@Z 0000000140013cb0 f i GameManager.obj
 0001:00012d30       ??$_Reallocate_grow_by@V<lambda_f3a66ab6a0570788f31503db83886f49>@@_KPEBD_K@?$basic_string@DU?$char_traits@D@std@@V?$allocator@D@2@@std@@QEAAAEAV01@_KV<lambda_f3a66ab6a0570788f31503db83886f49>@@_KPEBD2@Z 0000000140013d30 f i GameManager.obj
 0001:00012f00       ?XMVectorACos@DirectX@@YQ?AT__m128@@T2@@Z 0000000140013f00 f i Camera.obj
 0001:00012fc0       ?Update@Camera@@QEAAXUXMFLOAT3@DirectX@@@Z 0000000140013fc0 f   Camera.obj
 0001:00013240       ?GetInput@Camera@@QEAAXPEAVInputManager@@MAEAUXMMATRIX@DirectX@@PEAVPlayer@@@Z 0000000140014240 f   Camera.obj
 0001:000134c0       ?SetCharacterPosition@Camera@@QEAAXNAEAT__m128@@AEAUXMMATRIX@DirectX@@@Z 00000001400144c0 f   Camera.obj
 0001:00013770       ?ReadMeshFile@Model@@AEAAXPEBDPEAUID3D11Device@@@Z 0000000140014770 f   Model.obj
 0001:00013e10       ?Initialize@Model@@QEAA_NPEBDPEAUID3D11Device@@@Z 0000000140014e10 f   Model.obj
 0001:00013f00       ?Render@Model@@QEAAXPEAUID3D11DeviceContext@@@Z 0000000140014f00 f   Model.obj
 0001:00013fa0       ?Shutdown@Model@@QEAAXXZ   0000000140014fa0 f   Model.obj
 0001:00014010       ??1?$vector@Umaterial_t@@V?$allocator@Umaterial_t@@@std@@@std@@QEAA@XZ 0000000140015010 f i Model.obj
 0001:00014090       ??1?$vector@V?$array@D$0BAE@@std@@V?$allocator@V?$array@D$0BAE@@std@@@2@@std@@QEAA@XZ 0000000140015090 f i Model.obj
 0001:00014110       ?_Tidy@?$vector@UVertex@@V?$allocator@UVertex@@@std@@@std@@AEAAXXZ 0000000140015110 f i Model.obj
 0001:00014190       ??$_Resize@V<lambda_3dc4585328ffa41edbf28992c66dc9db>@@@?$vector@Umaterial_t@@V?$allocator@Umaterial_t@@@std@@@std@@AEAAX_KV<lambda_3dc4585328ffa41edbf28992c66dc9db>@@@Z 0000000140015190 f i Model.obj
 0001:00014480       ??$_Resize@V<lambda_90a86d33119e9cefaad228fe3fc3f04c>@@@?$vector@V?$array@D$0BAE@@std@@V?$allocator@V?$array@D$0BAE@@std@@@2@@std@@AEAAX_KV<lambda_90a86d33119e9cefaad228fe3fc3f04c>@@@Z 0000000140015480 f i Model.obj
 0001:00014690       ??$_Resize@V<lambda_a3e9ab7309acaaa5a225906574bbc117>@@@?$vector@IV?$allocator@I@std@@@std@@AEAAX_KV<lambda_a3e9ab7309acaaa5a225906574bbc117>@@@Z 0000000140015690 f i Model.obj
 0001:00014840       ??$_Resize@V<lambda_189af720543607fa3630bc45f408d767>@@@?$vector@UVertex@@V?$allocator@UVertex@@@std@@@std@@AEAAX_KV<lambda_189af720543607fa3630bc45f408d767>@@@Z 0000000140015840 f i Model.obj
 0001:00014a30       ?UnlockAllGuns@GameManager@@QEAAXXZ 0000000140015a30 f i MyWindow.obj
 0001:00014e80       ?Run@MyWindow@@AEAA_NXZ    0000000140015e80 f   MyWindow.obj
 0001:00015440       ?SetPauseMenu@MyWindow@@AEAAX_N@Z 0000000140016440 f   MyWindow.obj
 0001:00015490       ?SetOptionsMenu@MyWindow@@AEAAX_N@Z 0000000140016490 f   MyWindow.obj
 0001:00015510       ?UpdateVolumeText@MyWindow@@AEAAXXZ 0000000140016510 f   MyWindow.obj
 0001:000156a0       ?Initialize@MyWindow@@QEAA_NXZ 00000001400166a0 f   MyWindow.obj
 0001:00017a10       ?Render@MyWindow@@QEAAXXZ  0000000140018a10 f   MyWindow.obj
 0001:00017de0       ??4?$basic_string@DU?$char_traits@D@std@@V?$allocator@D@2@@std@@QEAAAEAV01@$$QEAV01@@Z 0000000140018de0 f i MyWindow.obj
 0001:00017e30       ??$?HDU?$char_traits@D@std@@V?$allocator@D@1@@std@@YA?AV?$basic_string@DU?$char_traits@D@std@@V?$allocator@D@2@@0@QEBDAEBV10@@Z 0000000140018e30 f i MyWindow.obj
 0001:00017ff0       ??$_Reallocate_grow_by@V<lambda_65e615be2a453ca0576c979606f46740>@@PEBD_K@?$basic_string@DU?$char_traits@D@std@@V?$allocator@D@2@@std@@QEAAAEAV01@_KV<lambda_65e615be2a453ca0576c979606f46740>@@PEBD_K@Z 0000000140018ff0 f i MyWindow.obj
 0001:00018180       ??$_Reallocate_grow_by@V<lambda_9013ee9e23efe4882b67eff5b0ecf103>@@$$V@?$basic_string@DU?$char_traits@D@std@@V?$allocator@D@2@@std@@QEAAAEAV01@_KV<lambda_9013ee9e23efe4882b67eff5b0ecf103>@@@Z 0000000140019180 f i MyWindow.obj
 0001:00018720       ?GetPosition@PhysicsComponent@@QEAA?AUfloat3@@XZ 0000000140019720 f   PhysicsComponent.obj
 0001:00018740       ?GetForward@PhysicsComponent@@QEAA?AUfloat3@@XZ 0000000140019740 f   PhysicsComponent.obj
 0001:00018760       ?Update@PhysicsComponent@@QEAAXM@Z 0000000140019760 f   PhysicsComponent.obj
 0001:000188c0       ?Initialize@Player@@UEAA_NPEBDPEAUID3D11Device@@@Z 00000001400198c0 f   Player.obj
 0001:00018a00       ?Shutdown@Player@@UEAAXXZ  0000000140019a00 f   Player.obj
 0001:00018a10       ?CheckMovement@Player@@QEAAXXZ 0000000140019a10 f   Player.obj
 0001:00018bf0       ?Update@Player@@UEAAXM@Z   0000000140019bf0 f   Player.obj
 0001:00019240       ?LerpJoint@@YA?AV?$array@Ufloat4@@$03@std@@V12@0M@Z 000000014001a240 f   Player.obj
 0001:000194f0       ?SetSkeletonLines@Player@@QEAA?AV?$vector@V?$array@Ufloat4@@$03@std@@V?$allocator@V?$array@Ufloat4@@$03@std@@@2@@std@@Uanim_clip@@0MM@Z 000000014001a4f0 f   Player.obj
 0001:0001b480       ?GetForwardArrow@Player@@QEAA?AUSegment@@XZ 000000014001c480 f   Player.obj
 0001:0001b4a0       ?GetBackwardArrow@Player@@QEAA?AUSegment@@XZ 000000014001c4a0 f   Player.obj
 0001:0001b4c0       ?GetLeftArrow@Player@@QEAA?AUSegment@@XZ 000000014001c4c0 f   Player.obj
 0001:0001b4e0       ?GetRightArrow@Player@@QEAA?AUSegment@@XZ 000000014001c4e0 f   Player.obj
 0001:0001b500       ?SetForward@Player@@QEAAX_N@Z 000000014001c500 f   Player.obj
 0001:0001b510       ?SetBackward@Player@@QEAAX_N@Z 000000014001c510 f   Player.obj
 0001:0001b520       ?SetLeft@Player@@QEAAX_N@Z 000000014001c520 f   Player.obj
 0001:0001b530       ?SetRight@Player@@QEAAX_N@Z 000000014001c530 f   Player.obj
 0001:0001b540       ??0RangedEnemy@@QEAA@XZ    000000014001c540 f   RangedEnemy.obj
 0001:0001b5f0       ?Initialize@RangedEnemy@@UEAA_NPEAUID3D11Device@@PEBDUfloat3@@@Z 000000014001c5f0 f   RangedEnemy.obj
 0001:0001b740       ?Update@RangedEnemy@@UEAAXMPEAVPlayer@@AEAV?$vector@PEAVBullet@@V?$allocator@PEAVBullet@@@std@@@std@@PEAUID3D11Device@@PEAUHWND__@@@Z 000000014001c740 f   RangedEnemy.obj
 0001:0001ba10       ?Attack@RangedEnemy@@QEAAXPEAVPlayer@@AEAV?$vector@PEAVBullet@@V?$allocator@PEAVBullet@@@std@@@std@@PEAUID3D11Device@@PEAUHWND__@@@Z 000000014001ca10 f   RangedEnemy.obj
 0001:0001bfe0       ?errorFunc@@YAJPEAU_EXCEPTION_POINTERS@@@Z 000000014001cfe0 f   RobotAnnihilation.obj
 0001:0001c110       WinMain                    000000014001d110 f   RobotAnnihilation.obj
 0001:0001c3b0       ?Shutdown@ShaderManager@@QEAAXXZ 000000014001d3b0 f   ShaderManager.obj
 0001:0001c580       ??0Item@Shop@@QEAA@W4WEAPONTYPE@1@MMMMV?$basic_string@DU?$char_traits@D@std@@V?$allocator@D@2@@std@@@Z 000000014001d580 f i Shop.obj
 0001:0001c690       ??1?$map@V?$basic_string@DU?$char_traits@D@std@@V?$allocator@D@2@@std@@PEAVUIElement@@U?$less@V?$basic_string@DU?$char_traits@D@std@@V?$allocator@D@2@@std@@@2@V?$allocator@U?$pair@$$CBV?$basic_string@DU?$char_traits@D@std@@V?$allocator@D@2@@std@@PEAVUIElement@@@std@@@2@@std@@QEAA@XZ 000000014001d690 f i Shop.obj
 0001:0001c6c0       ?Initialize@Shop@@QEAA_NXZ 000000014001d6c0 f   Shop.obj
 0001:0001e270       ?ShowARStats@Shop@@QEAAXXZ 000000014001f270 f   Shop.obj
 0001:0001e400       ?ShowSMGStats@Shop@@QEAAXXZ 000000014001f400 f   Shop.obj
 0001:0001e590       ?ShowPistolStats@Shop@@QEAAXXZ 000000014001f590 f   Shop.obj
 0001:0001e720       ?ShowMeleStats@Shop@@QEAAXXZ 000000014001f720 f   Shop.obj
 0001:0001e8b0       ?Update@Shop@@QEAAXXZ      000000014001f8b0 f   Shop.obj
 0001:0001ea40       ?SetShopVisibility@Shop@@QEAAX_N@Z 000000014001fa40 f   Shop.obj
 0001:0001eac0       ??1Shop@@QEAA@XZ           000000014001fac0 f   Shop.obj
 0001:0001ede0       ??A?$map@V?$basic_string@DU?$char_traits@D@std@@V?$allocator@D@2@@std@@PEAUItem@Shop@@U?$less@V?$basic_string@DU?$char_traits@D@std@@V?$allocator@D@2@@std@@@2@V?$allocator@U?$pair@$$CBV?$basic_string@DU?$char_traits@D@std@@V?$allocator@D@2@@std@@PEAUItem@Shop@@@std@@@2@@std@@QEAAAEAPEAUItem@Shop@@$$QEAV?$basic_string@DU?$char_traits@D@std@@V?$allocator@D@2@@1@@Z 000000014001fde0 f i Shop.obj
 0001:0001ede0       ??A?$map@V?$basic_string@DU?$char_traits@D@std@@V?$allocator@D@2@@std@@PEAVUIElement@@U?$less@V?$basic_string@DU?$char_traits@D@std@@V?$allocator@D@2@@std@@@2@V?$allocator@U?$pair@$$CBV?$basic_string@DU?$char_traits@D@std@@V?$allocator@D@2@@std@@PEAVUIElement@@@std@@@2@@std@@QEAAAEAPEAVUIElement@@$$QEAV?$basic_string@DU?$char_traits@D@std@@V?$allocator@D@2@@1@@Z 000000014001fde0 f i Shop.obj
 0001:0001ef20       ?_Erase@?$_Tree@V?$_Tmap_traits@V?$basic_string@DU?$char_traits@D@std@@V?$allocator@D@2@@std@@PEAVUIElement@@U?$less@V?$basic_string@DU?$char_traits@D@std@@V?$allocator@D@2@@std@@@2@V?$allocator@U?$pair@$$CBV?$basic_string@DU?$char_traits@D@std@@V?$allocator@D@2@@std@@PEAVUIElement@@@std@@@2@$0A@@std@@@std@@IEAAXPEAU?$_Tree_node@U?$pair@$$CBV?$basic_string@DU?$char_traits@D@std@@V?$allocator@D@2@@std@@PEAVUIElement@@@std@@PEAX@2@@Z 000000014001ff20 f i Shop.obj
 0001:0001ef20       ?_Erase@?$_Tree@V?$_Tmap_traits@V?$basic_string@DU?$char_traits@D@std@@V?$allocator@D@2@@std@@PEAUItem@Shop@@U?$less@V?$basic_string@DU?$char_traits@D@std@@V?$allocator@D@2@@std@@@2@V?$allocator@U?$pair@$$CBV?$basic_string@DU?$char_traits@D@std@@V?$allocator@D@2@@std@@PEAUItem@Shop@@@std@@@2@$0A@@std@@@std@@IEAAXPEAU?$_Tree_node@U?$pair@$$CBV?$basic_string@DU?$char_traits@D@std@@V?$allocator@D@2@@std@@PEAUItem@Shop@@@std@@PEAX@2@@Z 000000014001ff20 f i Shop.obj
 0001:0001efc0       ?erase@?$_Tree@V?$_Tmap_traits@V?$basic_string@DU?$char_traits@D@std@@V?$allocator@D@2@@std@@PEAUItem@Shop@@U?$less@V?$basic_string@DU?$char_traits@D@std@@V?$allocator@D@2@@std@@@2@V?$allocator@U?$pair@$$CBV?$basic_string@DU?$char_traits@D@std@@V?$allocator@D@2@@std@@PEAUItem@Shop@@@std@@@2@$0A@@std@@@std@@QEAA?AV?$_Tree_iterator@V?$_Tree_val@U?$_Tree_simple_types@U?$pair@$$CBV?$basic_string@DU?$char_traits@D@std@@V?$allocator@D@2@@std@@PEAUItem@Shop@@@std@@@std@@@std@@@2@V?$_Tree_const_iterator@V?$_Tree_val@U?$_Tree_simple_types@U?$pair@$$CBV?$basic_string@DU?$char_traits@D@std@@V?$allocator@D@2@@std@@PEAUItem@Shop@@@std@@@std@@@std@@@2@0@Z 000000014001ffc0 f i Shop.obj
 0001:0001efc0       ?erase@?$_Tree@V?$_Tmap_traits@V?$basic_string@DU?$char_traits@D@std@@V?$allocator@D@2@@std@@PEAVUIElement@@U?$less@V?$basic_string@DU?$char_traits@D@std@@V?$allocator@D@2@@std@@@2@V?$allocator@U?$pair@$$CBV?$basic_string@DU?$char_traits@D@std@@V?$allocator@D@2@@std@@PEAVUIElement@@@std@@@2@$0A@@std@@@std@@QEAA?AV?$_Tree_iterator@V?$_Tree_val@U?$_Tree_simple_types@U?$pair@$$CBV?$basic_string@DU?$char_traits@D@std@@V?$allocator@D@2@@std@@PEAVUIElement@@@std@@@std@@@std@@@2@V?$_Tree_const_iterator@V?$_Tree_val@U?$_Tree_simple_types@U?$pair@$$CBV?$basic_string@DU?$char_traits@D@std@@V?$allocator@D@2@@std@@PEAVUIElement@@@std@@@std@@@std@@@2@0@Z 000000014001ffc0 f i Shop.obj
 0001:0001f160       ?_Extract@?$_Tree_val@U?$_Tree_simple_types@U?$pair@$$CBV?$basic_string@DU?$char_traits@D@std@@V?$allocator@D@2@@std@@PEAVUIElement@@@std@@@std@@@std@@QEAAPEAU?$_Tree_node@U?$pair@$$CBV?$basic_string@DU?$char_traits@D@std@@V?$allocator@D@2@@std@@PEAVUIElement@@@std@@PEAX@2@V?$_Tree_const_iterator@V?$_Tree_val@U?$_Tree_simple_types@U?$pair@$$CBV?$basic_string@DU?$char_traits@D@std@@V?$allocator@D@2@@std@@PEAVUIElement@@@std@@@std@@@std@@@2@@Z 0000000140020160 f i Shop.obj
 0001:0001f160       ?_Extract@?$_Tree_val@U?$_Tree_simple_types@U?$pair@$$CBV?$basic_string@DU?$char_traits@D@std@@V?$allocator@D@2@@std@@PEAUItem@Shop@@@std@@@std@@@std@@QEAAPEAU?$_Tree_node@U?$pair@$$CBV?$basic_string@DU?$char_traits@D@std@@V?$allocator@D@2@@std@@PEAUItem@Shop@@@std@@PEAX@2@V?$_Tree_const_iterator@V?$_Tree_val@U?$_Tree_simple_types@U?$pair@$$CBV?$basic_string@DU?$char_traits@D@std@@V?$allocator@D@2@@std@@PEAUItem@Shop@@@std@@@std@@@std@@@2@@Z 0000000140020160 f i Shop.obj
 0001:0001f5f0       ?_Buyheadnode@?$_Tree_comp_alloc@V?$_Tmap_traits@V?$basic_string@DU?$char_traits@D@std@@V?$allocator@D@2@@std@@PEAUItem@Shop@@U?$less@V?$basic_string@DU?$char_traits@D@std@@V?$allocator@D@2@@std@@@2@V?$allocator@U?$pair@$$CBV?$basic_string@DU?$char_traits@D@std@@V?$allocator@D@2@@std@@PEAUItem@Shop@@@std@@@2@$0A@@std@@@std@@QEAAPEAU?$_Tree_node@U?$pair@$$CBV?$basic_string@DU?$char_traits@D@std@@V?$allocator@D@2@@std@@PEAUItem@Shop@@@std@@PEAX@2@XZ 00000001400205f0 f i Shop.obj
 0001:0001f5f0       ?_Buyheadnode@?$_Tree_comp_alloc@V?$_Tmap_traits@V?$basic_string@DU?$char_traits@D@std@@V?$allocator@D@2@@std@@PEAVUIElement@@U?$less@V?$basic_string@DU?$char_traits@D@std@@V?$allocator@D@2@@std@@@2@V?$allocator@U?$pair@$$CBV?$basic_string@DU?$char_traits@D@std@@V?$allocator@D@2@@std@@PEAVUIElement@@@std@@@2@$0A@@std@@@std@@QEAAPEAU?$_Tree_node@U?$pair@$$CBV?$basic_string@DU?$char_traits@D@std@@V?$allocator@D@2@@std@@PEAVUIElement@@@std@@PEAX@2@XZ 00000001400205f0 f i Shop.obj
 0001:0001f790       ??$_Buynode@AEBUpiecewise_construct_t@std@@V?$tuple@$$QEAV?$basic_string@DU?$char_traits@D@std@@V?$allocator@D@2@@std@@@2@V?$tuple@$$V@2@@?$_Tree_comp_alloc@V?$_Tmap_traits@V?$basic_string@DU?$char_traits@D@std@@V?$allocator@D@2@@std@@PEAVUIElement@@U?$less@V?$basic_string@DU?$char_traits@D@std@@V?$allocator@D@2@@std@@@2@V?$allocator@U?$pair@$$CBV?$basic_string@DU?$char_traits@D@std@@V?$allocator@D@2@@std@@PEAVUIElement@@@std@@@2@$0A@@std@@@std@@QEAAPEAU?$_Tree_node@U?$pair@$$CBV?$basic_string@DU?$char_traits@D@std@@V?$allocator@D@2@@std@@PEAVUIElement@@@std@@PEAX@1@AEBUpiecewise_construct_t@1@$$QEAV?$tuple@$$QEAV?$basic_string@DU?$char_traits@D@std@@V?$allocator@D@2@@std@@@1@$$QEAV?$tuple@$$V@1@@Z 0000000140020790 f i Shop.obj
 0001:0001f790       ??$_Buynode@AEBUpiecewise_construct_t@std@@V?$tuple@$$QEAV?$basic_string@DU?$char_traits@D@std@@V?$allocator@D@2@@std@@@2@V?$tuple@$$V@2@@?$_Tree_comp_alloc@V?$_Tmap_traits@V?$basic_string@DU?$char_traits@D@std@@V?$allocator@D@2@@std@@PEAUItem@Shop@@U?$less@V?$basic_string@DU?$char_traits@D@std@@V?$allocator@D@2@@std@@@2@V?$allocator@U?$pair@$$CBV?$basic_string@DU?$char_traits@D@std@@V?$allocator@D@2@@std@@PEAUItem@Shop@@@std@@@2@$0A@@std@@@std@@QEAAPEAU?$_Tree_node@U?$pair@$$CBV?$basic_string@DU?$char_traits@D@std@@V?$allocator@D@2@@std@@PEAUItem@Shop@@@std@@PEAX@1@AEBUpiecewise_construct_t@1@$$QEAV?$tuple@$$QEAV?$basic_string@DU?$char_traits@D@std@@V?$allocator@D@2@@std@@@1@$$QEAV?$tuple@$$V@1@@Z 0000000140020790 f i Shop.obj
 0001:0001f7e0       ??$_Insert_hint@AEAU?$pair@$$CBV?$basic_string@DU?$char_traits@D@std@@V?$allocator@D@2@@std@@PEAVUIElement@@@std@@PEAU?$_Tree_node@U?$pair@$$CBV?$basic_string@DU?$char_traits@D@std@@V?$allocator@D@2@@std@@PEAVUIElement@@@std@@PEAX@2@@?$_Tree@V?$_Tmap_traits@V?$basic_string@DU?$char_traits@D@std@@V?$allocator@D@2@@std@@PEAVUIElement@@U?$less@V?$basic_string@DU?$char_traits@D@std@@V?$allocator@D@2@@std@@@2@V?$allocator@U?$pair@$$CBV?$basic_string@DU?$char_traits@D@std@@V?$allocator@D@2@@std@@PEAVUIElement@@@std@@@2@$0A@@std@@@std@@IEAA?AV?$_Tree_iterator@V?$_Tree_val@U?$_Tree_simple_types@U?$pair@$$CBV?$basic_string@DU?$char_traits@D@std@@V?$allocator@D@2@@std@@PEAVUIElement@@@std@@@std@@@std@@@1@V?$_Tree_const_iterator@V?$_Tree_val@U?$_Tree_simple_types@U?$pair@$$CBV?$basic_string@DU?$char_traits@D@std@@V?$allocator@D@2@@std@@PEAVUIElement@@@std@@@std@@@std@@@1@AEAU?$pair@$$CBV?$basic_string@DU?$char_traits@D@std@@V?$allocator@D@2@@std@@PEAVUIElement@@@1@PEAU?$_Tree_node@U?$pair@$$CBV?$basic_string@DU?$char_traits@D@std@@V?$allocator@D@2@@std@@PEAVUIElement@@@std@@PEAX@1@@Z 00000001400207e0 f i Shop.obj
 0001:0001f7e0       ??$_Insert_hint@AEAU?$pair@$$CBV?$basic_string@DU?$char_traits@D@std@@V?$allocator@D@2@@std@@PEAUItem@Shop@@@std@@PEAU?$_Tree_node@U?$pair@$$CBV?$basic_string@DU?$char_traits@D@std@@V?$allocator@D@2@@std@@PEAUItem@Shop@@@std@@PEAX@2@@?$_Tree@V?$_Tmap_traits@V?$basic_string@DU?$char_traits@D@std@@V?$allocator@D@2@@std@@PEAUItem@Shop@@U?$less@V?$basic_string@DU?$char_traits@D@std@@V?$allocator@D@2@@std@@@2@V?$allocator@U?$pair@$$CBV?$basic_string@DU?$char_traits@D@std@@V?$allocator@D@2@@std@@PEAUItem@Shop@@@std@@@2@$0A@@std@@@std@@IEAA?AV?$_Tree_iterator@V?$_Tree_val@U?$_Tree_simple_types@U?$pair@$$CBV?$basic_string@DU?$char_traits@D@std@@V?$allocator@D@2@@std@@PEAUItem@Shop@@@std@@@std@@@std@@@1@V?$_Tree_const_iterator@V?$_Tree_val@U?$_Tree_simple_types@U?$pair@$$CBV?$basic_string@DU?$char_traits@D@std@@V?$allocator@D@2@@std@@PEAUItem@Shop@@@std@@@std@@@std@@@1@AEAU?$pair@$$CBV?$basic_string@DU?$char_traits@D@std@@V?$allocator@D@2@@std@@PEAUItem@Shop@@@1@PEAU?$_Tree_node@U?$pair@$$CBV?$basic_string@DU?$char_traits@D@std@@V?$allocator@D@2@@std@@PEAUItem@Shop@@@std@@PEAX@1@@Z 00000001400207e0 f i Shop.obj
 0001:0001fc40       ?_Buynode0@?$_Tree_comp_alloc@V?$_Tmap_traits@V?$basic_string@DU?$char_traits@D@std@@V?$allocator@D@2@@std@@PEAVUIElement@@U?$less@V?$basic_string@DU?$char_traits@D@std@@V?$allocator@D@2@@std@@@2@V?$allocator@U?$pair@$$CBV?$basic_string@DU?$char_traits@D@std@@V?$allocator@D@2@@std@@PEAVUIElement@@@std@@@2@$0A@@std@@@std@@QEAAPEAU?$_Tree_node@U?$pair@$$CBV?$basic_string@DU?$char_traits@D@std@@V?$allocator@D@2@@std@@PEAVUIElement@@@std@@PEAX@2@XZ 0000000140020c40 f i Shop.obj
 0001:0001fc40       ?_Buynode0@?$_Tree_comp_alloc@V?$_Tmap_traits@V?$basic_string@DU?$char_traits@D@std@@V?$allocator@D@2@@std@@PEAUItem@Shop@@U?$less@V?$basic_string@DU?$char_traits@D@std@@V?$allocator@D@2@@std@@@2@V?$allocator@U?$pair@$$CBV?$basic_string@DU?$char_traits@D@std@@V?$allocator@D@2@@std@@PEAUItem@Shop@@@std@@@2@$0A@@std@@@std@@QEAAPEAU?$_Tree_node@U?$pair@$$CBV?$basic_string@DU?$char_traits@D@std@@V?$allocator@D@2@@std@@PEAUItem@Shop@@@std@@PEAX@2@XZ 0000000140020c40 f i Shop.obj
 0001:0001fc70       ?_Destroy_if_node@?$_Tree@V?$_Tmap_traits@V?$basic_string@DU?$char_traits@D@std@@V?$allocator@D@2@@std@@PEAVUIElement@@U?$less@V?$basic_string@DU?$char_traits@D@std@@V?$allocator@D@2@@std@@@2@V?$allocator@U?$pair@$$CBV?$basic_string@DU?$char_traits@D@std@@V?$allocator@D@2@@std@@PEAVUIElement@@@std@@@2@$0A@@std@@@std@@IEAAXPEAU?$_Tree_node@U?$pair@$$CBV?$basic_string@DU?$char_traits@D@std@@V?$allocator@D@2@@std@@PEAVUIElement@@@std@@PEAX@2@@Z 0000000140020c70 f i Shop.obj
 0001:0001fc70       ?_Destroy_if_node@?$_Tree@V?$_Tmap_traits@V?$basic_string@DU?$char_traits@D@std@@V?$allocator@D@2@@std@@PEAUItem@Shop@@U?$less@V?$basic_string@DU?$char_traits@D@std@@V?$allocator@D@2@@std@@@2@V?$allocator@U?$pair@$$CBV?$basic_string@DU?$char_traits@D@std@@V?$allocator@D@2@@std@@PEAUItem@Shop@@@std@@@2@$0A@@std@@@std@@IEAAXPEAU?$_Tree_node@U?$pair@$$CBV?$basic_string@DU?$char_traits@D@std@@V?$allocator@D@2@@std@@PEAUItem@Shop@@@std@@PEAX@2@@Z 0000000140020c70 f i Shop.obj
 0001:0001fce0       ??$_Insert_at@AEAU?$pair@$$CBV?$basic_string@DU?$char_traits@D@std@@V?$allocator@D@2@@std@@PEAUItem@Shop@@@std@@PEAU?$_Tree_node@U?$pair@$$CBV?$basic_string@DU?$char_traits@D@std@@V?$allocator@D@2@@std@@PEAUItem@Shop@@@std@@PEAX@2@@?$_Tree@V?$_Tmap_traits@V?$basic_string@DU?$char_traits@D@std@@V?$allocator@D@2@@std@@PEAUItem@Shop@@U?$less@V?$basic_string@DU?$char_traits@D@std@@V?$allocator@D@2@@std@@@2@V?$allocator@U?$pair@$$CBV?$basic_string@DU?$char_traits@D@std@@V?$allocator@D@2@@std@@PEAUItem@Shop@@@std@@@2@$0A@@std@@@std@@IEAA?AV?$_Tree_iterator@V?$_Tree_val@U?$_Tree_simple_types@U?$pair@$$CBV?$basic_string@DU?$char_traits@D@std@@V?$allocator@D@2@@std@@PEAUItem@Shop@@@std@@@std@@@std@@@1@_NPEAU?$_Tree_node@U?$pair@$$CBV?$basic_string@DU?$char_traits@D@std@@V?$allocator@D@2@@std@@PEAUItem@Shop@@@std@@PEAX@1@AEAU?$pair@$$CBV?$basic_string@DU?$char_traits@D@std@@V?$allocator@D@2@@std@@PEAUItem@Shop@@@1@1@Z 0000000140020ce0 f i Shop.obj
 0001:0001fce0       ??$_Insert_at@AEAU?$pair@$$CBV?$basic_string@DU?$char_traits@D@std@@V?$allocator@D@2@@std@@PEAVUIElement@@@std@@PEAU?$_Tree_node@U?$pair@$$CBV?$basic_string@DU?$char_traits@D@std@@V?$allocator@D@2@@std@@PEAVUIElement@@@std@@PEAX@2@@?$_Tree@V?$_Tmap_traits@V?$basic_string@DU?$char_traits@D@std@@V?$allocator@D@2@@std@@PEAVUIElement@@U?$less@V?$basic_string@DU?$char_traits@D@std@@V?$allocator@D@2@@std@@@2@V?$allocator@U?$pair@$$CBV?$basic_string@DU?$char_traits@D@std@@V?$allocator@D@2@@std@@PEAVUIElement@@@std@@@2@$0A@@std@@@std@@IEAA?AV?$_Tree_iterator@V?$_Tree_val@U?$_Tree_simple_types@U?$pair@$$CBV?$basic_string@DU?$char_traits@D@std@@V?$allocator@D@2@@std@@PEAVUIElement@@@std@@@std@@@std@@@1@_NPEAU?$_Tree_node@U?$pair@$$CBV?$basic_string@DU?$char_traits@D@std@@V?$allocator@D@2@@std@@PEAVUIElement@@@std@@PEAX@1@AEAU?$pair@$$CBV?$basic_string@DU?$char_traits@D@std@@V?$allocator@D@2@@std@@PEAVUIElement@@@1@1@Z 0000000140020ce0 f i Shop.obj
 0001:0001ff90       ??$_Insert_nohint@AEAU?$pair@$$CBV?$basic_string@DU?$char_traits@D@std@@V?$allocator@D@2@@std@@PEAVUIElement@@@std@@PEAU?$_Tree_node@U?$pair@$$CBV?$basic_string@DU?$char_traits@D@std@@V?$allocator@D@2@@std@@PEAVUIElement@@@std@@PEAX@2@@?$_Tree@V?$_Tmap_traits@V?$basic_string@DU?$char_traits@D@std@@V?$allocator@D@2@@std@@PEAVUIElement@@U?$less@V?$basic_string@DU?$char_traits@D@std@@V?$allocator@D@2@@std@@@2@V?$allocator@U?$pair@$$CBV?$basic_string@DU?$char_traits@D@std@@V?$allocator@D@2@@std@@PEAVUIElement@@@std@@@2@$0A@@std@@@std@@IEAA?AU?$pair@V?$_Tree_iterator@V?$_Tree_val@U?$_Tree_simple_types@U?$pair@$$CBV?$basic_string@DU?$char_traits@D@std@@V?$allocator@D@2@@std@@PEAVUIElement@@@std@@@std@@@std@@@std@@_N@1@_NAEAU?$pair@$$CBV?$basic_string@DU?$char_traits@D@std@@V?$allocator@D@2@@std@@PEAVUIElement@@@1@PEAU?$_Tree_node@U?$pair@$$CBV?$basic_string@DU?$char_traits@D@std@@V?$allocator@D@2@@std@@PEAVUIElement@@@std@@PEAX@1@@Z 0000000140020f90 f i Shop.obj
 0001:0001ff90       ??$_Insert_nohint@AEAU?$pair@$$CBV?$basic_string@DU?$char_traits@D@std@@V?$allocator@D@2@@std@@PEAUItem@Shop@@@std@@PEAU?$_Tree_node@U?$pair@$$CBV?$basic_string@DU?$char_traits@D@std@@V?$allocator@D@2@@std@@PEAUItem@Shop@@@std@@PEAX@2@@?$_Tree@V?$_Tmap_traits@V?$basic_string@DU?$char_traits@D@std@@V?$allocator@D@2@@std@@PEAUItem@Shop@@U?$less@V?$basic_string@DU?$char_traits@D@std@@V?$allocator@D@2@@std@@@2@V?$allocator@U?$pair@$$CBV?$basic_string@DU?$char_traits@D@std@@V?$allocator@D@2@@std@@PEAUItem@Shop@@@std@@@2@$0A@@std@@@std@@IEAA?AU?$pair@V?$_Tree_iterator@V?$_Tree_val@U?$_Tree_simple_types@U?$pair@$$CBV?$basic_string@DU?$char_traits@D@std@@V?$allocator@D@2@@std@@PEAUItem@Shop@@@std@@@std@@@std@@@std@@_N@1@_NAEAU?$pair@$$CBV?$basic_string@DU?$char_traits@D@std@@V?$allocator@D@2@@std@@PEAUItem@Shop@@@1@PEAU?$_Tree_node@U?$pair@$$CBV?$basic_string@DU?$char_traits@D@std@@V?$allocator@D@2@@std@@PEAUItem@Shop@@@std@@PEAX@1@@Z 0000000140020f90 f i Shop.obj
 0001:000201c0       ?CompileShaders@SkyboxShader@@AEAA_NPEAUID3D11Device@@PEA_W1@Z 00000001400211c0 f   SkyboxShader.obj
 0001:00020520       ?ProcessShaderErrors@SkyboxShader@@AEAAXPEAUID3D10Blob@@@Z 0000000140021520 f   SkyboxShader.obj
 0001:00020520       ?ProcessShaderErrors@StaticShader@@AEAAXPEAUID3D10Blob@@@Z 0000000140021520 f   StaticShader.obj
 0001:00020520       ?ProcessShaderErrors@AnimatedShader@@AEAAXPEAUID3D10Blob@@@Z 0000000140021520 f   shaderstuff.obj
 0001:000206a0       ??_D?$basic_ofstream@DU?$char_traits@D@std@@@std@@QEAAXXZ 00000001400216a0 f i SkyboxShader.obj
 0001:00020710       ?UpdateShaderBuffers@SkyboxShader@@AEAA_NPEAUID3D11DeviceContext@@UXMMATRIX@DirectX@@11PEAUID3D11ShaderResourceView@@@Z 0000000140021710 f   SkyboxShader.obj
 0001:00020960       ??0?$basic_ofstream@DU?$char_traits@D@std@@@std@@QEAA@XZ 0000000140021960 f i SkyboxShader.obj
 0001:00020a20       ??_E?$basic_ofstream@DU?$char_traits@D@std@@@std@@UEAAPEAXI@Z 0000000140021a20 f i * CIL library *:* CIL module *
 0001:00020a20       ??_G?$basic_ofstream@DU?$char_traits@D@std@@@std@@UEAAPEAXI@Z 0000000140021a20 f i SkyboxShader.obj
 0001:00020a60       ??$?6U?$char_traits@D@std@@@std@@YAAEAV?$basic_ostream@DU?$char_traits@D@std@@@0@AEAV10@D@Z 0000000140021a60 f i SkyboxShader.obj
 0001:00020c20       ??1sentry@?$basic_ostream@DU?$char_traits@D@std@@@std@@QEAA@XZ 0000000140021c20 f i SkyboxShader.obj
 0001:00020c70       ??1_Sentry_base@?$basic_ostream@DU?$char_traits@D@std@@@std@@QEAA@XZ 0000000140021c70 f i SkyboxShader.obj
 0001:00020ca0       ??_E?$basic_ofstream@DU?$char_traits@D@std@@@std@@$4PPPPPPPM@A@EAAPEAXI@Z 0000000140021ca0 f i SkyboxShader.obj
 0001:00020cb0       ??0Sound@@QEAA@PEADH@Z     0000000140021cb0 f   Sound.obj
 0001:00020cd0       ?Initialize@Sound@@QEAA_NPEAUHWND__@@@Z 0000000140021cd0 f   Sound.obj
 0001:00020d90       ?LoadWaveFile@Sound@@AEAA_NPEBDPEAPEAUIDirectSoundBuffer8@@@Z 0000000140021d90 f   Sound.obj
 0001:00021030       ?PlayWaveFile@Sound@@QEAA_NXZ 0000000140022030 f   Sound.obj
 0001:00021080       ?Render@StaticShader@@QEAA_NPEAUID3D11DeviceContext@@HUXMMATRIX@DirectX@@11PEAUID3D11ShaderResourceView@@UXMFLOAT3@4@UXMFLOAT4@4@QEAU74@54444444_N@Z 0000000140022080 f   StaticShader.obj
 0001:00021510       ?CompileShaders@StaticShader@@AEAA_NPEAUID3D11Device@@PEA_W1@Z 0000000140022510 f   StaticShader.obj
 0001:000218b0       ?GetPos@UIElement@@QEAA?AUfloat2@@XZ 00000001400228b0 f i UIElement.obj
 0001:000218d0       ??1UIElement@@QEAA@XZ      00000001400228d0 f   UIElement.obj
 0001:00021970       ??0TextElement@@QEAA@UtagRECT@@_N1Ufloat2@@HPEAD@Z 0000000140022970 f   UIElement.obj
 0001:00021a60       ?Update@ButtonElement@@UEAAXM@Z 0000000140022a60 f   UIElement.obj
 0001:00021b00       ?SetDefaultTexture@ButtonElement@@QEAAXPEBD@Z 0000000140022b00 f   UIElement.obj
 0001:00021c80       ?SetMouseOverTexture@ButtonElement@@QEAAXPEBD@Z 0000000140022c80 f   UIElement.obj
 0001:00021cf0       ?SetMouseClickTexture@ButtonElement@@QEAAXPEBD@Z 0000000140022cf0 f   UIElement.obj
 0001:00021d60       ??0Target@@QEAA@XZ         0000000140022d60 f   Target.obj
 0001:00021e20       ?Initialize@Target@@UEAA_NPEAUID3D11Device@@PEBDUfloat3@@@Z 0000000140022e20 f   Target.obj
 0001:00021fb0       ?Update@Target@@UEAAXMPEAVPlayer@@AEAV?$vector@PEAVBullet@@V?$allocator@PEAVBullet@@@std@@@std@@PEAUID3D11Device@@PEAUHWND__@@@Z 0000000140022fb0 f   Target.obj
 0001:00022320       ?Render@UIManager@@QEAAXAEAV?$unique_ptr@VSpriteBatch@DirectX@@U?$default_delete@VSpriteBatch@DirectX@@@std@@@std@@AEAV?$unique_ptr@VSpriteFont@DirectX@@U?$default_delete@VSpriteFont@DirectX@@@std@@@3@1@Z 0000000140023320 f   UIManager.obj
 0001:00022600       ?CreateText@UIManager@@QEAAPEAVUIElement@@UtagRECT@@_N1Ufloat2@@HPEBD@Z 0000000140023600 f   UIManager.obj
 0001:00022720       ?CreateText@UIManager@@QEAAPEAVUIElement@@UtagRECT@@_N1Ufloat2@@HV?$basic_string@DU?$char_traits@D@std@@V?$allocator@D@2@@std@@@Z 0000000140023720 f   UIManager.obj
 0001:000228c0       ?CreateImage@UIManager@@QEAAPEAVUIElement@@UtagRECT@@_N1Ufloat2@@PEBDPEAUID3D11Device@@@Z 00000001400238c0 f   UIManager.obj
 0001:00022ae0       ?CreateButton@UIManager@@QEAAPEAVUIElement@@UtagRECT@@_N1Ufloat2@@PEAUID3D11Device@@HPEBD@Z 0000000140023ae0 f   UIManager.obj
 0001:00023780       ?CreateWICTextureFromFileEx@DirectX@@YAJPEAUID3D11Device@@PEAUID3D11DeviceContext@@PEB_W_KW4D3D11_USAGE@@IIIIPEAPEAUID3D11Resource@@PEAPEAUID3D11ShaderResourceView@@@Z 0000000140024780 f   WICTextureLoader.obj
 0001:000238f0       ??1?$ComPtr@UIWICMetadataQueryReader@@@WRL@Microsoft@@QEAA@XZ 00000001400248f0 f i WICTextureLoader.obj
 0001:000238f0       ??1?$ComPtr@UIWICComponentInfo@@@WRL@Microsoft@@QEAA@XZ 00000001400248f0 f i WICTextureLoader.obj
 0001:000238f0       ??1?$ComPtr@UID3D11DepthStencilState@@@WRL@Microsoft@@QEAA@XZ 00000001400248f0 f i DirectXTK:SpriteBatch.obj
 0001:000238f0       ??1?$ComPtr@UID3D11Buffer@@@WRL@Microsoft@@QEAA@XZ 00000001400248f0 f i DirectXTK:SpriteBatch.obj
 0001:000238f0       ??1?$ComPtr@UID3D11ShaderResourceView@@@WRL@Microsoft@@QEAA@XZ 00000001400248f0 f i DirectXTK:SpriteFont.obj
 0001:000238f0       ??1?$ComPtr@UIWICFormatConverter@@@WRL@Microsoft@@QEAA@XZ 00000001400248f0 f i WICTextureLoader.obj
 0001:000238f0       ??1?$ComPtr@UID3D11RasterizerState@@@WRL@Microsoft@@QEAA@XZ 00000001400248f0 f i DirectXTK:SpriteBatch.obj
 0001:000238f0       ??1?$ComPtr@UID3D11Resource@@@WRL@Microsoft@@QEAA@XZ 00000001400248f0 f i DirectXTK:SpriteBatch.obj
 0001:000238f0       ??1?$ComPtr@UID3D11Device@@@WRL@Microsoft@@QEAA@XZ 00000001400248f0 f i DirectXTK:SpriteBatch.obj
 0001:000238f0       ??1?$ComPtr@UID3D11InputLayout@@@WRL@Microsoft@@QEAA@XZ 00000001400248f0 f i DirectXTK:SpriteBatch.obj
 0001:000238f0       ??1?$ComPtr@UIWICBitmapFrameDecode@@@WRL@Microsoft@@QEAA@XZ 00000001400248f0 f i WICTextureLoader.obj
 0001:000238f0       ??1?$ComPtr@UID3D11SamplerState@@@WRL@Microsoft@@QEAA@XZ 00000001400248f0 f i DirectXTK:SpriteBatch.obj
 0001:000238f0       ??1?$ComPtr@UIWICBitmapDecoder@@@WRL@Microsoft@@QEAA@XZ 00000001400248f0 f i WICTextureLoader.obj
 0001:000238f0       ??1?$ComPtr@UID3D11Texture2D@@@WRL@Microsoft@@QEAA@XZ 00000001400248f0 f i DirectXTK:SpriteBatch.obj
 0001:000238f0       ??1?$ComPtr@UIWICPixelFormatInfo@@@WRL@Microsoft@@QEAA@XZ 00000001400248f0 f i WICTextureLoader.obj
 0001:000238f0       ??1?$ComPtr@UID3D11BlendState@@@WRL@Microsoft@@QEAA@XZ 00000001400248f0 f i DirectXTK:SpriteBatch.obj
 0001:000238f0       ??1?$ComPtr@UIWICBitmapScaler@@@WRL@Microsoft@@QEAA@XZ 00000001400248f0 f i WICTextureLoader.obj
 0001:000238f0       ??1?$ComPtr@UID3D11VertexShader@@@WRL@Microsoft@@QEAA@XZ 00000001400248f0 f i DirectXTK:SpriteBatch.obj
 0001:000238f0       ??1?$ComPtr@UID3D11DeviceContext@@@WRL@Microsoft@@QEAA@XZ 00000001400248f0 f i DirectXTK:SpriteBatch.obj
 0001:000238f0       ??1?$ComPtr@UID3D11PixelShader@@@WRL@Microsoft@@QEAA@XZ 00000001400248f0 f i DirectXTK:SpriteBatch.obj
 0001:00023910       ??1?$unique_ptr@$$BY0A@UD3D11_SUBRESOURCE_DATA@@U?$default_delete@$$BY0A@UD3D11_SUBRESOURCE_DATA@@@std@@@std@@QEAA@XZ 0000000140024910 f i DirectXTK:DDSTextureLoader.obj
 0001:00023910       ??1?$unique_ptr@$$BY0A@EU?$default_delete@$$BY0A@E@std@@@std@@QEAA@XZ 0000000140024910 f i WICTextureLoader.obj
 0001:00023910       ??1?$unique_ptr@$$BY0A@_WU?$default_delete@$$BY0A@_W@std@@@std@@QEAA@XZ 0000000140024910 f i DirectXTK:SpriteFont.obj
 0001:00023920       ?CompileShaders@AnimatedShader@@AEAA_NPEAUID3D11Device@@PEA_W1@Z 0000000140024920 f   shaderstuff.obj
 0001:00023cc0       ?UpdateShaderBuffers@AnimatedShader@@AEAA_NPEAUID3D11DeviceContext@@UXMMATRIX@DirectX@@11PEAUID3D11ShaderResourceView@@UXMFLOAT3@4@UXMFLOAT4@4@V?$vector@V?$array@Ufloat4@@$03@std@@V?$allocator@V?$array@Ufloat4@@$03@std@@@2@@std@@QEAU74@64444444_N7@Z 0000000140024cc0 f   shaderstuff.obj
 0001:000241e0       ?Restart@XTime@@QEAAXXZ    00000001400251e0 f   XTime.obj
 0001:00024260       __scrt_exe_initialize_mta  0000000140025260 f i MSVCRT:utility_desktop.obj
 0001:00024260       __scrt_initialize_winrt    0000000140025260 f i MSVCRT:utility_desktop.obj
 0001:00024260       _get_startup_commit_mode   0000000140025260 f i MSVCRT:commit_mode.obj
 0001:00024260       _get_startup_new_mode      0000000140025260 f i MSVCRT:new_mode.obj
 0001:00024260       _matherr                   0000000140025260 f i MSVCRT:matherr.obj
 0001:00024260       ?_Get_deleter@_Ref_count_base@std@@UEBAPEAXAEBVtype_info@@@Z 0000000140025260 f i DirectXTK:SpriteBatch.obj
 0001:00024260       __scrt_stub_for_initialize_mta 0000000140025260 f i MSVCRT:utility_desktop.obj
 0001:00024260       _get_startup_thread_locale_mode 0000000140025260 f i MSVCRT:thread_locale.obj
 0001:00024270       ?_Destroy@?$_Ref_count_obj@UResourceMap@?$SharedResourcePool@PEAUID3D11Device@@UDeviceResources@Impl@SpriteBatch@DirectX@@$$V@DirectX@@@std@@EEAAXXZ 0000000140025270 f i DirectXTK:SpriteBatch.obj
 0001:00024270       ?_Destroy@?$_Ref_count_obj@UResourceMap@?$SharedResourcePool@PEAUID3D11Device@@VImpl@CommonStates@DirectX@@$$V@DirectX@@@std@@EEAAXXZ 0000000140025270 f i DirectXTK:CommonStates.obj
 0001:00024270       ?_Destroy@?$_Ref_count_obj@UResourceMap@?$SharedResourcePool@PEAUID3D11DeviceContext@@UContextResources@Impl@SpriteBatch@DirectX@@$$V@DirectX@@@std@@EEAAXXZ 0000000140025270 f i DirectXTK:SpriteBatch.obj
 0001:000242c0       ?_Delete_this@?$_Ref_count_obj@UResourceMap@?$SharedResourcePool@PEAUID3D11DeviceContext@@UContextResources@Impl@SpriteBatch@DirectX@@$$V@DirectX@@@std@@EEAAXXZ 00000001400252c0 f i DirectXTK:SpriteBatch.obj
 0001:000242c0       ?_Delete_this@?$_Ref_count_obj@UResourceMap@?$SharedResourcePool@PEAUID3D11Device@@VImpl@CommonStates@DirectX@@$$V@DirectX@@@std@@EEAAXXZ 00000001400252c0 f i DirectXTK:CommonStates.obj
 0001:000242c0       ?_Delete_this@?$_Ref_count_obj@UWrappedData@?$SharedResourcePool@PEAUID3D11Device@@VImpl@CommonStates@DirectX@@$$V@DirectX@@@std@@EEAAXXZ 00000001400252c0 f i DirectXTK:CommonStates.obj
 0001:000242c0       ?_Delete_this@?$_Ref_count_obj@UWrappedData@?$SharedResourcePool@PEAUID3D11DeviceContext@@UContextResources@Impl@SpriteBatch@DirectX@@$$V@DirectX@@@std@@EEAAXXZ 00000001400252c0 f i DirectXTK:SpriteBatch.obj
 0001:000242c0       ?_Delete_this@?$_Ref_count_obj@UWrappedData@?$SharedResourcePool@PEAUID3D11Device@@UDeviceResources@Impl@SpriteBatch@DirectX@@$$V@DirectX@@@std@@EEAAXXZ 00000001400252c0 f i DirectXTK:SpriteBatch.obj
 0001:000242c0       ?_Delete_this@?$_Ref_count_obj@UResourceMap@?$SharedResourcePool@PEAUID3D11Device@@UDeviceResources@Impl@SpriteBatch@DirectX@@$$V@DirectX@@@std@@EEAAXXZ 00000001400252c0 f i DirectXTK:SpriteBatch.obj
 0001:000242e0       ??_E?$_Ref_count_obj@UResourceMap@?$SharedResourcePool@PEAUID3D11Device@@VImpl@CommonStates@DirectX@@$$V@DirectX@@@std@@UEAAPEAXI@Z 00000001400252e0 f i DirectXTK:CommonStates.obj
 0001:000242e0       ??_G?$_Ref_count_obj@UResourceMap@?$SharedResourcePool@PEAUID3D11Device@@UDeviceResources@Impl@SpriteBatch@DirectX@@$$V@DirectX@@@std@@UEAAPEAXI@Z 00000001400252e0 f i DirectXTK:SpriteBatch.obj
 0001:000242e0       ??_E?$_Ref_count_obj@UResourceMap@?$SharedResourcePool@PEAUID3D11DeviceContext@@UContextResources@Impl@SpriteBatch@DirectX@@$$V@DirectX@@@std@@UEAAPEAXI@Z 00000001400252e0 f i DirectXTK:SpriteBatch.obj
 0001:000242e0       ??_G?$_Ref_count_obj@UResourceMap@?$SharedResourcePool@PEAUID3D11Device@@VImpl@CommonStates@DirectX@@$$V@DirectX@@@std@@UEAAPEAXI@Z 00000001400252e0 f i DirectXTK:CommonStates.obj
 0001:000242e0       ??_E?$_Ref_count_obj@UResourceMap@?$SharedResourcePool@PEAUID3D11Device@@UDeviceResources@Impl@SpriteBatch@DirectX@@$$V@DirectX@@@std@@UEAAPEAXI@Z 00000001400252e0 f i DirectXTK:SpriteBatch.obj
 0001:000242e0       ??_G?$_Ref_count_obj@UResourceMap@?$SharedResourcePool@PEAUID3D11DeviceContext@@UContextResources@Impl@SpriteBatch@DirectX@@$$V@DirectX@@@std@@UEAAPEAXI@Z 00000001400252e0 f i DirectXTK:SpriteBatch.obj
 0001:00024310       ??$_Buynode@AEAU?$pair@PEAUID3D11Device@@V?$shared_ptr@UWrappedData@?$SharedResourcePool@PEAUID3D11Device@@UDeviceResources@Impl@SpriteBatch@DirectX@@$$V@DirectX@@@std@@@std@@@?$_Tree_comp_alloc@V?$_Tmap_traits@PEAUID3D11Device@@V?$weak_ptr@UDeviceResources@Impl@SpriteBatch@DirectX@@@std@@U?$less@PEAUID3D11Device@@@3@V?$allocator@U?$pair@QEAUID3D11Device@@V?$weak_ptr@UDeviceResources@Impl@SpriteBatch@DirectX@@@std@@@std@@@3@$0A@@std@@@std@@QEAAPEAU?$_Tree_node@U?$pair@QEAUID3D11Device@@V?$weak_ptr@UDeviceResources@Impl@SpriteBatch@DirectX@@@std@@@std@@PEAX@1@AEAU?$pair@PEAUID3D11Device@@V?$shared_ptr@UWrappedData@?$SharedResourcePool@PEAUID3D11Device@@UDeviceResources@Impl@SpriteBatch@DirectX@@$$V@DirectX@@@std@@@1@@Z 0000000140025310 f i DirectXTK:SpriteBatch.obj
 0001:00024310       ??$_Buynode@AEAU?$pair@PEAUID3D11Device@@V?$shared_ptr@UWrappedData@?$SharedResourcePool@PEAUID3D11Device@@VImpl@CommonStates@DirectX@@$$V@DirectX@@@std@@@std@@@?$_Tree_comp_alloc@V?$_Tmap_traits@PEAUID3D11Device@@V?$weak_ptr@VImpl@CommonStates@DirectX@@@std@@U?$less@PEAUID3D11Device@@@3@V?$allocator@U?$pair@QEAUID3D11Device@@V?$weak_ptr@VImpl@CommonStates@DirectX@@@std@@@std@@@3@$0A@@std@@@std@@QEAAPEAU?$_Tree_node@U?$pair@QEAUID3D11Device@@V?$weak_ptr@VImpl@CommonStates@DirectX@@@std@@@std@@PEAX@1@AEAU?$pair@PEAUID3D11Device@@V?$shared_ptr@UWrappedData@?$SharedResourcePool@PEAUID3D11Device@@VImpl@CommonStates@DirectX@@$$V@DirectX@@@std@@@1@@Z 0000000140025310 f i DirectXTK:CommonStates.obj
 0001:00024310       ??$_Buynode@AEAU?$pair@PEAUID3D11DeviceContext@@V?$shared_ptr@UWrappedData@?$SharedResourcePool@PEAUID3D11DeviceContext@@UContextResources@Impl@SpriteBatch@DirectX@@$$V@DirectX@@@std@@@std@@@?$_Tree_comp_alloc@V?$_Tmap_traits@PEAUID3D11DeviceContext@@V?$weak_ptr@UContextResources@Impl@SpriteBatch@DirectX@@@std@@U?$less@PEAUID3D11DeviceContext@@@3@V?$allocator@U?$pair@QEAUID3D11DeviceContext@@V?$weak_ptr@UContextResources@Impl@SpriteBatch@DirectX@@@std@@@std@@@3@$0A@@std@@@std@@QEAAPEAU?$_Tree_node@U?$pair@QEAUID3D11DeviceContext@@V?$weak_ptr@UContextResources@Impl@SpriteBatch@DirectX@@@std@@@std@@PEAX@1@AEAU?$pair@PEAUID3D11DeviceContext@@V?$shared_ptr@UWrappedData@?$SharedResourcePool@PEAUID3D11DeviceContext@@UContextResources@Impl@SpriteBatch@DirectX@@$$V@DirectX@@@std@@@1@@Z 0000000140025310 f i DirectXTK:SpriteBatch.obj
 0001:00024370       ??$_Emplace_reallocate@AEAPEAUID3D11ShaderResourceView@@@?$vector@V?$ComPtr@UID3D11ShaderResourceView@@@WRL@Microsoft@@V?$allocator@V?$ComPtr@UID3D11ShaderResourceView@@@WRL@Microsoft@@@std@@@std@@QEAAPEAV?$ComPtr@UID3D11ShaderResourceView@@@WRL@Microsoft@@QEAV234@AEAPEAUID3D11ShaderResourceView@@@Z 0000000140025370 f i DirectXTK:SpriteBatch.obj
 0001:00024600       ??$_Emplace_reallocate@AEBF@?$vector@FV?$allocator@F@std@@@std@@QEAAPEAFQEAFAEBF@Z 0000000140025600 f i DirectXTK:SpriteBatch.obj
 0001:00024600       ??$_Emplace_reallocate@F@?$vector@FV?$allocator@F@std@@@std@@QEAAPEAFQEAF$$QEAF@Z 0000000140025600 f i DirectXTK:SpriteBatch.obj
 0001:00024c40       ??$_Insert_at@AEAU?$pair@QEAUID3D11DeviceContext@@V?$weak_ptr@UContextResources@Impl@SpriteBatch@DirectX@@@std@@@std@@PEAU?$_Tree_node@U?$pair@QEAUID3D11DeviceContext@@V?$weak_ptr@UContextResources@Impl@SpriteBatch@DirectX@@@std@@@std@@PEAX@2@@?$_Tree@V?$_Tmap_traits@PEAUID3D11DeviceContext@@V?$weak_ptr@UContextResources@Impl@SpriteBatch@DirectX@@@std@@U?$less@PEAUID3D11DeviceContext@@@3@V?$allocator@U?$pair@QEAUID3D11DeviceContext@@V?$weak_ptr@UContextResources@Impl@SpriteBatch@DirectX@@@std@@@std@@@3@$0A@@std@@@std@@IEAA?AV?$_Tree_iterator@V?$_Tree_val@U?$_Tree_simple_types@U?$pair@QEAUID3D11DeviceContext@@V?$weak_ptr@UContextResources@Impl@SpriteBatch@DirectX@@@std@@@std@@@std@@@std@@@1@_NPEAU?$_Tree_node@U?$pair@QEAUID3D11DeviceContext@@V?$weak_ptr@UContextResources@Impl@SpriteBatch@DirectX@@@std@@@std@@PEAX@1@AEAU?$pair@QEAUID3D11DeviceContext@@V?$weak_ptr@UContextResources@Impl@SpriteBatch@DirectX@@@std@@@1@1@Z 0000000140025c40 f i DirectXTK:SpriteBatch.obj
 0001:00024c40       ??$_Insert_at@AEAU?$pair@QEAUID3D11Device@@V?$weak_ptr@UDeviceResources@Impl@SpriteBatch@DirectX@@@std@@@std@@PEAU?$_Tree_node@U?$pair@QEAUID3D11Device@@V?$weak_ptr@UDeviceResources@Impl@SpriteBatch@DirectX@@@std@@@std@@PEAX@2@@?$_Tree@V?$_Tmap_traits@PEAUID3D11Device@@V?$weak_ptr@UDeviceResources@Impl@SpriteBatch@DirectX@@@std@@U?$less@PEAUID3D11Device@@@3@V?$allocator@U?$pair@QEAUID3D11Device@@V?$weak_ptr@UDeviceResources@Impl@SpriteBatch@DirectX@@@std@@@std@@@3@$0A@@std@@@std@@IEAA?AV?$_Tree_iterator@V?$_Tree_val@U?$_Tree_simple_types@U?$pair@QEAUID3D11Device@@V?$weak_ptr@UDeviceResources@Impl@SpriteBatch@DirectX@@@std@@@std@@@std@@@std@@@1@_NPEAU?$_Tree_node@U?$pair@QEAUID3D11Device@@V?$weak_ptr@UDeviceResources@Impl@SpriteBatch@DirectX@@@std@@@std@@PEAX@1@AEAU?$pair@QEAUID3D11Device@@V?$weak_ptr@UDeviceResources@Impl@SpriteBatch@DirectX@@@std@@@1@1@Z 0000000140025c40 f i DirectXTK:SpriteBatch.obj
 0001:00024c40       ??$_Insert_at@AEAU?$pair@QEAUID3D11Device@@V?$weak_ptr@VImpl@CommonStates@DirectX@@@std@@@std@@PEAU?$_Tree_node@U?$pair@QEAUID3D11Device@@V?$weak_ptr@VImpl@CommonStates@DirectX@@@std@@@std@@PEAX@2@@?$_Tree@V?$_Tmap_traits@PEAUID3D11Device@@V?$weak_ptr@VImpl@CommonStates@DirectX@@@std@@U?$less@PEAUID3D11Device@@@3@V?$allocator@U?$pair@QEAUID3D11Device@@V?$weak_ptr@VImpl@CommonStates@DirectX@@@std@@@std@@@3@$0A@@std@@@std@@IEAA?AV?$_Tree_iterator@V?$_Tree_val@U?$_Tree_simple_types@U?$pair@QEAUID3D11Device@@V?$weak_ptr@VImpl@CommonStates@DirectX@@@std@@@std@@@std@@@std@@@1@_NPEAU?$_Tree_node@U?$pair@QEAUID3D11Device@@V?$weak_ptr@VImpl@CommonStates@DirectX@@@std@@@std@@PEAX@1@AEAU?$pair@QEAUID3D11Device@@V?$weak_ptr@VImpl@CommonStates@DirectX@@@std@@@1@1@Z 0000000140025c40 f i DirectXTK:CommonStates.obj
 0001:00024ec0       ??$_Insert_nohint@AEAU?$pair@QEAUID3D11DeviceContext@@V?$weak_ptr@UContextResources@Impl@SpriteBatch@DirectX@@@std@@@std@@PEAU?$_Tree_node@U?$pair@QEAUID3D11DeviceContext@@V?$weak_ptr@UContextResources@Impl@SpriteBatch@DirectX@@@std@@@std@@PEAX@2@@?$_Tree@V?$_Tmap_traits@PEAUID3D11DeviceContext@@V?$weak_ptr@UContextResources@Impl@SpriteBatch@DirectX@@@std@@U?$less@PEAUID3D11DeviceContext@@@3@V?$allocator@U?$pair@QEAUID3D11DeviceContext@@V?$weak_ptr@UContextResources@Impl@SpriteBatch@DirectX@@@std@@@std@@@3@$0A@@std@@@std@@IEAA?AU?$pair@V?$_Tree_iterator@V?$_Tree_val@U?$_Tree_simple_types@U?$pair@QEAUID3D11DeviceContext@@V?$weak_ptr@UContextResources@Impl@SpriteBatch@DirectX@@@std@@@std@@@std@@@std@@@std@@_N@1@_NAEAU?$pair@QEAUID3D11DeviceContext@@V?$weak_ptr@UContextResources@Impl@SpriteBatch@DirectX@@@std@@@1@PEAU?$_Tree_node@U?$pair@QEAUID3D11DeviceContext@@V?$weak_ptr@UContextResources@Impl@SpriteBatch@DirectX@@@std@@@std@@PEAX@1@@Z 0000000140025ec0 f i DirectXTK:SpriteBatch.obj
 0001:00024ec0       ??$_Insert_nohint@AEAU?$pair@QEAUID3D11Device@@V?$weak_ptr@VImpl@CommonStates@DirectX@@@std@@@std@@PEAU?$_Tree_node@U?$pair@QEAUID3D11Device@@V?$weak_ptr@VImpl@CommonStates@DirectX@@@std@@@std@@PEAX@2@@?$_Tree@V?$_Tmap_traits@PEAUID3D11Device@@V?$weak_ptr@VImpl@CommonStates@DirectX@@@std@@U?$less@PEAUID3D11Device@@@3@V?$allocator@U?$pair@QEAUID3D11Device@@V?$weak_ptr@VImpl@CommonStates@DirectX@@@std@@@std@@@3@$0A@@std@@@std@@IEAA?AU?$pair@V?$_Tree_iterator@V?$_Tree_val@U?$_Tree_simple_types@U?$pair@QEAUID3D11Device@@V?$weak_ptr@VImpl@CommonStates@DirectX@@@std@@@std@@@std@@@std@@@std@@_N@1@_NAEAU?$pair@QEAUID3D11Device@@V?$weak_ptr@VImpl@CommonStates@DirectX@@@std@@@1@PEAU?$_Tree_node@U?$pair@QEAUID3D11Device@@V?$weak_ptr@VImpl@CommonStates@DirectX@@@std@@@std@@PEAX@1@@Z 0000000140025ec0 f i DirectXTK:CommonStates.obj
 0001:00024ec0       ??$_Insert_nohint@AEAU?$pair@QEAUID3D11Device@@V?$weak_ptr@UDeviceResources@Impl@SpriteBatch@DirectX@@@std@@@std@@PEAU?$_Tree_node@U?$pair@QEAUID3D11Device@@V?$weak_ptr@UDeviceResources@Impl@SpriteBatch@DirectX@@@std@@@std@@PEAX@2@@?$_Tree@V?$_Tmap_traits@PEAUID3D11Device@@V?$weak_ptr@UDeviceResources@Impl@SpriteBatch@DirectX@@@std@@U?$less@PEAUID3D11Device@@@3@V?$allocator@U?$pair@QEAUID3D11Device@@V?$weak_ptr@UDeviceResources@Impl@SpriteBatch@DirectX@@@std@@@std@@@3@$0A@@std@@@std@@IEAA?AU?$pair@V?$_Tree_iterator@V?$_Tree_val@U?$_Tree_simple_types@U?$pair@QEAUID3D11Device@@V?$weak_ptr@UDeviceResources@Impl@SpriteBatch@DirectX@@@std@@@std@@@std@@@std@@@std@@_N@1@_NAEAU?$pair@QEAUID3D11Device@@V?$weak_ptr@UDeviceResources@Impl@SpriteBatch@DirectX@@@std@@@1@PEAU?$_Tree_node@U?$pair@QEAUID3D11Device@@V?$weak_ptr@UDeviceResources@Impl@SpriteBatch@DirectX@@@std@@@std@@PEAX@1@@Z 0000000140025ec0 f i DirectXTK:SpriteBatch.obj
 0001:000258a0       ??$_Resize@V<lambda_e8c6c8b564571a11716b943a92ab7d7d>@@@?$vector@PEBUSpriteInfo@Impl@SpriteBatch@DirectX@@V?$allocator@PEBUSpriteInfo@Impl@SpriteBatch@DirectX@@@std@@@std@@AEAAX_KV<lambda_e8c6c8b564571a11716b943a92ab7d7d>@@@Z 00000001400268a0 f i DirectXTK:SpriteBatch.obj
 0001:000263b0       ??$make_unique@VImpl@SpriteBatch@DirectX@@AEAPEAUID3D11DeviceContext@@$0A@@std@@YA?AV?$unique_ptr@VImpl@SpriteBatch@DirectX@@U?$default_delete@VImpl@SpriteBatch@DirectX@@@std@@@0@AEAPEAUID3D11DeviceContext@@@Z 00000001400273b0 f i DirectXTK:SpriteBatch.obj
 0001:00026520       ??$sprintf_s@$0EA@@@YAHAEAY0EA@DPEBDZZ 0000000140027520 f i DirectXTK:SpriteBatch.obj
 0001:00026580       ??0ContextResources@Impl@SpriteBatch@DirectX@@QEAA@PEAUID3D11DeviceContext@@@Z 0000000140027580 f   DirectXTK:SpriteBatch.obj
 0001:00026740       ??0DeviceResources@Impl@SpriteBatch@DirectX@@QEAA@PEAUID3D11Device@@@Z 0000000140027740 f   DirectXTK:SpriteBatch.obj
 0001:000269a0       ??0SpriteBatch@DirectX@@QEAA@PEAUID3D11DeviceContext@@@Z 00000001400279a0 f   DirectXTK:SpriteBatch.obj
 0001:000269f0       ??0bad_alloc@std@@QEAA@AEBV01@@Z 00000001400279f0 f i DirectXTK:SpriteBatch.obj
 0001:00026a30       ??0bad_alloc@std@@QEAA@XZ  0000000140027a30 f i DirectXTK:SpriteBatch.obj
 0001:00026a60       ??0com_exception@DirectX@@QEAA@AEBV01@@Z 0000000140027a60 f i DirectXTK:SpriteBatch.obj
 0001:00026ab0       ??0com_exception@DirectX@@QEAA@J@Z 0000000140027ab0 f i DirectXTK:SpriteBatch.obj
 0001:00026ad0       ??0exception@std@@QEAA@QEBD@Z 0000000140027ad0 f i DirectXTK:SpriteBatch.obj
 0001:00026b30       ??1?$ConstantBuffer@UXMMATRIX@DirectX@@@DirectX@@QEAA@XZ 0000000140027b30 f i DirectXTK:SpriteBatch.obj
 0001:00026b60       ??1?$lock_guard@Vmutex@std@@@std@@QEAA@XZ 0000000140027b60 f i DirectXTK:SpriteBatch.obj
 0001:00026b90       ??1?$pair@PEAUID3D11DeviceContext@@V?$shared_ptr@UWrappedData@?$SharedResourcePool@PEAUID3D11DeviceContext@@UContextResources@Impl@SpriteBatch@DirectX@@$$V@DirectX@@@std@@@std@@QEAA@XZ 0000000140027b90 f i DirectXTK:SpriteBatch.obj
 0001:00026b90       ??1?$pair@PEAUID3D11Device@@V?$shared_ptr@UWrappedData@?$SharedResourcePool@PEAUID3D11Device@@VImpl@CommonStates@DirectX@@$$V@DirectX@@@std@@@std@@QEAA@XZ 0000000140027b90 f i DirectXTK:CommonStates.obj
 0001:00026b90       ??1?$pair@PEAUID3D11Device@@V?$shared_ptr@UWrappedData@?$SharedResourcePool@PEAUID3D11Device@@UDeviceResources@Impl@SpriteBatch@DirectX@@$$V@DirectX@@@std@@@std@@QEAA@XZ 0000000140027b90 f i DirectXTK:SpriteBatch.obj
 0001:00026be0       ??1?$shared_ptr@UDeviceResources@Impl@SpriteBatch@DirectX@@@std@@QEAA@XZ 0000000140027be0 f i DirectXTK:SpriteBatch.obj
 0001:00026be0       ??1?$shared_ptr@UWrappedData@?$SharedResourcePool@PEAUID3D11DeviceContext@@UContextResources@Impl@SpriteBatch@DirectX@@$$V@DirectX@@@std@@QEAA@XZ 0000000140027be0 f i DirectXTK:SpriteBatch.obj
 0001:00026be0       ??1?$shared_ptr@UWrappedData@?$SharedResourcePool@PEAUID3D11Device@@VImpl@CommonStates@DirectX@@$$V@DirectX@@@std@@QEAA@XZ 0000000140027be0 f i DirectXTK:CommonStates.obj
 0001:00026be0       ??1?$shared_ptr@UWrappedData@?$SharedResourcePool@PEAUID3D11Device@@UDeviceResources@Impl@SpriteBatch@DirectX@@$$V@DirectX@@@std@@QEAA@XZ 0000000140027be0 f i DirectXTK:SpriteBatch.obj
 0001:00026c30       ??1?$unique_ptr@$$BY0A@USpriteInfo@Impl@SpriteBatch@DirectX@@U?$default_delete@$$BY0A@USpriteInfo@Impl@SpriteBatch@DirectX@@@std@@@std@@QEAA@XZ 0000000140027c30 f i DirectXTK:SpriteBatch.obj
 0001:00026c40       ??1?$vector@FV?$allocator@F@std@@@std@@QEAA@XZ 0000000140027c40 f i DirectXTK:SpriteBatch.obj
 0001:00026ca0       ??1?$vector@V?$ComPtr@UID3D11ShaderResourceView@@@WRL@Microsoft@@V?$allocator@V?$ComPtr@UID3D11ShaderResourceView@@@WRL@Microsoft@@@std@@@std@@QEAA@XZ 0000000140027ca0 f i DirectXTK:SpriteBatch.obj
 0001:00026d50       ??1DeviceResources@Impl@SpriteBatch@DirectX@@QEAA@XZ 0000000140027d50 f i DirectXTK:SpriteBatch.obj
 0001:00026dd0       ??1Impl@SpriteBatch@DirectX@@QEAA@XZ 0000000140027dd0 f i DirectXTK:SpriteBatch.obj
 0001:00026f60       ??1WrappedData@?$SharedResourcePool@PEAUID3D11DeviceContext@@UContextResources@Impl@SpriteBatch@DirectX@@$$V@DirectX@@QEAA@XZ 0000000140027f60 f i DirectXTK:SpriteBatch.obj
 0001:000270a0       ??1overflow_error@std@@UEAA@XZ 00000001400280a0 f i DirectXTK:SpriteFont.obj
 0001:000270a0       ??1com_exception@DirectX@@UEAA@XZ 00000001400280a0 f i DirectXTK:SpriteBatch.obj
 0001:000270a0       ??1bad_array_new_length@std@@UEAA@XZ 00000001400280a0 f i MSVCRT:throw_bad_alloc.obj
 0001:000270a0       ??1bad_alloc@std@@UEAA@XZ  00000001400280a0 f i DirectXTK:SpriteBatch.obj
 0001:000270c0       ??3?$AlignedNew@VImpl@SpriteBatch@DirectX@@@DirectX@@SAXPEAX@Z 00000001400280c0 f i DirectXTK:SpriteBatch.obj
 0001:000270d0       ??_E?$_Ref_count_obj@UWrappedData@?$SharedResourcePool@PEAUID3D11Device@@UDeviceResources@Impl@SpriteBatch@DirectX@@$$V@DirectX@@@std@@UEAAPEAXI@Z 00000001400280d0 f i DirectXTK:SpriteBatch.obj
 0001:000270d0       ??_G?$_Ref_count_obj@UWrappedData@?$SharedResourcePool@PEAUID3D11Device@@UDeviceResources@Impl@SpriteBatch@DirectX@@$$V@DirectX@@@std@@UEAAPEAXI@Z 00000001400280d0 f i DirectXTK:SpriteBatch.obj
 0001:00027100       ??_G?$_Ref_count_obj@UWrappedData@?$SharedResourcePool@PEAUID3D11DeviceContext@@UContextResources@Impl@SpriteBatch@DirectX@@$$V@DirectX@@@std@@UEAAPEAXI@Z 0000000140028100 f i DirectXTK:SpriteBatch.obj
 0001:00027100       ??_E?$_Ref_count_obj@UWrappedData@?$SharedResourcePool@PEAUID3D11DeviceContext@@UContextResources@Impl@SpriteBatch@DirectX@@$$V@DirectX@@@std@@UEAAPEAXI@Z 0000000140028100 f i DirectXTK:SpriteBatch.obj
 0001:00027130       ??_ESpriteBatch@DirectX@@UEAAPEAXI@Z 0000000140028130 f i DirectXTK:SpriteBatch.obj
 0001:00027130       ??_GSpriteBatch@DirectX@@UEAAPEAXI@Z 0000000140028130 f i DirectXTK:SpriteBatch.obj
 0001:00027190       ??_Eoverflow_error@std@@UEAAPEAXI@Z 0000000140028190 f i DirectXTK:SpriteFont.obj
 0001:00027190       ??_Eruntime_error@std@@UEAAPEAXI@Z 0000000140028190 f i DirectXTK:SpriteFont.obj
 0001:00027190       ??_Gbad_array_new_length@std@@UEAAPEAXI@Z 0000000140028190 f i MSVCRT:throw_bad_alloc.obj
 0001:00027190       ??_Gbad_alloc@std@@UEAAPEAXI@Z 0000000140028190 f i DirectXTK:SpriteBatch.obj
 0001:00027190       ??_Gruntime_error@std@@UEAAPEAXI@Z 0000000140028190 f i DirectXTK:SpriteFont.obj
 0001:00027190       ??_Ebad_array_new_length@std@@UEAAPEAXI@Z 0000000140028190 f i MSVCRT:throw_bad_alloc.obj
 0001:00027190       ??_Goverflow_error@std@@UEAAPEAXI@Z 0000000140028190 f i DirectXTK:SpriteFont.obj
 0001:00027190       ??_Ebad_alloc@std@@UEAAPEAXI@Z 0000000140028190 f i DirectXTK:SpriteBatch.obj
 0001:000271e0       ??_Gcom_exception@DirectX@@UEAAPEAXI@Z 00000001400281e0 f i DirectXTK:SpriteBatch.obj
 0001:000271e0       ??_Ecom_exception@DirectX@@UEAAPEAXI@Z 00000001400281e0 f i DirectXTK:SpriteBatch.obj
 0001:00027230       ?Begin@Impl@SpriteBatch@DirectX@@QEAQXW4SpriteSortMode@3@PEAUID3D11BlendState@@PEAUID3D11SamplerState@@PEAUID3D11DepthStencilState@@PEAUID3D11RasterizerState@@AEAV?$function@$$A6AXXZ@std@@UXMMATRIX@3@@Z 0000000140028230 f   DirectXTK:SpriteBatch.obj
 0001:00027500       ?Begin@SpriteBatch@DirectX@@QEAQXW4SpriteSortMode@2@PEAUID3D11BlendState@@PEAUID3D11SamplerState@@PEAUID3D11DepthStencilState@@PEAUID3D11RasterizerState@@V?$function@$$A6AXXZ@std@@UXMMATRIX@2@@Z 0000000140028500 f   DirectXTK:SpriteBatch.obj
 0001:00027560       ?CreateIndexValues@DeviceResources@Impl@SpriteBatch@DirectX@@CA?AV?$vector@FV?$allocator@F@std@@@std@@XZ 0000000140028560 f   DirectXTK:SpriteBatch.obj
 0001:000276e0       ?DemandCreate@?$SharedResourcePool@PEAUID3D11Device@@UDeviceResources@Impl@SpriteBatch@DirectX@@$$V@DirectX@@QEAA?AV?$shared_ptr@UDeviceResources@Impl@SpriteBatch@DirectX@@@std@@PEAUID3D11Device@@@Z 00000001400286e0 f i DirectXTK:SpriteBatch.obj
 0001:00027980       ?DemandCreate@?$SharedResourcePool@PEAUID3D11DeviceContext@@UContextResources@Impl@SpriteBatch@DirectX@@$$V@DirectX@@QEAA?AV?$shared_ptr@UContextResources@Impl@SpriteBatch@DirectX@@@std@@PEAUID3D11DeviceContext@@@Z 0000000140028980 f i DirectXTK:SpriteBatch.obj
 0001:00027c20       ?Draw@Impl@SpriteBatch@DirectX@@QEAQXPEAUID3D11ShaderResourceView@@T__m128@@PEBUtagRECT@@11H@Z 0000000140028c20 f   DirectXTK:SpriteBatch.obj
 0001:00027ed0       ?Draw@SpriteBatch@DirectX@@QEAQXPEAUID3D11ShaderResourceView@@AEBUtagRECT@@T__m128@@@Z 0000000140028ed0 f   DirectXTK:SpriteBatch.obj
 0001:00027f10       ?Draw@SpriteBatch@DirectX@@QEAQXPEAUID3D11ShaderResourceView@@T__m128@@PEBUtagRECT@@1M11W4SpriteEffects@2@M@Z 0000000140028f10 f   DirectXTK:SpriteBatch.obj
 0001:00027f60       ?End@SpriteBatch@DirectX@@QEAAXXZ 0000000140028f60 f   DirectXTK:SpriteBatch.obj
 0001:00028020       ?FlushBatch@Impl@SpriteBatch@DirectX@@AEAAXXZ 0000000140029020 f   DirectXTK:SpriteBatch.obj
 0001:000281c0       ?GetViewportTransform@Impl@SpriteBatch@DirectX@@AEAA?AUXMMATRIX@3@PEAUID3D11DeviceContext@@W4DXGI_MODE_ROTATION@@@Z 00000001400291c0 f   DirectXTK:SpriteBatch.obj
 0001:00028370       ?PrepareForRendering@Impl@SpriteBatch@DirectX@@AEAAXXZ 0000000140029370 f   DirectXTK:SpriteBatch.obj
 0001:000286d0       ?RenderBatch@Impl@SpriteBatch@DirectX@@AEAAXPEAUID3D11ShaderResourceView@@PEBQEBUSpriteInfo@123@_K@Z 00000001400296d0 f   DirectXTK:SpriteBatch.obj
 0001:00028980       ?RenderSprite@Impl@SpriteBatch@DirectX@@CQXPEBUSpriteInfo@123@PEAUVertexPositionColorTexture@3@T__m128@@2@Z 0000000140029980 f   DirectXTK:SpriteBatch.obj
 0001:00028c30       ?_Buyheadnode@?$_Tree_comp_alloc@V?$_Tmap_traits@PEAUID3D11DeviceContext@@V?$weak_ptr@UContextResources@Impl@SpriteBatch@DirectX@@@std@@U?$less@PEAUID3D11DeviceContext@@@3@V?$allocator@U?$pair@QEAUID3D11DeviceContext@@V?$weak_ptr@UContextResources@Impl@SpriteBatch@DirectX@@@std@@@std@@@3@$0A@@std@@@std@@QEAAPEAU?$_Tree_node@U?$pair@QEAUID3D11DeviceContext@@V?$weak_ptr@UContextResources@Impl@SpriteBatch@DirectX@@@std@@@std@@PEAX@2@XZ 0000000140029c30 f i DirectXTK:SpriteBatch.obj
 0001:00028c30       ?_Buyheadnode@?$_Tree_comp_alloc@V?$_Tmap_traits@PEAUID3D11Device@@V?$weak_ptr@UDeviceResources@Impl@SpriteBatch@DirectX@@@std@@U?$less@PEAUID3D11Device@@@3@V?$allocator@U?$pair@QEAUID3D11Device@@V?$weak_ptr@UDeviceResources@Impl@SpriteBatch@DirectX@@@std@@@std@@@3@$0A@@std@@@std@@QEAAPEAU?$_Tree_node@U?$pair@QEAUID3D11Device@@V?$weak_ptr@UDeviceResources@Impl@SpriteBatch@DirectX@@@std@@@std@@PEAX@2@XZ 0000000140029c30 f i DirectXTK:SpriteBatch.obj
 0001:00028c30       ?_Buyheadnode@?$_Tree_comp_alloc@V?$_Tmap_traits@PEAUID3D11Device@@V?$weak_ptr@VImpl@CommonStates@DirectX@@@std@@U?$less@PEAUID3D11Device@@@3@V?$allocator@U?$pair@QEAUID3D11Device@@V?$weak_ptr@VImpl@CommonStates@DirectX@@@std@@@std@@@3@$0A@@std@@@std@@QEAAPEAU?$_Tree_node@U?$pair@QEAUID3D11Device@@V?$weak_ptr@VImpl@CommonStates@DirectX@@@std@@@std@@PEAX@2@XZ 0000000140029c30 f i DirectXTK:CommonStates.obj
 0001:00028c70       ?_Buynode0@?$_Tree_comp_alloc@V?$_Tmap_traits@PEAUID3D11Device@@V?$weak_ptr@VImpl@CommonStates@DirectX@@@std@@U?$less@PEAUID3D11Device@@@3@V?$allocator@U?$pair@QEAUID3D11Device@@V?$weak_ptr@VImpl@CommonStates@DirectX@@@std@@@std@@@3@$0A@@std@@@std@@QEAAPEAU?$_Tree_node@U?$pair@QEAUID3D11Device@@V?$weak_ptr@VImpl@CommonStates@DirectX@@@std@@@std@@PEAX@2@XZ 0000000140029c70 f i DirectXTK:CommonStates.obj
 0001:00028c70       ?_Buynode0@?$_Tree_comp_alloc@V?$_Tmap_traits@PEAUID3D11Device@@V?$weak_ptr@UDeviceResources@Impl@SpriteBatch@DirectX@@@std@@U?$less@PEAUID3D11Device@@@3@V?$allocator@U?$pair@QEAUID3D11Device@@V?$weak_ptr@UDeviceResources@Impl@SpriteBatch@DirectX@@@std@@@std@@@3@$0A@@std@@@std@@QEAAPEAU?$_Tree_node@U?$pair@QEAUID3D11Device@@V?$weak_ptr@UDeviceResources@Impl@SpriteBatch@DirectX@@@std@@@std@@PEAX@2@XZ 0000000140029c70 f i DirectXTK:SpriteBatch.obj
 0001:00028c70       ?_Buynode0@?$_Tree_comp_alloc@V?$_Tmap_traits@PEAUID3D11DeviceContext@@V?$weak_ptr@UContextResources@Impl@SpriteBatch@DirectX@@@std@@U?$less@PEAUID3D11DeviceContext@@@3@V?$allocator@U?$pair@QEAUID3D11DeviceContext@@V?$weak_ptr@UContextResources@Impl@SpriteBatch@DirectX@@@std@@@std@@@3@$0A@@std@@@std@@QEAAPEAU?$_Tree_node@U?$pair@QEAUID3D11DeviceContext@@V?$weak_ptr@UContextResources@Impl@SpriteBatch@DirectX@@@std@@@std@@PEAX@2@XZ 0000000140029c70 f i DirectXTK:SpriteBatch.obj
 0001:00028cb0       ?_Change_array@?$vector@FV?$allocator@F@std@@@std@@AEAAXQEAF_K1@Z 0000000140029cb0 f i DirectXTK:SpriteBatch.obj
 0001:00028d40       ?_Destroy@?$_Ref_count_obj@UWrappedData@?$SharedResourcePool@PEAUID3D11Device@@UDeviceResources@Impl@SpriteBatch@DirectX@@$$V@DirectX@@@std@@EEAAXXZ 0000000140029d40 f i DirectXTK:SpriteBatch.obj
 0001:00028e40       ?_Destroy@?$_Ref_count_obj@UWrappedData@?$SharedResourcePool@PEAUID3D11DeviceContext@@UContextResources@Impl@SpriteBatch@DirectX@@$$V@DirectX@@@std@@EEAAXXZ 0000000140029e40 f i DirectXTK:SpriteBatch.obj
 0001:00028e50       ?_Destroy@?$vector@V?$ComPtr@UID3D11ShaderResourceView@@@WRL@Microsoft@@V?$allocator@V?$ComPtr@UID3D11ShaderResourceView@@@WRL@Microsoft@@@std@@@std@@AEAAXPEAV?$ComPtr@UID3D11ShaderResourceView@@@WRL@Microsoft@@0@Z 0000000140029e50 f i DirectXTK:SpriteBatch.obj
 0001:00028ea0       ?_Destroy_if_node@?$_Tree@V?$_Tmap_traits@PEAUID3D11DeviceContext@@V?$weak_ptr@UContextResources@Impl@SpriteBatch@DirectX@@@std@@U?$less@PEAUID3D11DeviceContext@@@3@V?$allocator@U?$pair@QEAUID3D11DeviceContext@@V?$weak_ptr@UContextResources@Impl@SpriteBatch@DirectX@@@std@@@std@@@3@$0A@@std@@@std@@IEAAXPEAU?$_Tree_node@U?$pair@QEAUID3D11DeviceContext@@V?$weak_ptr@UContextResources@Impl@SpriteBatch@DirectX@@@std@@@std@@PEAX@2@@Z 0000000140029ea0 f i DirectXTK:SpriteBatch.obj
 0001:00028ea0       ?_Destroy_if_node@?$_Tree@V?$_Tmap_traits@PEAUID3D11Device@@V?$weak_ptr@UDeviceResources@Impl@SpriteBatch@DirectX@@@std@@U?$less@PEAUID3D11Device@@@3@V?$allocator@U?$pair@QEAUID3D11Device@@V?$weak_ptr@UDeviceResources@Impl@SpriteBatch@DirectX@@@std@@@std@@@3@$0A@@std@@@std@@IEAAXPEAU?$_Tree_node@U?$pair@QEAUID3D11Device@@V?$weak_ptr@UDeviceResources@Impl@SpriteBatch@DirectX@@@std@@@std@@PEAX@2@@Z 0000000140029ea0 f i DirectXTK:SpriteBatch.obj
 0001:00028ea0       ?_Destroy_if_node@?$_Tree@V?$_Tmap_traits@PEAUID3D11Device@@V?$weak_ptr@VImpl@CommonStates@DirectX@@@std@@U?$less@PEAUID3D11Device@@@3@V?$allocator@U?$pair@QEAUID3D11Device@@V?$weak_ptr@VImpl@CommonStates@DirectX@@@std@@@std@@@3@$0A@@std@@@std@@IEAAXPEAU?$_Tree_node@U?$pair@QEAUID3D11Device@@V?$weak_ptr@VImpl@CommonStates@DirectX@@@std@@@std@@PEAX@2@@Z 0000000140029ea0 f i DirectXTK:CommonStates.obj
 0001:00028ee0       ?_Erase@?$_Tree@V?$_Tmap_traits@PEAUID3D11DeviceContext@@V?$weak_ptr@UContextResources@Impl@SpriteBatch@DirectX@@@std@@U?$less@PEAUID3D11DeviceContext@@@3@V?$allocator@U?$pair@QEAUID3D11DeviceContext@@V?$weak_ptr@UContextResources@Impl@SpriteBatch@DirectX@@@std@@@std@@@3@$0A@@std@@@std@@IEAAXPEAU?$_Tree_node@U?$pair@QEAUID3D11DeviceContext@@V?$weak_ptr@UContextResources@Impl@SpriteBatch@DirectX@@@std@@@std@@PEAX@2@@Z 0000000140029ee0 f i DirectXTK:SpriteBatch.obj
 0001:00028ee0       ?_Erase@?$_Tree@V?$_Tmap_traits@PEAUID3D11Device@@V?$weak_ptr@VImpl@CommonStates@DirectX@@@std@@U?$less@PEAUID3D11Device@@@3@V?$allocator@U?$pair@QEAUID3D11Device@@V?$weak_ptr@VImpl@CommonStates@DirectX@@@std@@@std@@@3@$0A@@std@@@std@@IEAAXPEAU?$_Tree_node@U?$pair@QEAUID3D11Device@@V?$weak_ptr@VImpl@CommonStates@DirectX@@@std@@@std@@PEAX@2@@Z 0000000140029ee0 f i DirectXTK:CommonStates.obj
 0001:00028ee0       ?_Erase@?$_Tree@V?$_Tmap_traits@PEAUID3D11Device@@V?$weak_ptr@UDeviceResources@Impl@SpriteBatch@DirectX@@@std@@U?$less@PEAUID3D11Device@@@3@V?$allocator@U?$pair@QEAUID3D11Device@@V?$weak_ptr@UDeviceResources@Impl@SpriteBatch@DirectX@@@std@@@std@@@3@$0A@@std@@@std@@IEAAXPEAU?$_Tree_node@U?$pair@QEAUID3D11Device@@V?$weak_ptr@UDeviceResources@Impl@SpriteBatch@DirectX@@@std@@@std@@PEAX@2@@Z 0000000140029ee0 f i DirectXTK:SpriteBatch.obj
 0001:00028f60       ?_Extract@?$_Tree_val@U?$_Tree_simple_types@U?$pair@QEAUID3D11Device@@V?$weak_ptr@VImpl@CommonStates@DirectX@@@std@@@std@@@std@@@std@@QEAAPEAU?$_Tree_node@U?$pair@QEAUID3D11Device@@V?$weak_ptr@VImpl@CommonStates@DirectX@@@std@@@std@@PEAX@2@V?$_Tree_const_iterator@V?$_Tree_val@U?$_Tree_simple_types@U?$pair@QEAUID3D11Device@@V?$weak_ptr@VImpl@CommonStates@DirectX@@@std@@@std@@@std@@@std@@@2@@Z 0000000140029f60 f i DirectXTK:CommonStates.obj
 0001:00028f60       ?_Extract@?$_Tree_val@U?$_Tree_simple_types@U?$pair@QEAUID3D11DeviceContext@@V?$weak_ptr@UContextResources@Impl@SpriteBatch@DirectX@@@std@@@std@@@std@@@std@@QEAAPEAU?$_Tree_node@U?$pair@QEAUID3D11DeviceContext@@V?$weak_ptr@UContextResources@Impl@SpriteBatch@DirectX@@@std@@@std@@PEAX@2@V?$_Tree_const_iterator@V?$_Tree_val@U?$_Tree_simple_types@U?$pair@QEAUID3D11DeviceContext@@V?$weak_ptr@UContextResources@Impl@SpriteBatch@DirectX@@@std@@@std@@@std@@@std@@@2@@Z 0000000140029f60 f i DirectXTK:SpriteBatch.obj
 0001:00028f60       ?_Extract@?$_Tree_val@U?$_Tree_simple_types@U?$pair@QEAUID3D11Device@@V?$weak_ptr@UDeviceResources@Impl@SpriteBatch@DirectX@@@std@@@std@@@std@@@std@@QEAAPEAU?$_Tree_node@U?$pair@QEAUID3D11Device@@V?$weak_ptr@UDeviceResources@Impl@SpriteBatch@DirectX@@@std@@@std@@PEAX@2@V?$_Tree_const_iterator@V?$_Tree_val@U?$_Tree_simple_types@U?$pair@QEAUID3D11Device@@V?$weak_ptr@UDeviceResources@Impl@SpriteBatch@DirectX@@@std@@@std@@@std@@@std@@@2@@Z 0000000140029f60 f i DirectXTK:SpriteBatch.obj
 0001:000292c0       ?_Freenode0@?$_Tree_comp_alloc@V?$_Tmap_traits@PEAUID3D11DeviceContext@@V?$weak_ptr@UContextResources@Impl@SpriteBatch@DirectX@@@std@@U?$less@PEAUID3D11DeviceContext@@@3@V?$allocator@U?$pair@QEAUID3D11DeviceContext@@V?$weak_ptr@UContextResources@Impl@SpriteBatch@DirectX@@@std@@@std@@@3@$0A@@std@@@std@@QEAAXPEAU?$_Tree_node@U?$pair@QEAUID3D11DeviceContext@@V?$weak_ptr@UContextResources@Impl@SpriteBatch@DirectX@@@std@@@std@@PEAX@2@@Z 000000014002a2c0 f i DirectXTK:SpriteBatch.obj
 0001:000292c0       ?_Freenode0@?$_Tree_comp_alloc@V?$_Tmap_traits@PEAUID3D11Device@@V?$weak_ptr@UDeviceResources@Impl@SpriteBatch@DirectX@@@std@@U?$less@PEAUID3D11Device@@@3@V?$allocator@U?$pair@QEAUID3D11Device@@V?$weak_ptr@UDeviceResources@Impl@SpriteBatch@DirectX@@@std@@@std@@@3@$0A@@std@@@std@@QEAAXPEAU?$_Tree_node@U?$pair@QEAUID3D11Device@@V?$weak_ptr@UDeviceResources@Impl@SpriteBatch@DirectX@@@std@@@std@@PEAX@2@@Z 000000014002a2c0 f i DirectXTK:SpriteBatch.obj
 0001:000292c0       ?_Freenode0@?$_Tree_comp_alloc@V?$_Tmap_traits@PEAUID3D11Device@@V?$weak_ptr@VImpl@CommonStates@DirectX@@@std@@U?$less@PEAUID3D11Device@@@3@V?$allocator@U?$pair@QEAUID3D11Device@@V?$weak_ptr@VImpl@CommonStates@DirectX@@@std@@@std@@@3@$0A@@std@@@std@@QEAAXPEAU?$_Tree_node@U?$pair@QEAUID3D11Device@@V?$weak_ptr@VImpl@CommonStates@DirectX@@@std@@@std@@PEAX@2@@Z 000000014002a2c0 f i DirectXTK:CommonStates.obj
 0001:000292d0       ?_Lrotate@?$_Tree_val@U?$_Tree_simple_types@U?$pair@QEAUID3D11Device@@V?$weak_ptr@VImpl@CommonStates@DirectX@@@std@@@std@@@std@@@std@@QEAAXPEAU?$_Tree_node@U?$pair@QEAUID3D11Device@@V?$weak_ptr@VImpl@CommonStates@DirectX@@@std@@@std@@PEAX@2@@Z 000000014002a2d0 f i DirectXTK:CommonStates.obj
 0001:000292d0       ?_Lrotate@?$_Tree_val@U?$_Tree_simple_types@U?$pair@QEAUID3D11DeviceContext@@V?$weak_ptr@UContextResources@Impl@SpriteBatch@DirectX@@@std@@@std@@@std@@@std@@QEAAXPEAU?$_Tree_node@U?$pair@QEAUID3D11DeviceContext@@V?$weak_ptr@UContextResources@Impl@SpriteBatch@DirectX@@@std@@@std@@PEAX@2@@Z 000000014002a2d0 f i DirectXTK:SpriteBatch.obj
 0001:000292d0       ?_Lrotate@?$_Tree_val@U?$_Tree_simple_types@U?$pair@QEAUID3D11Device@@V?$weak_ptr@UDeviceResources@Impl@SpriteBatch@DirectX@@@std@@@std@@@std@@@std@@QEAAXPEAU?$_Tree_node@U?$pair@QEAUID3D11Device@@V?$weak_ptr@UDeviceResources@Impl@SpriteBatch@DirectX@@@std@@@std@@PEAX@2@@Z 000000014002a2d0 f i DirectXTK:SpriteBatch.obj
 0001:00029330       ?_Reallocate_exactly@?$vector@FV?$allocator@F@std@@@std@@AEAAX_K@Z 000000014002a330 f i DirectXTK:SpriteBatch.obj
 0001:000293a0       ?_Rrotate@?$_Tree_val@U?$_Tree_simple_types@U?$pair@QEAUID3D11Device@@V?$weak_ptr@UDeviceResources@Impl@SpriteBatch@DirectX@@@std@@@std@@@std@@@std@@QEAAXPEAU?$_Tree_node@U?$pair@QEAUID3D11Device@@V?$weak_ptr@UDeviceResources@Impl@SpriteBatch@DirectX@@@std@@@std@@PEAX@2@@Z 000000014002a3a0 f i DirectXTK:SpriteBatch.obj
 0001:000293a0       ?_Rrotate@?$_Tree_val@U?$_Tree_simple_types@U?$pair@QEAUID3D11DeviceContext@@V?$weak_ptr@UContextResources@Impl@SpriteBatch@DirectX@@@std@@@std@@@std@@@std@@QEAAXPEAU?$_Tree_node@U?$pair@QEAUID3D11DeviceContext@@V?$weak_ptr@UContextResources@Impl@SpriteBatch@DirectX@@@std@@@std@@PEAX@2@@Z 000000014002a3a0 f i DirectXTK:SpriteBatch.obj
 0001:000293a0       ?_Rrotate@?$_Tree_val@U?$_Tree_simple_types@U?$pair@QEAUID3D11Device@@V?$weak_ptr@VImpl@CommonStates@DirectX@@@std@@@std@@@std@@@std@@QEAAXPEAU?$_Tree_node@U?$pair@QEAUID3D11Device@@V?$weak_ptr@VImpl@CommonStates@DirectX@@@std@@@std@@PEAX@2@@Z 000000014002a3a0 f i DirectXTK:CommonStates.obj
 0001:00029400       ?_Xlength@?$vector@UGlyph@SpriteFont@DirectX@@V?$allocator@UGlyph@SpriteFont@DirectX@@@std@@@std@@CAXXZ 000000014002a400 f i DirectXTK:SpriteFont.obj
 0001:00029400       ?_Xlength@?$vector@PEBUSpriteInfo@Impl@SpriteBatch@DirectX@@V?$allocator@PEBUSpriteInfo@Impl@SpriteBatch@DirectX@@@std@@@std@@CAXXZ 000000014002a400 f i DirectXTK:SpriteBatch.obj
 0001:00029400       ?_Xlength@?$vector@FV?$allocator@F@std@@@std@@CAXXZ 000000014002a400 f i DirectXTK:SpriteBatch.obj
 0001:00029400       ?_Xlength@?$vector@V?$ComPtr@UID3D11ShaderResourceView@@@WRL@Microsoft@@V?$allocator@V?$ComPtr@UID3D11ShaderResourceView@@@WRL@Microsoft@@@std@@@std@@CAXXZ 000000014002a400 f i DirectXTK:SpriteBatch.obj
 0001:00029420       ?allocate@?$allocator@F@std@@QEAAPEAF_K@Z 000000014002a420 f i DirectXTK:SpriteBatch.obj
 0001:000294a0       ?deallocate@?$allocator@F@std@@QEAAXQEAF_K@Z 000000014002a4a0 f i DirectXTK:SpriteBatch.obj
 0001:000294e0       ?deallocate@?$allocator@PEBUSpriteInfo@Impl@SpriteBatch@DirectX@@@std@@QEAAXQEAPEBUSpriteInfo@Impl@SpriteBatch@DirectX@@_K@Z 000000014002a4e0 f i DirectXTK:SpriteBatch.obj
 0001:000294e0       ?deallocate@?$allocator@V?$ComPtr@UID3D11ShaderResourceView@@@WRL@Microsoft@@@std@@QEAAXQEAV?$ComPtr@UID3D11ShaderResourceView@@@WRL@Microsoft@@_K@Z 000000014002a4e0 f i DirectXTK:SpriteBatch.obj
 0001:00029530       ?deallocate@?$allocator@U?$_Tree_node@U?$pair@QEAUID3D11Device@@V?$weak_ptr@VImpl@CommonStates@DirectX@@@std@@@std@@PEAX@std@@@std@@QEAAXQEAU?$_Tree_node@U?$pair@QEAUID3D11Device@@V?$weak_ptr@VImpl@CommonStates@DirectX@@@std@@@std@@PEAX@2@_K@Z 000000014002a530 f i DirectXTK:CommonStates.obj
 0001:00029530       ?deallocate@?$allocator@U?$_Tree_node@U?$pair@QEAUID3D11Device@@V?$weak_ptr@UDeviceResources@Impl@SpriteBatch@DirectX@@@std@@@std@@PEAX@std@@@std@@QEAAXQEAU?$_Tree_node@U?$pair@QEAUID3D11Device@@V?$weak_ptr@UDeviceResources@Impl@SpriteBatch@DirectX@@@std@@@std@@PEAX@2@_K@Z 000000014002a530 f i DirectXTK:SpriteBatch.obj
 0001:00029530       ?deallocate@?$allocator@U?$_Tree_node@U?$pair@QEAUID3D11DeviceContext@@V?$weak_ptr@UContextResources@Impl@SpriteBatch@DirectX@@@std@@@std@@PEAX@std@@@std@@QEAAXQEAU?$_Tree_node@U?$pair@QEAUID3D11DeviceContext@@V?$weak_ptr@UContextResources@Impl@SpriteBatch@DirectX@@@std@@@std@@PEAX@2@_K@Z 000000014002a530 f i DirectXTK:SpriteBatch.obj
 0001:00029570       ?erase@?$_Tree@V?$_Tmap_traits@PEAUID3D11Device@@V?$weak_ptr@UDeviceResources@Impl@SpriteBatch@DirectX@@@std@@U?$less@PEAUID3D11Device@@@3@V?$allocator@U?$pair@QEAUID3D11Device@@V?$weak_ptr@UDeviceResources@Impl@SpriteBatch@DirectX@@@std@@@std@@@3@$0A@@std@@@std@@QEAA?AV?$_Tree_iterator@V?$_Tree_val@U?$_Tree_simple_types@U?$pair@QEAUID3D11Device@@V?$weak_ptr@UDeviceResources@Impl@SpriteBatch@DirectX@@@std@@@std@@@std@@@std@@@2@V?$_Tree_const_iterator@V?$_Tree_val@U?$_Tree_simple_types@U?$pair@QEAUID3D11Device@@V?$weak_ptr@UDeviceResources@Impl@SpriteBatch@DirectX@@@std@@@std@@@std@@@std@@@2@0@Z 000000014002a570 f i DirectXTK:SpriteBatch.obj
 0001:00029570       ?erase@?$_Tree@V?$_Tmap_traits@PEAUID3D11Device@@V?$weak_ptr@VImpl@CommonStates@DirectX@@@std@@U?$less@PEAUID3D11Device@@@3@V?$allocator@U?$pair@QEAUID3D11Device@@V?$weak_ptr@VImpl@CommonStates@DirectX@@@std@@@std@@@3@$0A@@std@@@std@@QEAA?AV?$_Tree_iterator@V?$_Tree_val@U?$_Tree_simple_types@U?$pair@QEAUID3D11Device@@V?$weak_ptr@VImpl@CommonStates@DirectX@@@std@@@std@@@std@@@std@@@2@V?$_Tree_const_iterator@V?$_Tree_val@U?$_Tree_simple_types@U?$pair@QEAUID3D11Device@@V?$weak_ptr@VImpl@CommonStates@DirectX@@@std@@@std@@@std@@@std@@@2@0@Z 000000014002a570 f i DirectXTK:CommonStates.obj
 0001:00029570       ?erase@?$_Tree@V?$_Tmap_traits@PEAUID3D11DeviceContext@@V?$weak_ptr@UContextResources@Impl@SpriteBatch@DirectX@@@std@@U?$less@PEAUID3D11DeviceContext@@@3@V?$allocator@U?$pair@QEAUID3D11DeviceContext@@V?$weak_ptr@UContextResources@Impl@SpriteBatch@DirectX@@@std@@@std@@@3@$0A@@std@@@std@@QEAA?AV?$_Tree_iterator@V?$_Tree_val@U?$_Tree_simple_types@U?$pair@QEAUID3D11DeviceContext@@V?$weak_ptr@UContextResources@Impl@SpriteBatch@DirectX@@@std@@@std@@@std@@@std@@@2@V?$_Tree_const_iterator@V?$_Tree_val@U?$_Tree_simple_types@U?$pair@QEAUID3D11DeviceContext@@V?$weak_ptr@UContextResources@Impl@SpriteBatch@DirectX@@@std@@@std@@@std@@@std@@@2@0@Z 000000014002a570 f i DirectXTK:SpriteBatch.obj
 0001:000296f0       ?erase@?$_Tree@V?$_Tmap_traits@PEAUID3D11Device@@V?$weak_ptr@UDeviceResources@Impl@SpriteBatch@DirectX@@@std@@U?$less@PEAUID3D11Device@@@3@V?$allocator@U?$pair@QEAUID3D11Device@@V?$weak_ptr@UDeviceResources@Impl@SpriteBatch@DirectX@@@std@@@std@@@3@$0A@@std@@@std@@QEAA?AV?$_Tree_iterator@V?$_Tree_val@U?$_Tree_simple_types@U?$pair@QEAUID3D11Device@@V?$weak_ptr@UDeviceResources@Impl@SpriteBatch@DirectX@@@std@@@std@@@std@@@std@@@2@V?$_Tree_const_iterator@V?$_Tree_val@U?$_Tree_simple_types@U?$pair@QEAUID3D11Device@@V?$weak_ptr@UDeviceResources@Impl@SpriteBatch@DirectX@@@std@@@std@@@std@@@std@@@2@@Z 000000014002a6f0 f i DirectXTK:SpriteBatch.obj
 0001:000296f0       ?erase@?$_Tree@V?$_Tmap_traits@PEAUID3D11Device@@V?$weak_ptr@VImpl@CommonStates@DirectX@@@std@@U?$less@PEAUID3D11Device@@@3@V?$allocator@U?$pair@QEAUID3D11Device@@V?$weak_ptr@VImpl@CommonStates@DirectX@@@std@@@std@@@3@$0A@@std@@@std@@QEAA?AV?$_Tree_iterator@V?$_Tree_val@U?$_Tree_simple_types@U?$pair@QEAUID3D11Device@@V?$weak_ptr@VImpl@CommonStates@DirectX@@@std@@@std@@@std@@@std@@@2@V?$_Tree_const_iterator@V?$_Tree_val@U?$_Tree_simple_types@U?$pair@QEAUID3D11Device@@V?$weak_ptr@VImpl@CommonStates@DirectX@@@std@@@std@@@std@@@std@@@2@@Z 000000014002a6f0 f i DirectXTK:CommonStates.obj
 0001:000296f0       ?erase@?$_Tree@V?$_Tmap_traits@PEAUID3D11DeviceContext@@V?$weak_ptr@UContextResources@Impl@SpriteBatch@DirectX@@@std@@U?$less@PEAUID3D11DeviceContext@@@3@V?$allocator@U?$pair@QEAUID3D11DeviceContext@@V?$weak_ptr@UContextResources@Impl@SpriteBatch@DirectX@@@std@@@std@@@3@$0A@@std@@@std@@QEAA?AV?$_Tree_iterator@V?$_Tree_val@U?$_Tree_simple_types@U?$pair@QEAUID3D11DeviceContext@@V?$weak_ptr@UContextResources@Impl@SpriteBatch@DirectX@@@std@@@std@@@std@@@std@@@2@V?$_Tree_const_iterator@V?$_Tree_val@U?$_Tree_simple_types@U?$pair@QEAUID3D11DeviceContext@@V?$weak_ptr@UContextResources@Impl@SpriteBatch@DirectX@@@std@@@std@@@std@@@std@@@2@@Z 000000014002a6f0 f i DirectXTK:SpriteBatch.obj
 0001:000297a0       ?what@com_exception@DirectX@@UEBAPEBDXZ 000000014002a7a0 f i DirectXTK:SpriteBatch.obj
 0001:000297d0       __local_stdio_printf_options 000000014002a7d0 f i DirectXTK:SpriteBatch.obj
 0001:000299d0       ??$Read@I@BinaryReader@DirectX@@QEAAAEBIXZ 000000014002a9d0 f i DirectXTK:SpriteFont.obj
 0001:00029a40       ??0Impl@SpriteFont@DirectX@@QEAA@PEAUID3D11Device@@PEAVBinaryReader@2@_N@Z 000000014002aa40 f   DirectXTK:SpriteFont.obj
 0001:0002a030       ??0SpriteFont@DirectX@@QEAA@PEAUID3D11Device@@PEB_W_N@Z 000000014002b030 f   DirectXTK:SpriteFont.obj
 0001:0002a140       ??0overflow_error@std@@QEAA@AEBV01@@Z 000000014002b140 f i DirectXTK:SpriteFont.obj
 0001:0002a180       ??0overflow_error@std@@QEAA@PEBD@Z 000000014002b180 f i DirectXTK:SpriteFont.obj
 0001:0002a1f0       ??0runtime_error@std@@QEAA@AEBV01@@Z 000000014002b1f0 f i DirectXTK:SpriteFont.obj
 0001:0002a230       ??1?$unique_ptr@VImpl@SpriteFont@DirectX@@U?$default_delete@VImpl@SpriteFont@DirectX@@@std@@@std@@QEAA@XZ 000000014002b230 f i DirectXTK:SpriteFont.obj
 0001:0002a240       ??1?$vector@UGlyph@SpriteFont@DirectX@@V?$allocator@UGlyph@SpriteFont@DirectX@@@std@@@std@@QEAA@XZ 000000014002b240 f i DirectXTK:SpriteFont.obj
 0001:0002a2a0       ??1BinaryReader@DirectX@@QEAA@XZ 000000014002b2a0 f i DirectXTK:SpriteFont.obj
 0001:0002a2b0       ??R?$default_delete@VImpl@SpriteFont@DirectX@@@std@@QEBAXPEAVImpl@SpriteFont@DirectX@@@Z 000000014002b2b0 f i DirectXTK:SpriteFont.obj
 0001:0002a360       ??_ESpriteFont@DirectX@@UEAAPEAXI@Z 000000014002b360 f i DirectXTK:SpriteFont.obj
 0001:0002a360       ??_GSpriteFont@DirectX@@UEAAPEAXI@Z 000000014002b360 f i DirectXTK:SpriteFont.obj
 0001:0002a3b0       ?ConvertUTF8@Impl@SpriteFont@DirectX@@QEAAPEB_WPEBD@Z 000000014002b3b0 f   DirectXTK:SpriteFont.obj
 0001:0002a500       ?DrawString@SpriteFont@DirectX@@QEBQXPEAVSpriteBatch@2@PEBDAEBUXMFLOAT2@2@T__m128@@M2MW4SpriteEffects@2@M@Z 000000014002b500 f   DirectXTK:SpriteFont.obj
 0001:0002a680       ?FindGlyph@Impl@SpriteFont@DirectX@@QEBAPEBUGlyph@23@_W@Z 000000014002b680 f   DirectXTK:SpriteFont.obj
 0001:0002a720       ?MeasureString@SpriteFont@DirectX@@QEBQ?AT__m128@@PEB_W@Z 000000014002b720 f   DirectXTK:SpriteFont.obj
 0001:0002a8a0       ?_Buy@?$vector@UGlyph@SpriteFont@DirectX@@V?$allocator@UGlyph@SpriteFont@DirectX@@@std@@@std@@AEAA_N_K@Z 000000014002b8a0 f i DirectXTK:SpriteFont.obj
 0001:0002a950       ?BitsPerPixel@LoaderHelpers@DirectX@@YA_KW4DXGI_FORMAT@@@Z 000000014002b950 f i DirectXTK:DDSTextureLoader.obj
 0001:0002ae70       ?CreateDDSTextureFromFile@DirectX@@YAJPEAUID3D11Device@@PEB_WPEAPEAUID3D11Resource@@PEAPEAUID3D11ShaderResourceView@@_KPEAW4DDS_ALPHA_MODE@1@@Z 000000014002be70 f   DirectXTK:DDSTextureLoader.obj
 0001:0002bc50       ?GetAlphaMode@LoaderHelpers@DirectX@@YA?AW4DDS_ALPHA_MODE@2@PEBUDDS_HEADER@2@@Z 000000014002cc50 f i DirectXTK:DDSTextureLoader.obj
 0001:0002bc90       ?GetDXGIFormat@LoaderHelpers@DirectX@@YA?AW4DXGI_FORMAT@@AEBUDDS_PIXELFORMAT@2@@Z 000000014002cc90 f i DirectXTK:DDSTextureLoader.obj
 0001:0002c170       ?GetSurfaceInfo@LoaderHelpers@DirectX@@YAJ_K0W4DXGI_FORMAT@@PEA_K22@Z 000000014002d170 f i DirectXTK:DDSTextureLoader.obj
 0001:0002c360       ?LoadTextureDataFromFile@LoaderHelpers@DirectX@@YAJPEB_WAEAV?$unique_ptr@$$BY0A@EU?$default_delete@$$BY0A@E@std@@@std@@PEAPEBUDDS_HEADER@2@PEAPEBEPEA_K@Z 000000014002d360 f i DirectXTK:DDSTextureLoader.obj
 0001:0002c530       ??0CommonStates@DirectX@@QEAA@PEAUID3D11Device@@@Z 000000014002d530 f   DirectXTK:CommonStates.obj
 0001:0002c560       ??1CommonStates@DirectX@@UEAA@XZ 000000014002d560 f   DirectXTK:CommonStates.obj
 0001:0002c5c0       ??1Impl@CommonStates@DirectX@@QEAA@XZ 000000014002d5c0 f i DirectXTK:CommonStates.obj
 0001:0002c770       ??_G?$_Ref_count_obj@UWrappedData@?$SharedResourcePool@PEAUID3D11Device@@VImpl@CommonStates@DirectX@@$$V@DirectX@@@std@@UEAAPEAXI@Z 000000014002d770 f i DirectXTK:CommonStates.obj
 0001:0002c770       ??_E?$_Ref_count_obj@UWrappedData@?$SharedResourcePool@PEAUID3D11Device@@VImpl@CommonStates@DirectX@@$$V@DirectX@@@std@@UEAAPEAXI@Z 000000014002d770 f i DirectXTK:CommonStates.obj
 0001:0002c7a0       ??_GCommonStates@DirectX@@UEAAPEAXI@Z 000000014002d7a0 f i DirectXTK:CommonStates.obj
 0001:0002c7a0       ??_ECommonStates@DirectX@@UEAAPEAXI@Z 000000014002d7a0 f i DirectXTK:CommonStates.obj
 0001:0002c830       ?AlphaBlend@CommonStates@DirectX@@QEBAPEAUID3D11BlendState@@XZ 000000014002d830 f   DirectXTK:CommonStates.obj
 0001:0002c9b0       ?CullCounterClockwise@CommonStates@DirectX@@QEBAPEAUID3D11RasterizerState@@XZ 000000014002d9b0 f   DirectXTK:CommonStates.obj
 0001:0002cb00       ?DemandCreate@?$SharedResourcePool@PEAUID3D11Device@@VImpl@CommonStates@DirectX@@$$V@DirectX@@QEAA?AV?$shared_ptr@VImpl@CommonStates@DirectX@@@std@@PEAUID3D11Device@@@Z 000000014002db00 f i DirectXTK:CommonStates.obj
 0001:0002ce10       ?DepthNone@CommonStates@DirectX@@QEBAPEAUID3D11DepthStencilState@@XZ 000000014002de10 f   DirectXTK:CommonStates.obj
 0001:0002cf70       ?LinearClamp@CommonStates@DirectX@@QEBAPEAUID3D11SamplerState@@XZ 000000014002df70 f   DirectXTK:CommonStates.obj
 0001:0002d0f0       ?_Destroy@?$_Ref_count_obj@UWrappedData@?$SharedResourcePool@PEAUID3D11Device@@VImpl@CommonStates@DirectX@@$$V@DirectX@@@std@@EEAAXXZ 000000014002e0f0 f i DirectXTK:CommonStates.obj
 0001:0002d200       ??0BinaryReader@DirectX@@QEAA@PEB_W@Z 000000014002e200 f   DirectXTK:BinaryReader.obj
 0001:0002d2b0       ??1?$unique_ptr@XUhandle_closer@DirectX@@@std@@QEAA@XZ 000000014002e2b0 f i DirectXTK:BinaryReader.obj
 0001:0002d2c0       ?DebugTrace@DirectX@@YAXPEBDZZ 000000014002e2c0 f i DirectXTK:BinaryReader.obj
 0001:0002d2d0       ?ReadEntireFile@BinaryReader@DirectX@@SAJPEB_WAEAV?$unique_ptr@$$BY0A@EU?$default_delete@$$BY0A@E@std@@@std@@PEA_K@Z 000000014002e2d0 f   DirectXTK:BinaryReader.obj
 0001:0002d3f8       ??1_Fac_tidy_reg_t@std@@QEAA@XZ 000000014002e3f8 f i msvcprt:locale0_implib.obj
 0001:0002d460       ?_Facet_Register@std@@YAXPEAV_Facet_base@1@@Z 000000014002e460 f   msvcprt:locale0_implib.obj
 0001:0002d498       ?_Xlength_error@std@@YAXPEBD@Z 000000014002e498 f   msvcprt:MSVCP140.dll
 0001:0002d49e       ?showmanyc@?$basic_streambuf@DU?$char_traits@D@std@@@std@@MEAA_JXZ 000000014002e49e f   msvcprt:MSVCP140.dll
 0001:0002d4a4       _Mtx_init_in_situ          000000014002e4a4 f   msvcprt:MSVCP140.dll
 0001:0002d4aa       _Mtx_destroy_in_situ       000000014002e4aa f   msvcprt:MSVCP140.dll
 0001:0002d4b0       _Mtx_lock                  000000014002e4b0 f   msvcprt:MSVCP140.dll
 0001:0002d4b6       _Mtx_unlock                000000014002e4b6 f   msvcprt:MSVCP140.dll
 0001:0002d4bc       ?_Throw_C_error@std@@YAXH@Z 000000014002e4bc f   msvcprt:MSVCP140.dll
 0001:0002d4e0       __security_check_cookie    000000014002e4e0 f   MSVCRT:amdsecgs.obj
 0001:0002d504       ??2@YAPEAX_K@Z             000000014002e504 f   MSVCRT:new_scalar.obj
 0001:0002d540       ??3@YAXPEAX_K@Z            000000014002e540 f   MSVCRT:delete_scalar_size.obj
 0001:0002d540       ??_V@YAXPEAX@Z             000000014002e540 f   MSVCRT:delete_array.obj
 0001:0002d548       ??_Etype_info@@UEAAPEAXI@Z 000000014002e548 f i MSVCRT:std_type_info_static.obj
 0001:0002d548       ??_Gtype_info@@UEAAPEAXI@Z 000000014002e548 f i MSVCRT:std_type_info_static.obj
 0001:0002d574       ??_U@YAPEAX_K@Z            000000014002e574 f   MSVCRT:new_array.obj
 0001:0002d704       _Init_thread_footer        000000014002e704 f   MSVCRT:thread_safe_statics.obj
 0001:0002d764       _Init_thread_header        000000014002e764 f   MSVCRT:thread_safe_statics.obj
 0001:0002d7cc       _Init_thread_notify        000000014002e7cc f   MSVCRT:thread_safe_statics.obj
 0001:0002d81c       _Init_thread_wait          000000014002e81c f   MSVCRT:thread_safe_statics.obj
 0001:0002d894       ??_U@YAPEAX_KAEBUnothrow_t@std@@@Z 000000014002e894 f   MSVCRT:new_array_nothrow.obj
 0001:0002daf4       WinMainCRTStartup          000000014002eaf4 f   MSVCRT:exe_winmain.obj
 0001:0002db08       __scrt_acquire_startup_lock 000000014002eb08 f   MSVCRT:utility.obj
 0001:0002db44       __scrt_initialize_crt      000000014002eb44 f   MSVCRT:utility.obj
 0001:0002db90       __scrt_initialize_onexit_tables 000000014002eb90 f   MSVCRT:utility.obj
 0001:0002dc68       __scrt_is_nonwritable_in_current_image 000000014002ec68 f   MSVCRT:utility.obj
 0001:0002dd04       __scrt_release_startup_lock 000000014002ed04 f   MSVCRT:utility.obj
 0001:0002dd28       __scrt_uninitialize_crt    000000014002ed28 f   MSVCRT:utility.obj
 0001:0002dd54       _onexit                    000000014002ed54 f   MSVCRT:utility.obj
 0001:0002dda4       atexit                     000000014002eda4 f   MSVCRT:utility.obj
 0001:0002ddbc       __GSHandlerCheck           000000014002edbc f   MSVCRT:gshandler.obj
 0001:0002dddc       __GSHandlerCheckCommon     000000014002eddc f   MSVCRT:gshandler.obj
 0001:0002de38       __GSHandlerCheck_EH        000000014002ee38 f   MSVCRT:gshandlereh.obj
 0001:0002deb8       __raise_securityfailure    000000014002eeb8 f   MSVCRT:gs_report.obj
 0001:0002deec       __report_gsfailure         000000014002eeec f   MSVCRT:gs_report.obj
 0001:0002e034       ??0bad_array_new_length@std@@QEAA@AEBV01@@Z 000000014002f034 f i MSVCRT:throw_bad_alloc.obj
 0001:0002e074       ??0bad_array_new_length@std@@QEAA@XZ 000000014002f074 f i MSVCRT:throw_bad_alloc.obj
 0001:0002e094       ?__scrt_throw_std_bad_alloc@@YAXXZ 000000014002f094 f   MSVCRT:throw_bad_alloc.obj
 0001:0002e0b4       ?__scrt_throw_std_bad_array_new_length@@YAXXZ 000000014002f0b4 f   MSVCRT:throw_bad_alloc.obj
 0001:0002e0d4       ??3@YAXPEAX@Z              000000014002f0d4 f   MSVCRT:delete_scalar.obj
 0001:0002e0dc       __crt_debugger_hook        000000014002f0dc f   MSVCRT:utility_desktop.obj
 0001:0002e0e4       __scrt_fastfail            000000014002f0e4 f   MSVCRT:utility_desktop.obj
 0001:0002e230       __scrt_get_show_window_mode 000000014002f230 f   MSVCRT:utility_desktop.obj
 0001:0002e26c       __scrt_initialize_mta      000000014002f26c f   MSVCRT:utility_desktop.obj
 0001:0002e274       __scrt_is_managed_app      000000014002f274 f   MSVCRT:utility_desktop.obj
 0001:0002e2c8       __scrt_set_unhandled_exception_filter 000000014002f2c8 f   MSVCRT:utility_desktop.obj
 0001:0002e2d8       __scrt_unhandled_exception_filter 000000014002f2d8 f   MSVCRT:utility_desktop.obj
 0001:0002e310       ??2@YAPEAX_KAEBUnothrow_t@std@@@Z 000000014002f310 f   MSVCRT:new_scalar_nothrow.obj
 0001:0002e330       __security_init_cookie     000000014002f330 f   MSVCRT:gs_support.obj
 0001:0002e3dc       _get_startup_argv_mode     000000014002f3dc f   MSVCRT:argv_mode.obj
 0001:0002e3e4       _get_startup_file_mode     000000014002f3e4 f   MSVCRT:file_mode.obj
 0001:0002e3ec       ?__scrt_initialize_type_info@@YAXXZ 000000014002f3ec f   MSVCRT:tncleanup.obj
 0001:0002e3fc       __local_stdio_scanf_options 000000014002f3fc f i MSVCRT:default_local_stdio_options.obj
 0001:0002e404       __scrt_initialize_default_local_stdio_options 000000014002f404 f   MSVCRT:default_local_stdio_options.obj
 0001:0002e420       __scrt_is_user_matherr_present 000000014002f420 f   MSVCRT:matherr_detection.obj
 0001:0002e42c       __scrt_get_dyn_tls_init_callback 000000014002f42c f   MSVCRT:dyn_tls_init.obj
 0001:0002e434       __scrt_get_dyn_tls_dtor_callback 000000014002f434 f   MSVCRT:dyn_tls_dtor.obj
 0001:0002e43c       _RTC_Initialize            000000014002f43c f   MSVCRT:initsect.obj
 0001:0002e478       _RTC_Terminate             000000014002f478 f   MSVCRT:initsect.obj
 0001:0002e4b4       __isa_available_init       000000014002f4b4 f   MSVCRT:cpu_disp.obj
 0001:0002e670       __scrt_is_ucrt_dll_in_use  000000014002f670 f   MSVCRT:ucrt_detection.obj
 0001:0002e680       __CxxFrameHandler3         000000014002f680 f   vcruntime:VCRUNTIME140.dll
 0001:0002e686       __std_exception_destroy    000000014002f686 f   vcruntime:VCRUNTIME140.dll
 0001:0002e68c       __std_exception_copy       000000014002f68c f   vcruntime:VCRUNTIME140.dll
 0001:0002e692       __std_terminate            000000014002f692 f   vcruntime:VCRUNTIME140.dll
 0001:0002e698       _CxxThrowException         000000014002f698 f   vcruntime:VCRUNTIME140.dll
 0001:0002e69e       memmove                    000000014002f69e f   vcruntime:VCRUNTIME140.dll
 0001:0002e6a4       memset                     000000014002f6a4 f   vcruntime:VCRUNTIME140.dll
 0001:0002e6aa       __C_specific_handler       000000014002f6aa f   vcruntime:VCRUNTIME140.dll
 0001:0002e6b0       _callnewh                  000000014002f6b0 f   ucrt:api-ms-win-crt-heap-l1-1-0.dll
 0001:0002e6b6       malloc                     000000014002f6b6 f   ucrt:api-ms-win-crt-heap-l1-1-0.dll
 0001:0002e6bc       _seh_filter_exe            000000014002f6bc f   ucrt:api-ms-win-crt-runtime-l1-1-0.dll
 0001:0002e6c2       _set_app_type              000000014002f6c2 f   ucrt:api-ms-win-crt-runtime-l1-1-0.dll
 0001:0002e6c8       __setusermatherr           000000014002f6c8 f   ucrt:api-ms-win-crt-math-l1-1-0.dll
 0001:0002e6ce       _configure_narrow_argv     000000014002f6ce f   ucrt:api-ms-win-crt-runtime-l1-1-0.dll
 0001:0002e6d4       _initialize_narrow_environment 000000014002f6d4 f   ucrt:api-ms-win-crt-runtime-l1-1-0.dll
 0001:0002e6da       _get_narrow_winmain_command_line 000000014002f6da f   ucrt:api-ms-win-crt-runtime-l1-1-0.dll
 0001:0002e6e0       _initterm                  000000014002f6e0 f   ucrt:api-ms-win-crt-runtime-l1-1-0.dll
 0001:0002e6e6       _initterm_e                000000014002f6e6 f   ucrt:api-ms-win-crt-runtime-l1-1-0.dll
 0001:0002e6ec       exit                       000000014002f6ec f   ucrt:api-ms-win-crt-runtime-l1-1-0.dll
 0001:0002e6f2       _exit                      000000014002f6f2 f   ucrt:api-ms-win-crt-runtime-l1-1-0.dll
 0001:0002e6f8       _set_fmode                 000000014002f6f8 f   ucrt:api-ms-win-crt-stdio-l1-1-0.dll
 0001:0002e6fe       _cexit                     000000014002f6fe f   ucrt:api-ms-win-crt-runtime-l1-1-0.dll
 0001:0002e704       _c_exit                    000000014002f704 f   ucrt:api-ms-win-crt-runtime-l1-1-0.dll
 0001:0002e70a       _register_thread_local_exe_atexit_callback 000000014002f70a f   ucrt:api-ms-win-crt-runtime-l1-1-0.dll
 0001:0002e710       _configthreadlocale        000000014002f710 f   ucrt:api-ms-win-crt-locale-l1-1-0.dll
 0001:0002e716       _set_new_mode              000000014002f716 f   ucrt:api-ms-win-crt-heap-l1-1-0.dll
 0001:0002e71c       __p__commode               000000014002f71c f   ucrt:api-ms-win-crt-stdio-l1-1-0.dll
 0001:0002e722       _initialize_onexit_table   000000014002f722 f   ucrt:api-ms-win-crt-runtime-l1-1-0.dll
 0001:0002e728       _register_onexit_function  000000014002f728 f   ucrt:api-ms-win-crt-runtime-l1-1-0.dll
 0001:0002e72e       _crt_atexit                000000014002f72e f   ucrt:api-ms-win-crt-runtime-l1-1-0.dll
 0001:0002e734       terminate                  000000014002f734 f   ucrt:api-ms-win-crt-runtime-l1-1-0.dll
 0001:0002e73a       free                       000000014002f73a f   ucrt:api-ms-win-crt-heap-l1-1-0.dll
 0001:0002e740       IsProcessorFeaturePresent  000000014002f740 f   kernel32:KERNEL32.dll
 0001:0002e746       __RTDynamicCast            000000014002f746 f   vcruntime:VCRUNTIME140.dll
 0001:0002e74c       memcmp                     000000014002f74c f   vcruntime:VCRUNTIME140.dll
 0001:0002e752       memcpy                     000000014002f752 f   vcruntime:VCRUNTIME140.dll
 0001:0002e758       cosf                       000000014002f758 f   ucrt:api-ms-win-crt-math-l1-1-0.dll
 0001:0002e75e       powf                       000000014002f75e f   ucrt:api-ms-win-crt-math-l1-1-0.dll
 0001:0002e764       sin                        000000014002f764 f   ucrt:api-ms-win-crt-math-l1-1-0.dll
 0001:0002e76a       sinf                       000000014002f76a f   ucrt:api-ms-win-crt-math-l1-1-0.dll
 0001:0002e770       sqrtf                      000000014002f770 f   ucrt:api-ms-win-crt-math-l1-1-0.dll
 0001:0002e790       _guard_dispatch_icall_nop  000000014002f790 f   MSVCRT:guard_dispatch.obj
 0002:00000000       __imp_D3DCompileFromFile   0000000140032000     D3DCompiler:D3DCOMPILER_47.dll
 0002:00000008       \177D3DCOMPILER_47_NULL_THUNK_DATA 0000000140032008     D3DCompiler:D3DCOMPILER_47.dll
 0002:00000010       __imp_DirectInput8Create   0000000140032010     dinput8:DINPUT8.dll
 0002:00000018       \177DINPUT8_NULL_THUNK_DATA 0000000140032018     dinput8:DINPUT8.dll
 0002:00000020       __imp_DirectSoundCreate8   0000000140032020     dsound:DSOUND.dll
 0002:00000028       \177DSOUND_NULL_THUNK_DATA 0000000140032028     dsound:DSOUND.dll
 0002:00000030       __imp_GetStockObject       0000000140032030     gdi32:GDI32.dll
 0002:00000038       \177GDI32_NULL_THUNK_DATA  0000000140032038     gdi32:GDI32.dll
 0002:00000040       __imp_InitOnceExecuteOnce  0000000140032040     kernel32:KERNEL32.dll
 0002:00000048       __imp_QueryPerformanceFrequency 0000000140032048     kernel32:KERNEL32.dll
 0002:00000050       __imp_QueryPerformanceCounter 0000000140032050     kernel32:KERNEL32.dll
 0002:00000058       __imp_GetCurrentThreadId   0000000140032058     kernel32:KERNEL32.dll
 0002:00000060       __imp_GetLastError         0000000140032060     kernel32:KERNEL32.dll
 0002:00000068       __imp_MultiByteToWideChar  0000000140032068     kernel32:KERNEL32.dll
 0002:00000070       __imp_ReadFile             0000000140032070     kernel32:KERNEL32.dll
 0002:00000078       __imp_CreateFile2          0000000140032078     kernel32:KERNEL32.dll
 0002:00000080       __imp_GetFileInformationByHandleEx 0000000140032080     kernel32:KERNEL32.dll
 0002:00000088       __imp_EnterCriticalSection 0000000140032088     kernel32:KERNEL32.dll
 0002:00000090       __imp_SetUnhandledExceptionFilter 0000000140032090     kernel32:KERNEL32.dll
 0002:00000098       __imp_CreateFileW          0000000140032098     kernel32:KERNEL32.dll
 0002:000000a0       __imp_DeleteCriticalSection 00000001400320a0     kernel32:KERNEL32.dll
 0002:000000a8       __imp_SetEvent             00000001400320a8     kernel32:KERNEL32.dll
 0002:000000b0       __imp_ResetEvent           00000001400320b0     kernel32:KERNEL32.dll
 0002:000000b8       __imp_WaitForSingleObjectEx 00000001400320b8     kernel32:KERNEL32.dll
 0002:000000c0       __imp_CreateEventW         00000001400320c0     kernel32:KERNEL32.dll
 0002:000000c8       __imp_GetProcAddress       00000001400320c8     kernel32:KERNEL32.dll
 0002:000000d0       __imp_RtlCaptureContext    00000001400320d0     kernel32:KERNEL32.dll
 0002:000000d8       __imp_RtlLookupFunctionEntry 00000001400320d8     kernel32:KERNEL32.dll
 0002:000000e0       __imp_RtlVirtualUnwind     00000001400320e0     kernel32:KERNEL32.dll
 0002:000000e8       __imp_UnhandledExceptionFilter 00000001400320e8     kernel32:KERNEL32.dll
 0002:000000f0       __imp_TerminateProcess     00000001400320f0     kernel32:KERNEL32.dll
 0002:000000f8       __imp_GetCurrentProcessId  00000001400320f8     kernel32:KERNEL32.dll
 0002:00000100       __imp_LeaveCriticalSection 0000000140032100     kernel32:KERNEL32.dll
 0002:00000108       __imp_IsProcessorFeaturePresent 0000000140032108     kernel32:KERNEL32.dll
 0002:00000110       __imp_IsDebuggerPresent    0000000140032110     kernel32:KERNEL32.dll
 0002:00000118       __imp_GetStartupInfoW      0000000140032118     kernel32:KERNEL32.dll
 0002:00000120       __imp_GetCurrentProcess    0000000140032120     kernel32:KERNEL32.dll
 0002:00000128       __imp_CloseHandle          0000000140032128     kernel32:KERNEL32.dll
 0002:00000130       __imp_GetTickCount         0000000140032130     kernel32:KERNEL32.dll
 0002:00000138       __imp_InitializeCriticalSectionAndSpinCount 0000000140032138     kernel32:KERNEL32.dll
 0002:00000140       __imp_InitializeSListHead  0000000140032140     kernel32:KERNEL32.dll
 0002:00000148       __imp_GetSystemTimeAsFileTime 0000000140032148     kernel32:KERNEL32.dll
 0002:00000150       __imp_GetModuleHandleW     0000000140032150     kernel32:KERNEL32.dll
 0002:00000158       \177KERNEL32_NULL_THUNK_DATA 0000000140032158     kernel32:KERNEL32.dll
 0002:00000160       __imp_??0?$basic_streambuf@DU?$char_traits@D@std@@@std@@IEAA@XZ 0000000140032160     msvcprt:MSVCP140.dll
 0002:00000168       __imp_?getloc@?$basic_streambuf@DU?$char_traits@D@std@@@std@@QEBA?AVlocale@2@XZ 0000000140032168     msvcprt:MSVCP140.dll
 0002:00000170       __imp_?_Init@?$basic_streambuf@DU?$char_traits@D@std@@@std@@IEAAXXZ 0000000140032170     msvcprt:MSVCP140.dll
 0002:00000178       __imp_?unshift@?$codecvt@DDU_Mbstatet@@@std@@QEBAHAEAU_Mbstatet@@PEAD1AEAPEAD@Z 0000000140032178     msvcprt:MSVCP140.dll
 0002:00000180       __imp_?setstate@?$basic_ios@DU?$char_traits@D@std@@@std@@QEAAXH_N@Z 0000000140032180     msvcprt:MSVCP140.dll
 0002:00000188       __imp_?_Xlength_error@std@@YAXPEBD@Z 0000000140032188     msvcprt:MSVCP140.dll
 0002:00000190       __imp_?_Pninc@?$basic_streambuf@DU?$char_traits@D@std@@@std@@IEAAPEADXZ 0000000140032190     msvcprt:MSVCP140.dll
 0002:00000198       __imp_??0?$basic_iostream@DU?$char_traits@D@std@@@std@@QEAA@PEAV?$basic_streambuf@DU?$char_traits@D@std@@@1@@Z 0000000140032198     msvcprt:MSVCP140.dll
 0002:000001a0       __imp_?in@?$codecvt@DDU_Mbstatet@@@std@@QEBAHAEAU_Mbstatet@@PEBD1AEAPEBDPEAD3AEAPEAD@Z 00000001400321a0     msvcprt:MSVCP140.dll
 0002:000001a8       __imp_?out@?$codecvt@DDU_Mbstatet@@@std@@QEBAHAEAU_Mbstatet@@PEBD1AEAPEBDPEAD3AEAPEAD@Z 00000001400321a8     msvcprt:MSVCP140.dll
 0002:000001b0       __imp_??1?$basic_ios@DU?$char_traits@D@std@@@std@@UEAA@XZ 00000001400321b0     msvcprt:MSVCP140.dll
 0002:000001b8       __imp_??1?$basic_streambuf@DU?$char_traits@D@std@@@std@@UEAA@XZ 00000001400321b8     msvcprt:MSVCP140.dll
 0002:000001c0       __imp_?showmanyc@?$basic_streambuf@DU?$char_traits@D@std@@@std@@MEAA_JXZ 00000001400321c0     msvcprt:MSVCP140.dll
 0002:000001c8       __imp_?xsgetn@?$basic_streambuf@DU?$char_traits@D@std@@@std@@MEAA_JPEAD_J@Z 00000001400321c8     msvcprt:MSVCP140.dll
 0002:000001d0       __imp_?xsputn@?$basic_streambuf@DU?$char_traits@D@std@@@std@@MEAA_JPEBD_J@Z 00000001400321d0     msvcprt:MSVCP140.dll
 0002:000001d8       __imp_?read@?$basic_istream@DU?$char_traits@D@std@@@std@@QEAAAEAV12@PEAD_J@Z 00000001400321d8     msvcprt:MSVCP140.dll
 0002:000001e0       __imp_??1?$basic_iostream@DU?$char_traits@D@std@@@std@@UEAA@XZ 00000001400321e0     msvcprt:MSVCP140.dll
 0002:000001e8       __imp_?always_noconv@codecvt_base@std@@QEBA_NXZ 00000001400321e8     msvcprt:MSVCP140.dll
 0002:000001f0       __imp_??Bid@locale@std@@QEAA_KXZ 00000001400321f0     msvcprt:MSVCP140.dll
 0002:000001f8       __imp_?uncaught_exception@std@@YA_NXZ 00000001400321f8     msvcprt:MSVCP140.dll
 0002:00000200       __imp_?_Osfx@?$basic_ostream@DU?$char_traits@D@std@@@std@@QEAAXXZ 0000000140032200     msvcprt:MSVCP140.dll
 0002:00000208       __imp_?flush@?$basic_ostream@DU?$char_traits@D@std@@@std@@QEAAAEAV12@XZ 0000000140032208     msvcprt:MSVCP140.dll
 0002:00000210       __imp_?sputc@?$basic_streambuf@DU?$char_traits@D@std@@@std@@QEAAHD@Z 0000000140032210     msvcprt:MSVCP140.dll
 0002:00000218       __imp_?clear@?$basic_ios@DU?$char_traits@D@std@@@std@@QEAAXH_N@Z 0000000140032218     msvcprt:MSVCP140.dll
 0002:00000220       __imp_??0?$basic_ostream@DU?$char_traits@D@std@@@std@@QEAA@PEAV?$basic_streambuf@DU?$char_traits@D@std@@@1@_N@Z 0000000140032220     msvcprt:MSVCP140.dll
 0002:00000228       __imp_??1?$basic_ostream@DU?$char_traits@D@std@@@std@@UEAA@XZ 0000000140032228     msvcprt:MSVCP140.dll
 0002:00000230       __imp__Mtx_init_in_situ    0000000140032230     msvcprt:MSVCP140.dll
 0002:00000238       __imp__Mtx_destroy_in_situ 0000000140032238     msvcprt:MSVCP140.dll
 0002:00000240       __imp__Mtx_lock            0000000140032240     msvcprt:MSVCP140.dll
 0002:00000248       __imp__Mtx_unlock          0000000140032248     msvcprt:MSVCP140.dll
 0002:00000250       __imp_?_Throw_C_error@std@@YAXH@Z 0000000140032250     msvcprt:MSVCP140.dll
 0002:00000258       __imp_?_Fiopen@std@@YAPEAU_iobuf@@PEBDHH@Z 0000000140032258     msvcprt:MSVCP140.dll
 0002:00000260       __imp_?id@?$codecvt@DDU_Mbstatet@@@std@@2V0locale@2@A 0000000140032260     msvcprt:MSVCP140.dll
 0002:00000268       __imp_?_Getgloballocale@locale@std@@CAPEAV_Locimp@12@XZ 0000000140032268     msvcprt:MSVCP140.dll
 0002:00000270       __imp_??0_Lockit@std@@QEAA@H@Z 0000000140032270     msvcprt:MSVCP140.dll
 0002:00000278       __imp_??1_Lockit@std@@QEAA@XZ 0000000140032278     msvcprt:MSVCP140.dll
 0002:00000280       __imp_?_Getcat@?$codecvt@DDU_Mbstatet@@@std@@SA_KPEAPEBVfacet@locale@2@PEBV42@@Z 0000000140032280     msvcprt:MSVCP140.dll
 0002:00000288       __imp_??0?$basic_ios@DU?$char_traits@D@std@@@std@@IEAA@XZ 0000000140032288     msvcprt:MSVCP140.dll
 0002:00000290       \177MSVCP140_NULL_THUNK_DATA 0000000140032290     msvcprt:MSVCP140.dll
 0002:00000298       __imp_ShowCursor           0000000140032298     user32:USER32.dll
 0002:000002a0       __imp_SetForegroundWindow  00000001400322a0     user32:USER32.dll
 0002:000002a8       __imp_RegisterClassExW     00000001400322a8     user32:USER32.dll
 0002:000002b0       __imp_GetSystemMetrics     00000001400322b0     user32:USER32.dll
 0002:000002b8       __imp_PostQuitMessage      00000001400322b8     user32:USER32.dll
 0002:000002c0       __imp_LoadCursorW          00000001400322c0     user32:USER32.dll
 0002:000002c8       __imp_CreateWindowExW      00000001400322c8     user32:USER32.dll
 0002:000002d0       __imp_DestroyWindow        00000001400322d0     user32:USER32.dll
 0002:000002d8       __imp_DefWindowProcW       00000001400322d8     user32:USER32.dll
 0002:000002e0       __imp_PtInRect             00000001400322e0     user32:USER32.dll
 0002:000002e8       __imp_DispatchMessageW     00000001400322e8     user32:USER32.dll
 0002:000002f0       __imp_PeekMessageW         00000001400322f0     user32:USER32.dll
 0002:000002f8       __imp_SetFocus             00000001400322f8     user32:USER32.dll
 0002:00000300       __imp_TranslateMessage     0000000140032300     user32:USER32.dll
 0002:00000308       __imp_LoadIconW            0000000140032308     user32:USER32.dll
 0002:00000310       __imp_UnregisterClassW     0000000140032310     user32:USER32.dll
 0002:00000318       __imp_ShowWindow           0000000140032318     user32:USER32.dll
 0002:00000320       \177USER32_NULL_THUNK_DATA 0000000140032320     user32:USER32.dll
 0002:00000328       __imp_memmove              0000000140032328     vcruntime:VCRUNTIME140.dll
 0002:00000330       __imp__CxxThrowException   0000000140032330     vcruntime:VCRUNTIME140.dll
 0002:00000338       __imp_memset               0000000140032338     vcruntime:VCRUNTIME140.dll
 0002:00000340       __imp___C_specific_handler 0000000140032340     vcruntime:VCRUNTIME140.dll
 0002:00000348       __imp___std_terminate      0000000140032348     vcruntime:VCRUNTIME140.dll
 0002:00000350       __imp___std_exception_copy 0000000140032350     vcruntime:VCRUNTIME140.dll
 0002:00000358       __imp___std_exception_destroy 0000000140032358     vcruntime:VCRUNTIME140.dll
 0002:00000360       __imp___CxxFrameHandler3   0000000140032360     vcruntime:VCRUNTIME140.dll
 0002:00000368       __imp_memcpy               0000000140032368     vcruntime:VCRUNTIME140.dll
 0002:00000370       __imp___RTDynamicCast      0000000140032370     vcruntime:VCRUNTIME140.dll
 0002:00000378       __imp_memcmp               0000000140032378     vcruntime:VCRUNTIME140.dll
 0002:00000380       \177VCRUNTIME140_NULL_THUNK_DATA 0000000140032380     vcruntime:VCRUNTIME140.dll
 0002:00000388       __imp_timeGetTime          0000000140032388     winmm:WINMM.dll
 0002:00000390       \177WINMM_NULL_THUNK_DATA  0000000140032390     winmm:WINMM.dll
 0002:00000398       __imp_wcstombs_s           0000000140032398     ucrt:api-ms-win-crt-convert-l1-1-0.dll
 0002:000003a0       __imp_mbstowcs             00000001400323a0     ucrt:api-ms-win-crt-convert-l1-1-0.dll
 0002:000003a8       __imp__itoa_s              00000001400323a8     ucrt:api-ms-win-crt-convert-l1-1-0.dll
 0002:000003b0       \177api-ms-win-crt-convert-l1-1-0_NULL_THUNK_DATA 00000001400323b0     ucrt:api-ms-win-crt-convert-l1-1-0.dll
 0002:000003b8       __imp__unlock_file         00000001400323b8     ucrt:api-ms-win-crt-filesystem-l1-1-0.dll
 0002:000003c0       __imp__lock_file           00000001400323c0     ucrt:api-ms-win-crt-filesystem-l1-1-0.dll
 0002:000003c8       \177api-ms-win-crt-filesystem-l1-1-0_NULL_THUNK_DATA 00000001400323c8     ucrt:api-ms-win-crt-filesystem-l1-1-0.dll
 0002:000003d0       __imp__set_new_mode        00000001400323d0     ucrt:api-ms-win-crt-heap-l1-1-0.dll
 0002:000003d8       __imp_free                 00000001400323d8     ucrt:api-ms-win-crt-heap-l1-1-0.dll
 0002:000003e0       __imp__aligned_free        00000001400323e0     ucrt:api-ms-win-crt-heap-l1-1-0.dll
 0002:000003e8       __imp__aligned_malloc      00000001400323e8     ucrt:api-ms-win-crt-heap-l1-1-0.dll
 0002:000003f0       __imp__callnewh            00000001400323f0     ucrt:api-ms-win-crt-heap-l1-1-0.dll
 0002:000003f8       __imp_malloc               00000001400323f8     ucrt:api-ms-win-crt-heap-l1-1-0.dll
 0002:00000400       \177api-ms-win-crt-heap-l1-1-0_NULL_THUNK_DATA 0000000140032400     ucrt:api-ms-win-crt-heap-l1-1-0.dll
 0002:00000408       __imp__configthreadlocale  0000000140032408     ucrt:api-ms-win-crt-locale-l1-1-0.dll
 0002:00000410       \177api-ms-win-crt-locale-l1-1-0_NULL_THUNK_DATA 0000000140032410     ucrt:api-ms-win-crt-locale-l1-1-0.dll
 0002:00000418       __imp_powf                 0000000140032418     ucrt:api-ms-win-crt-math-l1-1-0.dll
 0002:00000420       __imp_sqrtf                0000000140032420     ucrt:api-ms-win-crt-math-l1-1-0.dll
 0002:00000428       __imp_sin                  0000000140032428     ucrt:api-ms-win-crt-math-l1-1-0.dll
 0002:00000430       __imp_sinf                 0000000140032430     ucrt:api-ms-win-crt-math-l1-1-0.dll
 0002:00000438       __imp__fdtest              0000000140032438     ucrt:api-ms-win-crt-math-l1-1-0.dll
 0002:00000440       __imp___setusermatherr     0000000140032440     ucrt:api-ms-win-crt-math-l1-1-0.dll
 0002:00000448       __imp_cosf                 0000000140032448     ucrt:api-ms-win-crt-math-l1-1-0.dll
 0002:00000450       \177api-ms-win-crt-math-l1-1-0_NULL_THUNK_DATA 0000000140032450     ucrt:api-ms-win-crt-math-l1-1-0.dll
 0002:00000458       __imp_exit                 0000000140032458     ucrt:api-ms-win-crt-runtime-l1-1-0.dll
 0002:00000460       __imp__exit                0000000140032460     ucrt:api-ms-win-crt-runtime-l1-1-0.dll
 0002:00000468       __imp__invalid_parameter_noinfo_noreturn 0000000140032468     ucrt:api-ms-win-crt-runtime-l1-1-0.dll
 0002:00000470       __imp__cexit               0000000140032470     ucrt:api-ms-win-crt-runtime-l1-1-0.dll
 0002:00000478       __imp__c_exit              0000000140032478     ucrt:api-ms-win-crt-runtime-l1-1-0.dll
 0002:00000480       __imp__register_thread_local_exe_atexit_callback 0000000140032480     ucrt:api-ms-win-crt-runtime-l1-1-0.dll
 0002:00000488       __imp__initterm            0000000140032488     ucrt:api-ms-win-crt-runtime-l1-1-0.dll
 0002:00000490       __imp__get_narrow_winmain_command_line 0000000140032490     ucrt:api-ms-win-crt-runtime-l1-1-0.dll
 0002:00000498       __imp__invalid_parameter_noinfo 0000000140032498     ucrt:api-ms-win-crt-runtime-l1-1-0.dll
 0002:000004a0       __imp__initialize_onexit_table 00000001400324a0     ucrt:api-ms-win-crt-runtime-l1-1-0.dll
 0002:000004a8       __imp__register_onexit_function 00000001400324a8     ucrt:api-ms-win-crt-runtime-l1-1-0.dll
 0002:000004b0       __imp__crt_atexit          00000001400324b0     ucrt:api-ms-win-crt-runtime-l1-1-0.dll
 0002:000004b8       __imp_terminate            00000001400324b8     ucrt:api-ms-win-crt-runtime-l1-1-0.dll
 0002:000004c0       __imp__initialize_narrow_environment 00000001400324c0     ucrt:api-ms-win-crt-runtime-l1-1-0.dll
 0002:000004c8       __imp__errno               00000001400324c8     ucrt:api-ms-win-crt-runtime-l1-1-0.dll
 0002:000004d0       __imp__configure_narrow_argv 00000001400324d0     ucrt:api-ms-win-crt-runtime-l1-1-0.dll
 0002:000004d8       __imp__seh_filter_exe      00000001400324d8     ucrt:api-ms-win-crt-runtime-l1-1-0.dll
 0002:000004e0       __imp__set_app_type        00000001400324e0     ucrt:api-ms-win-crt-runtime-l1-1-0.dll
 0002:000004e8       __imp__initterm_e          00000001400324e8     ucrt:api-ms-win-crt-runtime-l1-1-0.dll
 0002:000004f0       \177api-ms-win-crt-runtime-l1-1-0_NULL_THUNK_DATA 00000001400324f0     ucrt:api-ms-win-crt-runtime-l1-1-0.dll
 0002:000004f8       __imp_fputc                00000001400324f8     ucrt:api-ms-win-crt-stdio-l1-1-0.dll
 0002:00000500       __imp_fread                0000000140032500     ucrt:api-ms-win-crt-stdio-l1-1-0.dll
 0002:00000508       __imp_fwrite               0000000140032508     ucrt:api-ms-win-crt-stdio-l1-1-0.dll
 0002:00000510       __imp_fgetpos              0000000140032510     ucrt:api-ms-win-crt-stdio-l1-1-0.dll
 0002:00000518       __imp___stdio_common_vsprintf_s 0000000140032518     ucrt:api-ms-win-crt-stdio-l1-1-0.dll
 0002:00000520       __imp_setvbuf              0000000140032520     ucrt:api-ms-win-crt-stdio-l1-1-0.dll
 0002:00000528       __imp___p__commode         0000000140032528     ucrt:api-ms-win-crt-stdio-l1-1-0.dll
 0002:00000530       __imp_fopen_s              0000000140032530     ucrt:api-ms-win-crt-stdio-l1-1-0.dll
 0002:00000538       __imp_fseek                0000000140032538     ucrt:api-ms-win-crt-stdio-l1-1-0.dll
 0002:00000540       __imp_ungetc               0000000140032540     ucrt:api-ms-win-crt-stdio-l1-1-0.dll
 0002:00000548       __imp_fsetpos              0000000140032548     ucrt:api-ms-win-crt-stdio-l1-1-0.dll
 0002:00000550       __imp_fgetc                0000000140032550     ucrt:api-ms-win-crt-stdio-l1-1-0.dll
 0002:00000558       __imp_fflush               0000000140032558     ucrt:api-ms-win-crt-stdio-l1-1-0.dll
 0002:00000560       __imp_fclose               0000000140032560     ucrt:api-ms-win-crt-stdio-l1-1-0.dll
 0002:00000568       __imp__get_stream_buffer_pointers 0000000140032568     ucrt:api-ms-win-crt-stdio-l1-1-0.dll
 0002:00000570       __imp__set_fmode           0000000140032570     ucrt:api-ms-win-crt-stdio-l1-1-0.dll
 0002:00000578       __imp__fseeki64            0000000140032578     ucrt:api-ms-win-crt-stdio-l1-1-0.dll
 0002:00000580       \177api-ms-win-crt-stdio-l1-1-0_NULL_THUNK_DATA 0000000140032580     ucrt:api-ms-win-crt-stdio-l1-1-0.dll
 0002:00000588       __imp_iswspace             0000000140032588     ucrt:api-ms-win-crt-string-l1-1-0.dll
 0002:00000590       \177api-ms-win-crt-string-l1-1-0_NULL_THUNK_DATA 0000000140032590     ucrt:api-ms-win-crt-string-l1-1-0.dll
 0002:00000598       __imp_wcsftime             0000000140032598     ucrt:api-ms-win-crt-time-l1-1-0.dll
 0002:000005a0       __imp__localtime64_s       00000001400325a0     ucrt:api-ms-win-crt-time-l1-1-0.dll
 0002:000005a8       __imp__time64              00000001400325a8     ucrt:api-ms-win-crt-time-l1-1-0.dll
 0002:000005b0       \177api-ms-win-crt-time-l1-1-0_NULL_THUNK_DATA 00000001400325b0     ucrt:api-ms-win-crt-time-l1-1-0.dll
 0002:000005b8       __imp_rand                 00000001400325b8     ucrt:api-ms-win-crt-utility-l1-1-0.dll
 0002:000005c0       __imp_srand                00000001400325c0     ucrt:api-ms-win-crt-utility-l1-1-0.dll
 0002:000005c8       \177api-ms-win-crt-utility-l1-1-0_NULL_THUNK_DATA 00000001400325c8     ucrt:api-ms-win-crt-utility-l1-1-0.dll
 0002:000005d0       __imp_D3D11CreateDeviceAndSwapChain 00000001400325d0     d3d11:d3d11.dll
 0002:000005d8       \177d3d11_NULL_THUNK_DATA  00000001400325d8     d3d11:d3d11.dll
 0002:000005e0       __imp_MiniDumpWriteDump    00000001400325e0     dbghelp:dbghelp.dll
 0002:000005e8       \177dbghelp_NULL_THUNK_DATA 00000001400325e8     dbghelp:dbghelp.dll
 0002:000005f0       __imp_CreateDXGIFactory    00000001400325f0     DXGI:dxgi.dll
 0002:000005f8       \177dxgi_NULL_THUNK_DATA   00000001400325f8     DXGI:dxgi.dll
 0002:00000600       __imp_PropVariantClear     0000000140032600     ole32:ole32.dll
 0002:00000608       __imp_CoCreateInstance     0000000140032608     ole32:ole32.dll
 0002:00000610       \177ole32_NULL_THUNK_DATA  0000000140032610     ole32:ole32.dll
 0002:00000618       __guard_check_icall_fptr   0000000140032618     MSVCRT:guard_support.obj
 0002:00000620       __guard_dispatch_icall_fptr 0000000140032620     MSVCRT:guard_support.obj
 0002:00000628       __xc_a                     0000000140032628     MSVCRT:initializers.obj
 0002:00000670       __xc_z                     0000000140032670     MSVCRT:initializers.obj
 0002:00000678       __xi_a                     0000000140032678     MSVCRT:initializers.obj
 0002:00000698       __xi_z                     0000000140032698     MSVCRT:initializers.obj
 0002:000006a0       __xl_a                     00000001400326a0     MSVCRT:tlssup.obj
 0002:000006a8       __xl_z                     00000001400326a8     MSVCRT:tlssup.obj
 0002:000006b0       __xp_a                     00000001400326b0     MSVCRT:initializers.obj
 0002:000006b8       __xp_z                     00000001400326b8     MSVCRT:initializers.obj
 0002:000006c0       __xt_a                     00000001400326c0     MSVCRT:initializers.obj
 0002:000006c8       __xt_z                     00000001400326c8     MSVCRT:initializers.obj
 0002:000006d0       GUID_NULL                  00000001400326d0     uuid:cguid_i.obj
 0002:000006e0       CLSID_WICImagingFactory1   00000001400326e0     uuid:wincodec_uuid.obj
 0002:000006f0       CLSID_WICImagingFactory2   00000001400326f0     uuid:wincodec_uuid.obj
 0002:00000700       GUID_ContainerFormatPng    0000000140032700     uuid:wincodec_uuid.obj
 0002:00000710       GUID_WICPixelFormat1bppIndexed 0000000140032710     uuid:wincodec_uuid.obj
 0002:00000720       GUID_WICPixelFormat2bppIndexed 0000000140032720     uuid:wincodec_uuid.obj
 0002:00000730       GUID_WICPixelFormat4bppIndexed 0000000140032730     uuid:wincodec_uuid.obj
 0002:00000740       GUID_WICPixelFormat8bppIndexed 0000000140032740     uuid:wincodec_uuid.obj
 0002:00000750       GUID_WICPixelFormatBlackWhite 0000000140032750     uuid:wincodec_uuid.obj
 0002:00000760       GUID_WICPixelFormat2bppGray 0000000140032760     uuid:wincodec_uuid.obj
 0002:00000770       GUID_WICPixelFormat4bppGray 0000000140032770     uuid:wincodec_uuid.obj
 0002:00000780       GUID_WICPixelFormat8bppGray 0000000140032780     uuid:wincodec_uuid.obj
 0002:00000790       GUID_WICPixelFormat8bppAlpha 0000000140032790     uuid:wincodec_uuid.obj
 0002:000007a0       GUID_WICPixelFormat16bppBGR555 00000001400327a0     uuid:wincodec_uuid.obj
 0002:000007b0       GUID_WICPixelFormat16bppBGR565 00000001400327b0     uuid:wincodec_uuid.obj
 0002:000007c0       GUID_WICPixelFormat16bppBGRA5551 00000001400327c0     uuid:wincodec_uuid.obj
 0002:000007d0       GUID_WICPixelFormat16bppGray 00000001400327d0     uuid:wincodec_uuid.obj
 0002:000007e0       GUID_WICPixelFormat24bppBGR 00000001400327e0     uuid:wincodec_uuid.obj
 0002:000007f0       GUID_WICPixelFormat24bppRGB 00000001400327f0     uuid:wincodec_uuid.obj
 0002:00000800       GUID_WICPixelFormat32bppBGR 0000000140032800     uuid:wincodec_uuid.obj
 0002:00000810       GUID_WICPixelFormat32bppBGRA 0000000140032810     uuid:wincodec_uuid.obj
 0002:00000820       GUID_WICPixelFormat32bppPBGRA 0000000140032820     uuid:wincodec_uuid.obj
 0002:00000830       GUID_WICPixelFormat32bppGrayFloat 0000000140032830     uuid:wincodec_uuid.obj
 0002:00000840       GUID_WICPixelFormat32bppRGB 0000000140032840     uuid:wincodec_uuid.obj
 0002:00000850       GUID_WICPixelFormat32bppRGBA 0000000140032850     uuid:wincodec_uuid.obj
 0002:00000860       GUID_WICPixelFormat32bppPRGBA 0000000140032860     uuid:wincodec_uuid.obj
 0002:00000870       GUID_WICPixelFormat48bppRGB 0000000140032870     uuid:wincodec_uuid.obj
 0002:00000880       GUID_WICPixelFormat48bppBGR 0000000140032880     uuid:wincodec_uuid.obj
 0002:00000890       GUID_WICPixelFormat64bppRGB 0000000140032890     uuid:wincodec_uuid.obj
 0002:000008a0       GUID_WICPixelFormat64bppRGBA 00000001400328a0     uuid:wincodec_uuid.obj
 0002:000008b0       GUID_WICPixelFormat64bppBGRA 00000001400328b0     uuid:wincodec_uuid.obj
 0002:000008c0       GUID_WICPixelFormat64bppPRGBA 00000001400328c0     uuid:wincodec_uuid.obj
 0002:000008d0       GUID_WICPixelFormat64bppPBGRA 00000001400328d0     uuid:wincodec_uuid.obj
 0002:000008e0       GUID_WICPixelFormat16bppGrayFixedPoint 00000001400328e0     uuid:wincodec_uuid.obj
 0002:000008f0       GUID_WICPixelFormat32bppBGR101010 00000001400328f0     uuid:wincodec_uuid.obj
 0002:00000900       GUID_WICPixelFormat48bppRGBFixedPoint 0000000140032900     uuid:wincodec_uuid.obj
 0002:00000910       GUID_WICPixelFormat48bppBGRFixedPoint 0000000140032910     uuid:wincodec_uuid.obj
 0002:00000920       GUID_WICPixelFormat96bppRGBFixedPoint 0000000140032920     uuid:wincodec_uuid.obj
 0002:00000930       GUID_WICPixelFormat96bppRGBFloat 0000000140032930     uuid:wincodec_uuid.obj
 0002:00000940       GUID_WICPixelFormat128bppRGBAFloat 0000000140032940     uuid:wincodec_uuid.obj
 0002:00000950       GUID_WICPixelFormat128bppPRGBAFloat 0000000140032950     uuid:wincodec_uuid.obj
 0002:00000960       GUID_WICPixelFormat128bppRGBFloat 0000000140032960     uuid:wincodec_uuid.obj
 0002:00000970       GUID_WICPixelFormat32bppCMYK 0000000140032970     uuid:wincodec_uuid.obj
 0002:00000980       GUID_WICPixelFormat64bppRGBAFixedPoint 0000000140032980     uuid:wincodec_uuid.obj
 0002:00000990       GUID_WICPixelFormat64bppBGRAFixedPoint 0000000140032990     uuid:wincodec_uuid.obj
 0002:000009a0       GUID_WICPixelFormat64bppRGBFixedPoint 00000001400329a0     uuid:wincodec_uuid.obj
 0002:000009b0       GUID_WICPixelFormat128bppRGBAFixedPoint 00000001400329b0     uuid:wincodec_uuid.obj
 0002:000009c0       GUID_WICPixelFormat128bppRGBFixedPoint 00000001400329c0     uuid:wincodec_uuid.obj
 0002:000009d0       GUID_WICPixelFormat64bppRGBAHalf 00000001400329d0     uuid:wincodec_uuid.obj
 0002:000009e0       GUID_WICPixelFormat64bppPRGBAHalf 00000001400329e0     uuid:wincodec_uuid.obj
 0002:000009f0       GUID_WICPixelFormat64bppRGBHalf 00000001400329f0     uuid:wincodec_uuid.obj
 0002:00000a00       GUID_WICPixelFormat48bppRGBHalf 0000000140032a00     uuid:wincodec_uuid.obj
 0002:00000a10       GUID_WICPixelFormat32bppRGBE 0000000140032a10     uuid:wincodec_uuid.obj
 0002:00000a20       GUID_WICPixelFormat16bppGrayHalf 0000000140032a20     uuid:wincodec_uuid.obj
 0002:00000a30       GUID_WICPixelFormat32bppGrayFixedPoint 0000000140032a30     uuid:wincodec_uuid.obj
 0002:00000a40       GUID_WICPixelFormat32bppRGBA1010102 0000000140032a40     uuid:wincodec_uuid.obj
 0002:00000a50       GUID_WICPixelFormat32bppRGBA1010102XR 0000000140032a50     uuid:wincodec_uuid.obj
 0002:00000a60       GUID_WICPixelFormat64bppCMYK 0000000140032a60     uuid:wincodec_uuid.obj
 0002:00000a70       GUID_WICPixelFormat40bppCMYKAlpha 0000000140032a70     uuid:wincodec_uuid.obj
 0002:00000a80       GUID_WICPixelFormat80bppCMYKAlpha 0000000140032a80     uuid:wincodec_uuid.obj
 0002:00000a98       ??_7?$_Ref_count_obj@UResourceMap@?$SharedResourcePool@PEAUID3D11DeviceContext@@UContextResources@Impl@SpriteBatch@DirectX@@$$V@DirectX@@@std@@6B@ 0000000140032a98     DirectXTK:SpriteBatch.obj
 0002:00000ac0       ??_7?$_Ref_count_obj@UResourceMap@?$SharedResourcePool@PEAUID3D11Device@@UDeviceResources@Impl@SpriteBatch@DirectX@@$$V@DirectX@@@std@@6B@ 0000000140032ac0     DirectXTK:SpriteBatch.obj
 0002:000017c8       ??_7exception@std@@6B@     00000001400337c8     DirectXTK:SpriteBatch.obj
 0002:000017e0       ??_7bad_alloc@std@@6B@     00000001400337e0     DirectXTK:SpriteBatch.obj
 0002:000017f0       ??_C@_0P@GHFPNOJB@bad?5allocation@ 00000001400337f0     DirectXTK:SpriteBatch.obj
 0002:00001808       ??_7SpriteBatch@DirectX@@6B@ 0000000140033808     DirectXTK:SpriteBatch.obj
 0002:00001818       ??_7com_exception@DirectX@@6B@ 0000000140033818     DirectXTK:SpriteBatch.obj
 0002:00001828       ??_C@_0BN@HGKPNCEI@Failure?5with?5HRESULT?5of?5?$CF08X@ 0000000140033828     DirectXTK:SpriteBatch.obj
 0002:00001848       ??_C@_0DA@KFELBPEI@Cannot?5nest?5Begin?5calls?5on?5a?5si@ 0000000140033848     DirectXTK:SpriteBatch.obj
 0002:00001880       ??_C@_0EA@BMIHCKMD@Only?5one?5SpriteBatch?5at?5a?5time?5@ 0000000140033880     DirectXTK:SpriteBatch.obj
 0002:000018c0       ??_C@_0CA@PIMDBKHN@Begin?5must?5be?5called?5before?5End@ 00000001400338c0     DirectXTK:SpriteBatch.obj
 0002:000018e0       ??_C@_0EL@GDEIDHHC@Cannot?5end?5one?5SpriteBatch?5whil@ 00000001400338e0     DirectXTK:SpriteBatch.obj
 0002:00001940       ??_C@_0BH@GBGNNAKH@Texture?5cannot?5be?5null@ 0000000140033940     DirectXTK:SpriteBatch.obj
 0002:00001958       ??_C@_0CB@GPFGCCNG@Begin?5must?5be?5called?5before?5Dra@ 0000000140033958     DirectXTK:SpriteBatch.obj
 0002:00001980       ??_C@_0CO@DNLOMOAB@SpriteBatch?5can?5only?5draw?5Textu@ 0000000140033980     DirectXTK:SpriteBatch.obj
 0002:000019b0       ??_C@_0BD@NLKICEDD@No?5viewport?5is?5set@ 00000001400339b0     DirectXTK:SpriteBatch.obj
 0002:000019d0       ??_7?$_Ref_count_obj@UWrappedData@?$SharedResourcePool@PEAUID3D11DeviceContext@@UContextResources@Impl@SpriteBatch@DirectX@@$$V@DirectX@@@std@@6B@ 00000001400339d0     DirectXTK:SpriteBatch.obj
 0002:000019f8       ??_7?$_Ref_count_obj@UWrappedData@?$SharedResourcePool@PEAUID3D11Device@@UDeviceResources@Impl@SpriteBatch@DirectX@@$$V@DirectX@@@std@@6B@ 00000001400339f8     DirectXTK:SpriteBatch.obj
 0002:00001a20       __xmm@3f800000000000003f8000003f800000 0000000140033a20     DirectXTK:SpriteBatch.obj
 0002:00001a30       __xmm@3f800000000000003f800000bf800000 0000000140033a30     DirectXTK:SpriteBatch.obj
 0002:00001a40       __xmm@3f80000000000000bf8000003f800000 0000000140033a40     DirectXTK:SpriteBatch.obj
 0002:00001a50       __xmm@3f80000000000000bf800000bf800000 0000000140033a50     DirectXTK:SpriteBatch.obj
 0002:00001af0       ??_7runtime_error@std@@6B@ 0000000140033af0     DirectXTK:SpriteFont.obj
 0002:00001b08       ??_7overflow_error@std@@6B@ 0000000140033b08     DirectXTK:SpriteFont.obj
 0002:00001b20       ??_7SpriteFont@DirectX@@6B@ 0000000140033b20     DirectXTK:SpriteFont.obj
 0002:00001b28       ??_C@_0CD@BHOGGEGB@Not?5a?5MakeSpriteFont?5output?5bin@ 0000000140033b28     DirectXTK:SpriteFont.obj
 0002:00001b50       ??_C@_0BG@FOOFELFM@Character?5not?5in?5font@ 0000000140033b50     DirectXTK:SpriteFont.obj
 0002:00001b68       ??_C@_0BE@HCIKGJGE@MultiByteToWideChar@ 0000000140033b68     DirectXTK:SpriteFont.obj
 0002:00001b80       ??_C@_09OFBAKMBN@ReadArray@ 0000000140033b80     DirectXTK:SpriteFont.obj
 0002:00001b90       ??_C@_0M@JLKPDLNL@End?5of?5file@ 0000000140033b90     DirectXTK:SpriteFont.obj
 0002:00001bf8       ??_7?$_Ref_count_obj@UResourceMap@?$SharedResourcePool@PEAUID3D11Device@@VImpl@CommonStates@DirectX@@$$V@DirectX@@@std@@6B@ 0000000140033bf8     DirectXTK:CommonStates.obj
 0002:00001d60       ??_7CommonStates@DirectX@@6B@ 0000000140033d60     DirectXTK:CommonStates.obj
 0002:00001d70       ??_7?$_Ref_count_obj@UWrappedData@?$SharedResourcePool@PEAUID3D11Device@@VImpl@CommonStates@DirectX@@$$V@DirectX@@@std@@6B@ 0000000140033d70     DirectXTK:CommonStates.obj
 0002:00001d90       __xmm@00000000000000040000000000000000 0000000140033d90     DirectXTK:CommonStates.obj
 0002:00001da0       __xmm@00000003000000030000000300000015 0000000140033da0     DirectXTK:CommonStates.obj
 0002:00001db0       ?InputElements@VertexPosition@DirectX@@2QBUD3D11_INPUT_ELEMENT_DESC@@B 0000000140033db0     DirectXTK:VertexTypes.obj
 0002:00001dd0       ?InputElements@VertexPositionColor@DirectX@@2QBUD3D11_INPUT_ELEMENT_DESC@@B 0000000140033dd0     DirectXTK:VertexTypes.obj
 0002:00001e10       ?InputElements@VertexPositionTexture@DirectX@@2QBUD3D11_INPUT_ELEMENT_DESC@@B 0000000140033e10     DirectXTK:VertexTypes.obj
 0002:00001e50       ?InputElements@VertexPositionDualTexture@DirectX@@2QBUD3D11_INPUT_ELEMENT_DESC@@B 0000000140033e50     DirectXTK:VertexTypes.obj
 0002:00001eb0       ?InputElements@VertexPositionNormal@DirectX@@2QBUD3D11_INPUT_ELEMENT_DESC@@B 0000000140033eb0     DirectXTK:VertexTypes.obj
 0002:00001ef0       ?InputElements@VertexPositionColorTexture@DirectX@@2QBUD3D11_INPUT_ELEMENT_DESC@@B 0000000140033ef0     DirectXTK:VertexTypes.obj
 0002:00001f50       ?InputElements@VertexPositionNormalColor@DirectX@@2QBUD3D11_INPUT_ELEMENT_DESC@@B 0000000140033f50     DirectXTK:VertexTypes.obj
 0002:00001fb0       ?InputElements@VertexPositionNormalTexture@DirectX@@2QBUD3D11_INPUT_ELEMENT_DESC@@B 0000000140033fb0     DirectXTK:VertexTypes.obj
 0002:00002010       ?InputElements@VertexPositionNormalColorTexture@DirectX@@2QBUD3D11_INPUT_ELEMENT_DESC@@B 0000000140034010     DirectXTK:VertexTypes.obj
 0002:00002090       ?InputElements@VertexPositionNormalTangentColorTexture@DirectX@@2QBUD3D11_INPUT_ELEMENT_DESC@@B 0000000140034090     DirectXTK:VertexTypes.obj
 0002:00002130       ?InputElements@VertexPositionNormalTangentColorTextureSkinning@DirectX@@2QBUD3D11_INPUT_ELEMENT_DESC@@B 0000000140034130     DirectXTK:VertexTypes.obj
 0002:00002210       ??_C@_0M@GMLACIDJ@SV_Position@ 0000000140034210     DirectXTK:VertexTypes.obj
 0002:0000221c       ??_C@_05DPNLPLKI@COLOR@    000000014003421c     DirectXTK:VertexTypes.obj
 0002:00002228       ??_C@_0N@DBILKEJG@BLENDINDICES@ 0000000140034228     DirectXTK:VertexTypes.obj
 0002:00002238       ??_C@_0M@NKNBBMD@BLENDWEIGHT@ 0000000140034238     DirectXTK:VertexTypes.obj
 0002:00002298       ??_C@_0DB@GOKNILKN@ERROR?3?5BinaryReader?5failed?5?$CI?$CF08@ 0000000140034298     DirectXTK:BinaryReader.obj
 0002:000022d0       ??_C@_0N@GGBMDCPN@BinaryReader@ 00000001400342d0     DirectXTK:BinaryReader.obj
 0002:00002308       c_dfDIMouse                0000000140034308     dinput8:dilib1.obj
 0002:00002328       IID_IDirectInput8W         0000000140034328     dxguid:dxguid.obj
 0002:00002338       GUID_XAxis                 0000000140034338     dxguid:dxguid.obj
 0002:00002348       GUID_YAxis                 0000000140034348     dxguid:dxguid.obj
 0002:00002358       GUID_ZAxis                 0000000140034358     dxguid:dxguid.obj
 0002:00002368       GUID_SysMouse              0000000140034368     dxguid:dxguid.obj
 0002:00002378       IID_IDirectSoundBuffer8    0000000140034378     dxguid:dxguid.obj
 0002:00002390       ??_7type_info@@6B@         0000000140034390     MSVCRT:std_type_info_static.obj
 0002:000023c0       ??_C@_1EC@JIJBPKFM@?$AAa?$AAp?$AAi?$AA?9?$AAm?$AAs?$AA?9?$AAw?$AAi?$AAn?$AA?9?$AAc?$AAo?$AAr?$AAe@ 00000001400343c0     MSVCRT:thread_safe_statics.obj
 0002:00002408       ??_C@_1BK@MGMFAEKH@?$AAk?$AAe?$AAr?$AAn?$AAe?$AAl?$AA3?$AA2?$AA?4?$AAd?$AAl?$AAl@ 0000000140034408     MSVCRT:thread_safe_statics.obj
 0002:00002428       ??_C@_0BM@HLJJNPAH@InitializeConditionVariable@ 0000000140034428     MSVCRT:thread_safe_statics.obj
 0002:00002448       ??_C@_0BJ@JEBJOJFJ@SleepConditionVariableCS@ 0000000140034448     MSVCRT:thread_safe_statics.obj
 0002:00002468       ??_C@_0BJ@PGPPEPCC@WakeAllConditionVariable@ 0000000140034468     MSVCRT:thread_safe_statics.obj
 0002:000024a0       ??_7bad_array_new_length@std@@6B@ 00000001400344a0     MSVCRT:throw_bad_alloc.obj
 0002:000024b0       ??_C@_0BF@KINCDENJ@bad?5array?5new?5length@ 00000001400344b0     MSVCRT:throw_bad_alloc.obj
 0002:000024f0       ??_C@_0BC@EOODALEL@Unknown?5exception@ 00000001400344f0     Animation.obj
 0002:00002508       ??_C@_08EPJLHIJG@bad?5cast@ 0000000140034508     Animation.obj
 0002:00002518       ??_C@_0BD@OLBABOEK@vector?$DMT?$DO?5too?5long@ 0000000140034518     Animation.obj
 0002:00002530       ??_C@_0BA@JFNIOLAK@string?5too?5long@ 0000000140034530     Animation.obj
 0002:00002540       ?OneMinusEpsilon@?1??XMQuaternionSlerpV@DirectX@@YQ?AT__m128@@T3@00@Z@4UXMVECTORF32@2@B 0000000140034540     Animation.obj
 0002:00002550       ??_8?$basic_fstream@DU?$char_traits@D@std@@@std@@7B?$basic_ostream@DU?$char_traits@D@std@@@1@@ 0000000140034550     Animation.obj
 0002:00002550       ??_8?$basic_ofstream@DU?$char_traits@D@std@@@std@@7B@ 0000000140034550     SkyboxShader.obj
 0002:00002560       ?SignMask2@?1??XMQuaternionSlerpV@DirectX@@YQ?AT__m128@@T3@00@Z@4UXMVECTORU32@2@B 0000000140034560     Animation.obj
 0002:00002570       ?ATan2Constants@?1??XMVectorATan2@DirectX@@YQ?AT__m128@@T3@0@Z@4UXMVECTORF32@2@B 0000000140034570     Animation.obj
 0002:00002588       ??_7?$basic_filebuf@DU?$char_traits@D@std@@@std@@6B@ 0000000140034588     Animation.obj
 0002:00002608       ??_7bad_cast@std@@6B@      0000000140034608     Animation.obj
 0002:00002620       ?XMMMPP@?1??XMQuaternionRotationMatrix@DirectX@@YQ?AT__m128@@UXMMATRIX@2@@Z@4UXMVECTORF32@2@B 0000000140034620     Animation.obj
 0002:00002630       ?Sign@?1??XMQuaternionRotationRollPitchYawFromVector@DirectX@@YQ?AT__m128@@T3@@Z@4UXMVECTORF32@2@B 0000000140034630     DebugCamera.obj
 0002:00002630       ?XMPMMP@?1??XMQuaternionRotationMatrix@DirectX@@YQ?AT__m128@@UXMMATRIX@2@@Z@4UXMVECTORF32@2@B 0000000140034630     Animation.obj
 0002:00002648       ??_7?$basic_fstream@DU?$char_traits@D@std@@@std@@6B@ 0000000140034648     Animation.obj
 0002:00002650       ?g_XMArcCoefficients1@DirectX@@3UXMVECTORF32@1@B 0000000140034650     Animation.obj
 0002:00002660       ?g_XMInfinity@DirectX@@3UXMVECTORI32@1@B 0000000140034660     Animation.obj
 0002:00002670       ?g_XMIdentityR1@DirectX@@3UXMVECTORF32@1@B 0000000140034670     Animation.obj
 0002:00002680       ?g_XMCosCoefficients1@DirectX@@3UXMVECTORF32@1@B 0000000140034680     Animation.obj
 0002:00002690       ?g_XMATanCoefficients1@DirectX@@3UXMVECTORF32@1@B 0000000140034690     Animation.obj
 0002:000026a0       ?g_XMQNaN@DirectX@@3UXMVECTORI32@1@B 00000001400346a0     Animation.obj
 0002:000026b0       ?g_XMTwoPi@DirectX@@3UXMVECTORF32@1@B 00000001400346b0     Animation.obj
 0002:000026c0       ?g_XMPi@DirectX@@3UXMVECTORF32@1@B 00000001400346c0     Animation.obj
 0002:000026d0       ?g_XMIdentityR0@DirectX@@3UXMVECTORF32@1@B 00000001400346d0     Animation.obj
 0002:000026e0       ?g_XMFixUnsigned@DirectX@@3UXMVECTORF32@1@B 00000001400346e0     Animation.obj
 0002:000026f0       ?g_XMIdentityR2@DirectX@@3UXMVECTORF32@1@B 00000001400346f0     Animation.obj
 0002:00002700       ?g_XMMask3@DirectX@@3UXMVECTORU32@1@B 0000000140034700     Animation.obj
 0002:00002700       ?g_XMSelect1110@DirectX@@3UXMVECTORU32@1@B 0000000140034700     Animation.obj
 0002:00002710       ?g_XMAbsMask@DirectX@@3UXMVECTORI32@1@B 0000000140034710     Animation.obj
 0002:00002720       ?g_XMSinCoefficients0@DirectX@@3UXMVECTORF32@1@B 0000000140034720     Animation.obj
 0002:00002730       ?g_XMNegativeZero@DirectX@@3UXMVECTORU32@1@B 0000000140034730     Animation.obj
 0002:00002740       ?g_XMEpsilon@DirectX@@3UXMVECTORF32@1@B 0000000140034740     Animation.obj
 0002:00002750       ?g_XMSinCoefficients1@DirectX@@3UXMVECTORF32@1@B 0000000140034750     Animation.obj
 0002:00002760       ?g_XMNegativeOne@DirectX@@3UXMVECTORF32@1@B 0000000140034760     Animation.obj
 0002:00002770       ?g_XMMaskY@DirectX@@3UXMVECTORU32@1@B 0000000140034770     Animation.obj
 0002:00002780       ?g_XMATanCoefficients0@DirectX@@3UXMVECTORF32@1@B 0000000140034780     Animation.obj
 0002:00002790       ?g_XMNoFraction@DirectX@@3UXMVECTORF32@1@B 0000000140034790     Animation.obj
 0002:000027a0       ?g_XMIdentityR3@DirectX@@3UXMVECTORF32@1@B 00000001400347a0     Animation.obj
 0002:000027b0       ?g_XMOneHalf@DirectX@@3UXMVECTORF32@1@B 00000001400347b0     Animation.obj
 0002:000027c0       ?g_XMReciprocalTwoPi@DirectX@@3UXMVECTORF32@1@B 00000001400347c0     Animation.obj
 0002:000027d0       ?g_XMMaskXY@DirectX@@3UXMVECTORU32@1@B 00000001400347d0     Animation.obj
 0002:000027e0       ?g_XMCosCoefficients0@DirectX@@3UXMVECTORF32@1@B 00000001400347e0     Animation.obj
 0002:000027f0       ?g_XMOne@DirectX@@3UXMVECTORF32@1@B 00000001400347f0     Animation.obj
 0002:000027f0       ?White@Colors@DirectX@@3UXMVECTORF32@2@B 00000001400347f0     graphicsclass.obj
 0002:00002800       ?g_XMNegateZ@DirectX@@3UXMVECTORF32@1@B 0000000140034800     Animation.obj
 0002:00002810       ?g_XMZero@DirectX@@3UXMVECTORF32@1@B 0000000140034810     Animation.obj
 0002:00002820       ?g_XMHalfPi@DirectX@@3UXMVECTORF32@1@B 0000000140034820     Animation.obj
 0002:00002830       ?g_XMArcCoefficients0@DirectX@@3UXMVECTORF32@1@B 0000000140034830     Animation.obj
 0002:00002840       ??_8?$basic_fstream@DU?$char_traits@D@std@@@std@@7B?$basic_istream@DU?$char_traits@D@std@@@1@@ 0000000140034840     Animation.obj
 0002:00002850       ?Constant1110@?1??XMMatrixRotationQuaternion@DirectX@@YQ?AUXMMATRIX@2@T__m128@@@Z@4UXMVECTORF32@2@B 0000000140034850     Animation.obj
 0002:00002860       ?XMMPMP@?1??XMQuaternionRotationMatrix@DirectX@@YQ?AT__m128@@UXMMATRIX@2@@Z@4UXMVECTORF32@2@B 0000000140034860     Animation.obj
 0002:00002878       ??_7BombEnemy@@6B@         0000000140034878     BombEnemy.obj
 0002:000028b0       ??_7Bullet@@6B@            00000001400348b0     Bullet.obj
 0002:000028d0       ?selectMask@?1??Permute@?$PermuteHelper@$0FF@$00$0A@$00$00@Internal@DirectX@@SQ?AT__m128@@T5@0@Z@4UXMVECTORU32@4@B 00000001400348d0     DebugCamera.obj
 0002:000028e0       ?selectMask@?1??Permute@?$PermuteHelper@$0KK@$00$00$0A@$00@Internal@DirectX@@SQ?AT__m128@@T5@0@Z@4UXMVECTORU32@4@B 00000001400348e0     DebugCamera.obj
 0002:000028f0       ?selectMask@?1??Permute@?$PermuteHelper@$0A@$0A@$00$00$00@Internal@DirectX@@SQ?AT__m128@@T5@0@Z@4UXMVECTORU32@4@B 00000001400348f0     DebugCamera.obj
 0002:00002908       ??_7Enemy@@6B@             0000000140034908     Enemy.obj
 0002:00002938       ??_C@_0BG@FCADABAK@Assets?1BombEnemy?4mesh@ 0000000140034938     EnemyManager.obj
 0002:00002950       ??_C@_0BG@CMDELJOJ@Assets?1BombEnemy?4anim@ 0000000140034950     EnemyManager.obj
 0002:00002968       ??_C@_0BH@DOEGNCAA@Assets?1Teddy_Idle?4mesh@ 0000000140034968     EnemyManager.obj
 0002:00002980       ??_C@_0BK@KIPAMEDN@Assets?1Teddy_Attack1?4anim@ 0000000140034980     EnemyManager.obj
 0002:000029a0       ??_C@_0BI@IKEFPPG@Assets?1RobotAttack?4mesh@ 00000001400349a0     EnemyManager.obj
 0002:000029b8       ??_C@_0BI@HGJDOHBF@Assets?1RobotAttack?4anim@ 00000001400349b8     EnemyManager.obj
 0002:000029d0       ??_C@_0BG@IIIGIPCL@Assets?1RobotMove?4anim@ 00000001400349d0     EnemyManager.obj
 0002:000029e8       ??_C@_0BJ@OLKGIEIA@Assets?1BombExplosion?4wav@ 00000001400349e8     EnemyManager.obj
 0002:00002a10       ??_7GameObject@@6B@        0000000140034a10     GameObject.obj
 0002:00002a30       _GUID_6f15aaf2_d208_4e89_9ab4_489535d34f9c 0000000140034a30     dxstuff.obj
 0002:00002a40       _GUID_7b7166ec_21c7_44ae_b21a_c9ae321ae369 0000000140034a40     dxstuff.obj
 0002:00002a50       ??_C@_0BD@PHPDAEF@Assets?1Ground?4mesh@ 0000000140034a50     graphicsclass.obj
 0002:00002a68       ??_C@_0BD@NJOOLGBI@Assets?1SkyBox?4mesh@ 0000000140034a68     graphicsclass.obj
 0002:00002a80       ??_C@_0BJ@JLPGDCF@Assets?1OutsideWalls?4mesh@ 0000000140034a80     graphicsclass.obj
 0002:00002aa0       ??_C@_1DM@CMCNEDNG@?$AAD?$AAr?$AAa?$AAw?$AAi?$AAn?$AAg?$AAS?$AAt?$AAu?$AAf?$AAf?$AA?1?$AAA?$AAr@ 0000000140034aa0     graphicsclass.obj
 0002:00002ae0       ??_C@_1EE@GLOJBGNP@?$AAD?$AAr?$AAa?$AAw?$AAi?$AAn?$AAg?$AAS?$AAt?$AAu?$AAf?$AAf?$AA?1?$AAC?$AAo@ 0000000140034ae0     graphicsclass.obj
 0002:00002b28       ??_C@_0P@IKPNGNAF@Enemies?5Left?3?5@ 0000000140034b28     GameManager.obj
 0002:00002b38       ??_C@_08PIPILBOG@Health?3?5@ 0000000140034b38     GameManager.obj
 0002:00002b48       ??_C@_0BH@EENJLKIC@Current?5Weapon?3?5Pistol@ 0000000140034b48     GameManager.obj
 0002:00002b60       ??_C@_0CA@DIFNKLOM@Current?5Weapon?3?5Sub?9Machine?5Gun@ 0000000140034b60     GameManager.obj
 0002:00002b80       ??_C@_0BM@INAFNBDN@Current?5Weapon?3?5Machine?5Gun@ 0000000140034b80     GameManager.obj
 0002:00002ba0       ??_C@_0N@HJMCCKCF@Total?5Time?3?5@ 0000000140034ba0     GameManager.obj
 0002:00002bb0       ??_C@_08IHBPHCLF@Points?3?5@ 0000000140034bb0     GameManager.obj
 0002:00002bc0       ??_C@_0BC@JNFJDEC@Damage?5Increase?3?5@ 0000000140034bc0     GameManager.obj
 0002:00002bd4       ??_C@_06NPAAKFED@Player@   0000000140034bd4     GameManager.obj
 0002:00002be0       ??_C@_0BD@JLHCCJNP@Assets?1Sphere?4mesh@ 0000000140034be0     GameManager.obj
 0002:00002bf8       ??_C@_0M@BPIOOMHP@Gunshot?4wav@ 0000000140034bf8     GameManager.obj
 0002:00002c08       ??_C@_0BJ@PMLIBGMN@Assets?1HealthPickup?4mesh@ 0000000140034c08     GameManager.obj
 0002:00002c28       ??_C@_0BJ@JFJKJAAF@Assets?1DamagePickup?4mesh@ 0000000140034c28     GameManager.obj
 0002:00002c44       ??_C@_05IFKAJBFC@Enemy@    0000000140034c44     GameManager.obj
 0002:00002c50       ??_C@_0BE@NJCDFMLO@Assets?1Headshot?4wav@ 0000000140034c50     GameManager.obj
 0002:00002c68       ??_C@_0BF@NKDLPDJH@Assets?1Explosion?4wav@ 0000000140034c68     GameManager.obj
 0002:00002c80       ??_C@_0BE@IBEMHMEH@Assets?1HitSound?4wav@ 0000000140034c80     GameManager.obj
 0002:00002c98       ??_C@_0BI@CDGJIFMA@Assets?1DamagePickup?4wav@ 0000000140034c98     GameManager.obj
 0002:00002cb0       ??_C@_0BB@NMPIBADB@Assets?1Boost?4wav@ 0000000140034cb0     GameManager.obj
 0002:00002cc8       ??_C@_0BL@CMELEJK@Assets?1DamagePickupEnd?4wav@ 0000000140034cc8     GameManager.obj
 0002:00002ce8       ??_C@_0M@MGGCPFLG@YOU?5LOSE?$CB?$CB?$CB@ 0000000140034ce8     GameManager.obj
 0002:00002cf4       ??_C@_04GBOBDPBG@QUIT@     0000000140034cf4     GameManager.obj
 0002:00002d00       ??_C@_0BP@MEEGMAJH@DrawingStuff?1ButtonDefault?4dds@ 0000000140034d00     GameManager.obj
 0002:00002d20       ??_C@_0CB@GFEEFPLK@DrawingStuff?1ButtonMouseOver?4dd@ 0000000140034d20     GameManager.obj
 0002:00002d48       ??_C@_0CC@MOKIPAGO@DrawingStuff?1ButtonMouseClick?4d@ 0000000140034d48     GameManager.obj
 0002:00002d70       ??_C@_0BH@EAHBGKOD@Assets?1Teddy_Idle?4anim@ 0000000140034d70     GameManager.obj
 0002:00002d88       ??_C@_0BG@BCAFJCNP@Assets?1Teddy_Run?4anim@ 0000000140034d88     GameManager.obj
 0002:00002da0       ??_C@_0BF@JKJOMCEG@Assets?1Obstacle?4mesh@ 0000000140034da0     GameManager.obj
 0002:00002db8       ??_C@_0BM@KLNMINLK@DrawingStuff?1almostDead?4dds@ 0000000140034db8     GameManager.obj
 0002:00002e10       ??_C@_00CNPNBAHC@@         0000000140034e10     MyWindow.obj
 0002:00002e18       ??_C@_1CE@PKDEPIFG@?$AAR?$AAo?$AAb?$AAo?$AAt?$AAA?$AAn?$AAn?$AAi?$AAh?$AAi?$AAl?$AAa?$AAt?$AAi@ 0000000140034e18     MyWindow.obj
 0002:00002e40       ??_C@_08NHKOCLHA@Volume?3?5@ 0000000140034e40     MyWindow.obj
 0002:00002e4c       ??_C@_05MKOPJMEO@FPS?3?5@  0000000140034e4c     MyWindow.obj
 0002:00002e58       ??_C@_0BD@JEILFCFE@Robot?5Annihilation@ 0000000140034e58     MyWindow.obj
 0002:00002e70       ??_C@_0BK@ODPCFCEA@DrawingStuff?1MainMenu?4dds@ 0000000140034e70     MyWindow.obj
 0002:00002e8c       ??_C@_05FHMJPCKA@Start@    0000000140034e8c     MyWindow.obj
 0002:00002e98       ??_C@_07KHIHFBFN@Options@  0000000140034e98     MyWindow.obj
 0002:00002ea0       ??_C@_04GMBKPCGK@Quit@     0000000140034ea0     MyWindow.obj
 0002:00002ea8       ??_C@_06DEPGELNG@Resume@   0000000140034ea8     MyWindow.obj
 0002:00002eb0       ??_C@_09JDDCPHDA@Main?5Menu@ 0000000140034eb0     MyWindow.obj
 0002:00002ec0       ??_C@_0BM@PIHJJFNC@DrawingStuff?1pauseBkrnd?4dds@ 0000000140034ec0     MyWindow.obj
 0002:00002ee0       ??_C@_07KDKMIPIP@OPTIONS@  0000000140034ee0     MyWindow.obj
 0002:00002ee8       ??_C@_06EIAEKLLO@VOLUME@   0000000140034ee8     MyWindow.obj
 0002:00002ef0       ??_C@_01MIFGBAGJ@?$CL@     0000000140034ef0     MyWindow.obj
 0002:00002ef4       ??_C@_01JOAMLHOP@?9@       0000000140034ef4     MyWindow.obj
 0002:00002ef8       ??_C@_04FEOMFELI@Back@     0000000140034ef8     MyWindow.obj
 0002:00002f00       ??_C@_0CC@HDIAIBCK@DrawingStuff?1optionsBackround?4d@ 0000000140034f00     MyWindow.obj
 0002:00002f28       ??_C@_09DJPGGPJI@Enemies?3?5@ 0000000140034f28     MyWindow.obj
 0002:00002f38       ??_C@_0BJ@ODLECDDD@DrawingStuff?1EnemyUI?4dds@ 0000000140034f38     MyWindow.obj
 0002:00002f58       ??_C@_0BK@IDKGLOHC@DrawingStuff?1HealthUI?4dds@ 0000000140034f58     MyWindow.obj
 0002:00002f78       ??_C@_0BL@LEGJKGBE@DrawingStuff?1Crosshair?4dds@ 0000000140034f78     MyWindow.obj
 0002:00002f98       ??_C@_0BB@DPAJFKKK@Current?5Weapon?3?5@ 0000000140034f98     MyWindow.obj
 0002:000031b0       ??_7Pickup@@6B@            00000001400351b0     Pickup.obj
 0002:000031d8       ??_7Player@@6B@            00000001400351d8     Player.obj
 0002:00003200       ??_7RangedEnemy@@6B@       0000000140035200     RangedEnemy.obj
 0002:00003230       ??_C@_0BG@PHDGOECK@Assets?1EnemyShoot?4wav@ 0000000140035230     RangedEnemy.obj
 0002:00003248       ??_C@_1CI@FINAKGGO@?$AA?$CF?$AAA?$AA_?$AA?$CF?$AAb?$AA?$CF?$AAd?$AA_?$AA?$CF?$AAI?$AA?$CF?$AAM?$AA?$CF?$AAp?$AA?4@ 0000000140035248     RobotAnnihilation.obj
 0002:00003270       ??_C@_1BM@PEAPHLJH@?$AAS?$AAk?$AAy?$AAb?$AAo?$AAx?$AAD?$AAD?$AAS?$AA?4?$AAd?$AAd?$AAs@ 0000000140035270     ShaderManager.obj
 0002:0000328c       ??_C@_03BLHALONB@M16@      000000014003528c     Shop.obj
 0002:00003290       ??_C@_09PFJHDHCD@FN?5Scar?9L@ 0000000140035290     Shop.obj
 0002:000032a0       ??_C@_0BM@DFKIGMOA@M16?5Is?5A?5Basic?5Assult?5Rifle@ 00000001400352a0     Shop.obj
 0002:000032bc       ??_C@_03HECBDPE@ACR@       00000001400352bc     Shop.obj
 0002:000032c0       ??_C@_0CG@OOIKBJAK@FN?5Scar?9L?5Is?5An?5Upgraded?5Assult@ 00000001400352c0     Shop.obj
 0002:000032e8       ??_C@_03ELHOCOIH@MP7@      00000001400352e8     Shop.obj
 0002:000032f0       ??_C@_0CG@KPHPHEHJ@ACR?5Is?5An?5Ultra?5Upgraded?5Assult@ 00000001400352f0     Shop.obj
 0002:00003318       ??_C@_05DNFOMJO@PP?919@    0000000140035318     Shop.obj
 0002:00003320       ??_C@_0BP@EMEDNAPN@MP7?5Is?5A?5Basic?5Sub?9Machine?5Gun@ 0000000140035320     Shop.obj
 0002:00003340       ??_C@_03OBEKMHKN@P90@      0000000140035340     Shop.obj
 0002:00003348       ??_C@_0CF@HGPPDECP@PP?919?5Is?5An?5Upgraded?5Sub?9Machin@ 0000000140035348     Shop.obj
 0002:00003370       ??_C@_02HGHILFME@M9@       0000000140035370     Shop.obj
 0002:00003378       ??_C@_0CJ@FILNMHMB@P90?5Is?5An?5Ultra?5Upgraded?5Sub?9Ma@ 0000000140035378     Shop.obj
 0002:000033a8       ??_C@_08FJFDHDHA@Glock?918@ 00000001400353a8     Shop.obj
 0002:000033b8       ??_C@_0BH@JFCNLLKC@M9?5Is?5A?5Basic?5Hand?5Gun@ 00000001400353b8     Shop.obj
 0002:000033d0       ??_C@_0N@FAMDEIAF@Desert?5Eagle@ 00000001400353d0     Shop.obj
 0002:000033e0       ??_C@_0CC@DLBFKNNG@Glock?918?5?5Is?5An?5Upgraded?5Hand?5G@ 00000001400353e0     Shop.obj
 0002:00003408       ??_C@_0O@ENGDBMFC@Base?5Ball?5Bat@ 0000000140035408     Shop.obj
 0002:00003418       ??_C@_0CL@OPCHLCNM@Desert?5Eagle?5Is?5An?5Ultra?5Upgrad@ 0000000140035418     Shop.obj
 0002:00003448       ??_C@_08PIBFMDPB@Fire?5Axe@ 0000000140035448     Shop.obj
 0002:00003458       ??_C@_0CG@JHKPJGKM@Base?5Ball?5Bat?5Is?5A?5Basic?5Melee?5@ 0000000140035458     Shop.obj
 0002:00003480       ??_C@_0L@PMMLIOHA@BroadSword@ 0000000140035480     Shop.obj
 0002:00003490       ??_C@_0CF@EBDEKKAL@Fire?5Axe?5Is?5An?5Upgraded?5Melee?5W@ 0000000140035490     Shop.obj
 0002:000034b8       ??_C@_04HIBGFPH@NULL@      00000001400354b8     Shop.obj
 0002:000034c0       ??_C@_0CO@GIFAFAME@Broad?5Sword?5Is?5An?5Ultra?5Upgrade@ 00000001400354c0     Shop.obj
 0002:000034f0       ??_C@_09FMLLPGHB@desc?5text@ 00000001400354f0     Shop.obj
 0002:000034fc       ??_C@_04IDNEMGLE@BLAH@     00000001400354fc     Shop.obj
 0002:00003508       ??_C@_0L@MALGKGOF@Background@ 0000000140035508     Shop.obj
 0002:00003518       ??_C@_0M@OHKMKKDH@Description@ 0000000140035518     Shop.obj
 0002:00003528       ??_C@_08BPJNELHM@ARButton@ 0000000140035528     Shop.obj
 0002:00003538       ??_C@_0BL@JJMBAAIG@DrawingStuff?1ShopBkrnd?4dds@ 0000000140035538     Shop.obj
 0002:00003558       ??_C@_09JKFCMGLE@SMGButton@ 0000000140035558     Shop.obj
 0002:00003568       ??_C@_0N@HLHKLFIG@Assult?5Rifle@ 0000000140035568     Shop.obj
 0002:00003578       ??_C@_0N@IIHHBNG@PistolButton@ 0000000140035578     Shop.obj
 0002:00003588       ??_C@_0BG@MCNEBOPD@Sub?9Machine?5Gun?5Rifle@ 0000000140035588     Shop.obj
 0002:000035a0       ??_C@_0M@JGMAHIOM@MeleeButton@ 00000001400355a0     Shop.obj
 0002:000035b0       ??_C@_0P@DLLBIDBM@Hand?5Gun?5Rifle@ 00000001400355b0     Shop.obj
 0002:000035c0       ??_C@_07CJFOONCK@Upgrade@  00000001400355c0     Shop.obj
 0002:000035c8       ??_C@_0N@PBIKEDED@Melee?5Weapon@ 00000001400355c8     Shop.obj
 0002:000035d8       ??_C@_07CNHFDDPI@UPGRADE@  00000001400355d8     Shop.obj
 0002:000035e0       ??_C@_0BE@JONHPENG@map?1set?$DMT?$DO?5too?5long@ 00000001400355e0     Shop.obj
 0002:00003718       ??_C@_1BE@NOADCLDE@?$AAS?$AAk?$AAy?$AAb?$AAo?$AAx?$AA?4?$AAp?$AAs@ 0000000140035718     SkyboxShader.obj
 0002:0000372c       ??_C@_06KFINLFAI@vs_5_0@   000000014003572c     SkyboxShader.obj
 0002:00003738       ??_C@_1BE@IFKMICJ@?$AAS?$AAk?$AAy?$AAb?$AAo?$AAx?$AA?4?$AAv?$AAs@ 0000000140035738     SkyboxShader.obj
 0002:0000374c       ??_C@_06MGFNIADC@ps_5_0@   000000014003574c     SkyboxShader.obj
 0002:00003758       ??_C@_0N@GHJAGKJK@SkyboxVertex@ 0000000140035758     SkyboxShader.obj
 0002:00003768       ??_C@_08JPMAAECC@POSITION@ 0000000140035768     SkyboxShader.obj
 0002:00003774       ??_C@_04GHJNJNPO@main@     0000000140035774     SkyboxShader.obj
 0002:00003780       ??_C@_08CMDKBPJM@TEXCOORD@ 0000000140035780     SkyboxShader.obj
 0002:0000378c       ??_C@_06IOJAGNKJ@NORMAL@   000000014003578c     SkyboxShader.obj
 0002:00003794       ??_C@_06KIONCPMC@JOINTS@   0000000140035794     SkyboxShader.obj
 0002:000037a0       ??_C@_07HOFFNMLH@TANGENT@  00000001400357a0     SkyboxShader.obj
 0002:000037a8       ??_C@_0BB@CPLHHHAN@ShaderErrors?4txt@ 00000001400357a8     SkyboxShader.obj
 0002:000037c0       ??_C@_07LFAKKHED@WEIGHTS@  00000001400357c0     SkyboxShader.obj
 0002:000037d0       ??_7?$basic_ofstream@DU?$char_traits@D@std@@@std@@6B@ 00000001400357d0     SkyboxShader.obj
 0002:000037d8       ??_C@_02JDPG@rb@           00000001400357d8     Sound.obj
 0002:000037e0       ??_C@_1BO@LHCOKABK@?$AAP?$AAi?$AAx?$AAe?$AAl?$AAS?$AAh?$AAa?$AAd?$AAe?$AAr?$AA?4?$AAp?$AAs@ 00000001400357e0     StaticShader.obj
 0002:00003800       ??_C@_04KGFMLCPK@Main@     0000000140035800     StaticShader.obj
 0002:00003808       ??_C@_1CM@BBMBNGLM@?$AAV?$AAe?$AAr?$AAt?$AAe?$AAx?$AAS?$AAh?$AAa?$AAd?$AAe?$AAr?$AAS?$AAt?$AAa@ 0000000140035808     StaticShader.obj
 0002:00003840       ??_7TextElement@@6B@       0000000140035840     UIElement.obj
 0002:00003858       ??_7ButtonElement@@6B@     0000000140035858     UIElement.obj
 0002:00003870       ??_7UIElement@@6B@         0000000140035870     UIElement.obj
 0002:00003888       ??_7ImageElement@@6B@      0000000140035888     UIElement.obj
 0002:000038a0       ??_7Target@@6B@            00000001400358a0     Target.obj
 0002:000038d0       ??_C@_1DA@BEBIPIPI@?$AAS?$AAy?$AAs?$AAt?$AAe?$AAm?$AA?4?$AAI?$AAm?$AAa?$AAg?$AAe?$AA?4?$AAC?$AAo@ 00000001400358d0     WICTextureLoader.obj
 0002:00003900       ??_C@_1CM@MFDJCGCC@?$AA?1?$AAs?$AAR?$AAG?$AAB?$AA?1?$AAR?$AAe?$AAn?$AAd?$AAe?$AAr?$AAi?$AAn?$AAg@ 0000000140035900     WICTextureLoader.obj
 0002:00003930       _GUID_7b816b45_1996_4476_b132_de9e247c8af0 0000000140035930     WICTextureLoader.obj
 0002:00003940       _GUID_ec5ec8a9_c395_4314_9c77_54d7a935ff70 0000000140035940     WICTextureLoader.obj
 0002:00003950       _GUID_e8eda601_3d48_431a_ab44_69059be88bbe 0000000140035950     WICTextureLoader.obj
 0002:00003960       ??_C@_1CA@JLBIJNHP@?$AAV?$AAe?$AAr?$AAt?$AAe?$AAx?$AAS?$AAh?$AAa?$AAd?$AAe?$AAr?$AA?4?$AAv?$AAs@ 0000000140035960     shaderstuff.obj
 0002:00003b60       __real@32cd365b            0000000140035b60     DebugCamera.obj
 0002:00003b64       __real@348bdd11            0000000140035b64     DebugCamera.obj
 0002:00003b68       __real@3638b88e            0000000140035b68     DebugCamera.obj
 0002:00003b6c       __real@37cfb4c2            0000000140035b6c     DebugCamera.obj
 0002:00003b70       __real@39500bf1            0000000140035b70     DebugCamera.obj
 0002:00003b74       __real@3ab609aa            0000000140035b74     DebugCamera.obj
 0002:00003b78       __real@3c088886            0000000140035b78     DebugCamera.obj
 0002:00003b7c       __real@3ccccccd            0000000140035b7c     GameObject.obj
 0002:00003b80       __real@3d2aaaa3            0000000140035b80     DebugCamera.obj
 0002:00003b84       __real@3dcccccd            0000000140035b84     Camera.obj
 0002:00003b88       __real@3e22f983            0000000140035b88     DebugCamera.obj
 0002:00003b8c       __real@3e2aaaab            0000000140035b8c     DebugCamera.obj
 0002:00003b90       __real@3e800000            0000000140035b90     Player.obj
 0002:00003b94       __real@3e99999a            0000000140035b94     DebugCamera.obj
 0002:00003b98       __real@3ec90fdb            0000000140035b98     dxstuff.obj
 0002:00003b9c       __real@3ecccccd            0000000140035b9c     Bullet.obj
 0002:00003ba0       __real@3f000000            0000000140035ba0     DebugCamera.obj
 0002:00003ba4       __real@3f333333            0000000140035ba4     GameManager.obj
 0002:00003ba8       __real@3f400000            0000000140035ba8     Player.obj
 0002:00003bac       __real@3f4ccccd            0000000140035bac     BombEnemy.obj
 0002:00003bb0       __real@3f800000            0000000140035bb0     Target.obj
 0002:00003bb4       __real@3fa66666            0000000140035bb4     GameManager.obj
 0002:00003bb8       __real@3fb999999999999a    0000000140035bb8     XTime.obj
 0002:00003bc0       __real@3fc00000            0000000140035bc0     GameManager.obj
 0002:00003bc4       __real@3fc90fd0            0000000140035bc4     Player.obj
 0002:00003bc8       __real@3fc90fdb            0000000140035bc8     DebugCamera.obj
 0002:00003bd0       __real@3fd0000000000000    0000000140035bd0     graphicsclass.obj
 0002:00003bd8       __real@3ff0000000000000    0000000140035bd8     XTime.obj
 0002:00003be0       __real@3ff8000000000000    0000000140035be0     graphicsclass.obj
 0002:00003be8       __real@40000000            0000000140035be8     GameManager.obj
 0002:00003bec       __real@40200000            0000000140035bec     GameManager.obj
 0002:00003bf0       __real@4034000000000000    0000000140035bf0     Camera.obj
 0002:00003bf8       __real@40400000            0000000140035bf8     Target.obj
 0002:00003bfc       __real@40490fdb            0000000140035bfc     DebugCamera.obj
 0002:00003c00       __real@40600000            0000000140035c00     Target.obj
 0002:00003c04       __real@40800000            0000000140035c04     GameManager.obj
 0002:00003c08       __real@40a00000            0000000140035c08     GameManager.obj
 0002:00003c0c       __real@40c90fdb            0000000140035c0c     DebugCamera.obj
 0002:00003c10       __real@40e00000            0000000140035c10     GameManager.obj
 0002:00003c14       __real@41000000            0000000140035c14     GameManager.obj
 0002:00003c18       __real@41200000            0000000140035c18     GameManager.obj
 0002:00003c1c       __real@41400000            0000000140035c1c     Shop.obj
 0002:00003c20       __real@41500000            0000000140035c20     GameManager.obj
 0002:00003c24       __real@41700000            0000000140035c24     DebugCamera.obj
 0002:00003c28       __real@41900000            0000000140035c28     Shop.obj
 0002:00003c2c       __real@41980000            0000000140035c2c     Shop.obj
 0002:00003c30       __real@41a00000            0000000140035c30     Shop.obj
 0002:00003c34       __real@41c80000            0000000140035c34     Shop.obj
 0002:00003c38       __real@41f00000            0000000140035c38     GameManager.obj
 0002:00003c3c       __real@420c0000            0000000140035c3c     Shop.obj
 0002:00003c40       __real@42200000            0000000140035c40     Shop.obj
 0002:00003c44       __real@42280000            0000000140035c44     MyWindow.obj
 0002:00003c48       __real@42480000            0000000140035c48     Shop.obj
 0002:00003c4c       __real@42700000            0000000140035c4c     MyWindow.obj
 0002:00003c50       __real@428c0000            0000000140035c50     Shop.obj
 0002:00003c54       __real@429c0000            0000000140035c54     Player.obj
 0002:00003c58       __real@42c80000            0000000140035c58     BombEnemy.obj
 0002:00003c5c       __real@43160000            0000000140035c5c     Shop.obj
 0002:00003c60       __real@43200000            0000000140035c60     Shop.obj
 0002:00003c64       __real@43480000            0000000140035c64     Target.obj
 0002:00003c68       __real@43610000            0000000140035c68     Shop.obj
 0002:00003c6c       __real@43960000            0000000140035c6c     graphicsclass.obj
 0002:00003c70       __real@43b40000            0000000140035c70     GameManager.obj
 0002:00003c74       __real@43fa0000            0000000140035c74     Shop.obj
 0002:00003c78       __real@44070000            0000000140035c78     MyWindow.obj
 0002:00003c7c       __real@44138000            0000000140035c7c     MyWindow.obj
 0002:00003c80       __real@44200000            0000000140035c80     GameManager.obj
 0002:00003c84       __real@44638000            0000000140035c84     MyWindow.obj
 0002:00003c88       __real@446b0000            0000000140035c88     MyWindow.obj
 0002:00003c8c       __real@44700000            0000000140035c8c     MyWindow.obj
 0002:00003c90       __real@44750000            0000000140035c90     MyWindow.obj
 0002:00003c94       __real@447a0000            0000000140035c94     MyWindow.obj
 0002:00003c98       __real@44848000            0000000140035c98     MyWindow.obj
 0002:00003c9c       __real@44870000            0000000140035c9c     MyWindow.obj
 0002:00003ca0       __real@44c80000            0000000140035ca0     MyWindow.obj
 0002:00003ca4       __real@44e10000            0000000140035ca4     MyWindow.obj
 0002:00003ca8       __real@44f00000            0000000140035ca8     MyWindow.obj
 0002:00003cac       __real@453b8000            0000000140035cac     RangedEnemy.obj
 0002:00003cb0       __real@461c4000            0000000140035cb0     graphicsclass.obj
 0002:00003cb4       __real@46fffe00            0000000140035cb4     Target.obj
 0002:00003cb8       __real@5f800000            0000000140035cb8     WICTextureLoader.obj
 0002:00003cbc       __real@7f7fffff            0000000140035cbc     SkyboxShader.obj
 0002:00003cc0       __real@be800000            0000000140035cc0     Camera.obj
 0002:00003cc4       __real@be99999a            0000000140035cc4     DebugCamera.obj
 0002:00003cc8       __real@bf000000            0000000140035cc8     GameManager.obj
 0002:00003ccc       __real@bf4ccccd            0000000140035ccc     Target.obj
 0002:00003cd0       __real@bf800000            0000000140035cd0     DebugCamera.obj
 0002:00003cd4       __real@bfc90fd0            0000000140035cd4     Player.obj
 0002:00003cd8       __real@bfc90fdb            0000000140035cd8     DebugCamera.obj
 0002:00003cdc       __real@c0490fdb            0000000140035cdc     DebugCamera.obj
 0002:00003ce0       __real@c2c80000            0000000140035ce0     GameManager.obj
 0002:00003cf0       __xmm@00000000000000000000000000000001 0000000140035cf0     graphicsclass.obj
 0002:00003d00       __xmm@0000000000000000000000003d0f5c29 0000000140035d00     graphicsclass.obj
 0002:00003d10       __xmm@0000000000000000000000003d4ccccd 0000000140035d10     graphicsclass.obj
 0002:00003d20       __xmm@0000000000000000000000003e800000 0000000140035d20     graphicsclass.obj
 0002:00003d30       __xmm@0000000000000000000000003f800000 0000000140035d30     Camera.obj
 0002:00003d40       __xmm@0000000000000000000000003fa00000 0000000140035d40     graphicsclass.obj
 0002:00003d50       __xmm@00000000000000000000000040000000 0000000140035d50     graphicsclass.obj
 0002:00003d60       __xmm@00000000000000000000000044610000 0000000140035d60     graphicsclass.obj
 0002:00003d70       __xmm@00000000000000000000000200000003 0000000140035d70     dxstuff.obj
 0002:00003d80       __xmm@00000000000000000000000300000003 0000000140035d80     graphicsclass.obj
 0002:00003d90       __xmm@00000000000000003d0f5c2900000000 0000000140035d90     graphicsclass.obj
 0002:00003da0       __xmm@00000000000000003d4ccccd00000000 0000000140035da0     graphicsclass.obj
 0002:00003db0       __xmm@00000000000000003e80000000000000 0000000140035db0     graphicsclass.obj
 0002:00003dc0       __xmm@00000000000000003f80000000000000 0000000140035dc0     Camera.obj
 0002:00003dd0       __xmm@00000000000000003fa0000000000000 0000000140035dd0     graphicsclass.obj
 0002:00003de0       __xmm@00000000000000004000000000000000 0000000140035de0     graphicsclass.obj
 0002:00003df0       __xmm@00000000000000004040000000000000 0000000140035df0     dxstuff.obj
 0002:00003e00       __xmm@00000000000000004461000000000000 0000000140035e00     graphicsclass.obj
 0002:00003e10       __xmm@00000000000000020000000100000001 0000000140035e10     graphicsclass.obj
 0002:00003e20       __xmm@000000000000000f0000000000000000 0000000140035e20     GameManager.obj
 0002:00003e30       __xmm@000000003d0f5c290000000000000000 0000000140035e30     graphicsclass.obj
 0002:00003e40       __xmm@000000003d4ccccd0000000000000000 0000000140035e40     graphicsclass.obj
 0002:00003e50       __xmm@000000003e8000000000000000000000 0000000140035e50     graphicsclass.obj
 0002:00003e60       __xmm@000000003f8000000000000000000000 0000000140035e60     Camera.obj
 0002:00003e70       __xmm@000000003fa000000000000000000000 0000000140035e70     graphicsclass.obj
 0002:00003e80       __xmm@00000000400000000000000000000000 0000000140035e80     graphicsclass.obj
 0002:00003e90       __xmm@00000000446100000000000000000000 0000000140035e90     graphicsclass.obj
 0002:00003ea0       __xmm@00000000bf8000000000000000000000 0000000140035ea0     Camera.obj
 0002:00003eb0       __xmm@00000000c0a000004040000000000000 0000000140035eb0     Camera.obj
 0002:00003ec0       __xmm@00000001000000010000000100000015 0000000140035ec0     StaticShader.obj
 0002:00003ed0       __xmm@00000001000000010000000100000055 0000000140035ed0     SkyboxShader.obj
 0002:00003ee0       __xmm@00000001000000010000000200000000 0000000140035ee0     graphicsclass.obj
 0002:00003ef0       __xmm@00000001000000020000000100000001 0000000140035ef0     dxstuff.obj
 0002:00003f00       __xmm@00000008000000010000000100000001 0000000140035f00     graphicsclass.obj
 0002:00003f10       __xmm@00000008000000010000000700000001 0000000140035f10     dxstuff.obj
 0002:00003f20       __xmm@00000008000000010000000800000001 0000000140035f20     dxstuff.obj
 0002:00003f30       __xmm@3f800000000000003f4000003f99999a 0000000140035f30     graphicsclass.obj
 0002:00003f40       __xmm@3f800000000000003f80000000000000 0000000140035f40     graphicsclass.obj
 0002:00003f50       __xmm@3f8000000000000041c8000000000000 0000000140035f50     graphicsclass.obj
 0002:00003f60       __xmm@3f80000000000000bf400000bf99999a 0000000140035f60     graphicsclass.obj
 0002:00003f70       __xmm@3f80000000000000bf80000000000000 0000000140035f70     graphicsclass.obj
 0002:00003f80       __xmm@3f8000003f8000003f8000003f800000 0000000140035f80     graphicsclass.obj
 0002:00003f90       __xmm@3f80000042c800003f7c6a7f3f7ced91 0000000140035f90     graphicsclass.obj
 0002:00003fa0       __xmm@3f800000c12000004040000000000000 0000000140035fa0     dxstuff.obj
 0002:00003fb0       __xmm@40600000406000004060000040600000 0000000140035fb0     Camera.obj
 0002:00003fc0       __xmm@40a00000412000004040000000000000 0000000140035fc0     graphicsclass.obj
 0002:00003fd0       __xmm@40a00000c12000004040000000000000 0000000140035fd0     graphicsclass.obj
 0002:00003fe0       __xmm@80000000800000008000000080000000 0000000140035fe0     Player.obj
 0002:00003ff0       __xmm@bf800000412000000000000000000000 0000000140035ff0     dxstuff.obj
 0002:00004000       __xmm@ffffffffffffffffffffffffffffffff 0000000140036000     Animation.obj
 0002:00004a80       _load_config_used          0000000140036a80     MSVCRT:loadcfg.obj
 0002:00004b80       _tls_used                  0000000140036b80     MSVCRT:tlssup.obj
 0002:00004bb0       ??_R4?$_Ref_count_obj@UResourceMap@?$SharedResourcePool@PEAUID3D11DeviceContext@@UContextResources@Impl@SpriteBatch@DirectX@@$$V@DirectX@@@std@@6B@ 0000000140036bb0     DirectXTK:SpriteBatch.obj
 0002:00004bd8       ??_R3?$_Ref_count_obj@UResourceMap@?$SharedResourcePool@PEAUID3D11DeviceContext@@UContextResources@Impl@SpriteBatch@DirectX@@$$V@DirectX@@@std@@8 0000000140036bd8     DirectXTK:SpriteBatch.obj
 0002:00004bf0       ??_R2?$_Ref_count_obj@UResourceMap@?$SharedResourcePool@PEAUID3D11DeviceContext@@UContextResources@Impl@SpriteBatch@DirectX@@$$V@DirectX@@@std@@8 0000000140036bf0     DirectXTK:SpriteBatch.obj
 0002:00004c08       ??_R1A@?0A@EA@?$_Ref_count_obj@UResourceMap@?$SharedResourcePool@PEAUID3D11DeviceContext@@UContextResources@Impl@SpriteBatch@DirectX@@$$V@DirectX@@@std@@8 0000000140036c08     DirectXTK:SpriteBatch.obj
 0002:00004c30       ??_R4?$_Ref_count_obj@UResourceMap@?$SharedResourcePool@PEAUID3D11Device@@UDeviceResources@Impl@SpriteBatch@DirectX@@$$V@DirectX@@@std@@6B@ 0000000140036c30     DirectXTK:SpriteBatch.obj
 0002:00004c58       ??_R3?$_Ref_count_obj@UResourceMap@?$SharedResourcePool@PEAUID3D11Device@@UDeviceResources@Impl@SpriteBatch@DirectX@@$$V@DirectX@@@std@@8 0000000140036c58     DirectXTK:SpriteBatch.obj
 0002:00004c70       ??_R2?$_Ref_count_obj@UResourceMap@?$SharedResourcePool@PEAUID3D11Device@@UDeviceResources@Impl@SpriteBatch@DirectX@@$$V@DirectX@@@std@@8 0000000140036c70     DirectXTK:SpriteBatch.obj
 0002:00004c88       ??_R1A@?0A@EA@?$_Ref_count_obj@UResourceMap@?$SharedResourcePool@PEAUID3D11Device@@UDeviceResources@Impl@SpriteBatch@DirectX@@$$V@DirectX@@@std@@8 0000000140036c88     DirectXTK:SpriteBatch.obj
 0002:00004cb0       ??_R3_Ref_count_base@std@@8 0000000140036cb0     DirectXTK:SpriteBatch.obj
 0002:00004cc8       ??_R2_Ref_count_base@std@@8 0000000140036cc8     DirectXTK:SpriteBatch.obj
 0002:00004cd8       ??_R1A@?0A@EA@_Ref_count_base@std@@8 0000000140036cd8     DirectXTK:SpriteBatch.obj
 0002:00004d00       ??_R4bad_alloc@std@@6B@    0000000140036d00     DirectXTK:SpriteBatch.obj
 0002:00004d28       ??_R3bad_alloc@std@@8      0000000140036d28     DirectXTK:SpriteBatch.obj
 0002:00004d40       ??_R2bad_alloc@std@@8      0000000140036d40     DirectXTK:SpriteBatch.obj
 0002:00004d58       ??_R1A@?0A@EA@bad_alloc@std@@8 0000000140036d58     DirectXTK:SpriteBatch.obj
 0002:00004d80       ??_R4SpriteBatch@DirectX@@6B@ 0000000140036d80     DirectXTK:SpriteBatch.obj
 0002:00004da8       ??_R3SpriteBatch@DirectX@@8 0000000140036da8     DirectXTK:SpriteBatch.obj
 0002:00004dc0       ??_R2SpriteBatch@DirectX@@8 0000000140036dc0     DirectXTK:SpriteBatch.obj
 0002:00004dd0       ??_R1A@?0A@EA@SpriteBatch@DirectX@@8 0000000140036dd0     DirectXTK:SpriteBatch.obj
 0002:00004df8       ??_R4com_exception@DirectX@@6B@ 0000000140036df8     DirectXTK:SpriteBatch.obj
 0002:00004e20       ??_R3com_exception@DirectX@@8 0000000140036e20     DirectXTK:SpriteBatch.obj
 0002:00004e38       ??_R2com_exception@DirectX@@8 0000000140036e38     DirectXTK:SpriteBatch.obj
 0002:00004e50       ??_R1A@?0A@EA@com_exception@DirectX@@8 0000000140036e50     DirectXTK:SpriteBatch.obj
 0002:00004e78       ??_R4?$_Ref_count_obj@UWrappedData@?$SharedResourcePool@PEAUID3D11DeviceContext@@UContextResources@Impl@SpriteBatch@DirectX@@$$V@DirectX@@@std@@6B@ 0000000140036e78     DirectXTK:SpriteBatch.obj
 0002:00004ea0       ??_R3?$_Ref_count_obj@UWrappedData@?$SharedResourcePool@PEAUID3D11DeviceContext@@UContextResources@Impl@SpriteBatch@DirectX@@$$V@DirectX@@@std@@8 0000000140036ea0     DirectXTK:SpriteBatch.obj
 0002:00004eb8       ??_R2?$_Ref_count_obj@UWrappedData@?$SharedResourcePool@PEAUID3D11DeviceContext@@UContextResources@Impl@SpriteBatch@DirectX@@$$V@DirectX@@@std@@8 0000000140036eb8     DirectXTK:SpriteBatch.obj
 0002:00004ed0       ??_R1A@?0A@EA@?$_Ref_count_obj@UWrappedData@?$SharedResourcePool@PEAUID3D11DeviceContext@@UContextResources@Impl@SpriteBatch@DirectX@@$$V@DirectX@@@std@@8 0000000140036ed0     DirectXTK:SpriteBatch.obj
 0002:00004ef8       ??_R4?$_Ref_count_obj@UWrappedData@?$SharedResourcePool@PEAUID3D11Device@@UDeviceResources@Impl@SpriteBatch@DirectX@@$$V@DirectX@@@std@@6B@ 0000000140036ef8     DirectXTK:SpriteBatch.obj
 0002:00004f20       ??_R3?$_Ref_count_obj@UWrappedData@?$SharedResourcePool@PEAUID3D11Device@@UDeviceResources@Impl@SpriteBatch@DirectX@@$$V@DirectX@@@std@@8 0000000140036f20     DirectXTK:SpriteBatch.obj
 0002:00004f38       ??_R2?$_Ref_count_obj@UWrappedData@?$SharedResourcePool@PEAUID3D11Device@@UDeviceResources@Impl@SpriteBatch@DirectX@@$$V@DirectX@@@std@@8 0000000140036f38     DirectXTK:SpriteBatch.obj
 0002:00004f50       ??_R1A@?0A@EA@?$_Ref_count_obj@UWrappedData@?$SharedResourcePool@PEAUID3D11Device@@UDeviceResources@Impl@SpriteBatch@DirectX@@$$V@DirectX@@@std@@8 0000000140036f50     DirectXTK:SpriteBatch.obj
 0002:00004f78       ??_R4runtime_error@std@@6B@ 0000000140036f78     DirectXTK:SpriteFont.obj
 0002:00004fa0       ??_R3runtime_error@std@@8  0000000140036fa0     DirectXTK:SpriteFont.obj
 0002:00004fb8       ??_R2runtime_error@std@@8  0000000140036fb8     DirectXTK:SpriteFont.obj
 0002:00004fd0       ??_R1A@?0A@EA@runtime_error@std@@8 0000000140036fd0     DirectXTK:SpriteFont.obj
 0002:00004ff8       ??_R4overflow_error@std@@6B@ 0000000140036ff8     DirectXTK:SpriteFont.obj
 0002:00005020       ??_R3overflow_error@std@@8 0000000140037020     DirectXTK:SpriteFont.obj
 0002:00005038       ??_R2overflow_error@std@@8 0000000140037038     DirectXTK:SpriteFont.obj
 0002:00005058       ??_R1A@?0A@EA@overflow_error@std@@8 0000000140037058     DirectXTK:SpriteFont.obj
 0002:00005080       ??_R4SpriteFont@DirectX@@6B@ 0000000140037080     DirectXTK:SpriteFont.obj
 0002:000050a8       ??_R3SpriteFont@DirectX@@8 00000001400370a8     DirectXTK:SpriteFont.obj
 0002:000050c0       ??_R2SpriteFont@DirectX@@8 00000001400370c0     DirectXTK:SpriteFont.obj
 0002:000050d0       ??_R1A@?0A@EA@SpriteFont@DirectX@@8 00000001400370d0     DirectXTK:SpriteFont.obj
 0002:000050f8       ??_R4?$_Ref_count_obj@UResourceMap@?$SharedResourcePool@PEAUID3D11Device@@VImpl@CommonStates@DirectX@@$$V@DirectX@@@std@@6B@ 00000001400370f8     DirectXTK:CommonStates.obj
 0002:00005120       ??_R3?$_Ref_count_obj@UResourceMap@?$SharedResourcePool@PEAUID3D11Device@@VImpl@CommonStates@DirectX@@$$V@DirectX@@@std@@8 0000000140037120     DirectXTK:CommonStates.obj
 0002:00005138       ??_R2?$_Ref_count_obj@UResourceMap@?$SharedResourcePool@PEAUID3D11Device@@VImpl@CommonStates@DirectX@@$$V@DirectX@@@std@@8 0000000140037138     DirectXTK:CommonStates.obj
 0002:00005150       ??_R1A@?0A@EA@?$_Ref_count_obj@UResourceMap@?$SharedResourcePool@PEAUID3D11Device@@VImpl@CommonStates@DirectX@@$$V@DirectX@@@std@@8 0000000140037150     DirectXTK:CommonStates.obj
 0002:00005178       ??_R4CommonStates@DirectX@@6B@ 0000000140037178     DirectXTK:CommonStates.obj
 0002:000051a0       ??_R3CommonStates@DirectX@@8 00000001400371a0     DirectXTK:CommonStates.obj
 0002:000051b8       ??_R2CommonStates@DirectX@@8 00000001400371b8     DirectXTK:CommonStates.obj
 0002:000051c8       ??_R1A@?0A@EA@CommonStates@DirectX@@8 00000001400371c8     DirectXTK:CommonStates.obj
 0002:000051f0       ??_R4?$_Ref_count_obj@UWrappedData@?$SharedResourcePool@PEAUID3D11Device@@VImpl@CommonStates@DirectX@@$$V@DirectX@@@std@@6B@ 00000001400371f0     DirectXTK:CommonStates.obj
 0002:00005218       ??_R3?$_Ref_count_obj@UWrappedData@?$SharedResourcePool@PEAUID3D11Device@@VImpl@CommonStates@DirectX@@$$V@DirectX@@@std@@8 0000000140037218     DirectXTK:CommonStates.obj
 0002:00005230       ??_R2?$_Ref_count_obj@UWrappedData@?$SharedResourcePool@PEAUID3D11Device@@VImpl@CommonStates@DirectX@@$$V@DirectX@@@std@@8 0000000140037230     DirectXTK:CommonStates.obj
 0002:00005248       ??_R1A@?0A@EA@?$_Ref_count_obj@UWrappedData@?$SharedResourcePool@PEAUID3D11Device@@VImpl@CommonStates@DirectX@@$$V@DirectX@@@std@@8 0000000140037248     DirectXTK:CommonStates.obj
 0002:00005270       ??_R4type_info@@6B@        0000000140037270     MSVCRT:std_type_info_static.obj
 0002:00005298       ??_R3type_info@@8          0000000140037298     MSVCRT:std_type_info_static.obj
 0002:000052b0       ??_R2type_info@@8          00000001400372b0     MSVCRT:std_type_info_static.obj
 0002:000052c0       ??_R1A@?0A@EA@type_info@@8 00000001400372c0     MSVCRT:std_type_info_static.obj
 0002:000052e8       ??_R4bad_array_new_length@std@@6B@ 00000001400372e8     MSVCRT:throw_bad_alloc.obj
 0002:00005310       ??_R3bad_array_new_length@std@@8 0000000140037310     MSVCRT:throw_bad_alloc.obj
 0002:00005328       ??_R2bad_array_new_length@std@@8 0000000140037328     MSVCRT:throw_bad_alloc.obj
 0002:00005348       ??_R1A@?0A@EA@bad_array_new_length@std@@8 0000000140037348     MSVCRT:throw_bad_alloc.obj
 0002:00005370       ??_R3?$basic_istream@DU?$char_traits@D@std@@@std@@8 0000000140037370     Animation.obj
 0002:00005388       ??_R3?$basic_iostream@DU?$char_traits@D@std@@@std@@8 0000000140037388     Animation.obj
 0002:000053a0       ??_R2?$basic_fstream@DU?$char_traits@D@std@@@std@@8 00000001400373a0     Animation.obj
 0002:000053f8       ??_R4exception@std@@6B@    00000001400373f8     Animation.obj
 0002:00005420       ??_R1A@?0A@EA@?$basic_istream@DU?$char_traits@D@std@@@std@@8 0000000140037420     Animation.obj
 0002:00005448       ??_R1A@?0A@EA@bad_cast@std@@8 0000000140037448     Animation.obj
 0002:00005470       ??_R3?$basic_fstream@DU?$char_traits@D@std@@@std@@8 0000000140037470     Animation.obj
 0002:00005488       ??_R17A@3EA@?$_Iosb@H@std@@8 0000000140037488     Animation.obj
 0002:000054b0       ??_R1A@?0A@EA@?$basic_fstream@DU?$char_traits@D@std@@@std@@8 00000001400374b0     Animation.obj
 0002:000054d8       ??_R1A@?0A@EA@exception@std@@8 00000001400374d8     Animation.obj
 0002:00005500       ??_R1A@?0A@EA@?$basic_streambuf@DU?$char_traits@D@std@@@std@@8 0000000140037500     Animation.obj
 0002:00005528       ??_R2?$basic_istream@DU?$char_traits@D@std@@@std@@8 0000000140037528     Animation.obj
 0002:00005550       ??_R2bad_cast@std@@8       0000000140037550     Animation.obj
 0002:00005568       ??_R2exception@std@@8      0000000140037568     Animation.obj
 0002:00005578       ??_R2?$basic_ostream@DU?$char_traits@D@std@@@std@@8 0000000140037578     Animation.obj
 0002:000055a0       ??_R3?$basic_ios@DU?$char_traits@D@std@@@std@@8 00000001400375a0     Animation.obj
 0002:000055b8       ??_R1BA@?0A@EA@?$basic_ostream@DU?$char_traits@D@std@@@std@@8 00000001400375b8     Animation.obj
 0002:000055e0       ??_R1A@?0A@EA@ios_base@std@@8 00000001400375e0     Animation.obj
 0002:00005608       ??_R3exception@std@@8      0000000140037608     Animation.obj
 0002:00005620       ??_R1A@?0A@EA@?$basic_ostream@DU?$char_traits@D@std@@@std@@8 0000000140037620     Animation.obj
 0002:00005648       ??_R4?$basic_filebuf@DU?$char_traits@D@std@@@std@@6B@ 0000000140037648     Animation.obj
 0002:00005670       ??_R2?$basic_streambuf@DU?$char_traits@D@std@@@std@@8 0000000140037670     Animation.obj
 0002:00005680       ??_R1A@?0A@EA@?$_Iosb@H@std@@8 0000000140037680     Animation.obj
 0002:000056b0       ??_R2?$basic_iostream@DU?$char_traits@D@std@@@std@@8 00000001400376b0     Animation.obj
 0002:00005700       ??_R3bad_cast@std@@8       0000000140037700     Animation.obj
 0002:00005718       ??_R4bad_cast@std@@6B@     0000000140037718     Animation.obj
 0002:00005740       ??_R1A@?0A@EA@?$basic_filebuf@DU?$char_traits@D@std@@@std@@8 0000000140037740     Animation.obj
 0002:00005768       ??_R1A@A@3FA@?$basic_ios@DU?$char_traits@D@std@@@std@@8 0000000140037768     Animation.obj
 0002:00005790       ??_R3?$basic_filebuf@DU?$char_traits@D@std@@@std@@8 0000000140037790     Animation.obj
 0002:000057a8       ??_R2ios_base@std@@8       00000001400377a8     Animation.obj
 0002:000057c0       ??_R3?$basic_ostream@DU?$char_traits@D@std@@@std@@8 00000001400377c0     Animation.obj
 0002:000057d8       ??_R1A@?0A@EA@?$basic_iostream@DU?$char_traits@D@std@@@std@@8 00000001400377d8     Animation.obj
 0002:00005800       ??_R3ios_base@std@@8       0000000140037800     Animation.obj
 0002:00005818       ??_R2?$basic_filebuf@DU?$char_traits@D@std@@@std@@8 0000000140037818     Animation.obj
 0002:00005830       ??_R3?$basic_streambuf@DU?$char_traits@D@std@@@std@@8 0000000140037830     Animation.obj
 0002:00005848       ??_R2?$_Iosb@H@std@@8      0000000140037848     Animation.obj
 0002:00005858       ??_R1A@A@3EA@ios_base@std@@8 0000000140037858     Animation.obj
 0002:00005880       ??_R1A@?0A@EA@?$basic_ios@DU?$char_traits@D@std@@@std@@8 0000000140037880     Animation.obj
 0002:000058a8       ??_R4?$basic_fstream@DU?$char_traits@D@std@@@std@@6B@ 00000001400378a8     Animation.obj
 0002:000058d0       ??_R3?$_Iosb@H@std@@8      00000001400378d0     Animation.obj
 0002:000058e8       ??_R17?0A@EA@?$_Iosb@H@std@@8 00000001400378e8     Animation.obj
 0002:00005910       ??_R2?$basic_ios@DU?$char_traits@D@std@@@std@@8 0000000140037910     Animation.obj
 0002:00005930       ??_R3GameObject@@8         0000000140037930     BombEnemy.obj
 0002:00005948       ??_R4BombEnemy@@6B@        0000000140037948     BombEnemy.obj
 0002:00005970       ??_R3BombEnemy@@8          0000000140037970     BombEnemy.obj
 0002:00005988       ??_R2BombEnemy@@8          0000000140037988     BombEnemy.obj
 0002:000059a8       ??_R1A@?0A@EA@Enemy@@8     00000001400379a8     BombEnemy.obj
 0002:000059d0       ??_R3Enemy@@8              00000001400379d0     BombEnemy.obj
 0002:000059e8       ??_R2Enemy@@8              00000001400379e8     BombEnemy.obj
 0002:00005a00       ??_R1A@?0A@EA@BombEnemy@@8 0000000140037a00     BombEnemy.obj
 0002:00005a28       ??_R1A@?0A@EA@GameObject@@8 0000000140037a28     BombEnemy.obj
 0002:00005a50       ??_R2GameObject@@8         0000000140037a50     BombEnemy.obj
 0002:00005a60       ??_R3Bullet@@8             0000000140037a60     Bullet.obj
 0002:00005a78       ??_R2Bullet@@8             0000000140037a78     Bullet.obj
 0002:00005a90       ??_R1A@?0A@EA@Bullet@@8    0000000140037a90     Bullet.obj
 0002:00005ab8       ??_R4Bullet@@6B@           0000000140037ab8     Bullet.obj
 0002:00005ae0       ??_R4Enemy@@6B@            0000000140037ae0     Enemy.obj
 0002:00005b08       ??_R4GameObject@@6B@       0000000140037b08     GameObject.obj
 0002:00005b70       ??_R3?$_Func_base@X$$V@std@@8 0000000140037b70     GameManager.obj
 0002:00005ba0       ??_R2?$_Func_base@X$$V@std@@8 0000000140037ba0     GameManager.obj
 0002:00005bb0       ??_R1A@?0A@EA@?$_Func_base@X$$V@std@@8 0000000140037bb0     GameManager.obj
 0002:00006080       ??_R3Pickup@@8             0000000140038080     Pickup.obj
 0002:00006098       ??_R4Pickup@@6B@           0000000140038098     Pickup.obj
 0002:000060c0       ??_R2Pickup@@8             00000001400380c0     Pickup.obj
 0002:000060d8       ??_R1A@?0A@EA@Pickup@@8    00000001400380d8     Pickup.obj
 0002:00006100       ??_R4Player@@6B@           0000000140038100     Player.obj
 0002:00006128       ??_R1A@?0A@EA@Player@@8    0000000140038128     Player.obj
 0002:00006150       ??_R2Player@@8             0000000140038150     Player.obj
 0002:00006168       ??_R3Player@@8             0000000140038168     Player.obj
 0002:00006180       ??_R1A@?0A@EA@RangedEnemy@@8 0000000140038180     RangedEnemy.obj
 0002:000061a8       ??_R2RangedEnemy@@8        00000001400381a8     RangedEnemy.obj
 0002:000061c8       ??_R4RangedEnemy@@6B@      00000001400381c8     RangedEnemy.obj
 0002:000061f0       ??_R3RangedEnemy@@8        00000001400381f0     RangedEnemy.obj
 0002:00006488       ??_R4?$basic_ofstream@DU?$char_traits@D@std@@@std@@6B@ 0000000140038488     SkyboxShader.obj
 0002:000064b0       ??_R3?$basic_ofstream@DU?$char_traits@D@std@@@std@@8 00000001400384b0     SkyboxShader.obj
 0002:000064c8       ??_R2?$basic_ofstream@DU?$char_traits@D@std@@@std@@8 00000001400384c8     SkyboxShader.obj
 0002:000064f8       ??_R1A@?0A@EA@?$basic_ofstream@DU?$char_traits@D@std@@@std@@8 00000001400384f8     SkyboxShader.obj
 0002:00006520       ??_R3ImageElement@@8       0000000140038520     UIElement.obj
 0002:00006538       ??_R3UIElement@@8          0000000140038538     UIElement.obj
 0002:00006550       ??_R3ButtonElement@@8      0000000140038550     UIElement.obj
 0002:00006568       ??_R1A@?0A@EA@ImageElement@@8 0000000140038568     UIElement.obj
 0002:00006590       ??_R4TextElement@@6B@      0000000140038590     UIElement.obj
 0002:000065b8       ??_R1A@?0A@EA@ButtonElement@@8 00000001400385b8     UIElement.obj
 0002:000065e0       ??_R3TextElement@@8        00000001400385e0     UIElement.obj
 0002:000065f8       ??_R2ImageElement@@8       00000001400385f8     UIElement.obj
 0002:00006610       ??_R2UIElement@@8          0000000140038610     UIElement.obj
 0002:00006620       ??_R1A@?0A@EA@UIElement@@8 0000000140038620     UIElement.obj
 0002:00006648       ??_R2TextElement@@8        0000000140038648     UIElement.obj
 0002:00006660       ??_R1A@?0A@EA@TextElement@@8 0000000140038660     UIElement.obj
 0002:00006688       ??_R4ButtonElement@@6B@    0000000140038688     UIElement.obj
 0002:000066b0       ??_R4UIElement@@6B@        00000001400386b0     UIElement.obj
 0002:000066d8       ??_R2ButtonElement@@8      00000001400386d8     UIElement.obj
 0002:000066f0       ??_R4ImageElement@@6B@     00000001400386f0     UIElement.obj
 0002:00006718       ??_R2Target@@8             0000000140038718     Target.obj
 0002:00006738       ??_R1A@?0A@EA@Target@@8    0000000140038738     Target.obj
 0002:00006760       ??_R4Target@@6B@           0000000140038760     Target.obj
 0002:00006788       ??_R3Target@@8             0000000140038788     Target.obj
 0002:00006bd8       __rtc_iaa                  0000000140038bd8     MSVCRT:initsect.obj
 0002:00006be0       __rtc_izz                  0000000140038be0     MSVCRT:initsect.obj
 0002:00006be8       __rtc_taa                  0000000140038be8     MSVCRT:initsect.obj
 0002:00006bf0       __rtc_tzz                  0000000140038bf0     MSVCRT:initsect.obj
 0002:00006bf8       _tls_start                 0000000140038bf8     MSVCRT:tlssup.obj
 0002:00006bfc       _Init_thread_epoch         0000000140038bfc     MSVCRT:thread_safe_statics.obj
 0002:00006c00       _tls_end                   0000000140038c00     MSVCRT:tlssup.obj
 0002:0000b958       _TI1?AVexception@std@@     000000014003d958     DirectXTK:SpriteBatch.obj
 0002:0000b978       _CTA1?AVexception@std@@    000000014003d978     DirectXTK:SpriteBatch.obj
 0002:0000b988       _TI2?AVcom_exception@DirectX@@ 000000014003d988     DirectXTK:SpriteBatch.obj
 0002:0000b9a8       _CTA2?AVcom_exception@DirectX@@ 000000014003d9a8     DirectXTK:SpriteBatch.obj
 0002:0000b9c0       _CT??_R0?AVcom_exception@DirectX@@@8??0com_exception@DirectX@@QEAA@AEBV01@@Z32 000000014003d9c0     DirectXTK:SpriteBatch.obj
 0002:0000b9e8       _TI2?AVbad_alloc@std@@     000000014003d9e8     DirectXTK:SpriteBatch.obj
 0002:0000ba08       _CTA2?AVbad_alloc@std@@    000000014003da08     DirectXTK:SpriteBatch.obj
 0002:0000ba20       _CT??_R0?AVbad_alloc@std@@@8??0bad_alloc@std@@QEAA@AEBV01@@Z24 000000014003da20     DirectXTK:SpriteBatch.obj
 0002:0000ba48       _CT??_R0?AVruntime_error@std@@@8??0runtime_error@std@@QEAA@AEBV01@@Z24 000000014003da48     DirectXTK:SpriteFont.obj
 0002:0000ba70       _TI3?AVoverflow_error@std@@ 000000014003da70     DirectXTK:SpriteFont.obj
 0002:0000ba90       _CTA3?AVoverflow_error@std@@ 000000014003da90     DirectXTK:SpriteFont.obj
 0002:0000bab0       _CT??_R0?AVoverflow_error@std@@@8??0overflow_error@std@@QEAA@AEBV01@@Z24 000000014003dab0     DirectXTK:SpriteFont.obj
 0002:0000bad8       _TI3?AVbad_array_new_length@std@@ 000000014003dad8     MSVCRT:throw_bad_alloc.obj
 0002:0000baf8       _CTA3?AVbad_array_new_length@std@@ 000000014003daf8     MSVCRT:throw_bad_alloc.obj
 0002:0000bb18       _CT??_R0?AVbad_array_new_length@std@@@8??0bad_array_new_length@std@@QEAA@AEBV01@@Z24 000000014003db18     MSVCRT:throw_bad_alloc.obj
 0002:0000bb40       _CTA2?AVbad_cast@std@@     000000014003db40     Animation.obj
 0002:0000bb58       _TI2?AVbad_cast@std@@      000000014003db58     Animation.obj
 0002:0000bb78       _CT??_R0?AVbad_cast@std@@@8??0bad_cast@std@@QEAA@AEBV01@@Z24 000000014003db78     Animation.obj
 0002:0000bba0       _CT??_R0?AVexception@std@@@8??0exception@std@@QEAA@AEBV01@@Z24 000000014003dba0     Animation.obj
 0002:0000bbc8       __IMPORT_DESCRIPTOR_KERNEL32 000000014003dbc8     kernel32:KERNEL32.dll
 0002:0000bbdc       __IMPORT_DESCRIPTOR_USER32 000000014003dbdc     user32:USER32.dll
 0002:0000bbf0       __IMPORT_DESCRIPTOR_GDI32  000000014003dbf0     gdi32:GDI32.dll
 0002:0000bc04       __IMPORT_DESCRIPTOR_ole32  000000014003dc04     ole32:ole32.dll
 0002:0000bc18       __IMPORT_DESCRIPTOR_MSVCP140 000000014003dc18     msvcprt:MSVCP140.dll
 0002:0000bc2c       __IMPORT_DESCRIPTOR_d3d11  000000014003dc2c     d3d11:d3d11.dll
 0002:0000bc40       __IMPORT_DESCRIPTOR_dxgi   000000014003dc40     DXGI:dxgi.dll
 0002:0000bc54       __IMPORT_DESCRIPTOR_DINPUT8 000000014003dc54     dinput8:DINPUT8.dll
 0002:0000bc68       __IMPORT_DESCRIPTOR_DSOUND 000000014003dc68     dsound:DSOUND.dll
 0002:0000bc7c       __IMPORT_DESCRIPTOR_WINMM  000000014003dc7c     winmm:WINMM.dll
 0002:0000bc90       __IMPORT_DESCRIPTOR_D3DCOMPILER_47 000000014003dc90     D3DCompiler:D3DCOMPILER_47.dll
 0002:0000bca4       __IMPORT_DESCRIPTOR_dbghelp 000000014003dca4     dbghelp:dbghelp.dll
 0002:0000bcb8       __IMPORT_DESCRIPTOR_VCRUNTIME140 000000014003dcb8     vcruntime:VCRUNTIME140.dll
 0002:0000bccc       __IMPORT_DESCRIPTOR_api-ms-win-crt-stdio-l1-1-0 000000014003dccc     ucrt:api-ms-win-crt-stdio-l1-1-0.dll
 0002:0000bce0       __IMPORT_DESCRIPTOR_api-ms-win-crt-filesystem-l1-1-0 000000014003dce0     ucrt:api-ms-win-crt-filesystem-l1-1-0.dll
 0002:0000bcf4       __IMPORT_DESCRIPTOR_api-ms-win-crt-runtime-l1-1-0 000000014003dcf4     ucrt:api-ms-win-crt-runtime-l1-1-0.dll
 0002:0000bd08       __IMPORT_DESCRIPTOR_api-ms-win-crt-utility-l1-1-0 000000014003dd08     ucrt:api-ms-win-crt-utility-l1-1-0.dll
 0002:0000bd1c       __IMPORT_DESCRIPTOR_api-ms-win-crt-math-l1-1-0 000000014003dd1c     ucrt:api-ms-win-crt-math-l1-1-0.dll
 0002:0000bd30       __IMPORT_DESCRIPTOR_api-ms-win-crt-time-l1-1-0 000000014003dd30     ucrt:api-ms-win-crt-time-l1-1-0.dll
 0002:0000bd44       __IMPORT_DESCRIPTOR_api-ms-win-crt-convert-l1-1-0 000000014003dd44     ucrt:api-ms-win-crt-convert-l1-1-0.dll
 0002:0000bd58       __IMPORT_DESCRIPTOR_api-ms-win-crt-heap-l1-1-0 000000014003dd58     ucrt:api-ms-win-crt-heap-l1-1-0.dll
 0002:0000bd6c       __IMPORT_DESCRIPTOR_api-ms-win-crt-string-l1-1-0 000000014003dd6c     ucrt:api-ms-win-crt-string-l1-1-0.dll
 0002:0000bd80       __IMPORT_DESCRIPTOR_api-ms-win-crt-locale-l1-1-0 000000014003dd80     ucrt:api-ms-win-crt-locale-l1-1-0.dll
 0002:0000bd94       __NULL_IMPORT_DESCRIPTOR   000000014003dd94     kernel32:KERNEL32.dll
 0003:00000170       _Init_global_epoch         0000000140040170     MSVCRT:thread_safe_statics.obj
 0003:00000174       __scrt_native_dllmain_reason 0000000140040174     MSVCRT:utility.obj
 0003:00000178       __security_cookie_complement 0000000140040178     MSVCRT:gs_cookie.obj
 0003:00000180       __security_cookie          0000000140040180     MSVCRT:gs_cookie.obj
 0003:00000188       _fltused                   0000000140040188     MSVCRT:fltused.obj
 0003:0000018c       __scrt_default_matherr     000000014004018c     MSVCRT:matherr.obj
 0003:00000190       __isa_available            0000000140040190     MSVCRT:cpu_disp.obj
 0003:00000194       __isa_enabled              0000000140040194     MSVCRT:cpu_disp.obj
 0003:00000198       __memcpy_nt_iters          0000000140040198     MSVCRT:cpu_disp.obj
 0003:000001a0       __scrt_ucrt_dll_is_in_use  00000001400401a0     MSVCRT:ucrt_stubs.obj
 0003:000002e0       ??_R0?AV?$_Ref_count_obj@UResourceMap@?$SharedResourcePool@PEAUID3D11DeviceContext@@UContextResources@Impl@SpriteBatch@DirectX@@$$V@DirectX@@@std@@@8 00000001400402e0     DirectXTK:SpriteBatch.obj
 0003:00000380       ??_R0?AV?$_Ref_count_obj@UResourceMap@?$SharedResourcePool@PEAUID3D11Device@@UDeviceResources@Impl@SpriteBatch@DirectX@@$$V@DirectX@@@std@@@8 0000000140040380     DirectXTK:SpriteBatch.obj
 0003:00000418       ??_R0?AV_Ref_count_base@std@@@8 0000000140040418     DirectXTK:SpriteBatch.obj
 0003:00000448       ??_R0?AVbad_alloc@std@@@8  0000000140040448     DirectXTK:SpriteBatch.obj
 0003:00000470       ??_R0?AVcom_exception@DirectX@@@8 0000000140040470     DirectXTK:SpriteBatch.obj
 0003:000004a0       ??_R0?AVSpriteBatch@DirectX@@@8 00000001400404a0     DirectXTK:SpriteBatch.obj
 0003:000004d0       ??_R0?AV?$_Ref_count_obj@UWrappedData@?$SharedResourcePool@PEAUID3D11DeviceContext@@UContextResources@Impl@SpriteBatch@DirectX@@$$V@DirectX@@@std@@@8 00000001400404d0     DirectXTK:SpriteBatch.obj
 0003:00000570       ??_R0?AV?$_Ref_count_obj@UWrappedData@?$SharedResourcePool@PEAUID3D11Device@@UDeviceResources@Impl@SpriteBatch@DirectX@@$$V@DirectX@@@std@@@8 0000000140040570     DirectXTK:SpriteBatch.obj
 0003:00000608       ??_R0?AVruntime_error@std@@@8 0000000140040608     DirectXTK:SpriteFont.obj
 0003:00000630       ??_R0?AVoverflow_error@std@@@8 0000000140040630     DirectXTK:SpriteFont.obj
 0003:00000660       ??_R0?AVSpriteFont@DirectX@@@8 0000000140040660     DirectXTK:SpriteFont.obj
 0003:00000690       ??_R0?AV?$_Ref_count_obj@UResourceMap@?$SharedResourcePool@PEAUID3D11Device@@VImpl@CommonStates@DirectX@@$$V@DirectX@@@std@@@8 0000000140040690     DirectXTK:CommonStates.obj
 0003:00000720       ??_R0?AVCommonStates@DirectX@@@8 0000000140040720     DirectXTK:CommonStates.obj
 0003:00000750       ??_R0?AV?$_Ref_count_obj@UWrappedData@?$SharedResourcePool@PEAUID3D11Device@@VImpl@CommonStates@DirectX@@$$V@DirectX@@@std@@@8 0000000140040750     DirectXTK:CommonStates.obj
 0003:000007e0       ??_R0?AVtype_info@@@8      00000001400407e0     MSVCRT:std_type_info_static.obj
 0003:00000800       ??_R0?AVbad_array_new_length@std@@@8 0000000140040800     MSVCRT:throw_bad_alloc.obj
 0003:00000830       ??_R0?AV?$basic_filebuf@DU?$char_traits@D@std@@@std@@@8 0000000140040830     Animation.obj
 0003:00000880       ??_R0?AV?$basic_fstream@DU?$char_traits@D@std@@@std@@@8 0000000140040880     Animation.obj
 0003:000008c8       ??_R0?AVios_base@std@@@8   00000001400408c8     Animation.obj
 0003:000008f0       ??_R0?AV?$basic_iostream@DU?$char_traits@D@std@@@std@@@8 00000001400408f0     Animation.obj
 0003:00000938       ??_R0?AV?$_Iosb@H@std@@@8  0000000140040938     Animation.obj
 0003:00000960       ??_R0?AV?$basic_streambuf@DU?$char_traits@D@std@@@std@@@8 0000000140040960     Animation.obj
 0003:000009a8       ??_R0?AVbad_cast@std@@@8   00000001400409a8     Animation.obj
 0003:000009d0       ??_R0?AV?$basic_istream@DU?$char_traits@D@std@@@std@@@8 00000001400409d0     Animation.obj
 0003:00000a18       ??_R0?AV?$basic_ios@DU?$char_traits@D@std@@@std@@@8 0000000140040a18     Animation.obj
 0003:00000a60       ??_R0?AV?$basic_ostream@DU?$char_traits@D@std@@@std@@@8 0000000140040a60     Animation.obj
 0003:00000aa8       ??_R0?AVexception@std@@@8  0000000140040aa8     Animation.obj
 0003:00000ad0       ??_R0?AVEnemy@@@8          0000000140040ad0     BombEnemy.obj
 0003:00000af0       ??_R0?AVBombEnemy@@@8      0000000140040af0     BombEnemy.obj
 0003:00000b10       ??_R0?AVGameObject@@@8     0000000140040b10     BombEnemy.obj
 0003:00000b38       ??_R0?AVBullet@@@8         0000000140040b38     Bullet.obj
 0003:00000b58       ??_R0?AVTarget@@@8         0000000140040b58     EnemyManager.obj
 0003:00000b78       ??_R0?AVRangedEnemy@@@8    0000000140040b78     graphicsclass.obj
 0003:00000c08       ??_R0?AVTextElement@@@8    0000000140040c08     GameManager.obj
 0003:00000c70       ??_R0?AV?$_Func_base@X$$V@std@@@8 0000000140040c70     GameManager.obj
 0003:00000ca0       ??_R0?AVUIElement@@@8      0000000140040ca0     GameManager.obj
 0003:000012f0       ??_R0?AVPickup@@@8         00000001400412f0     Pickup.obj
 0003:00001310       ??_R0?AVPlayer@@@8         0000000140041310     Player.obj
 0003:000016a0       ??_R0?AV?$basic_ofstream@DU?$char_traits@D@std@@@std@@@8 00000001400416a0     SkyboxShader.obj
 0003:000016e8       ??_R0?AVImageElement@@@8   00000001400416e8     UIElement.obj
 0003:00001710       ??_R0?AVButtonElement@@@8  0000000140041710     UIElement.obj
 0003:00001740       ?_OptionsStorage@?1??__local_stdio_printf_options@@9@4_KA 0000000140041740     DirectXTK:SpriteBatch.obj
 0003:00001750       ?deviceResourcesPool@Impl@SpriteBatch@DirectX@@0V?$SharedResourcePool@PEAUID3D11Device@@UDeviceResources@Impl@SpriteBatch@DirectX@@$$V@3@A 0000000140041750     DirectXTK:SpriteBatch.obj
 0003:00001760       ?contextResourcesPool@Impl@SpriteBatch@DirectX@@0V?$SharedResourcePool@PEAUID3D11DeviceContext@@UContextResources@Impl@SpriteBatch@DirectX@@$$V@3@A 0000000140041760     DirectXTK:SpriteBatch.obj
 0003:00001770       ?MatrixIdentity@SpriteBatch@DirectX@@0UXMMATRIX@2@B 0000000140041770     DirectXTK:SpriteBatch.obj
 0003:000017b0       ?Float2Zero@SpriteBatch@DirectX@@0UXMFLOAT2@2@B 00000001400417b0     DirectXTK:SpriteBatch.obj
 0003:000017c0       ?s_str@?1??what@com_exception@DirectX@@UEBAPEBDXZ@4PADA 00000001400417c0     DirectXTK:SpriteBatch.obj
 0003:00001800       ?Float2Zero@SpriteFont@DirectX@@0UXMFLOAT2@2@B 0000000140041800     DirectXTK:SpriteFont.obj
 0003:00001808       ?instancePool@Impl@CommonStates@DirectX@@2V?$SharedResourcePool@PEAUID3D11Device@@VImpl@CommonStates@DirectX@@$$V@3@A 0000000140041808     DirectXTK:CommonStates.obj
 0003:00001818       __@@_PchSym_@00@UfhvihUblfmtUlmvwirevUwlxfnvmghUufooLhzroUurmzokilqvxgivklhrglibUxfihvwRgfigovRhgfwrlhUilylgzmmrsrozgrlmUilylgzmmrsrozgrlmUwrivxgcglloprgUyrmUwvhpglkPCABHPdrmBAUcGEUivovzhvUkxsOlyq@4B2008FD98C1DD4 0000000140041818     DirectXTK:pch.obj
 0003:00001830       ?nothrow@std@@3Unothrow_t@1@B 0000000140041830     msvcprt:nothrow.obj
 0003:00001880       __scrt_current_native_startup_state 0000000140041880     MSVCRT:utility.obj
 0003:00001888       __scrt_native_startup_lock 0000000140041888     MSVCRT:utility.obj
 0003:00001e40       __scrt_debugger_hook_flag  0000000140041e40     MSVCRT:utility_desktop.obj
 0003:00001e44       _tls_index                 0000000140041e44     MSVCRT:tlssup.obj
 0003:00001e50       ?__type_info_root_node@@3U__type_info_node@@A 0000000140041e50     MSVCRT:tncleanup.obj
 0003:00001e60       ?_OptionsStorage@?1??__local_stdio_scanf_options@@9@4_KA 0000000140041e60     MSVCRT:default_local_stdio_options.obj
 0003:00001e68       __favor                    0000000140041e68     MSVCRT:cpu_disp.obj
 0003:00001e70       ?_Stinit@?1??_Init@?$basic_filebuf@DU?$char_traits@D@std@@@std@@IEAAXPEAU_iobuf@@W4_Initfl@23@@Z@4U_Mbstatet@@A 0000000140041e70     Animation.obj
 0003:00001e78       ?_Psave@?$_Facetptr@V?$codecvt@DDU_Mbstatet@@@std@@@std@@2PEBVfacet@locale@2@EB 0000000140041e78     Animation.obj
 0003:00001e90       ?g_WIC2@?A0x045efb5a@@3_NA 0000000140041e90     WICTextureLoader.obj
 0003:00002520       __dyn_tls_dtor_callback    0000000140042520     <common>
 0003:00002528       __dyn_tls_init_callback    0000000140042528     <common>

 entry point at        0001:0002daf4

 Static symbols

 0000:fffa8000       .debug$S                   0000000140000000     kernel32:KERNEL32.dll
 0000:fffa8000       .debug$S                   0000000140000000     kernel32:KERNEL32.dll
 0000:fffa8000       .debug$S                   0000000140000000     kernel32:KERNEL32.dll
 0000:fffa8000       .debug$S                   0000000140000000     kernel32:KERNEL32.dll
 0000:fffa8000       .debug$S                   0000000140000000     kernel32:KERNEL32.dll
 0000:fffa8000       .debug$S                   0000000140000000     kernel32:KERNEL32.dll
 0000:fffa8000       .debug$S                   0000000140000000     kernel32:KERNEL32.dll
 0000:fffa8000       .debug$S                   0000000140000000     kernel32:KERNEL32.dll
 0000:fffa8000       .debug$S                   0000000140000000     kernel32:KERNEL32.dll
 0000:fffa8000       .debug$S                   0000000140000000     kernel32:KERNEL32.dll
 0000:fffa8000       .debug$S                   0000000140000000     kernel32:KERNEL32.dll
 0000:fffa8000       .debug$S                   0000000140000000     kernel32:KERNEL32.dll
 0000:fffa8000       .debug$S                   0000000140000000     kernel32:KERNEL32.dll
 0000:fffa8000       .debug$S                   0000000140000000     user32:USER32.dll
 0000:fffa8000       .debug$S                   0000000140000000     user32:USER32.dll
 0000:fffa8000       .debug$S                   0000000140000000     user32:USER32.dll
 0000:fffa8000       .debug$S                   0000000140000000     user32:USER32.dll
 0000:fffa8000       .debug$S                   0000000140000000     user32:USER32.dll
 0000:fffa8000       .debug$S                   0000000140000000     user32:USER32.dll
 0000:fffa8000       .debug$S                   0000000140000000     user32:USER32.dll
 0000:fffa8000       .debug$S                   0000000140000000     user32:USER32.dll
 0000:fffa8000       .debug$S                   0000000140000000     ucrt:api-ms-win-crt-math-l1-1-0.dll
 0000:fffa8000       .debug$S                   0000000140000000     ucrt:api-ms-win-crt-math-l1-1-0.dll
 0000:fffa8000       .debug$S                   0000000140000000     ucrt:api-ms-win-crt-math-l1-1-0.dll
 0000:fffa8000       .debug$S                   0000000140000000     ucrt:api-ms-win-crt-math-l1-1-0.dll
 0000:fffa8000       .debug$S                   0000000140000000     ucrt:api-ms-win-crt-math-l1-1-0.dll
 0000:fffa8000       .debug$S                   0000000140000000     vcruntime:VCRUNTIME140.dll
 0000:fffa8000       .debug$S                   0000000140000000     vcruntime:VCRUNTIME140.dll
 0000:fffa8000       .debug$S                   0000000140000000     vcruntime:VCRUNTIME140.dll
 0000:fffa8000       .debug$S                   0000000140000000     kernel32:KERNEL32.dll
 0000:fffa8000       .debug$S                   0000000140000000     user32:USER32.dll
 0000:fffa8000       .debug$S                   0000000140000000     kernel32:KERNEL32.dll
 0000:fffa8000       .debug$S                   0000000140000000     user32:USER32.dll
 0000:fffa8000       .debug$S                   0000000140000000     kernel32:KERNEL32.dll
 0000:fffa8000       .debug$S                   0000000140000000     msvcprt:MSVCP140.dll
 0000:fffa8000       .debug$S                   0000000140000000     msvcprt:MSVCP140.dll
 0000:fffa8000       .debug$S                   0000000140000000     msvcprt:MSVCP140.dll
 0000:fffa8000       .debug$S                   0000000140000000     user32:USER32.dll
 0000:fffa8000       .debug$S                   0000000140000000     msvcprt:MSVCP140.dll
 0000:fffa8000       .debug$S                   0000000140000000     msvcprt:MSVCP140.dll
 0000:fffa8000       .debug$S                   0000000140000000     ucrt:api-ms-win-crt-stdio-l1-1-0.dll
 0000:fffa8000       .debug$S                   0000000140000000     kernel32:KERNEL32.dll
 0000:fffa8000       .debug$S                   0000000140000000     user32:USER32.dll
 0000:fffa8000       .debug$S                   0000000140000000     kernel32:KERNEL32.dll
 0000:fffa8000       .debug$S                   0000000140000000     kernel32:KERNEL32.dll
 0000:fffa8000       .debug$S                   0000000140000000     kernel32:KERNEL32.dll
 0000:fffa8000       .debug$S                   0000000140000000     kernel32:KERNEL32.dll
 0000:fffa8000       .debug$S                   0000000140000000     msvcprt:MSVCP140.dll
 0000:fffa8000       .debug$S                   0000000140000000     msvcprt:MSVCP140.dll
 0000:fffa8000       .debug$S                   0000000140000000     user32:USER32.dll
 0000:fffa8000       .debug$S                   0000000140000000     msvcprt:MSVCP140.dll
 0000:fffa8000       .debug$S                   0000000140000000     msvcprt:MSVCP140.dll
 0000:fffa8000       .debug$S                   0000000140000000     msvcprt:MSVCP140.dll
 0000:fffa8000       .debug$S                   0000000140000000     msvcprt:MSVCP140.dll
 0000:fffa8000       .debug$S                   0000000140000000     user32:USER32.dll
 0000:fffa8000       .debug$S                   0000000140000000     msvcprt:MSVCP140.dll
 0000:fffa8000       .debug$S                   0000000140000000     msvcprt:MSVCP140.dll
 0000:fffa8000       .debug$S                   0000000140000000     msvcprt:MSVCP140.dll
 0000:fffa8000       .debug$S                   0000000140000000     msvcprt:MSVCP140.dll
 0000:fffa8000       .debug$S                   0000000140000000     user32:USER32.dll
 0000:fffa8000       .debug$S                   0000000140000000     msvcprt:MSVCP140.dll
 0000:fffa8000       .debug$S                   0000000140000000     msvcprt:MSVCP140.dll
 0000:fffa8000       .debug$S                   0000000140000000     msvcprt:MSVCP140.dll
 0000:fffa8000       .debug$S                   0000000140000000     msvcprt:MSVCP140.dll
 0000:fffa8000       .debug$S                   0000000140000000     user32:USER32.dll
 0000:fffa8000       .debug$S                   0000000140000000     msvcprt:MSVCP140.dll
 0000:fffa8000       .debug$S                   0000000140000000     kernel32:KERNEL32.dll
 0000:fffa8000       .debug$S                   0000000140000000     kernel32:KERNEL32.dll
 0000:fffa8000       .debug$S                   0000000140000000     kernel32:KERNEL32.dll
 0000:fffa8000       .debug$S                   0000000140000000     kernel32:KERNEL32.dll
 0000:fffa8000       .debug$S                   0000000140000000     kernel32:KERNEL32.dll
 0000:fffa8000       .debug$S                   0000000140000000     ucrt:api-ms-win-crt-stdio-l1-1-0.dll
 0000:fffa8000       .debug$S                   0000000140000000     kernel32:KERNEL32.dll
 0000:fffa8000       .debug$S                   0000000140000000     kernel32:KERNEL32.dll
 0000:fffa8000       .debug$S                   0000000140000000     kernel32:KERNEL32.dll
 0000:fffa8000       .debug$S                   0000000140000000     kernel32:KERNEL32.dll
 0000:fffa8000       .debug$S                   0000000140000000     ucrt:api-ms-win-crt-stdio-l1-1-0.dll
 0000:fffa8000       .debug$S                   0000000140000000     vcruntime:VCRUNTIME140.dll
 0000:fffa8000       .debug$S                   0000000140000000     ucrt:api-ms-win-crt-stdio-l1-1-0.dll
 0000:fffa8000       .debug$S                   0000000140000000     kernel32:KERNEL32.dll
 0000:fffa8000       .debug$S                   0000000140000000     kernel32:KERNEL32.dll
 0000:fffa8000       .debug$S                   0000000140000000     kernel32:KERNEL32.dll
 0000:fffa8000       .debug$S                   0000000140000000     kernel32:KERNEL32.dll
 0000:fffa8000       .debug$S                   0000000140000000     user32:USER32.dll
 0000:fffa8000       .debug$S                   0000000140000000     msvcprt:MSVCP140.dll
 0000:fffa8000       .debug$S                   0000000140000000     user32:USER32.dll
 0000:fffa8000       .debug$S                   0000000140000000     msvcprt:MSVCP140.dll
 0000:fffa8000       .debug$S                   0000000140000000     msvcprt:MSVCP140.dll
 0000:fffa8000       .debug$S                   0000000140000000     msvcprt:MSVCP140.dll
 0000:fffa8000       .debug$S                   0000000140000000     gdi32:GDI32.dll
 0000:fffa8000       .debug$S                   0000000140000000     msvcprt:MSVCP140.dll
 0000:fffa8000       .debug$S                   0000000140000000     msvcprt:MSVCP140.dll
 0000:fffa8000       .debug$S                   0000000140000000     msvcprt:MSVCP140.dll
 0000:fffa8000       .debug$S                   0000000140000000     msvcprt:MSVCP140.dll
 0000:fffa8000       .debug$S                   0000000140000000     msvcprt:MSVCP140.dll
 0000:fffa8000       .debug$S                   0000000140000000     msvcprt:MSVCP140.dll
 0000:fffa8000       .debug$S                   0000000140000000     ole32:ole32.dll
 0000:fffa8000       .debug$S                   0000000140000000     msvcprt:MSVCP140.dll
 0000:fffa8000       .debug$S                   0000000140000000     msvcprt:MSVCP140.dll
 0000:fffa8000       .debug$S                   0000000140000000     msvcprt:MSVCP140.dll
 0000:fffa8000       .debug$S                   0000000140000000     msvcprt:MSVCP140.dll
 0000:fffa8000       .debug$S                   0000000140000000     ole32:ole32.dll
 0000:fffa8000       .debug$S                   0000000140000000     msvcprt:MSVCP140.dll
 0000:fffa8000       .debug$S                   0000000140000000     msvcprt:MSVCP140.dll
 0000:fffa8000       .debug$S                   0000000140000000     msvcprt:MSVCP140.dll
 0000:fffa8000       .debug$S                   0000000140000000     vcruntime:VCRUNTIME140.dll
 0000:fffa8000       .debug$S                   0000000140000000     msvcprt:MSVCP140.dll
 0000:fffa8000       .debug$S                   0000000140000000     msvcprt:MSVCP140.dll
 0000:fffa8000       .debug$S                   0000000140000000     msvcprt:MSVCP140.dll
 0000:fffa8000       .debug$S                   0000000140000000     msvcprt:MSVCP140.dll
 0000:fffa8000       .debug$S                   0000000140000000     kernel32:KERNEL32.dll
 0000:fffa8000       .debug$S                   0000000140000000     msvcprt:MSVCP140.dll
 0000:fffa8000       .debug$S                   0000000140000000     vcruntime:VCRUNTIME140.dll
 0000:fffa8000       .debug$S                   0000000140000000     msvcprt:MSVCP140.dll
 0000:fffa8000       .debug$S                   0000000140000000     msvcprt:MSVCP140.dll
 0000:fffa8000       .debug$S                   0000000140000000     msvcprt:MSVCP140.dll
 0000:fffa8000       .debug$S                   0000000140000000     msvcprt:MSVCP140.dll
 0000:fffa8000       .debug$S                   0000000140000000     kernel32:KERNEL32.dll
 0000:fffa8000       .debug$S                   0000000140000000     msvcprt:MSVCP140.dll
 0000:fffa8000       .debug$S                   0000000140000000     vcruntime:VCRUNTIME140.dll
 0000:fffa8000       .debug$S                   0000000140000000     msvcprt:MSVCP140.dll
 0000:fffa8000       .debug$S                   0000000140000000     ucrt:api-ms-win-crt-heap-l1-1-0.dll
 0000:fffa8000       .debug$S                   0000000140000000     msvcprt:MSVCP140.dll
 0000:fffa8000       .debug$S                   0000000140000000     ucrt:api-ms-win-crt-filesystem-l1-1-0.dll
 0000:fffa8000       .debug$S                   0000000140000000     msvcprt:MSVCP140.dll
 0000:fffa8000       .debug$S                   0000000140000000     ucrt:api-ms-win-crt-runtime-l1-1-0.dll
 0000:fffa8000       .debug$S                   0000000140000000     msvcprt:MSVCP140.dll
 0000:fffa8000       .debug$S                   0000000140000000     ucrt:api-ms-win-crt-runtime-l1-1-0.dll
 0000:fffa8000       .debug$S                   0000000140000000     msvcprt:MSVCP140.dll
 0000:fffa8000       .debug$S                   0000000140000000     vcruntime:VCRUNTIME140.dll
 0000:fffa8000       .debug$S                   0000000140000000     ucrt:api-ms-win-crt-filesystem-l1-1-0.dll
 0000:fffa8000       .debug$S                   0000000140000000     ucrt:api-ms-win-crt-runtime-l1-1-0.dll
 0000:fffa8000       .debug$S                   0000000140000000     ucrt:api-ms-win-crt-runtime-l1-1-0.dll
 0000:fffa8000       .debug$S                   0000000140000000     ucrt:api-ms-win-crt-runtime-l1-1-0.dll
 0000:fffa8000       .debug$S                   0000000140000000     vcruntime:VCRUNTIME140.dll
 0000:fffa8000       .debug$S                   0000000140000000     ucrt:api-ms-win-crt-stdio-l1-1-0.dll
 0000:fffa8000       .debug$S                   0000000140000000     ucrt:api-ms-win-crt-runtime-l1-1-0.dll
 0000:fffa8000       .debug$S                   0000000140000000     msvcprt:MSVCP140.dll
 0000:fffa8000       .debug$S                   0000000140000000     msvcprt:MSVCP140.dll
 0000:fffa8000       .debug$S                   0000000140000000     msvcprt:MSVCP140.dll
 0000:fffa8000       .debug$S                   0000000140000000     ucrt:api-ms-win-crt-runtime-l1-1-0.dll
 0000:fffa8000       .debug$S                   0000000140000000     msvcprt:MSVCP140.dll
 0000:fffa8000       .debug$S                   0000000140000000     ucrt:api-ms-win-crt-stdio-l1-1-0.dll
 0000:fffa8000       .debug$S                   0000000140000000     msvcprt:MSVCP140.dll
 0000:fffa8000       .debug$S                   0000000140000000     ucrt:api-ms-win-crt-heap-l1-1-0.dll
 0000:fffa8000       .debug$S                   0000000140000000     msvcprt:MSVCP140.dll
 0000:fffa8000       .debug$S                   0000000140000000     ucrt:api-ms-win-crt-locale-l1-1-0.dll
 0000:fffa8000       .debug$S                   0000000140000000     ucrt:api-ms-win-crt-runtime-l1-1-0.dll
 0000:fffa8000       .debug$S                   0000000140000000     ucrt:api-ms-win-crt-runtime-l1-1-0.dll
 0000:fffa8000       .debug$S                   0000000140000000     msvcprt:MSVCP140.dll
 0000:fffa8000       .debug$S                   0000000140000000     ucrt:api-ms-win-crt-runtime-l1-1-0.dll
 0000:fffa8000       .debug$S                   0000000140000000     msvcprt:MSVCP140.dll
 0000:fffa8000       .debug$S                   0000000140000000     ucrt:api-ms-win-crt-stdio-l1-1-0.dll
 0000:fffa8000       .debug$S                   0000000140000000     msvcprt:MSVCP140.dll
 0000:fffa8000       .debug$S                   0000000140000000     msvcprt:MSVCP140.dll
 0000:fffa8000       .debug$S                   0000000140000000     d3d11:d3d11.dll
 0000:fffa8000       .debug$S                   0000000140000000     DXGI:dxgi.dll
 0000:fffa8000       .debug$S                   0000000140000000     ucrt:api-ms-win-crt-runtime-l1-1-0.dll
 0000:fffa8000       .debug$S                   0000000140000000     dinput8:DINPUT8.dll
 0000:fffa8000       .debug$S                   0000000140000000     ucrt:api-ms-win-crt-runtime-l1-1-0.dll
 0000:fffa8000       .debug$S                   0000000140000000     ucrt:api-ms-win-crt-runtime-l1-1-0.dll
 0000:fffa8000       .debug$S                   0000000140000000     vcruntime:VCRUNTIME140.dll
 0000:fffa8000       .debug$S                   0000000140000000     ucrt:api-ms-win-crt-runtime-l1-1-0.dll
 0000:fffa8000       .debug$S                   0000000140000000     ucrt:api-ms-win-crt-runtime-l1-1-0.dll
 0000:fffa8000       .debug$S                   0000000140000000     ucrt:api-ms-win-crt-runtime-l1-1-0.dll
 0000:fffa8000       .debug$S                   0000000140000000     ucrt:api-ms-win-crt-runtime-l1-1-0.dll
 0000:fffa8000       .debug$S                   0000000140000000     ucrt:api-ms-win-crt-stdio-l1-1-0.dll
 0000:fffa8000       .debug$S                   0000000140000000     ucrt:api-ms-win-crt-math-l1-1-0.dll
 0000:fffa8000       .debug$S                   0000000140000000     ucrt:api-ms-win-crt-runtime-l1-1-0.dll
 0000:fffa8000       .debug$S                   0000000140000000     ucrt:api-ms-win-crt-runtime-l1-1-0.dll
 0000:fffa8000       .debug$S                   0000000140000000     ucrt:api-ms-win-crt-stdio-l1-1-0.dll
 0000:fffa8000       .debug$S                   0000000140000000     ucrt:api-ms-win-crt-heap-l1-1-0.dll
 0000:fffa8000       .debug$S                   0000000140000000     ucrt:api-ms-win-crt-stdio-l1-1-0.dll
 0000:fffa8000       .debug$S                   0000000140000000     ucrt:api-ms-win-crt-stdio-l1-1-0.dll
 0000:fffa8000       .debug$S                   0000000140000000     ucrt:api-ms-win-crt-heap-l1-1-0.dll
 0000:fffa8000       .debug$S                   0000000140000000     ucrt:api-ms-win-crt-string-l1-1-0.dll
 0000:fffa8000       .debug$S                   0000000140000000     ucrt:api-ms-win-crt-stdio-l1-1-0.dll
 0000:fffa8000       .debug$S                   0000000140000000     ucrt:api-ms-win-crt-stdio-l1-1-0.dll
 0000:fffa8000       .debug$S                   0000000140000000     ucrt:api-ms-win-crt-stdio-l1-1-0.dll
 0000:fffa8000       .debug$S                   0000000140000000     vcruntime:VCRUNTIME140.dll
 0000:fffa8000       .debug$S                   0000000140000000     ucrt:api-ms-win-crt-heap-l1-1-0.dll
 0000:fffa8000       .debug$S                   0000000140000000     ucrt:api-ms-win-crt-heap-l1-1-0.dll
 0000:fffa8000       .debug$S                   0000000140000000     ucrt:api-ms-win-crt-runtime-l1-1-0.dll
 0000:fffa8000       .debug$S                   0000000140000000     ucrt:api-ms-win-crt-runtime-l1-1-0.dll
 0000:fffa8000       .debug$S                   0000000140000000     vcruntime:VCRUNTIME140.dll
 0000:fffa8000       .debug$S                   0000000140000000     ucrt:api-ms-win-crt-runtime-l1-1-0.dll
 0000:fffa8000       .debug$S                   0000000140000000     ucrt:api-ms-win-crt-stdio-l1-1-0.dll
 0000:fffa8000       .debug$S                   0000000140000000     dbghelp:dbghelp.dll
 0000:fffa8000       .debug$S                   0000000140000000     D3DCompiler:D3DCOMPILER_47.dll
 0000:fffa8000       .debug$S                   0000000140000000     ucrt:api-ms-win-crt-stdio-l1-1-0.dll
 0000:fffa8000       .debug$S                   0000000140000000     winmm:WINMM.dll
 0000:fffa8000       .debug$S                   0000000140000000     dsound:DSOUND.dll
 0000:fffa8000       .debug$S                   0000000140000000     ucrt:api-ms-win-crt-utility-l1-1-0.dll
 0000:fffa8000       .debug$S                   0000000140000000     ucrt:api-ms-win-crt-stdio-l1-1-0.dll
 0000:fffa8000       .debug$S                   0000000140000000     ucrt:api-ms-win-crt-time-l1-1-0.dll
 0000:fffa8000       .debug$S                   0000000140000000     ucrt:api-ms-win-crt-time-l1-1-0.dll
 0000:fffa8000       .debug$S                   0000000140000000     ucrt:api-ms-win-crt-convert-l1-1-0.dll
 0000:fffa8000       .debug$S                   0000000140000000     ucrt:api-ms-win-crt-utility-l1-1-0.dll
 0000:fffa8000       .debug$S                   0000000140000000     ucrt:api-ms-win-crt-math-l1-1-0.dll
 0000:fffa8000       .debug$S                   0000000140000000     ucrt:api-ms-win-crt-time-l1-1-0.dll
 0000:fffa8000       .debug$S                   0000000140000000     ucrt:api-ms-win-crt-convert-l1-1-0.dll
 0000:fffa8000       .debug$S                   0000000140000000     ucrt:api-ms-win-crt-convert-l1-1-0.dll
 0001:00000000       ??__Eg_WICFormats@?A0x045efb5a@@YAXXZ 0000000140001000 f   WICTextureLoader.obj
 0001:000000e0       ??__Eg_WICConvert@?A0x045efb5a@@YAXXZ 00000001400010e0 f   WICTextureLoader.obj
 0001:00000460       ??__E?MatrixIdentity@SpriteBatch@DirectX@@0UXMMATRIX@2@B@@YAXXZ 0000000140001460 f   DirectXTK:SpriteBatch.obj
 0001:000004a0       ??__E?contextResourcesPool@Impl@SpriteBatch@DirectX@@0V?$SharedResourcePool@PEAUID3D11DeviceContext@@UContextResources@Impl@SpriteBatch@DirectX@@$$V@3@A@@YAXXZ 00000001400014a0 f   DirectXTK:SpriteBatch.obj
 0001:00000560       ??__E?deviceResourcesPool@Impl@SpriteBatch@DirectX@@0V?$SharedResourcePool@PEAUID3D11Device@@UDeviceResources@Impl@SpriteBatch@DirectX@@$$V@3@A@@YAXXZ 0000000140001560 f   DirectXTK:SpriteBatch.obj
 0001:00000620       ??__E?instancePool@Impl@CommonStates@DirectX@@2V?$SharedResourcePool@PEAUID3D11Device@@VImpl@CommonStates@DirectX@@$$V@3@A@@YAXXZ 0000000140001620 f   DirectXTK:CommonStates.obj
 0001:000006d8       ??__E_Fac_tidy_reg@std@@YAXXZ 00000001400016d8 f   msvcprt:locale0_implib.obj
 0001:000118f0       ??0<lambda_ea09a75c222a66dc4a8fd8f581cf195d>@@QEAA@QEAVGameManager@@@Z 00000001400128f0 f   GameManager.obj
 0001:00012b60       ??$?4V<lambda_ea09a75c222a66dc4a8fd8f581cf195d>@@X@?$function@$$A6AXXZ@std@@QEAAAEAV01@$$QEAV<lambda_ea09a75c222a66dc4a8fd8f581cf195d>@@@Z 0000000140013b60 f   GameManager.obj
 0001:00012ea0       ?_Delete_this@?$_Func_impl_no_alloc@V<lambda_d2a719c930d707c67105e86afa12be81>@@X$$V@std@@EEAAX_N@Z 0000000140013ea0 f   Shop.obj
 0001:00012ea0       ?_Delete_this@?$_Func_impl_no_alloc@V<lambda_e15a1fae8d706ca9371bd1c03b271ef7>@@X$$V@std@@EEAAX_N@Z 0000000140013ea0 f   Shop.obj
 0001:00012ea0       ?_Delete_this@?$_Func_impl_no_alloc@V<lambda_f96e08f4b5f6c13e985e24a004212e97>@@X$$V@std@@EEAAX_N@Z 0000000140013ea0 f   MyWindow.obj
 0001:00012ea0       ?_Delete_this@?$_Func_impl_no_alloc@V<lambda_ea09a75c222a66dc4a8fd8f581cf195d>@@X$$V@std@@EEAAX_N@Z 0000000140013ea0 f   GameManager.obj
 0001:00012ea0       ?_Delete_this@?$_Func_impl_no_alloc@V<lambda_867072a19d70b98a44a25bc7dba15d51>@@X$$V@std@@EEAAX_N@Z 0000000140013ea0 f   MyWindow.obj
 0001:00012ea0       ?_Delete_this@?$_Func_impl_no_alloc@V<lambda_3775f2d2be3acf40b03245c878d70ee1>@@X$$V@std@@EEAAX_N@Z 0000000140013ea0 f   MyWindow.obj
 0001:00012ea0       ?_Delete_this@?$_Func_impl_no_alloc@V<lambda_7ba90ac09ace4fd13a72d7fcbdbe9896>@@X$$V@std@@EEAAX_N@Z 0000000140013ea0 f   MyWindow.obj
 0001:00012ea0       ?_Delete_this@?$_Func_impl_no_alloc@V<lambda_316fddc45de15bd5944b69ecaf017b5b>@@X$$V@std@@EEAAX_N@Z 0000000140013ea0 f   MyWindow.obj
 0001:00012ea0       ?_Delete_this@?$_Func_impl_no_alloc@V<lambda_414998facd772942244f71127261ad86>@@X$$V@std@@EEAAX_N@Z 0000000140013ea0 f   Shop.obj
 0001:00012ea0       ?_Delete_this@?$_Func_impl_no_alloc@V<lambda_9e4ed57b88b9c2c95c2ae8d71a5c4f48>@@X$$V@std@@EEAAX_N@Z 0000000140013ea0 f   MyWindow.obj
 0001:00012ea0       ?_Delete_this@?$_Func_impl_no_alloc@V<lambda_d4055856ce15bf5a038765fc22a083fd>@@X$$V@std@@EEAAX_N@Z 0000000140013ea0 f   MyWindow.obj
 0001:00012ea0       ?_Delete_this@?$_Func_impl_no_alloc@V<lambda_3de1022e0e4f3428918652e077d8319b>@@X$$V@std@@EEAAX_N@Z 0000000140013ea0 f   Shop.obj
 0001:00012ea0       ?_Delete_this@?$_Func_impl_no_alloc@V<lambda_b4a53c077c995d59bbbf64eaab978451>@@X$$V@std@@EEAAX_N@Z 0000000140013ea0 f   MyWindow.obj
 0001:00012ea0       ?_Delete_this@?$_Func_impl_no_alloc@V<lambda_e4cb84e2ef1f0348c8ad9af04ceb4c4f>@@X$$V@std@@EEAAX_N@Z 0000000140013ea0 f   Shop.obj
 0001:00012eb0       ?_Get@?$_Func_impl_no_alloc@V<lambda_d2a719c930d707c67105e86afa12be81>@@X$$V@std@@EEBAPEBXXZ 0000000140013eb0 f   Shop.obj
 0001:00012eb0       ?_Get@?$_Func_impl_no_alloc@V<lambda_9e4ed57b88b9c2c95c2ae8d71a5c4f48>@@X$$V@std@@EEBAPEBXXZ 0000000140013eb0 f   MyWindow.obj
 0001:00012eb0       ?_Get@?$_Func_impl_no_alloc@V<lambda_e15a1fae8d706ca9371bd1c03b271ef7>@@X$$V@std@@EEBAPEBXXZ 0000000140013eb0 f   Shop.obj
 0001:00012eb0       ?_Get@?$_Func_impl_no_alloc@V<lambda_414998facd772942244f71127261ad86>@@X$$V@std@@EEBAPEBXXZ 0000000140013eb0 f   Shop.obj
 0001:00012eb0       ?_Get@?$_Func_impl_no_alloc@V<lambda_316fddc45de15bd5944b69ecaf017b5b>@@X$$V@std@@EEBAPEBXXZ 0000000140013eb0 f   MyWindow.obj
 0001:00012eb0       ?_Get@?$_Func_impl_no_alloc@V<lambda_d4055856ce15bf5a038765fc22a083fd>@@X$$V@std@@EEBAPEBXXZ 0000000140013eb0 f   MyWindow.obj
 0001:00012eb0       ?_Get@?$_Func_impl_no_alloc@V<lambda_867072a19d70b98a44a25bc7dba15d51>@@X$$V@std@@EEBAPEBXXZ 0000000140013eb0 f   MyWindow.obj
 0001:00012eb0       ?_Get@?$_Func_impl_no_alloc@V<lambda_3775f2d2be3acf40b03245c878d70ee1>@@X$$V@std@@EEBAPEBXXZ 0000000140013eb0 f   MyWindow.obj
 0001:00012eb0       ?_Get@?$_Func_impl_no_alloc@V<lambda_ea09a75c222a66dc4a8fd8f581cf195d>@@X$$V@std@@EEBAPEBXXZ 0000000140013eb0 f   GameManager.obj
 0001:00012eb0       ?_Get@?$_Func_impl_no_alloc@V<lambda_f96e08f4b5f6c13e985e24a004212e97>@@X$$V@std@@EEBAPEBXXZ 0000000140013eb0 f   MyWindow.obj
 0001:00012eb0       ?_Get@?$_Func_impl_no_alloc@V<lambda_7ba90ac09ace4fd13a72d7fcbdbe9896>@@X$$V@std@@EEBAPEBXXZ 0000000140013eb0 f   MyWindow.obj
 0001:00012eb0       ?_Get@?$_Func_impl_no_alloc@V<lambda_7515c2ed02c6d150075468e8ebe50eeb>@@X$$V@std@@EEBAPEBXXZ 0000000140013eb0 f   MyWindow.obj
 0001:00012eb0       ?_Get@?$_Func_impl_no_alloc@V<lambda_e4cb84e2ef1f0348c8ad9af04ceb4c4f>@@X$$V@std@@EEBAPEBXXZ 0000000140013eb0 f   Shop.obj
 0001:00012eb0       ?_Get@?$_Func_impl_no_alloc@V<lambda_3de1022e0e4f3428918652e077d8319b>@@X$$V@std@@EEBAPEBXXZ 0000000140013eb0 f   Shop.obj
 0001:00012eb0       ?_Get@?$_Func_impl_no_alloc@V<lambda_b4a53c077c995d59bbbf64eaab978451>@@X$$V@std@@EEBAPEBXXZ 0000000140013eb0 f   MyWindow.obj
 0001:00012ec0       ?_Target_type@?$_Func_impl_no_alloc@V<lambda_ea09a75c222a66dc4a8fd8f581cf195d>@@X$$V@std@@EEBAAEBVtype_info@@XZ 0000000140013ec0 f   GameManager.obj
 0001:00012ed0       ?_Copy@?$_Func_impl_no_alloc@V<lambda_ea09a75c222a66dc4a8fd8f581cf195d>@@X$$V@std@@EEBAPEAV?$_Func_base@X$$V@2@PEAX@Z 0000000140013ed0 f   GameManager.obj
 0001:00012ed0       ?_Move@?$_Func_impl_no_alloc@V<lambda_ea09a75c222a66dc4a8fd8f581cf195d>@@X$$V@std@@EEAAPEAV?$_Func_base@X$$V@2@PEAX@Z 0000000140013ed0 f   GameManager.obj
 0001:00012ef0       ?_Do_call@?$_Func_impl_no_alloc@V<lambda_ea09a75c222a66dc4a8fd8f581cf195d>@@X$$V@std@@EEAAXXZ 0000000140013ef0 f   GameManager.obj
 0001:00017580       ??R<lambda_7515c2ed02c6d150075468e8ebe50eeb>@@QEBAXXZ 0000000140018580 f   MyWindow.obj
 0001:00017710       ??R<lambda_b4a53c077c995d59bbbf64eaab978451>@@QEBAXXZ 0000000140018710 f   MyWindow.obj
 0001:00017c70       ?WndProc@@YA_JPEAUHWND__@@I_K_J@Z 0000000140018c70 f   MyWindow.obj
 0001:000182c0       ?_Target_type@?$_Func_impl_no_alloc@V<lambda_867072a19d70b98a44a25bc7dba15d51>@@X$$V@std@@EEBAAEBVtype_info@@XZ 00000001400192c0 f   MyWindow.obj
 0001:000182d0       ?_Copy@?$_Func_impl_no_alloc@V<lambda_867072a19d70b98a44a25bc7dba15d51>@@X$$V@std@@EEBAPEAV?$_Func_base@X$$V@2@PEAX@Z 00000001400192d0 f   MyWindow.obj
 0001:000182d0       ?_Move@?$_Func_impl_no_alloc@V<lambda_867072a19d70b98a44a25bc7dba15d51>@@X$$V@std@@EEAAPEAV?$_Func_base@X$$V@2@PEAX@Z 00000001400192d0 f   MyWindow.obj
 0001:000182f0       ?_Target_type@?$_Func_impl_no_alloc@V<lambda_316fddc45de15bd5944b69ecaf017b5b>@@X$$V@std@@EEBAAEBVtype_info@@XZ 00000001400192f0 f   MyWindow.obj
 0001:00018300       ?_Move@?$_Func_impl_no_alloc@V<lambda_316fddc45de15bd5944b69ecaf017b5b>@@X$$V@std@@EEAAPEAV?$_Func_base@X$$V@2@PEAX@Z 0000000140019300 f   MyWindow.obj
 0001:00018300       ?_Copy@?$_Func_impl_no_alloc@V<lambda_316fddc45de15bd5944b69ecaf017b5b>@@X$$V@std@@EEBAPEAV?$_Func_base@X$$V@2@PEAX@Z 0000000140019300 f   MyWindow.obj
 0001:00018320       ?_Target_type@?$_Func_impl_no_alloc@V<lambda_9e4ed57b88b9c2c95c2ae8d71a5c4f48>@@X$$V@std@@EEBAAEBVtype_info@@XZ 0000000140019320 f   MyWindow.obj
 0001:00018330       ?_Copy@?$_Func_impl_no_alloc@V<lambda_9e4ed57b88b9c2c95c2ae8d71a5c4f48>@@X$$V@std@@EEBAPEAV?$_Func_base@X$$V@2@PEAX@Z 0000000140019330 f   MyWindow.obj
 0001:00018330       ?_Move@?$_Func_impl_no_alloc@V<lambda_9e4ed57b88b9c2c95c2ae8d71a5c4f48>@@X$$V@std@@EEAAPEAV?$_Func_base@X$$V@2@PEAX@Z 0000000140019330 f   MyWindow.obj
 0001:00018350       ?_Target_type@?$_Func_impl_no_alloc@V<lambda_b4a53c077c995d59bbbf64eaab978451>@@X$$V@std@@EEBAAEBVtype_info@@XZ 0000000140019350 f   MyWindow.obj
 0001:00018360       ?_Copy@?$_Func_impl_no_alloc@V<lambda_b4a53c077c995d59bbbf64eaab978451>@@X$$V@std@@EEBAPEAV?$_Func_base@X$$V@2@PEAX@Z 0000000140019360 f   MyWindow.obj
 0001:00018360       ?_Move@?$_Func_impl_no_alloc@V<lambda_b4a53c077c995d59bbbf64eaab978451>@@X$$V@std@@EEAAPEAV?$_Func_base@X$$V@2@PEAX@Z 0000000140019360 f   MyWindow.obj
 0001:00018380       ?_Target_type@?$_Func_impl_no_alloc@V<lambda_d4055856ce15bf5a038765fc22a083fd>@@X$$V@std@@EEBAAEBVtype_info@@XZ 0000000140019380 f   MyWindow.obj
 0001:00018390       ?_Copy@?$_Func_impl_no_alloc@V<lambda_d4055856ce15bf5a038765fc22a083fd>@@X$$V@std@@EEBAPEAV?$_Func_base@X$$V@2@PEAX@Z 0000000140019390 f   MyWindow.obj
 0001:00018390       ?_Move@?$_Func_impl_no_alloc@V<lambda_d4055856ce15bf5a038765fc22a083fd>@@X$$V@std@@EEAAPEAV?$_Func_base@X$$V@2@PEAX@Z 0000000140019390 f   MyWindow.obj
 0001:000183b0       ?_Target_type@?$_Func_impl_no_alloc@V<lambda_3775f2d2be3acf40b03245c878d70ee1>@@X$$V@std@@EEBAAEBVtype_info@@XZ 00000001400193b0 f   MyWindow.obj
 0001:000183c0       ?_Move@?$_Func_impl_no_alloc@V<lambda_3775f2d2be3acf40b03245c878d70ee1>@@X$$V@std@@EEAAPEAV?$_Func_base@X$$V@2@PEAX@Z 00000001400193c0 f   MyWindow.obj
 0001:000183c0       ?_Copy@?$_Func_impl_no_alloc@V<lambda_3775f2d2be3acf40b03245c878d70ee1>@@X$$V@std@@EEBAPEAV?$_Func_base@X$$V@2@PEAX@Z 00000001400193c0 f   MyWindow.obj
 0001:000183e0       ?_Target_type@?$_Func_impl_no_alloc@V<lambda_f96e08f4b5f6c13e985e24a004212e97>@@X$$V@std@@EEBAAEBVtype_info@@XZ 00000001400193e0 f   MyWindow.obj
 0001:000183f0       ?_Copy@?$_Func_impl_no_alloc@V<lambda_f96e08f4b5f6c13e985e24a004212e97>@@X$$V@std@@EEBAPEAV?$_Func_base@X$$V@2@PEAX@Z 00000001400193f0 f   MyWindow.obj
 0001:000183f0       ?_Move@?$_Func_impl_no_alloc@V<lambda_f96e08f4b5f6c13e985e24a004212e97>@@X$$V@std@@EEAAPEAV?$_Func_base@X$$V@2@PEAX@Z 00000001400193f0 f   MyWindow.obj
 0001:00018410       ?_Target_type@?$_Func_impl_no_alloc@V<lambda_7ba90ac09ace4fd13a72d7fcbdbe9896>@@X$$V@std@@EEBAAEBVtype_info@@XZ 0000000140019410 f   MyWindow.obj
 0001:00018420       ?_Copy@?$_Func_impl_no_alloc@V<lambda_7ba90ac09ace4fd13a72d7fcbdbe9896>@@X$$V@std@@EEBAPEAV?$_Func_base@X$$V@2@PEAX@Z 0000000140019420 f   MyWindow.obj
 0001:00018420       ?_Move@?$_Func_impl_no_alloc@V<lambda_7ba90ac09ace4fd13a72d7fcbdbe9896>@@X$$V@std@@EEAAPEAV?$_Func_base@X$$V@2@PEAX@Z 0000000140019420 f   MyWindow.obj
 0001:00018440       ?_Delete_this@?$_Func_impl_no_alloc@V<lambda_7515c2ed02c6d150075468e8ebe50eeb>@@X$$V@std@@EEAAX_N@Z 0000000140019440 f   MyWindow.obj
 0001:00018450       ?_Target_type@?$_Func_impl_no_alloc@V<lambda_7515c2ed02c6d150075468e8ebe50eeb>@@X$$V@std@@EEBAAEBVtype_info@@XZ 0000000140019450 f   MyWindow.obj
 0001:00018460       ?_Copy@?$_Func_impl_no_alloc@V<lambda_7515c2ed02c6d150075468e8ebe50eeb>@@X$$V@std@@EEBAPEAV?$_Func_base@X$$V@2@PEAX@Z 0000000140019460 f   MyWindow.obj
 0001:00018460       ?_Move@?$_Func_impl_no_alloc@V<lambda_7515c2ed02c6d150075468e8ebe50eeb>@@X$$V@std@@EEAAPEAV?$_Func_base@X$$V@2@PEAX@Z 0000000140019460 f   MyWindow.obj
 0001:00018480       ?_Do_call@?$_Func_impl_no_alloc@V<lambda_7515c2ed02c6d150075468e8ebe50eeb>@@X$$V@std@@EEAAXXZ 0000000140019480 f   MyWindow.obj
 0001:00018490       ?_Do_call@?$_Func_impl_no_alloc@V<lambda_7ba90ac09ace4fd13a72d7fcbdbe9896>@@X$$V@std@@EEAAXXZ 0000000140019490 f   MyWindow.obj
 0001:00018510       ?_Do_call@?$_Func_impl_no_alloc@V<lambda_f96e08f4b5f6c13e985e24a004212e97>@@X$$V@std@@EEAAXXZ 0000000140019510 f   MyWindow.obj
 0001:00018520       ?_Do_call@?$_Func_impl_no_alloc@V<lambda_3775f2d2be3acf40b03245c878d70ee1>@@X$$V@std@@EEAAXXZ 0000000140019520 f   MyWindow.obj
 0001:00018590       ?_Do_call@?$_Func_impl_no_alloc@V<lambda_d4055856ce15bf5a038765fc22a083fd>@@X$$V@std@@EEAAXXZ 0000000140019590 f   MyWindow.obj
 0001:00018600       ?_Do_call@?$_Func_impl_no_alloc@V<lambda_b4a53c077c995d59bbbf64eaab978451>@@X$$V@std@@EEAAXXZ 0000000140019600 f   MyWindow.obj
 0001:00018610       ?_Do_call@?$_Func_impl_no_alloc@V<lambda_9e4ed57b88b9c2c95c2ae8d71a5c4f48>@@X$$V@std@@EEAAXXZ 0000000140019610 f   MyWindow.obj
 0001:00018620       ?_Do_call@?$_Func_impl_no_alloc@V<lambda_316fddc45de15bd5944b69ecaf017b5b>@@X$$V@std@@EEAAXXZ 0000000140019620 f   MyWindow.obj
 0001:00018630       ?_Do_call@?$_Func_impl_no_alloc@V<lambda_867072a19d70b98a44a25bc7dba15d51>@@X$$V@std@@EEAAXXZ 0000000140019630 f   MyWindow.obj
 0001:0001f620       ?_Target_type@?$_Func_impl_no_alloc@V<lambda_3de1022e0e4f3428918652e077d8319b>@@X$$V@std@@EEBAAEBVtype_info@@XZ 0000000140020620 f   Shop.obj
 0001:0001f630       ?_Copy@?$_Func_impl_no_alloc@V<lambda_3de1022e0e4f3428918652e077d8319b>@@X$$V@std@@EEBAPEAV?$_Func_base@X$$V@2@PEAX@Z 0000000140020630 f   Shop.obj
 0001:0001f630       ?_Move@?$_Func_impl_no_alloc@V<lambda_3de1022e0e4f3428918652e077d8319b>@@X$$V@std@@EEAAPEAV?$_Func_base@X$$V@2@PEAX@Z 0000000140020630 f   Shop.obj
 0001:0001f650       ?_Target_type@?$_Func_impl_no_alloc@V<lambda_e15a1fae8d706ca9371bd1c03b271ef7>@@X$$V@std@@EEBAAEBVtype_info@@XZ 0000000140020650 f   Shop.obj
 0001:0001f660       ?_Move@?$_Func_impl_no_alloc@V<lambda_e15a1fae8d706ca9371bd1c03b271ef7>@@X$$V@std@@EEAAPEAV?$_Func_base@X$$V@2@PEAX@Z 0000000140020660 f   Shop.obj
 0001:0001f660       ?_Copy@?$_Func_impl_no_alloc@V<lambda_e15a1fae8d706ca9371bd1c03b271ef7>@@X$$V@std@@EEBAPEAV?$_Func_base@X$$V@2@PEAX@Z 0000000140020660 f   Shop.obj
 0001:0001f680       ?_Target_type@?$_Func_impl_no_alloc@V<lambda_d2a719c930d707c67105e86afa12be81>@@X$$V@std@@EEBAAEBVtype_info@@XZ 0000000140020680 f   Shop.obj
 0001:0001f690       ?_Copy@?$_Func_impl_no_alloc@V<lambda_d2a719c930d707c67105e86afa12be81>@@X$$V@std@@EEBAPEAV?$_Func_base@X$$V@2@PEAX@Z 0000000140020690 f   Shop.obj
 0001:0001f690       ?_Move@?$_Func_impl_no_alloc@V<lambda_d2a719c930d707c67105e86afa12be81>@@X$$V@std@@EEAAPEAV?$_Func_base@X$$V@2@PEAX@Z 0000000140020690 f   Shop.obj
 0001:0001f6b0       ?_Target_type@?$_Func_impl_no_alloc@V<lambda_e4cb84e2ef1f0348c8ad9af04ceb4c4f>@@X$$V@std@@EEBAAEBVtype_info@@XZ 00000001400206b0 f   Shop.obj
 0001:0001f6c0       ?_Copy@?$_Func_impl_no_alloc@V<lambda_e4cb84e2ef1f0348c8ad9af04ceb4c4f>@@X$$V@std@@EEBAPEAV?$_Func_base@X$$V@2@PEAX@Z 00000001400206c0 f   Shop.obj
 0001:0001f6c0       ?_Move@?$_Func_impl_no_alloc@V<lambda_e4cb84e2ef1f0348c8ad9af04ceb4c4f>@@X$$V@std@@EEAAPEAV?$_Func_base@X$$V@2@PEAX@Z 00000001400206c0 f   Shop.obj
 0001:0001f6e0       ?_Target_type@?$_Func_impl_no_alloc@V<lambda_414998facd772942244f71127261ad86>@@X$$V@std@@EEBAAEBVtype_info@@XZ 00000001400206e0 f   Shop.obj
 0001:0001f6f0       ?_Copy@?$_Func_impl_no_alloc@V<lambda_414998facd772942244f71127261ad86>@@X$$V@std@@EEBAPEAV?$_Func_base@X$$V@2@PEAX@Z 00000001400206f0 f   Shop.obj
 0001:0001f6f0       ?_Move@?$_Func_impl_no_alloc@V<lambda_414998facd772942244f71127261ad86>@@X$$V@std@@EEAAPEAV?$_Func_base@X$$V@2@PEAX@Z 00000001400206f0 f   Shop.obj
 0001:0001f710       ?_Do_call@?$_Func_impl_no_alloc@V<lambda_414998facd772942244f71127261ad86>@@X$$V@std@@EEAAXXZ 0000000140020710 f   Shop.obj
 0001:0001f720       ?_Do_call@?$_Func_impl_no_alloc@V<lambda_e4cb84e2ef1f0348c8ad9af04ceb4c4f>@@X$$V@std@@EEAAXXZ 0000000140020720 f   Shop.obj
 0001:0001f730       ?_Do_call@?$_Func_impl_no_alloc@V<lambda_d2a719c930d707c67105e86afa12be81>@@X$$V@std@@EEAAXXZ 0000000140020730 f   Shop.obj
 0001:0001f740       ?_Do_call@?$_Func_impl_no_alloc@V<lambda_e15a1fae8d706ca9371bd1c03b271ef7>@@X$$V@std@@EEAAXXZ 0000000140020740 f   Shop.obj
 0001:0001f750       ?_Do_call@?$_Func_impl_no_alloc@V<lambda_3de1022e0e4f3428918652e077d8319b>@@X$$V@std@@EEAAXXZ 0000000140020750 f   Shop.obj
 0001:00022cb0       ?<lambda_invoker_cdecl>@<lambda_9db9824f8b18fe401689e63f3bf6b9e4>@@CAHPEAT_RTL_RUN_ONCE@@PEAXPEAPEAX@Z 0000000140023cb0 f   WICTextureLoader.obj
 0001:00022d20       ?_WICBitsPerPixel@?A0x045efb5a@@YA_KAEBU_GUID@@@Z 0000000140023d20 f   WICTextureLoader.obj
 0001:00022e30       ?MakeSRGB@?A0x045efb5a@@YA?AW4DXGI_FORMAT@@W42@@Z 0000000140023e30 f   WICTextureLoader.obj
 0001:00022e84       $LN14                      0000000140023e84     WICTextureLoader.obj
 0001:00022ea4       $LN13                      0000000140023ea4     WICTextureLoader.obj
 0001:00022ef0       ?CreateTextureFromWIC@?A0x045efb5a@@YAJPEAUID3D11Device@@PEAUID3D11DeviceContext@@PEAUIWICBitmapFrameDecode@@_KW4D3D11_USAGE@@IIIIPEAPEAUID3D11Resource@@PEAPEAUID3D11ShaderResourceView@@@Z 0000000140023ef0 f   WICTextureLoader.obj
 0001:00024720       ??$_Guess_median_unchecked@PEAPEBUSpriteInfo@Impl@SpriteBatch@DirectX@@V<lambda_9829e134287828d35661b3276427a812>@@@std@@YAXPEAPEBUSpriteInfo@Impl@SpriteBatch@DirectX@@00V<lambda_9829e134287828d35661b3276427a812>@@@Z 0000000140025720 f   DirectXTK:SpriteBatch.obj
 0001:000248c0       ??$_Guess_median_unchecked@PEAPEBUSpriteInfo@Impl@SpriteBatch@DirectX@@V<lambda_9b5ae69721589d94e761d5c8d20d011a>@@@std@@YAXPEAPEBUSpriteInfo@Impl@SpriteBatch@DirectX@@00V<lambda_9b5ae69721589d94e761d5c8d20d011a>@@@Z 00000001400258c0 f   DirectXTK:SpriteBatch.obj
 0001:00024a80       ??$_Guess_median_unchecked@PEAPEBUSpriteInfo@Impl@SpriteBatch@DirectX@@V<lambda_c8cd3344139af936846f26b5e655a233>@@@std@@YAXPEAPEBUSpriteInfo@Impl@SpriteBatch@DirectX@@00V<lambda_c8cd3344139af936846f26b5e655a233>@@@Z 0000000140025a80 f   DirectXTK:SpriteBatch.obj
 0001:00025070       ??$_Partition_by_median_guess_unchecked@PEAPEBUSpriteInfo@Impl@SpriteBatch@DirectX@@V<lambda_9b5ae69721589d94e761d5c8d20d011a>@@@std@@YA?AU?$pair@PEAPEBUSpriteInfo@Impl@SpriteBatch@DirectX@@PEAPEBU1234@@0@PEAPEBUSpriteInfo@Impl@SpriteBatch@DirectX@@0V<lambda_9b5ae69721589d94e761d5c8d20d011a>@@@Z 0000000140026070 f   DirectXTK:SpriteBatch.obj
 0001:00025360       ??$_Partition_by_median_guess_unchecked@PEAPEBUSpriteInfo@Impl@SpriteBatch@DirectX@@V<lambda_c8cd3344139af936846f26b5e655a233>@@@std@@YA?AU?$pair@PEAPEBUSpriteInfo@Impl@SpriteBatch@DirectX@@PEAPEBU1234@@0@PEAPEBUSpriteInfo@Impl@SpriteBatch@DirectX@@0V<lambda_c8cd3344139af936846f26b5e655a233>@@@Z 0000000140026360 f   DirectXTK:SpriteBatch.obj
 0001:00025650       ??$_Pop_heap_hole_by_index@PEAPEBUSpriteInfo@Impl@SpriteBatch@DirectX@@PEBU1234@V<lambda_9829e134287828d35661b3276427a812>@@@std@@YAXPEAPEBUSpriteInfo@Impl@SpriteBatch@DirectX@@_J1$$QEAPEBU1234@V<lambda_9829e134287828d35661b3276427a812>@@@Z 0000000140026650 f   DirectXTK:SpriteBatch.obj
 0001:00025720       ??$_Pop_heap_hole_by_index@PEAPEBUSpriteInfo@Impl@SpriteBatch@DirectX@@PEBU1234@V<lambda_9b5ae69721589d94e761d5c8d20d011a>@@@std@@YAXPEAPEBUSpriteInfo@Impl@SpriteBatch@DirectX@@_J1$$QEAPEBU1234@V<lambda_9b5ae69721589d94e761d5c8d20d011a>@@@Z 0000000140026720 f   DirectXTK:SpriteBatch.obj
 0001:000257e0       ??$_Pop_heap_hole_by_index@PEAPEBUSpriteInfo@Impl@SpriteBatch@DirectX@@PEBU1234@V<lambda_c8cd3344139af936846f26b5e655a233>@@@std@@YAXPEAPEBUSpriteInfo@Impl@SpriteBatch@DirectX@@_J1$$QEAPEBU1234@V<lambda_c8cd3344139af936846f26b5e655a233>@@@Z 00000001400267e0 f   DirectXTK:SpriteBatch.obj
 0001:00025a60       ??$_Sort_unchecked@PEAPEBUSpriteInfo@Impl@SpriteBatch@DirectX@@V<lambda_9829e134287828d35661b3276427a812>@@@std@@YAXPEAPEBUSpriteInfo@Impl@SpriteBatch@DirectX@@0_JV<lambda_9829e134287828d35661b3276427a812>@@@Z 0000000140026a60 f   DirectXTK:SpriteBatch.obj
 0001:00025e70       ??$_Sort_unchecked@PEAPEBUSpriteInfo@Impl@SpriteBatch@DirectX@@V<lambda_9b5ae69721589d94e761d5c8d20d011a>@@@std@@YAXPEAPEBUSpriteInfo@Impl@SpriteBatch@DirectX@@0_JV<lambda_9b5ae69721589d94e761d5c8d20d011a>@@@Z 0000000140026e70 f   DirectXTK:SpriteBatch.obj
 0001:00026110       ??$_Sort_unchecked@PEAPEBUSpriteInfo@Impl@SpriteBatch@DirectX@@V<lambda_c8cd3344139af936846f26b5e655a233>@@@std@@YAXPEAPEBUSpriteInfo@Impl@SpriteBatch@DirectX@@0_JV<lambda_c8cd3344139af936846f26b5e655a233>@@@Z 0000000140027110 f   DirectXTK:SpriteBatch.obj
 0001:000297e0       ??$ForEachGlyph@V<lambda_ea59ae01f682360545abc2266ba2a092>@@@Impl@SpriteFont@DirectX@@QEBAXPEB_WV<lambda_ea59ae01f682360545abc2266ba2a092>@@@Z 000000014002a7e0 f   DirectXTK:SpriteFont.obj
 0001:00029fbc       $LN452                     000000014002afbc     DirectXTK:SpriteFont.obj
 0001:00029fdc       $LN451                     000000014002afdc     DirectXTK:SpriteFont.obj
 0001:0002a9b8       $LN20                      000000014002b9b8     DirectXTK:DDSTextureLoader.obj
 0001:0002a9e4       $LN19                      000000014002b9e4     DirectXTK:DDSTextureLoader.obj
 0001:0002aa70       ?CreateD3DResources@?A0x3c71273c@@YAJPEAUID3D11Device@@I_K1111W4DXGI_FORMAT@@W4D3D11_USAGE@@III_N4PEBUD3D11_SUBRESOURCE_DATA@@PEAPEAUID3D11Resource@@PEAPEAUID3D11ShaderResourceView@@@Z 000000014002ba70 f   DirectXTK:DDSTextureLoader.obj
 0001:0002ae04       $LN54                      000000014002be04     DirectXTK:DDSTextureLoader.obj
 0001:0002ae24       $LN53                      000000014002be24     DirectXTK:DDSTextureLoader.obj
 0001:0002aff0       ?CreateTextureFromDDS@?A0x3c71273c@@YAJPEAUID3D11Device@@PEAUID3D11DeviceContext@@PEBUDDS_HEADER@DirectX@@PEBE_K4W4D3D11_USAGE@@III_NPEAPEAUID3D11Resource@@PEAPEAUID3D11ShaderResourceView@@@Z 000000014002bff0 f   DirectXTK:DDSTextureLoader.obj
 0001:0002b848       $LN259                     000000014002c848     DirectXTK:DDSTextureLoader.obj
 0001:0002b870       ?FillInitData@?A0x3c71273c@@YAJ_K0000W4DXGI_FORMAT@@00PEBEAEA_K333PEAUD3D11_SUBRESOURCE_DATA@@@Z 000000014002c870 f   DirectXTK:DDSTextureLoader.obj
 0001:0002bbe8       $LN79                      000000014002cbe8     DirectXTK:DDSTextureLoader.obj
 0001:0002bc04       $LN78                      000000014002cc04     DirectXTK:DDSTextureLoader.obj
 0001:0002c0f0       $LN70                      000000014002d0f0     DirectXTK:DDSTextureLoader.obj
 0001:0002c114       $LN69                      000000014002d114     DirectXTK:DDSTextureLoader.obj
 0001:0002c2fc       $LN35                      000000014002d2fc     DirectXTK:DDSTextureLoader.obj
 0001:0002c318       $LN34                      000000014002d318     DirectXTK:DDSTextureLoader.obj
 0001:0002d4d0       $$000000                   000000014002e4d0     MSVCRT:amdsecgs.obj
 0001:0002d57c       ?__scrt_initialize_thread_safe_statics@@YAHXZ 000000014002e57c f   MSVCRT:thread_safe_statics.obj
 0001:0002d6dc       ?__scrt_uninitialize_thread_safe_statics@@YAXXZ 000000014002e6dc f   MSVCRT:thread_safe_statics.obj
 0001:0002d89c       ?pre_c_initialization@@YAHXZ 000000014002e89c f   MSVCRT:exe_winmain.obj
 0001:0002d954       ?post_pgo_initialization@@YAHXZ 000000014002e954 f   MSVCRT:exe_winmain.obj
 0001:0002d964       ?pre_cpp_initialization@@YAXXZ 000000014002e964 f   MSVCRT:exe_winmain.obj
 0001:0002d980       ?__scrt_common_main_seh@@YAHXZ 000000014002e980 f   MSVCRT:exe_winmain.obj
 0001:0002dfc0       capture_previous_context   000000014002efc0 f   MSVCRT:gs_report.obj
 0001:0002e780       $$000000                   000000014002f780     MSVCRT:guard_dispatch.obj
 0001:0002e7a0       ?dtor$0@?0??Flatten@Animation@@QEAA?AV?$vector@V?$array@Ufloat4@@$03@std@@V?$allocator@V?$array@Ufloat4@@$03@std@@@2@@std@@V23@V?$vector@HV?$allocator@H@std@@@3@@Z@4HA 000000014002f7a0 f   Animation.obj
 0001:0002e7ac       ?dtor$1@?0??Flatten@Animation@@QEAA?AV?$vector@V?$array@Ufloat4@@$03@std@@V?$allocator@V?$array@Ufloat4@@$03@std@@@2@@std@@V23@V?$vector@HV?$allocator@H@std@@@3@@Z@4HA 000000014002f7ac f   Animation.obj
 0001:0002e7b8       ?dtor$2@?0??Flatten@Animation@@QEAA?AV?$vector@V?$array@Ufloat4@@$03@std@@V?$allocator@V?$array@Ufloat4@@$03@std@@@2@@std@@V23@V?$vector@HV?$allocator@H@std@@@3@@Z@4HA 000000014002f7b8 f   Animation.obj
 0001:0002e7e0       ?dtor$0@?0???0Animation@@QEAA@PEBDPEAUID3D11Device@@@Z@4HA 000000014002f7e0 f   Animation.obj
 0001:0002e7f0       ?dtor$1@?0???0Animation@@QEAA@PEBDPEAUID3D11Device@@@Z@4HA 000000014002f7f0 f   Animation.obj
 0001:0002e800       ?dtor$2@?0???0Animation@@QEAA@PEBDPEAUID3D11Device@@@Z@4HA 000000014002f800 f   Animation.obj
 0001:0002e80c       ?dtor$4@?0???0Animation@@QEAA@PEBDPEAUID3D11Device@@@Z@4HA 000000014002f80c f   Animation.obj
 0001:0002e818       ?dtor$5@?0???0Animation@@QEAA@PEBDPEAUID3D11Device@@@Z@4HA 000000014002f818 f   Animation.obj
 0001:0002e830       ?dtor$0@?0??ReadAnimFile@Animation@@QEAAXPEBDPEAUID3D11Device@@@Z@4HA 000000014002f830 f   Animation.obj
 0001:0002e83c       ?dtor$1@?0??ReadAnimFile@Animation@@QEAAXPEBDPEAUID3D11Device@@@Z@4HA 000000014002f83c f   Animation.obj
 0001:0002e850       ?dtor$0@?0??LerpJoints@Animation@@QEAA?AV?$vector@V?$array@Ufloat4@@$03@std@@V?$allocator@V?$array@Ufloat4@@$03@std@@@2@@std@@V23@0M@Z@4HA 000000014002f850 f   Animation.obj
 0001:0002e85c       ?dtor$1@?0??LerpJoints@Animation@@QEAA?AV?$vector@V?$array@Ufloat4@@$03@std@@V?$allocator@V?$array@Ufloat4@@$03@std@@@2@@std@@V23@0M@Z@4HA 000000014002f85c f   Animation.obj
 0001:0002e868       ?dtor$2@?0??LerpJoints@Animation@@QEAA?AV?$vector@V?$array@Ufloat4@@$03@std@@V?$allocator@V?$array@Ufloat4@@$03@std@@@2@@std@@V23@0M@Z@4HA 000000014002f868 f   Animation.obj
 0001:0002e890       ?dtor$0@?0??SetJoints@Animation@@QEAAXM@Z@4HA 000000014002f890 f   Animation.obj
 0001:0002e89c       ?dtor$1@?0??SetJoints@Animation@@QEAAXM@Z@4HA 000000014002f89c f   Animation.obj
 0001:0002e8b0       ?dtor$0@?0???0?$basic_fstream@DU?$char_traits@D@std@@@std@@QEAA@PEBDHH@Z@4HA 000000014002f8b0 f   Animation.obj
 0001:0002e8de       ?dtor$1@?0???0?$basic_fstream@DU?$char_traits@D@std@@@std@@QEAA@PEBDHH@Z@4HA 000000014002f8de f   Animation.obj
 0001:0002e8f0       ?dtor$3@?0???0?$basic_fstream@DU?$char_traits@D@std@@@std@@QEAA@PEBDHH@Z@4HA 000000014002f8f0 f   Animation.obj
 0001:0002e8fe       ?dtor$2@?0???0?$basic_fstream@DU?$char_traits@D@std@@@std@@QEAA@PEBDHH@Z@4HA 000000014002f8fe f   Animation.obj
 0001:0002e910       ?dtor$0@?0??UpdateCurrencyText@GameManager@@QEAAXXZ@4HA 000000014002f910 f   GameManager.obj
 0001:0002e910       ?dtor$0@?0??UpdateDamageTimerText@GameManager@@QEAAXXZ@4HA 000000014002f910 f   GameManager.obj
 0001:0002e910       ?dtor$0@?0??UpdateVolumeText@MyWindow@@AEAAXXZ@4HA 000000014002f910 f   MyWindow.obj
 0001:0002e910       ?dtor$0@?0??UpdateTimerText@GameManager@@QEAAXM@Z@4HA 000000014002f910 f   GameManager.obj
 0001:0002e910       ?dtor$0@?0??uflow@?$basic_filebuf@DU?$char_traits@D@std@@@std@@MEAAHXZ@4HA 000000014002f910 f   Animation.obj
 0001:0002e920       ?dtor$0@?0??open@?$basic_filebuf@DU?$char_traits@D@std@@@std@@QEAAPEAV12@PEBDHH@Z@4HA 000000014002f920 f   Animation.obj
 0001:0002e930       ?dtor$0@?0???$use_facet@V?$codecvt@DDU_Mbstatet@@@std@@@std@@YAAEBV?$codecvt@DDU_Mbstatet@@@0@AEBVlocale@0@@Z@4HA 000000014002f930 f   Animation.obj
 0001:0002e93e       ?dtor$1@?0???$use_facet@V?$codecvt@DDU_Mbstatet@@@std@@@std@@YAAEBV?$codecvt@DDU_Mbstatet@@@0@AEBVlocale@0@@Z@4HA 000000014002f93e f   Animation.obj
 0001:0002e950       ?dtor$0@?0???0RangedEnemy@@QEAA@XZ@4HA 000000014002f950 f   RangedEnemy.obj
 0001:0002e950       ?dtor$0@?0???0Target@@QEAA@XZ@4HA 000000014002f950 f   Target.obj
 0001:0002e950       ?dtor$0@?0???0BombEnemy@@QEAA@XZ@4HA 000000014002f950 f   BombEnemy.obj
 0001:0002e95c       ?dtor$2@?0???0RangedEnemy@@QEAA@XZ@4HA 000000014002f95c f   RangedEnemy.obj
 0001:0002e95c       ?dtor$2@?0???0BombEnemy@@QEAA@XZ@4HA 000000014002f95c f   BombEnemy.obj
 0001:0002e95c       ?dtor$2@?0???0Target@@QEAA@XZ@4HA 000000014002f95c f   Target.obj
 0001:0002e970       ?dtor$0@?0???0Bullet@@QEAA@M@Z@4HA 000000014002f970 f   Bullet.obj
 0001:0002e97c       ?dtor$1@?0???0Bullet@@QEAA@M@Z@4HA 000000014002f97c f   Bullet.obj
 0001:0002e990       ?dtor$0@?0??Initialize@Bullet@@QEAA_NPEAUID3D11Device@@PEBDUfloat3@@2V?$basic_string@DU?$char_traits@D@std@@V?$allocator@D@2@@std@@M@Z@4HA 000000014002f990 f   Bullet.obj
 0001:0002e9a0       ?dtor$0@?0???0Enemy@@QEAA@XZ@4HA 000000014002f9a0 f   Enemy.obj
 0001:0002e9b0       ?dtor$0@?0??Initialize@EnemyManager@@QEAAXPEAUID3D11Device@@@Z@4HA 000000014002f9b0 f   EnemyManager.obj
 0001:0002e9d0       ?dtor$1@?0??Initialize@EnemyManager@@QEAAXPEAUID3D11Device@@@Z@4HA 000000014002f9d0 f   EnemyManager.obj
 0001:0002e9f0       ?dtor$2@?0??Initialize@EnemyManager@@QEAAXPEAUID3D11Device@@@Z@4HA 000000014002f9f0 f   EnemyManager.obj
 0001:0002ea10       ?dtor$0@?0??Update@EnemyManager@@QEAAXMPEAVPlayer@@V?$vector@PEAVGameObject@@V?$allocator@PEAVGameObject@@@std@@@std@@AEAV?$vector@PEAVBullet@@V?$allocator@PEAVBullet@@@std@@@4@PEAUID3D11Device@@PEAUHWND__@@@Z@4HA 000000014002fa10 f   EnemyManager.obj
 0001:0002ea1c       ?dtor$1@?0??Update@EnemyManager@@QEAAXMPEAVPlayer@@V?$vector@PEAVGameObject@@V?$allocator@PEAVGameObject@@@std@@@std@@AEAV?$vector@PEAVBullet@@V?$allocator@PEAVBullet@@@std@@@4@PEAUID3D11Device@@PEAUHWND__@@@Z@4HA 000000014002fa1c f   EnemyManager.obj
 0001:0002ea3c       ?dtor$2@?0??Update@EnemyManager@@QEAAXMPEAVPlayer@@V?$vector@PEAVGameObject@@V?$allocator@PEAVGameObject@@@std@@@std@@AEAV?$vector@PEAVBullet@@V?$allocator@PEAVBullet@@@std@@@4@PEAUID3D11Device@@PEAUHWND__@@@Z@4HA 000000014002fa3c f   EnemyManager.obj
 0001:0002ea5c       ?dtor$3@?0??Update@EnemyManager@@QEAAXMPEAVPlayer@@V?$vector@PEAVGameObject@@V?$allocator@PEAVGameObject@@@std@@@std@@AEAV?$vector@PEAVBullet@@V?$allocator@PEAVBullet@@@std@@@4@PEAUID3D11Device@@PEAUHWND__@@@Z@4HA 000000014002fa5c f   EnemyManager.obj
 0001:0002ea7c       ?dtor$7@?0??Update@EnemyManager@@QEAAXMPEAVPlayer@@V?$vector@PEAVGameObject@@V?$allocator@PEAVGameObject@@@std@@@std@@AEAV?$vector@PEAVBullet@@V?$allocator@PEAVBullet@@@std@@@4@PEAUID3D11Device@@PEAUHWND__@@@Z@4HA 000000014002fa7c f   EnemyManager.obj
 0001:0002ea9c       ?dtor$8@?0??Update@EnemyManager@@QEAAXMPEAVPlayer@@V?$vector@PEAVGameObject@@V?$allocator@PEAVGameObject@@@std@@@std@@AEAV?$vector@PEAVBullet@@V?$allocator@PEAVBullet@@@std@@@4@PEAUID3D11Device@@PEAUHWND__@@@Z@4HA 000000014002fa9c f   EnemyManager.obj
 0001:0002eac0       ?dtor$0@?0???0GameObject@@QEAA@XZ@4HA 000000014002fac0 f   GameObject.obj
 0001:0002ead0       ?dtor$1@?0???0GameObject@@QEAA@XZ@4HA 000000014002fad0 f   GameObject.obj
 0001:0002eae0       ?dtor$2@?0???0GameObject@@QEAA@XZ@4HA 000000014002fae0 f   GameObject.obj
 0001:0002eaf0       ?dtor$3@?0???0GameObject@@QEAA@XZ@4HA 000000014002faf0 f   GameObject.obj
 0001:0002eb00       ?dtor$4@?0???0GameObject@@QEAA@XZ@4HA 000000014002fb00 f   GameObject.obj
 0001:0002eb20       ?dtor$0@?0??GetParent@GameObject@@QEAAHHV?$vector@HV?$allocator@H@std@@@std@@@Z@4HA 000000014002fb20 f   GameObject.obj
 0001:0002eb30       ?dtor$0@?0??AddAninimation@GameObject@@QEAAXPEBDPEAUID3D11Device@@H@Z@4HA 000000014002fb30 f   GameObject.obj
 0001:0002eb4d       ?dtor$5@?0??AddAninimation@GameObject@@QEAAXPEBDPEAUID3D11Device@@H@Z@4HA 000000014002fb4d f   GameObject.obj
 0001:0002eb5d       ?dtor$6@?0??AddAninimation@GameObject@@QEAAXPEBDPEAUID3D11Device@@H@Z@4HA 000000014002fb5d f   GameObject.obj
 0001:0002eb6d       ?dtor$12@?0??AddAninimation@GameObject@@QEAAXPEBDPEAUID3D11Device@@H@Z@4HA 000000014002fb6d f   GameObject.obj
 0001:0002eb7d       ?dtor$13@?0??AddAninimation@GameObject@@QEAAXPEBDPEAUID3D11Device@@H@Z@4HA 000000014002fb7d f   GameObject.obj
 0001:0002eb8d       ?dtor$2@?0??AddAninimation@GameObject@@QEAAXPEBDPEAUID3D11Device@@H@Z@4HA 000000014002fb8d f   GameObject.obj
 0001:0002eba0       ?dtor$0@?0???0?$vector@Ukeyframe@@V?$allocator@Ukeyframe@@@std@@@std@@QEAA@AEBV01@@Z@4HA 000000014002fba0 f   GameObject.obj
 0001:0002ebac       ?catch$2@?0???0?$vector@Ukeyframe@@V?$allocator@Ukeyframe@@@std@@@std@@QEAA@AEBV01@@Z@4HA 000000014002fbac f   GameObject.obj
 0001:0002ebb9       __catch$??0?$vector@Ukeyframe@@V?$allocator@Ukeyframe@@@std@@@std@@QEAA@AEBV01@@Z$0 000000014002fbb9 f   GameObject.obj
 0001:0002ebd0       ?dtor$1@?0??Initialize@Graphics@@QEAA_NHHPEAUHWND__@@PEAVInputManager@@@Z@4HA 000000014002fbd0 f   graphicsclass.obj
 0001:0002ebed       ?dtor$2@?0??Initialize@Graphics@@QEAA_NHHPEAUHWND__@@PEAVInputManager@@@Z@4HA 000000014002fbed f   graphicsclass.obj
 0001:0002ec0a       ?dtor$3@?0??Initialize@Graphics@@QEAA_NHHPEAUHWND__@@PEAVInputManager@@@Z@4HA 000000014002fc0a f   graphicsclass.obj
 0001:0002ec27       ?dtor$10@?0??Initialize@Graphics@@QEAA_NHHPEAUHWND__@@PEAVInputManager@@@Z@4HA 000000014002fc27 f   graphicsclass.obj
 0001:0002ec44       ?dtor$11@?0??Initialize@Graphics@@QEAA_NHHPEAUHWND__@@PEAVInputManager@@@Z@4HA 000000014002fc44 f   graphicsclass.obj
 0001:0002ec61       ?dtor$12@?0??Initialize@Graphics@@QEAA_NHHPEAUHWND__@@PEAVInputManager@@@Z@4HA 000000014002fc61 f   graphicsclass.obj
 0001:0002ec80       ?dtor$0@?0??Render@Graphics@@QEAA_NPEAVInputManager@@PEAVPlayer@@V?$vector@PEAVBullet@@V?$allocator@PEAVBullet@@@std@@@std@@V?$vector@PEAVEnemy@@V?$allocator@PEAVEnemy@@@std@@@5@V?$vector@PEAVGameObject@@V?$allocator@PEAVGameObject@@@std@@@5@V?$vector@PEAVPickup@@V?$allocator@PEAVPickup@@@std@@@5@@Z@4HA 000000014002fc80 f   graphicsclass.obj
 0001:0002ec8c       ?dtor$1@?0??Render@Graphics@@QEAA_NPEAVInputManager@@PEAVPlayer@@V?$vector@PEAVBullet@@V?$allocator@PEAVBullet@@@std@@@std@@V?$vector@PEAVEnemy@@V?$allocator@PEAVEnemy@@@std@@@5@V?$vector@PEAVGameObject@@V?$allocator@PEAVGameObject@@@std@@@5@V?$vector@PEAVPickup@@V?$allocator@PEAVPickup@@@std@@@5@@Z@4HA 000000014002fc8c f   graphicsclass.obj
 0001:0002ec98       ?dtor$2@?0??Render@Graphics@@QEAA_NPEAVInputManager@@PEAVPlayer@@V?$vector@PEAVBullet@@V?$allocator@PEAVBullet@@@std@@@std@@V?$vector@PEAVEnemy@@V?$allocator@PEAVEnemy@@@std@@@5@V?$vector@PEAVGameObject@@V?$allocator@PEAVGameObject@@@std@@@5@V?$vector@PEAVPickup@@V?$allocator@PEAVPickup@@@std@@@5@@Z@4HA 000000014002fc98 f   graphicsclass.obj
 0001:0002eca4       ?dtor$3@?0??Render@Graphics@@QEAA_NPEAVInputManager@@PEAVPlayer@@V?$vector@PEAVBullet@@V?$allocator@PEAVBullet@@@std@@@std@@V?$vector@PEAVEnemy@@V?$allocator@PEAVEnemy@@@std@@@5@V?$vector@PEAVGameObject@@V?$allocator@PEAVGameObject@@@std@@@5@V?$vector@PEAVPickup@@V?$allocator@PEAVPickup@@@std@@@5@@Z@4HA 000000014002fca4 f   graphicsclass.obj
 0001:0002ecb0       ?dtor$4@?0??Render@Graphics@@QEAA_NPEAVInputManager@@PEAVPlayer@@V?$vector@PEAVBullet@@V?$allocator@PEAVBullet@@@std@@@std@@V?$vector@PEAVEnemy@@V?$allocator@PEAVEnemy@@@std@@@5@V?$vector@PEAVGameObject@@V?$allocator@PEAVGameObject@@@std@@@5@V?$vector@PEAVPickup@@V?$allocator@PEAVPickup@@@std@@@5@@Z@4HA 000000014002fcb0 f   graphicsclass.obj
 0001:0002ecbc       ?dtor$5@?0??Render@Graphics@@QEAA_NPEAVInputManager@@PEAVPlayer@@V?$vector@PEAVBullet@@V?$allocator@PEAVBullet@@@std@@@std@@V?$vector@PEAVEnemy@@V?$allocator@PEAVEnemy@@@std@@@5@V?$vector@PEAVGameObject@@V?$allocator@PEAVGameObject@@@std@@@5@V?$vector@PEAVPickup@@V?$allocator@PEAVPickup@@@std@@@5@@Z@4HA 000000014002fcbc f   graphicsclass.obj
 0001:0002ecc8       ?dtor$6@?0??Render@Graphics@@QEAA_NPEAVInputManager@@PEAVPlayer@@V?$vector@PEAVBullet@@V?$allocator@PEAVBullet@@@std@@@std@@V?$vector@PEAVEnemy@@V?$allocator@PEAVEnemy@@@std@@@5@V?$vector@PEAVGameObject@@V?$allocator@PEAVGameObject@@@std@@@5@V?$vector@PEAVPickup@@V?$allocator@PEAVPickup@@@std@@@5@@Z@4HA 000000014002fcc8 f   graphicsclass.obj
 0001:0002ecd4       ?dtor$20@?0??Render@Graphics@@QEAA_NPEAVInputManager@@PEAVPlayer@@V?$vector@PEAVBullet@@V?$allocator@PEAVBullet@@@std@@@std@@V?$vector@PEAVEnemy@@V?$allocator@PEAVEnemy@@@std@@@5@V?$vector@PEAVGameObject@@V?$allocator@PEAVGameObject@@@std@@@5@V?$vector@PEAVPickup@@V?$allocator@PEAVPickup@@@std@@@5@@Z@4HA 000000014002fcd4 f   graphicsclass.obj
 0001:0002ece0       ?dtor$22@?0??Render@Graphics@@QEAA_NPEAVInputManager@@PEAVPlayer@@V?$vector@PEAVBullet@@V?$allocator@PEAVBullet@@@std@@@std@@V?$vector@PEAVEnemy@@V?$allocator@PEAVEnemy@@@std@@@5@V?$vector@PEAVGameObject@@V?$allocator@PEAVGameObject@@@std@@@5@V?$vector@PEAVPickup@@V?$allocator@PEAVPickup@@@std@@@5@@Z@4HA 000000014002fce0 f   graphicsclass.obj
 0001:0002ecec       ?dtor$7@?0??Render@Graphics@@QEAA_NPEAVInputManager@@PEAVPlayer@@V?$vector@PEAVBullet@@V?$allocator@PEAVBullet@@@std@@@std@@V?$vector@PEAVEnemy@@V?$allocator@PEAVEnemy@@@std@@@5@V?$vector@PEAVGameObject@@V?$allocator@PEAVGameObject@@@std@@@5@V?$vector@PEAVPickup@@V?$allocator@PEAVPickup@@@std@@@5@@Z@4HA 000000014002fcec f   graphicsclass.obj
 0001:0002ecf8       ?dtor$8@?0??Render@Graphics@@QEAA_NPEAVInputManager@@PEAVPlayer@@V?$vector@PEAVBullet@@V?$allocator@PEAVBullet@@@std@@@std@@V?$vector@PEAVEnemy@@V?$allocator@PEAVEnemy@@@std@@@5@V?$vector@PEAVGameObject@@V?$allocator@PEAVGameObject@@@std@@@5@V?$vector@PEAVPickup@@V?$allocator@PEAVPickup@@@std@@@5@@Z@4HA 000000014002fcf8 f   graphicsclass.obj
 0001:0002ed04       ?dtor$9@?0??Render@Graphics@@QEAA_NPEAVInputManager@@PEAVPlayer@@V?$vector@PEAVBullet@@V?$allocator@PEAVBullet@@@std@@@std@@V?$vector@PEAVEnemy@@V?$allocator@PEAVEnemy@@@std@@@5@V?$vector@PEAVGameObject@@V?$allocator@PEAVGameObject@@@std@@@5@V?$vector@PEAVPickup@@V?$allocator@PEAVPickup@@@std@@@5@@Z@4HA 000000014002fd04 f   graphicsclass.obj
 0001:0002ed10       ?dtor$10@?0??Render@Graphics@@QEAA_NPEAVInputManager@@PEAVPlayer@@V?$vector@PEAVBullet@@V?$allocator@PEAVBullet@@@std@@@std@@V?$vector@PEAVEnemy@@V?$allocator@PEAVEnemy@@@std@@@5@V?$vector@PEAVGameObject@@V?$allocator@PEAVGameObject@@@std@@@5@V?$vector@PEAVPickup@@V?$allocator@PEAVPickup@@@std@@@5@@Z@4HA 000000014002fd10 f   graphicsclass.obj
 0001:0002ed1c       ?dtor$11@?0??Render@Graphics@@QEAA_NPEAVInputManager@@PEAVPlayer@@V?$vector@PEAVBullet@@V?$allocator@PEAVBullet@@@std@@@std@@V?$vector@PEAVEnemy@@V?$allocator@PEAVEnemy@@@std@@@5@V?$vector@PEAVGameObject@@V?$allocator@PEAVGameObject@@@std@@@5@V?$vector@PEAVPickup@@V?$allocator@PEAVPickup@@@std@@@5@@Z@4HA 000000014002fd1c f   graphicsclass.obj
 0001:0002ed28       ?dtor$29@?0??Render@Graphics@@QEAA_NPEAVInputManager@@PEAVPlayer@@V?$vector@PEAVBullet@@V?$allocator@PEAVBullet@@@std@@@std@@V?$vector@PEAVEnemy@@V?$allocator@PEAVEnemy@@@std@@@5@V?$vector@PEAVGameObject@@V?$allocator@PEAVGameObject@@@std@@@5@V?$vector@PEAVPickup@@V?$allocator@PEAVPickup@@@std@@@5@@Z@4HA 000000014002fd28 f   graphicsclass.obj
 0001:0002ed34       ?dtor$31@?0??Render@Graphics@@QEAA_NPEAVInputManager@@PEAVPlayer@@V?$vector@PEAVBullet@@V?$allocator@PEAVBullet@@@std@@@std@@V?$vector@PEAVEnemy@@V?$allocator@PEAVEnemy@@@std@@@5@V?$vector@PEAVGameObject@@V?$allocator@PEAVGameObject@@@std@@@5@V?$vector@PEAVPickup@@V?$allocator@PEAVPickup@@@std@@@5@@Z@4HA 000000014002fd34 f   graphicsclass.obj
 0001:0002ed40       ?dtor$12@?0??Render@Graphics@@QEAA_NPEAVInputManager@@PEAVPlayer@@V?$vector@PEAVBullet@@V?$allocator@PEAVBullet@@@std@@@std@@V?$vector@PEAVEnemy@@V?$allocator@PEAVEnemy@@@std@@@5@V?$vector@PEAVGameObject@@V?$allocator@PEAVGameObject@@@std@@@5@V?$vector@PEAVPickup@@V?$allocator@PEAVPickup@@@std@@@5@@Z@4HA 000000014002fd40 f   graphicsclass.obj
 0001:0002ed4c       ?dtor$13@?0??Render@Graphics@@QEAA_NPEAVInputManager@@PEAVPlayer@@V?$vector@PEAVBullet@@V?$allocator@PEAVBullet@@@std@@@std@@V?$vector@PEAVEnemy@@V?$allocator@PEAVEnemy@@@std@@@5@V?$vector@PEAVGameObject@@V?$allocator@PEAVGameObject@@@std@@@5@V?$vector@PEAVPickup@@V?$allocator@PEAVPickup@@@std@@@5@@Z@4HA 000000014002fd4c f   graphicsclass.obj
 0001:0002ed58       ?dtor$35@?0??Render@Graphics@@QEAA_NPEAVInputManager@@PEAVPlayer@@V?$vector@PEAVBullet@@V?$allocator@PEAVBullet@@@std@@@std@@V?$vector@PEAVEnemy@@V?$allocator@PEAVEnemy@@@std@@@5@V?$vector@PEAVGameObject@@V?$allocator@PEAVGameObject@@@std@@@5@V?$vector@PEAVPickup@@V?$allocator@PEAVPickup@@@std@@@5@@Z@4HA 000000014002fd58 f   graphicsclass.obj
 0001:0002ed64       ?dtor$37@?0??Render@Graphics@@QEAA_NPEAVInputManager@@PEAVPlayer@@V?$vector@PEAVBullet@@V?$allocator@PEAVBullet@@@std@@@std@@V?$vector@PEAVEnemy@@V?$allocator@PEAVEnemy@@@std@@@5@V?$vector@PEAVGameObject@@V?$allocator@PEAVGameObject@@@std@@@5@V?$vector@PEAVPickup@@V?$allocator@PEAVPickup@@@std@@@5@@Z@4HA 000000014002fd64 f   graphicsclass.obj
 0001:0002ed70       ?dtor$14@?0??Render@Graphics@@QEAA_NPEAVInputManager@@PEAVPlayer@@V?$vector@PEAVBullet@@V?$allocator@PEAVBullet@@@std@@@std@@V?$vector@PEAVEnemy@@V?$allocator@PEAVEnemy@@@std@@@5@V?$vector@PEAVGameObject@@V?$allocator@PEAVGameObject@@@std@@@5@V?$vector@PEAVPickup@@V?$allocator@PEAVPickup@@@std@@@5@@Z@4HA 000000014002fd70 f   graphicsclass.obj
 0001:0002ed7c       ?dtor$15@?0??Render@Graphics@@QEAA_NPEAVInputManager@@PEAVPlayer@@V?$vector@PEAVBullet@@V?$allocator@PEAVBullet@@@std@@@std@@V?$vector@PEAVEnemy@@V?$allocator@PEAVEnemy@@@std@@@5@V?$vector@PEAVGameObject@@V?$allocator@PEAVGameObject@@@std@@@5@V?$vector@PEAVPickup@@V?$allocator@PEAVPickup@@@std@@@5@@Z@4HA 000000014002fd7c f   graphicsclass.obj
 0001:0002ed90       ?dtor$0@?0???0GameManager@@QEAA@XZ@4HA 000000014002fd90 f   GameManager.obj
 0001:0002eda3       ?dtor$1@?0???0GameManager@@QEAA@XZ@4HA 000000014002fda3 f   GameManager.obj
 0001:0002edb6       ?dtor$2@?0???0GameManager@@QEAA@XZ@4HA 000000014002fdb6 f   GameManager.obj
 0001:0002edc9       ?dtor$3@?0???0GameManager@@QEAA@XZ@4HA 000000014002fdc9 f   GameManager.obj
 0001:0002eddc       ?dtor$4@?0???0GameManager@@QEAA@XZ@4HA 000000014002fddc f   GameManager.obj
 0001:0002ee00       ?dtor$0@?0??UpdateScoreText@GameManager@@QEAAXXZ@4HA 000000014002fe00 f   GameManager.obj
 0001:0002ee0c       ?dtor$1@?0??UpdateScoreText@GameManager@@QEAAXXZ@4HA 000000014002fe0c f   GameManager.obj
 0001:0002ee20       ?dtor$0@?0??UpdateHealthText@GameManager@@QEAAXXZ@4HA 000000014002fe20 f   GameManager.obj
 0001:0002ee2c       ?dtor$1@?0??UpdateHealthText@GameManager@@QEAAXXZ@4HA 000000014002fe2c f   GameManager.obj
 0001:0002ee40       ?dtor$0@?0??ShootBullets@GameManager@@QEAAXXZ@4HA 000000014002fe40 f   GameManager.obj
 0001:0002ee60       ?dtor$3@?0??ShootBullets@GameManager@@QEAAXXZ@4HA 000000014002fe60 f   GameManager.obj
 0001:0002ee6c       ?dtor$4@?0??ShootBullets@GameManager@@QEAAXXZ@4HA 000000014002fe6c f   GameManager.obj
 0001:0002ee78       ?dtor$5@?0??ShootBullets@GameManager@@QEAAXXZ@4HA 000000014002fe78 f   GameManager.obj
 0001:0002ee84       ?dtor$6@?0??ShootBullets@GameManager@@QEAAXXZ@4HA 000000014002fe84 f   GameManager.obj
 0001:0002ee90       ?dtor$0@?0??SpawnHealthPickup@GameManager@@QEAAXUfloat3@@@Z@4HA 000000014002fe90 f   GameManager.obj
 0001:0002ee90       ?dtor$0@?0??SpawnDamagePickup@GameManager@@QEAAXUfloat3@@@Z@4HA 000000014002fe90 f   GameManager.obj
 0001:0002eeb0       ?dtor$4@?0??Update@GameManager@@QEAAXMM@Z@4HA 000000014002feb0 f   GameManager.obj
 0001:0002eebc       ?dtor$5@?0??Update@GameManager@@QEAAXMM@Z@4HA 000000014002febc f   GameManager.obj
 0001:0002eec8       ?dtor$6@?0??Update@GameManager@@QEAAXMM@Z@4HA 000000014002fec8 f   GameManager.obj
 0001:0002eed4       ?dtor$7@?0??Update@GameManager@@QEAAXMM@Z@4HA 000000014002fed4 f   GameManager.obj
 0001:0002eee0       ?dtor$9@?0??Update@GameManager@@QEAAXMM@Z@4HA 000000014002fee0 f   GameManager.obj
 0001:0002eeec       ?dtor$10@?0??Update@GameManager@@QEAAXMM@Z@4HA 000000014002feec f   GameManager.obj
 0001:0002eef8       ?dtor$11@?0??Update@GameManager@@QEAAXMM@Z@4HA 000000014002fef8 f   GameManager.obj
 0001:0002ef04       ?dtor$12@?0??Update@GameManager@@QEAAXMM@Z@4HA 000000014002ff04 f   GameManager.obj
 0001:0002ef10       ?dtor$14@?0??Update@GameManager@@QEAAXMM@Z@4HA 000000014002ff10 f   GameManager.obj
 0001:0002ef1c       ?dtor$15@?0??Update@GameManager@@QEAAXMM@Z@4HA 000000014002ff1c f   GameManager.obj
 0001:0002ef28       ?dtor$16@?0??Update@GameManager@@QEAAXMM@Z@4HA 000000014002ff28 f   GameManager.obj
 0001:0002ef34       ?dtor$17@?0??Update@GameManager@@QEAAXMM@Z@4HA 000000014002ff34 f   GameManager.obj
 0001:0002ef40       ?dtor$19@?0??Update@GameManager@@QEAAXMM@Z@4HA 000000014002ff40 f   GameManager.obj
 0001:0002ef4c       ?dtor$20@?0??Update@GameManager@@QEAAXMM@Z@4HA 000000014002ff4c f   GameManager.obj
 0001:0002ef58       ?dtor$21@?0??Update@GameManager@@QEAAXMM@Z@4HA 000000014002ff58 f   GameManager.obj
 0001:0002ef64       ?dtor$22@?0??Update@GameManager@@QEAAXMM@Z@4HA 000000014002ff64 f   GameManager.obj
 0001:0002ef70       ?dtor$24@?0??Update@GameManager@@QEAAXMM@Z@4HA 000000014002ff70 f   GameManager.obj
 0001:0002ef7c       ?dtor$25@?0??Update@GameManager@@QEAAXMM@Z@4HA 000000014002ff7c f   GameManager.obj
 0001:0002ef88       ?dtor$26@?0??Update@GameManager@@QEAAXMM@Z@4HA 000000014002ff88 f   GameManager.obj
 0001:0002ef94       ?dtor$27@?0??Update@GameManager@@QEAAXMM@Z@4HA 000000014002ff94 f   GameManager.obj
 0001:0002efa0       ?dtor$30@?0??Update@GameManager@@QEAAXMM@Z@4HA 000000014002ffa0 f   GameManager.obj
 0001:0002efc0       ?dtor$31@?0??Update@GameManager@@QEAAXMM@Z@4HA 000000014002ffc0 f   GameManager.obj
 0001:0002efcc       ?dtor$32@?0??Update@GameManager@@QEAAXMM@Z@4HA 000000014002ffcc f   GameManager.obj
 0001:0002efd8       ?dtor$33@?0??Update@GameManager@@QEAAXMM@Z@4HA 000000014002ffd8 f   GameManager.obj
 0001:0002efe4       ?dtor$34@?0??Update@GameManager@@QEAAXMM@Z@4HA 000000014002ffe4 f   GameManager.obj
 0001:0002eff0       ?dtor$35@?0??Update@GameManager@@QEAAXMM@Z@4HA 000000014002fff0 f   GameManager.obj
 0001:0002f010       ?dtor$36@?0??Update@GameManager@@QEAAXMM@Z@4HA 0000000140030010 f   GameManager.obj
 0001:0002f01c       ?dtor$37@?0??Update@GameManager@@QEAAXMM@Z@4HA 000000014003001c f   GameManager.obj
 0001:0002f028       ?dtor$38@?0??Update@GameManager@@QEAAXMM@Z@4HA 0000000140030028 f   GameManager.obj
 0001:0002f034       ?dtor$39@?0??Update@GameManager@@QEAAXMM@Z@4HA 0000000140030034 f   GameManager.obj
 0001:0002f040       ?dtor$40@?0??Update@GameManager@@QEAAXMM@Z@4HA 0000000140030040 f   GameManager.obj
 0001:0002f060       ?dtor$41@?0??Update@GameManager@@QEAAXMM@Z@4HA 0000000140030060 f   GameManager.obj
 0001:0002f06c       ?dtor$42@?0??Update@GameManager@@QEAAXMM@Z@4HA 000000014003006c f   GameManager.obj
 0001:0002f078       ?dtor$43@?0??Update@GameManager@@QEAAXMM@Z@4HA 0000000140030078 f   GameManager.obj
 0001:0002f084       ?dtor$44@?0??Update@GameManager@@QEAAXMM@Z@4HA 0000000140030084 f   GameManager.obj
 0001:0002f090       ?dtor$0@?0??Render@GameManager@@QEAA_NXZ@4HA 0000000140030090 f   GameManager.obj
 0001:0002f09c       ?dtor$1@?0??Render@GameManager@@QEAA_NXZ@4HA 000000014003009c f   GameManager.obj
 0001:0002f0a8       ?dtor$2@?0??Render@GameManager@@QEAA_NXZ@4HA 00000001400300a8 f   GameManager.obj
 0001:0002f0c0       ?dtor$1@?0??Initialize@GameManager@@QEAA_NHHPEAUHWND__@@@Z@4HA 00000001400300c0 f   GameManager.obj
 0001:0002f0e0       ?dtor$5@?0??Initialize@GameManager@@QEAA_NHHPEAUHWND__@@@Z@4HA 00000001400300e0 f   GameManager.obj
 0001:0002f0ec       ?dtor$6@?0??Initialize@GameManager@@QEAA_NHHPEAUHWND__@@@Z@4HA 00000001400300ec f   GameManager.obj
 0001:0002f0ff       ?dtor$3@?0??Initialize@GameManager@@QEAA_NHHPEAUHWND__@@@Z@4HA 00000001400300ff f   GameManager.obj
 0001:0002f11f       ?dtor$4@?0??Initialize@GameManager@@QEAA_NHHPEAUHWND__@@@Z@4HA 000000014003011f f   GameManager.obj
 0001:0002f13f       ?dtor$9@?0??Initialize@GameManager@@QEAA_NHHPEAUHWND__@@@Z@4HA 000000014003013f f   GameManager.obj
 0001:0002f150       ?dtor$0@?0??ReadMeshFile@Model@@AEAAXPEBDPEAUID3D11Device@@@Z@4HA 0000000140030150 f   Model.obj
 0001:0002f15c       ?dtor$1@?0??ReadMeshFile@Model@@AEAAXPEBDPEAUID3D11Device@@@Z@4HA 000000014003015c f   Model.obj
 0001:0002f168       ?dtor$2@?0??ReadMeshFile@Model@@AEAAXPEBDPEAUID3D11Device@@@Z@4HA 0000000140030168 f   Model.obj
 0001:0002f180       ?dtor$3@?0??UnlockAllGuns@GameManager@@QEAAXXZ@4HA 0000000140030180 f   MyWindow.obj
 0001:0002f1a6       ?dtor$6@?0??UnlockAllGuns@GameManager@@QEAAXXZ@4HA 00000001400301a6 f   MyWindow.obj
 0001:0002f1d0       ?dtor$0@?0??Initialize@MyWindow@@QEAA_NXZ@4HA 00000001400301d0 f   MyWindow.obj
 0001:0002f1ed       ?dtor$2@?0??Initialize@MyWindow@@QEAA_NXZ@4HA 00000001400301ed f   MyWindow.obj
 0001:0002f1f9       ?dtor$3@?0??Initialize@MyWindow@@QEAA_NXZ@4HA 00000001400301f9 f   MyWindow.obj
 0001:0002f205       ?dtor$5@?0??Initialize@MyWindow@@QEAA_NXZ@4HA 0000000140030205 f   MyWindow.obj
 0001:0002f211       ?dtor$6@?0??Initialize@MyWindow@@QEAA_NXZ@4HA 0000000140030211 f   MyWindow.obj
 0001:0002f21d       ?dtor$8@?0??Initialize@MyWindow@@QEAA_NXZ@4HA 000000014003021d f   MyWindow.obj
 0001:0002f230       ?dtor$0@?0???$?HDU?$char_traits@D@std@@V?$allocator@D@1@@std@@YA?AV?$basic_string@DU?$char_traits@D@std@@V?$allocator@D@2@@0@QEBDAEBV10@@Z@4HA 0000000140030230 f   MyWindow.obj
 0001:0002f260       ?dtor$5@?0??Update@Player@@UEAAXM@Z@4HA 0000000140030260 f   Player.obj
 0001:0002f270       ?dtor$6@?0??Update@Player@@UEAAXM@Z@4HA 0000000140030270 f   Player.obj
 0001:0002f280       ?dtor$10@?0??Update@Player@@UEAAXM@Z@4HA 0000000140030280 f   Player.obj
 0001:0002f290       ?dtor$11@?0??Update@Player@@UEAAXM@Z@4HA 0000000140030290 f   Player.obj
 0001:0002f2a0       ?dtor$1@?0??Update@Player@@UEAAXM@Z@4HA 00000001400302a0 f   Player.obj
 0001:0002f2ac       ?dtor$15@?0??Update@Player@@UEAAXM@Z@4HA 00000001400302ac f   Player.obj
 0001:0002f2bc       ?dtor$16@?0??Update@Player@@UEAAXM@Z@4HA 00000001400302bc f   Player.obj
 0001:0002f2d0       ?dtor$0@?0??SetSkeletonLines@Player@@QEAA?AV?$vector@V?$array@Ufloat4@@$03@std@@V?$allocator@V?$array@Ufloat4@@$03@std@@@2@@std@@Uanim_clip@@0MM@Z@4HA 00000001400302d0 f   Player.obj
 0001:0002f2dc       ?dtor$1@?0??SetSkeletonLines@Player@@QEAA?AV?$vector@V?$array@Ufloat4@@$03@std@@V?$allocator@V?$array@Ufloat4@@$03@std@@@2@@std@@Uanim_clip@@0MM@Z@4HA 00000001400302dc f   Player.obj
 0001:0002f2e8       ?dtor$2@?0??SetSkeletonLines@Player@@QEAA?AV?$vector@V?$array@Ufloat4@@$03@std@@V?$allocator@V?$array@Ufloat4@@$03@std@@@2@@std@@Uanim_clip@@0MM@Z@4HA 00000001400302e8 f   Player.obj
 0001:0002f317       ?dtor$3@?0??SetSkeletonLines@Player@@QEAA?AV?$vector@V?$array@Ufloat4@@$03@std@@V?$allocator@V?$array@Ufloat4@@$03@std@@@2@@std@@Uanim_clip@@0MM@Z@4HA 0000000140030317 f   Player.obj
 0001:0002f323       ?dtor$4@?0??SetSkeletonLines@Player@@QEAA?AV?$vector@V?$array@Ufloat4@@$03@std@@V?$allocator@V?$array@Ufloat4@@$03@std@@@2@@std@@Uanim_clip@@0MM@Z@4HA 0000000140030323 f   Player.obj
 0001:0002f32f       ?dtor$5@?0??SetSkeletonLines@Player@@QEAA?AV?$vector@V?$array@Ufloat4@@$03@std@@V?$allocator@V?$array@Ufloat4@@$03@std@@@2@@std@@Uanim_clip@@0MM@Z@4HA 000000014003032f f   Player.obj
 0001:0002f33b       ?dtor$6@?0??SetSkeletonLines@Player@@QEAA?AV?$vector@V?$array@Ufloat4@@$03@std@@V?$allocator@V?$array@Ufloat4@@$03@std@@@2@@std@@Uanim_clip@@0MM@Z@4HA 000000014003033b f   Player.obj
 0001:0002f347       ?dtor$7@?0??SetSkeletonLines@Player@@QEAA?AV?$vector@V?$array@Ufloat4@@$03@std@@V?$allocator@V?$array@Ufloat4@@$03@std@@@2@@std@@Uanim_clip@@0MM@Z@4HA 0000000140030347 f   Player.obj
 0001:0002f360       ?dtor$0@?0??Attack@RangedEnemy@@QEAAXPEAVPlayer@@AEAV?$vector@PEAVBullet@@V?$allocator@PEAVBullet@@@std@@@std@@PEAUID3D11Device@@PEAUHWND__@@@Z@4HA 0000000140030360 f   RangedEnemy.obj
 0001:0002f380       ?dtor$3@?0??Attack@RangedEnemy@@QEAAXPEAVPlayer@@AEAV?$vector@PEAVBullet@@V?$allocator@PEAVBullet@@@std@@@std@@PEAUID3D11Device@@PEAUHWND__@@@Z@4HA 0000000140030380 f   RangedEnemy.obj
 0001:0002f38c       ?dtor$4@?0??Attack@RangedEnemy@@QEAAXPEAVPlayer@@AEAV?$vector@PEAVBullet@@V?$allocator@PEAVBullet@@@std@@@std@@PEAUID3D11Device@@PEAUHWND__@@@Z@4HA 000000014003038c f   RangedEnemy.obj
 0001:0002f398       ?dtor$5@?0??Attack@RangedEnemy@@QEAAXPEAVPlayer@@AEAV?$vector@PEAVBullet@@V?$allocator@PEAVBullet@@@std@@@std@@PEAUID3D11Device@@PEAUHWND__@@@Z@4HA 0000000140030398 f   RangedEnemy.obj
 0001:0002f3a4       ?dtor$6@?0??Attack@RangedEnemy@@QEAAXPEAVPlayer@@AEAV?$vector@PEAVBullet@@V?$allocator@PEAVBullet@@@std@@@std@@PEAUID3D11Device@@PEAUHWND__@@@Z@4HA 00000001400303a4 f   RangedEnemy.obj
 0001:0002f3b0       ?dtor$0@?0???0Item@Shop@@QEAA@W4WEAPONTYPE@1@MMMMV?$basic_string@DU?$char_traits@D@std@@V?$allocator@D@2@@std@@@Z@4HA 00000001400303b0 f   Shop.obj
 0001:0002f3bc       ?dtor$1@?0???0Item@Shop@@QEAA@W4WEAPONTYPE@1@MMMMV?$basic_string@DU?$char_traits@D@std@@V?$allocator@D@2@@std@@@Z@4HA 00000001400303bc f   Shop.obj
 0001:0002f3d0       ?dtor$0@?0??Initialize@Shop@@QEAA_NXZ@4HA 00000001400303d0 f   Shop.obj
 0001:0002f3f0       ?dtor$2@?0??Initialize@Shop@@QEAA_NXZ@4HA 00000001400303f0 f   Shop.obj
 0001:0002f3fc       ?dtor$3@?0??Initialize@Shop@@QEAA_NXZ@4HA 00000001400303fc f   Shop.obj
 0001:0002f41c       ?dtor$5@?0??Initialize@Shop@@QEAA_NXZ@4HA 000000014003041c f   Shop.obj
 0001:0002f428       ?dtor$6@?0??Initialize@Shop@@QEAA_NXZ@4HA 0000000140030428 f   Shop.obj
 0001:0002f448       ?dtor$8@?0??Initialize@Shop@@QEAA_NXZ@4HA 0000000140030448 f   Shop.obj
 0001:0002f454       ?dtor$9@?0??Initialize@Shop@@QEAA_NXZ@4HA 0000000140030454 f   Shop.obj
 0001:0002f474       ?dtor$11@?0??Initialize@Shop@@QEAA_NXZ@4HA 0000000140030474 f   Shop.obj
 0001:0002f480       ?dtor$12@?0??Initialize@Shop@@QEAA_NXZ@4HA 0000000140030480 f   Shop.obj
 0001:0002f4a0       ?dtor$14@?0??Initialize@Shop@@QEAA_NXZ@4HA 00000001400304a0 f   Shop.obj
 0001:0002f4ac       ?dtor$15@?0??Initialize@Shop@@QEAA_NXZ@4HA 00000001400304ac f   Shop.obj
 0001:0002f4cc       ?dtor$17@?0??Initialize@Shop@@QEAA_NXZ@4HA 00000001400304cc f   Shop.obj
 0001:0002f4d8       ?dtor$18@?0??Initialize@Shop@@QEAA_NXZ@4HA 00000001400304d8 f   Shop.obj
 0001:0002f4f8       ?dtor$20@?0??Initialize@Shop@@QEAA_NXZ@4HA 00000001400304f8 f   Shop.obj
 0001:0002f504       ?dtor$21@?0??Initialize@Shop@@QEAA_NXZ@4HA 0000000140030504 f   Shop.obj
 0001:0002f524       ?dtor$23@?0??Initialize@Shop@@QEAA_NXZ@4HA 0000000140030524 f   Shop.obj
 0001:0002f530       ?dtor$24@?0??Initialize@Shop@@QEAA_NXZ@4HA 0000000140030530 f   Shop.obj
 0001:0002f550       ?dtor$26@?0??Initialize@Shop@@QEAA_NXZ@4HA 0000000140030550 f   Shop.obj
 0001:0002f55c       ?dtor$27@?0??Initialize@Shop@@QEAA_NXZ@4HA 000000014003055c f   Shop.obj
 0001:0002f57c       ?dtor$29@?0??Initialize@Shop@@QEAA_NXZ@4HA 000000014003057c f   Shop.obj
 0001:0002f588       ?dtor$30@?0??Initialize@Shop@@QEAA_NXZ@4HA 0000000140030588 f   Shop.obj
 0001:0002f5a8       ?dtor$32@?0??Initialize@Shop@@QEAA_NXZ@4HA 00000001400305a8 f   Shop.obj
 0001:0002f5b4       ?dtor$33@?0??Initialize@Shop@@QEAA_NXZ@4HA 00000001400305b4 f   Shop.obj
 0001:0002f5d4       ?dtor$35@?0??Initialize@Shop@@QEAA_NXZ@4HA 00000001400305d4 f   Shop.obj
 0001:0002f5e0       ?dtor$36@?0??Initialize@Shop@@QEAA_NXZ@4HA 00000001400305e0 f   Shop.obj
 0001:0002f600       ?dtor$38@?0??Initialize@Shop@@QEAA_NXZ@4HA 0000000140030600 f   Shop.obj
 0001:0002f60c       ?dtor$39@?0??Initialize@Shop@@QEAA_NXZ@4HA 000000014003060c f   Shop.obj
 0001:0002f618       ?dtor$40@?0??Initialize@Shop@@QEAA_NXZ@4HA 0000000140030618 f   Shop.obj
 0001:0002f624       ?dtor$41@?0??Initialize@Shop@@QEAA_NXZ@4HA 0000000140030624 f   Shop.obj
 0001:0002f630       ?dtor$42@?0??Initialize@Shop@@QEAA_NXZ@4HA 0000000140030630 f   Shop.obj
 0001:0002f63c       ?dtor$43@?0??Initialize@Shop@@QEAA_NXZ@4HA 000000014003063c f   Shop.obj
 0001:0002f648       ?dtor$44@?0??Initialize@Shop@@QEAA_NXZ@4HA 0000000140030648 f   Shop.obj
 0001:0002f654       ?dtor$45@?0??Initialize@Shop@@QEAA_NXZ@4HA 0000000140030654 f   Shop.obj
 0001:0002f660       ?dtor$46@?0??Initialize@Shop@@QEAA_NXZ@4HA 0000000140030660 f   Shop.obj
 0001:0002f66c       ?dtor$47@?0??Initialize@Shop@@QEAA_NXZ@4HA 000000014003066c f   Shop.obj
 0001:0002f678       ?dtor$48@?0??Initialize@Shop@@QEAA_NXZ@4HA 0000000140030678 f   Shop.obj
 0001:0002f684       ?dtor$49@?0??Initialize@Shop@@QEAA_NXZ@4HA 0000000140030684 f   Shop.obj
 0001:0002f690       ?dtor$50@?0??Initialize@Shop@@QEAA_NXZ@4HA 0000000140030690 f   Shop.obj
 0001:0002f69c       ?dtor$51@?0??Initialize@Shop@@QEAA_NXZ@4HA 000000014003069c f   Shop.obj
 0001:0002f6b0       ?dtor$0@?0??ShowSMGStats@Shop@@QEAAXXZ@4HA 00000001400306b0 f   Shop.obj
 0001:0002f6b0       ?dtor$0@?0??ShowMeleStats@Shop@@QEAAXXZ@4HA 00000001400306b0 f   Shop.obj
 0001:0002f6b0       ?dtor$0@?0??ShowPistolStats@Shop@@QEAAXXZ@4HA 00000001400306b0 f   Shop.obj
 0001:0002f6b0       ?dtor$0@?0??ShowARStats@Shop@@QEAAXXZ@4HA 00000001400306b0 f   Shop.obj
 0001:0002f6bc       ?dtor$1@?0??ShowPistolStats@Shop@@QEAAXXZ@4HA 00000001400306bc f   Shop.obj
 0001:0002f6bc       ?dtor$1@?0??ShowSMGStats@Shop@@QEAAXXZ@4HA 00000001400306bc f   Shop.obj
 0001:0002f6bc       ?dtor$1@?0??ShowMeleStats@Shop@@QEAAXXZ@4HA 00000001400306bc f   Shop.obj
 0001:0002f6bc       ?dtor$1@?0??ShowARStats@Shop@@QEAAXXZ@4HA 00000001400306bc f   Shop.obj
 0001:0002f6c8       ?dtor$2@?0??ShowMeleStats@Shop@@QEAAXXZ@4HA 00000001400306c8 f   Shop.obj
 0001:0002f6c8       ?dtor$2@?0??ShowPistolStats@Shop@@QEAAXXZ@4HA 00000001400306c8 f   Shop.obj
 0001:0002f6c8       ?dtor$2@?0??ShowSMGStats@Shop@@QEAAXXZ@4HA 00000001400306c8 f   Shop.obj
 0001:0002f6c8       ?dtor$2@?0??ShowARStats@Shop@@QEAAXXZ@4HA 00000001400306c8 f   Shop.obj
 0001:0002f6e0       ?dtor$0@?0??Update@Shop@@QEAAXXZ@4HA 00000001400306e0 f   Shop.obj
 0001:0002f6f0       ?catch$0@?0???$_Insert_hint@AEAU?$pair@$$CBV?$basic_string@DU?$char_traits@D@std@@V?$allocator@D@2@@std@@PEAVUIElement@@@std@@PEAU?$_Tree_node@U?$pair@$$CBV?$basic_string@DU?$char_traits@D@std@@V?$allocator@D@2@@std@@PEAVUIElement@@@std@@PEAX@2@@?$_Tree@V?$_Tmap_traits@V?$basic_string@DU?$char_traits@D@std@@V?$allocator@D@2@@std@@PEAVUIElement@@U?$less@V?$basic_string@DU?$char_traits@D@std@@V?$allocator@D@2@@std@@@2@V?$allocator@U?$pair@$$CBV?$basic_string@DU?$char_traits@D@std@@V?$allocator@D@2@@std@@PEAVUIElement@@@std@@@2@$0A@@std@@@std@@IEAA?AV?$_Tree_iterator@V?$_Tree_val@U?$_Tree_simple_types@U?$pair@$$CBV?$basic_string@DU?$char_traits@D@std@@V?$allocator@D@2@@std@@PEAVUIElement@@@std@@@std@@@std@@@1@V?$_Tree_const_iterator@V?$_Tree_val@U?$_Tree_simple_types@U?$pair@$$CBV?$basic_string@DU?$char_traits@D@std@@V?$allocator@D@2@@std@@PEAVUIElement@@@std@@@std@@@std@@@1@AEAU?$pair@$$CBV?$basic_string@DU?$char_traits@D@std@@V?$allocator@D@2@@std@@PEAVUIElement@@@1@PEAU?$_Tree_node@U?$pair@$$CBV?$basic_string@DU?$char_traits@D@std@@V?$allocator@D@2@@std@@PEAVUIElement@@@std@@PEAX@1@@Z@4HA 00000001400306f0 f   Shop.obj
 0001:0002f6f0       ?catch$0@?0???$_Insert_hint@AEAU?$pair@$$CBV?$basic_string@DU?$char_traits@D@std@@V?$allocator@D@2@@std@@PEAUItem@Shop@@@std@@PEAU?$_Tree_node@U?$pair@$$CBV?$basic_string@DU?$char_traits@D@std@@V?$allocator@D@2@@std@@PEAUItem@Shop@@@std@@PEAX@2@@?$_Tree@V?$_Tmap_traits@V?$basic_string@DU?$char_traits@D@std@@V?$allocator@D@2@@std@@PEAUItem@Shop@@U?$less@V?$basic_string@DU?$char_traits@D@std@@V?$allocator@D@2@@std@@@2@V?$allocator@U?$pair@$$CBV?$basic_string@DU?$char_traits@D@std@@V?$allocator@D@2@@std@@PEAUItem@Shop@@@std@@@2@$0A@@std@@@std@@IEAA?AV?$_Tree_iterator@V?$_Tree_val@U?$_Tree_simple_types@U?$pair@$$CBV?$basic_string@DU?$char_traits@D@std@@V?$allocator@D@2@@std@@PEAUItem@Shop@@@std@@@std@@@std@@@1@V?$_Tree_const_iterator@V?$_Tree_val@U?$_Tree_simple_types@U?$pair@$$CBV?$basic_string@DU?$char_traits@D@std@@V?$allocator@D@2@@std@@PEAUItem@Shop@@@std@@@std@@@std@@@1@AEAU?$pair@$$CBV?$basic_string@DU?$char_traits@D@std@@V?$allocator@D@2@@std@@PEAUItem@Shop@@@1@PEAU?$_Tree_node@U?$pair@$$CBV?$basic_string@DU?$char_traits@D@std@@V?$allocator@D@2@@std@@PEAUItem@Shop@@@std@@PEAX@1@@Z@4HA 00000001400306f0 f   Shop.obj
 0001:0002f6fd       __catch$??$_Insert_hint@AEAU?$pair@$$CBV?$basic_string@DU?$char_traits@D@std@@V?$allocator@D@2@@std@@PEAVUIElement@@@std@@PEAU?$_Tree_node@U?$pair@$$CBV?$basic_string@DU?$char_traits@D@std@@V?$allocator@D@2@@std@@PEAVUIElement@@@std@@PEAX@2@@?$_Tree@V?$_Tmap_traits@V?$basic_string@DU?$char_traits@D@std@@V?$allocator@D@2@@std@@PEAVUIElement@@U?$less@V?$basic_string@DU?$char_traits@D@std@@V?$allocator@D@2@@std@@@2@V?$allocator@U?$pair@$$CBV?$basic_string@DU?$char_traits@D@std@@V?$allocator@D@2@@std@@PEAVUIElement@@@std@@@2@$0A@@std@@@std@@IEAA?AV?$_Tree_iterator@V?$_Tree_val@U?$_Tree_simple_types@U?$pair@$$CBV?$basic_string@DU?$char_traits@D@std@@V?$allocator@D@2@@std@@PEAVUIElement@@@std@@@std@@@std@@@1@V?$_Tree_const_iterator@V?$_Tree_val@U?$_Tree_simple_types@U?$pair@$$CBV?$basic_string@DU?$char_traits@D@std@@V?$allocator@D@2@@std@@PEAVUIElement@@@std@@@std@@@std@@@1@AEAU?$pair@$$CBV?$basic_string@DU?$char_traits@D@std@@V?$allocator@D@2@@std@@PEAVUIElement@@@1@PEAU?$_Tree_node@U?$pair@$$CBV?$basic_string@DU?$char_traits@D@std@@V?$allocator@D@2@@std@@PEAVUIElement@@@std@@PEAX@1@@Z$0 00000001400306fd f   Shop.obj
 0001:0002f6fd       __catch$??$_Insert_hint@AEAU?$pair@$$CBV?$basic_string@DU?$char_traits@D@std@@V?$allocator@D@2@@std@@PEAUItem@Shop@@@std@@PEAU?$_Tree_node@U?$pair@$$CBV?$basic_string@DU?$char_traits@D@std@@V?$allocator@D@2@@std@@PEAUItem@Shop@@@std@@PEAX@2@@?$_Tree@V?$_Tmap_traits@V?$basic_string@DU?$char_traits@D@std@@V?$allocator@D@2@@std@@PEAUItem@Shop@@U?$less@V?$basic_string@DU?$char_traits@D@std@@V?$allocator@D@2@@std@@@2@V?$allocator@U?$pair@$$CBV?$basic_string@DU?$char_traits@D@std@@V?$allocator@D@2@@std@@PEAUItem@Shop@@@std@@@2@$0A@@std@@@std@@IEAA?AV?$_Tree_iterator@V?$_Tree_val@U?$_Tree_simple_types@U?$pair@$$CBV?$basic_string@DU?$char_traits@D@std@@V?$allocator@D@2@@std@@PEAUItem@Shop@@@std@@@std@@@std@@@1@V?$_Tree_const_iterator@V?$_Tree_val@U?$_Tree_simple_types@U?$pair@$$CBV?$basic_string@DU?$char_traits@D@std@@V?$allocator@D@2@@std@@PEAUItem@Shop@@@std@@@std@@@std@@@1@AEAU?$pair@$$CBV?$basic_string@DU?$char_traits@D@std@@V?$allocator@D@2@@std@@PEAUItem@Shop@@@1@PEAU?$_Tree_node@U?$pair@$$CBV?$basic_string@DU?$char_traits@D@std@@V?$allocator@D@2@@std@@PEAUItem@Shop@@@std@@PEAX@1@@Z$0 00000001400306fd f   Shop.obj
 0001:0002f710       ?catch$0@?0???$_Insert_nohint@AEAU?$pair@$$CBV?$basic_string@DU?$char_traits@D@std@@V?$allocator@D@2@@std@@PEAVUIElement@@@std@@PEAU?$_Tree_node@U?$pair@$$CBV?$basic_string@DU?$char_traits@D@std@@V?$allocator@D@2@@std@@PEAVUIElement@@@std@@PEAX@2@@?$_Tree@V?$_Tmap_traits@V?$basic_string@DU?$char_traits@D@std@@V?$allocator@D@2@@std@@PEAVUIElement@@U?$less@V?$basic_string@DU?$char_traits@D@std@@V?$allocator@D@2@@std@@@2@V?$allocator@U?$pair@$$CBV?$basic_string@DU?$char_traits@D@std@@V?$allocator@D@2@@std@@PEAVUIElement@@@std@@@2@$0A@@std@@@std@@IEAA?AU?$pair@V?$_Tree_iterator@V?$_Tree_val@U?$_Tree_simple_types@U?$pair@$$CBV?$basic_string@DU?$char_traits@D@std@@V?$allocator@D@2@@std@@PEAVUIElement@@@std@@@std@@@std@@@std@@_N@1@_NAEAU?$pair@$$CBV?$basic_string@DU?$char_traits@D@std@@V?$allocator@D@2@@std@@PEAVUIElement@@@1@PEAU?$_Tree_node@U?$pair@$$CBV?$basic_string@DU?$char_traits@D@std@@V?$allocator@D@2@@std@@PEAVUIElement@@@std@@PEAX@1@@Z@4HA 0000000140030710 f   Shop.obj
 0001:0002f710       ?catch$0@?0???$_Insert_nohint@AEAU?$pair@$$CBV?$basic_string@DU?$char_traits@D@std@@V?$allocator@D@2@@std@@PEAUItem@Shop@@@std@@PEAU?$_Tree_node@U?$pair@$$CBV?$basic_string@DU?$char_traits@D@std@@V?$allocator@D@2@@std@@PEAUItem@Shop@@@std@@PEAX@2@@?$_Tree@V?$_Tmap_traits@V?$basic_string@DU?$char_traits@D@std@@V?$allocator@D@2@@std@@PEAUItem@Shop@@U?$less@V?$basic_string@DU?$char_traits@D@std@@V?$allocator@D@2@@std@@@2@V?$allocator@U?$pair@$$CBV?$basic_string@DU?$char_traits@D@std@@V?$allocator@D@2@@std@@PEAUItem@Shop@@@std@@@2@$0A@@std@@@std@@IEAA?AU?$pair@V?$_Tree_iterator@V?$_Tree_val@U?$_Tree_simple_types@U?$pair@$$CBV?$basic_string@DU?$char_traits@D@std@@V?$allocator@D@2@@std@@PEAUItem@Shop@@@std@@@std@@@std@@@std@@_N@1@_NAEAU?$pair@$$CBV?$basic_string@DU?$char_traits@D@std@@V?$allocator@D@2@@std@@PEAUItem@Shop@@@1@PEAU?$_Tree_node@U?$pair@$$CBV?$basic_string@DU?$char_traits@D@std@@V?$allocator@D@2@@std@@PEAUItem@Shop@@@std@@PEAX@1@@Z@4HA 0000000140030710 f   Shop.obj
 0001:0002f71d       __catch$??$_Insert_nohint@AEAU?$pair@$$CBV?$basic_string@DU?$char_traits@D@std@@V?$allocator@D@2@@std@@PEAUItem@Shop@@@std@@PEAU?$_Tree_node@U?$pair@$$CBV?$basic_string@DU?$char_traits@D@std@@V?$allocator@D@2@@std@@PEAUItem@Shop@@@std@@PEAX@2@@?$_Tree@V?$_Tmap_traits@V?$basic_string@DU?$char_traits@D@std@@V?$allocator@D@2@@std@@PEAUItem@Shop@@U?$less@V?$basic_string@DU?$char_traits@D@std@@V?$allocator@D@2@@std@@@2@V?$allocator@U?$pair@$$CBV?$basic_string@DU?$char_traits@D@std@@V?$allocator@D@2@@std@@PEAUItem@Shop@@@std@@@2@$0A@@std@@@std@@IEAA?AU?$pair@V?$_Tree_iterator@V?$_Tree_val@U?$_Tree_simple_types@U?$pair@$$CBV?$basic_string@DU?$char_traits@D@std@@V?$allocator@D@2@@std@@PEAUItem@Shop@@@std@@@std@@@std@@@std@@_N@1@_NAEAU?$pair@$$CBV?$basic_string@DU?$char_traits@D@std@@V?$allocator@D@2@@std@@PEAUItem@Shop@@@1@PEAU?$_Tree_node@U?$pair@$$CBV?$basic_string@DU?$char_traits@D@std@@V?$allocator@D@2@@std@@PEAUItem@Shop@@@std@@PEAX@1@@Z$0 000000014003071d f   Shop.obj
 0001:0002f71d       __catch$??$_Insert_nohint@AEAU?$pair@$$CBV?$basic_string@DU?$char_traits@D@std@@V?$allocator@D@2@@std@@PEAVUIElement@@@std@@PEAU?$_Tree_node@U?$pair@$$CBV?$basic_string@DU?$char_traits@D@std@@V?$allocator@D@2@@std@@PEAVUIElement@@@std@@PEAX@2@@?$_Tree@V?$_Tmap_traits@V?$basic_string@DU?$char_traits@D@std@@V?$allocator@D@2@@std@@PEAVUIElement@@U?$less@V?$basic_string@DU?$char_traits@D@std@@V?$allocator@D@2@@std@@@2@V?$allocator@U?$pair@$$CBV?$basic_string@DU?$char_traits@D@std@@V?$allocator@D@2@@std@@PEAVUIElement@@@std@@@2@$0A@@std@@@std@@IEAA?AU?$pair@V?$_Tree_iterator@V?$_Tree_val@U?$_Tree_simple_types@U?$pair@$$CBV?$basic_string@DU?$char_traits@D@std@@V?$allocator@D@2@@std@@PEAVUIElement@@@std@@@std@@@std@@@std@@_N@1@_NAEAU?$pair@$$CBV?$basic_string@DU?$char_traits@D@std@@V?$allocator@D@2@@std@@PEAVUIElement@@@1@PEAU?$_Tree_node@U?$pair@$$CBV?$basic_string@DU?$char_traits@D@std@@V?$allocator@D@2@@std@@PEAVUIElement@@@std@@PEAX@1@@Z$0 000000014003071d f   Shop.obj
 0001:0002f730       ?dtor$0@?0??ProcessShaderErrors@SkyboxShader@@AEAAXPEAUID3D10Blob@@@Z@4HA 0000000140030730 f   SkyboxShader.obj
 0001:0002f730       ?dtor$0@?0??ProcessShaderErrors@StaticShader@@AEAAXPEAUID3D10Blob@@@Z@4HA 0000000140030730 f   StaticShader.obj
 0001:0002f730       ?dtor$0@?0??ProcessShaderErrors@AnimatedShader@@AEAAXPEAUID3D10Blob@@@Z@4HA 0000000140030730 f   shaderstuff.obj
 0001:0002f740       ?dtor$0@?0???0?$basic_ofstream@DU?$char_traits@D@std@@@std@@QEAA@XZ@4HA 0000000140030740 f   SkyboxShader.obj
 0001:0002f76e       ?dtor$1@?0???0?$basic_ofstream@DU?$char_traits@D@std@@@std@@QEAA@XZ@4HA 000000014003076e f   SkyboxShader.obj
 0001:0002f780       ?dtor$3@?0???0?$basic_ofstream@DU?$char_traits@D@std@@@std@@QEAA@XZ@4HA 0000000140030780 f   SkyboxShader.obj
 0001:0002f790       ?dtor$1@?0???$?6U?$char_traits@D@std@@@std@@YAAEAV?$basic_ostream@DU?$char_traits@D@std@@@0@AEAV10@D@Z@4HA 0000000140030790 f   SkyboxShader.obj
 0001:0002f79c       ?dtor$0@?0???$?6U?$char_traits@D@std@@@std@@YAAEAV?$basic_ostream@DU?$char_traits@D@std@@@0@AEAV10@D@Z@4HA 000000014003079c f   SkyboxShader.obj
 0001:0002f7a8       ?catch$4@?0???$?6U?$char_traits@D@std@@@std@@YAAEAV?$basic_ostream@DU?$char_traits@D@std@@@0@AEAV10@D@Z@4HA 00000001400307a8 f   SkyboxShader.obj
 0001:0002f7b5       __catch$??$?6U?$char_traits@D@std@@@std@@YAAEAV?$basic_ostream@DU?$char_traits@D@std@@@0@AEAV10@D@Z$0 00000001400307b5 f   SkyboxShader.obj
 0001:0002f7e0       ?dtor$0@?0???0TextElement@@QEAA@UtagRECT@@_N1Ufloat2@@HPEAD@Z@4HA 00000001400307e0 f   UIElement.obj
 0001:0002f7f0       ?dtor$0@?0??CreateText@UIManager@@QEAAPEAVUIElement@@UtagRECT@@_N1Ufloat2@@HPEBD@Z@4HA 00000001400307f0 f   UIManager.obj
 0001:0002f810       ?dtor$0@?0??CreateText@UIManager@@QEAAPEAVUIElement@@UtagRECT@@_N1Ufloat2@@HV?$basic_string@DU?$char_traits@D@std@@V?$allocator@D@2@@std@@@Z@4HA 0000000140030810 f   UIManager.obj
 0001:0002f81c       ?dtor$1@?0??CreateText@UIManager@@QEAAPEAVUIElement@@UtagRECT@@_N1Ufloat2@@HV?$basic_string@DU?$char_traits@D@std@@V?$allocator@D@2@@std@@@Z@4HA 000000014003081c f   UIManager.obj
 0001:0002f840       ?dtor$0@?0??CreateImage@UIManager@@QEAAPEAVUIElement@@UtagRECT@@_N1Ufloat2@@PEBDPEAUID3D11Device@@@Z@4HA 0000000140030840 f   UIManager.obj
 0001:0002f85d       ?dtor$1@?0??CreateImage@UIManager@@QEAAPEAVUIElement@@UtagRECT@@_N1Ufloat2@@PEBDPEAUID3D11Device@@@Z@4HA 000000014003085d f   UIManager.obj
 0001:0002f870       ?dtor$0@?0??CreateButton@UIManager@@QEAAPEAVUIElement@@UtagRECT@@_N1Ufloat2@@PEAUID3D11Device@@HPEBD@Z@4HA 0000000140030870 f   UIManager.obj
 0001:0002f88d       ?dtor$1@?0??CreateButton@UIManager@@QEAAPEAVUIElement@@UtagRECT@@_N1Ufloat2@@PEAUID3D11Device@@HPEBD@Z@4HA 000000014003088d f   UIManager.obj
 0001:0002f899       ?dtor$2@?0??CreateButton@UIManager@@QEAAPEAVUIElement@@UtagRECT@@_N1Ufloat2@@PEAUID3D11Device@@HPEBD@Z@4HA 0000000140030899 f   UIManager.obj
 0001:0002f8c0       ?dtor$0@?0??_WICBitsPerPixel@?A0x045efb5a@@YA_KAEBU_GUID@@@Z@4HA 00000001400308c0 f   WICTextureLoader.obj
 0001:0002f8cc       ?dtor$1@?0??_WICBitsPerPixel@?A0x045efb5a@@YA_KAEBU_GUID@@@Z@4HA 00000001400308cc f   WICTextureLoader.obj
 0001:0002f8e0       ?dtor$0@?0??CreateTextureFromWIC@?A0x045efb5a@@YAJPEAUID3D11Device@@PEAUID3D11DeviceContext@@PEAUIWICBitmapFrameDecode@@_KW4D3D11_USAGE@@IIIIPEAPEAUID3D11Resource@@PEAPEAUID3D11ShaderResourceView@@@Z@4HA 00000001400308e0 f   WICTextureLoader.obj
 0001:0002f8ec       ?dtor$1@?0??CreateTextureFromWIC@?A0x045efb5a@@YAJPEAUID3D11Device@@PEAUID3D11DeviceContext@@PEAUIWICBitmapFrameDecode@@_KW4D3D11_USAGE@@IIIIPEAPEAUID3D11Resource@@PEAPEAUID3D11ShaderResourceView@@@Z@4HA 00000001400308ec f   WICTextureLoader.obj
 0001:0002f8f8       ?dtor$2@?0??CreateTextureFromWIC@?A0x045efb5a@@YAJPEAUID3D11Device@@PEAUID3D11DeviceContext@@PEAUIWICBitmapFrameDecode@@_KW4D3D11_USAGE@@IIIIPEAPEAUID3D11Resource@@PEAPEAUID3D11ShaderResourceView@@@Z@4HA 00000001400308f8 f   WICTextureLoader.obj
 0001:0002f904       ?dtor$3@?0??CreateTextureFromWIC@?A0x045efb5a@@YAJPEAUID3D11Device@@PEAUID3D11DeviceContext@@PEAUIWICBitmapFrameDecode@@_KW4D3D11_USAGE@@IIIIPEAPEAUID3D11Resource@@PEAPEAUID3D11ShaderResourceView@@@Z@4HA 0000000140030904 f   WICTextureLoader.obj
 0001:0002f910       ?dtor$4@?0??CreateTextureFromWIC@?A0x045efb5a@@YAJPEAUID3D11Device@@PEAUID3D11DeviceContext@@PEAUIWICBitmapFrameDecode@@_KW4D3D11_USAGE@@IIIIPEAPEAUID3D11Resource@@PEAPEAUID3D11ShaderResourceView@@@Z@4HA 0000000140030910 f   WICTextureLoader.obj
 0001:0002f920       ?dtor$0@?0??CreateWICTextureFromFileEx@DirectX@@YAJPEAUID3D11Device@@PEAUID3D11DeviceContext@@PEB_W_KW4D3D11_USAGE@@IIIIPEAPEAUID3D11Resource@@PEAPEAUID3D11ShaderResourceView@@@Z@4HA 0000000140030920 f   WICTextureLoader.obj
 0001:0002f92c       ?dtor$1@?0??CreateWICTextureFromFileEx@DirectX@@YAJPEAUID3D11Device@@PEAUID3D11DeviceContext@@PEB_W_KW4D3D11_USAGE@@IIIIPEAPEAUID3D11Resource@@PEAPEAUID3D11ShaderResourceView@@@Z@4HA 000000014003092c f   WICTextureLoader.obj
 0001:0002f940       ?dtor$0@?0??UpdateShaderBuffers@AnimatedShader@@AEAA_NPEAUID3D11DeviceContext@@UXMMATRIX@DirectX@@11PEAUID3D11ShaderResourceView@@UXMFLOAT3@4@UXMFLOAT4@4@V?$vector@V?$array@Ufloat4@@$03@std@@V?$allocator@V?$array@Ufloat4@@$03@std@@@2@@std@@QEAU74@64444444_N7@Z@4HA 0000000140030940 f   shaderstuff.obj
 0001:0002f950       ?catch$1@?0???$_Buynode@AEAU?$pair@PEAUID3D11Device@@V?$shared_ptr@UWrappedData@?$SharedResourcePool@PEAUID3D11Device@@UDeviceResources@Impl@SpriteBatch@DirectX@@$$V@DirectX@@@std@@@std@@@?$_Tree_comp_alloc@V?$_Tmap_traits@PEAUID3D11Device@@V?$weak_ptr@UDeviceResources@Impl@SpriteBatch@DirectX@@@std@@U?$less@PEAUID3D11Device@@@3@V?$allocator@U?$pair@QEAUID3D11Device@@V?$weak_ptr@UDeviceResources@Impl@SpriteBatch@DirectX@@@std@@@std@@@3@$0A@@std@@@std@@QEAAPEAU?$_Tree_node@U?$pair@QEAUID3D11Device@@V?$weak_ptr@UDeviceResources@Impl@SpriteBatch@DirectX@@@std@@@std@@PEAX@1@AEAU?$pair@PEAUID3D11Device@@V?$shared_ptr@UWrappedData@?$SharedResourcePool@PEAUID3D11Device@@UDeviceResources@Impl@SpriteBatch@DirectX@@$$V@DirectX@@@std@@@1@@Z@4HA 0000000140030950 f   DirectXTK:SpriteBatch.obj
 0001:0002f950       ?catch$1@?0???$_Buynode@AEAU?$pair@PEAUID3D11DeviceContext@@V?$shared_ptr@UWrappedData@?$SharedResourcePool@PEAUID3D11DeviceContext@@UContextResources@Impl@SpriteBatch@DirectX@@$$V@DirectX@@@std@@@std@@@?$_Tree_comp_alloc@V?$_Tmap_traits@PEAUID3D11DeviceContext@@V?$weak_ptr@UContextResources@Impl@SpriteBatch@DirectX@@@std@@U?$less@PEAUID3D11DeviceContext@@@3@V?$allocator@U?$pair@QEAUID3D11DeviceContext@@V?$weak_ptr@UContextResources@Impl@SpriteBatch@DirectX@@@std@@@std@@@3@$0A@@std@@@std@@QEAAPEAU?$_Tree_node@U?$pair@QEAUID3D11DeviceContext@@V?$weak_ptr@UContextResources@Impl@SpriteBatch@DirectX@@@std@@@std@@PEAX@1@AEAU?$pair@PEAUID3D11DeviceContext@@V?$shared_ptr@UWrappedData@?$SharedResourcePool@PEAUID3D11DeviceContext@@UContextResources@Impl@SpriteBatch@DirectX@@$$V@DirectX@@@std@@@1@@Z@4HA 0000000140030950 f   DirectXTK:SpriteBatch.obj
 0001:0002f950       ?catch$1@?0???$_Buynode@AEAU?$pair@PEAUID3D11Device@@V?$shared_ptr@UWrappedData@?$SharedResourcePool@PEAUID3D11Device@@VImpl@CommonStates@DirectX@@$$V@DirectX@@@std@@@std@@@?$_Tree_comp_alloc@V?$_Tmap_traits@PEAUID3D11Device@@V?$weak_ptr@VImpl@CommonStates@DirectX@@@std@@U?$less@PEAUID3D11Device@@@3@V?$allocator@U?$pair@QEAUID3D11Device@@V?$weak_ptr@VImpl@CommonStates@DirectX@@@std@@@std@@@3@$0A@@std@@@std@@QEAAPEAU?$_Tree_node@U?$pair@QEAUID3D11Device@@V?$weak_ptr@VImpl@CommonStates@DirectX@@@std@@@std@@PEAX@1@AEAU?$pair@PEAUID3D11Device@@V?$shared_ptr@UWrappedData@?$SharedResourcePool@PEAUID3D11Device@@VImpl@CommonStates@DirectX@@$$V@DirectX@@@std@@@1@@Z@4HA 0000000140030950 f   DirectXTK:CommonStates.obj
 0001:0002f95d       __catch$??$_Buynode@AEAU?$pair@PEAUID3D11DeviceContext@@V?$shared_ptr@UWrappedData@?$SharedResourcePool@PEAUID3D11DeviceContext@@UContextResources@Impl@SpriteBatch@DirectX@@$$V@DirectX@@@std@@@std@@@?$_Tree_comp_alloc@V?$_Tmap_traits@PEAUID3D11DeviceContext@@V?$weak_ptr@UContextResources@Impl@SpriteBatch@DirectX@@@std@@U?$less@PEAUID3D11DeviceContext@@@3@V?$allocator@U?$pair@QEAUID3D11DeviceContext@@V?$weak_ptr@UContextResources@Impl@SpriteBatch@DirectX@@@std@@@std@@@3@$0A@@std@@@std@@QEAAPEAU?$_Tree_node@U?$pair@QEAUID3D11DeviceContext@@V?$weak_ptr@UContextResources@Impl@SpriteBatch@DirectX@@@std@@@std@@PEAX@1@AEAU?$pair@PEAUID3D11DeviceContext@@V?$shared_ptr@UWrappedData@?$SharedResourcePool@PEAUID3D11DeviceContext@@UContextResources@Impl@SpriteBatch@DirectX@@$$V@DirectX@@@std@@@1@@Z$0 000000014003095d f   DirectXTK:SpriteBatch.obj
 0001:0002f95d       __catch$??$_Buynode@AEAU?$pair@PEAUID3D11Device@@V?$shared_ptr@UWrappedData@?$SharedResourcePool@PEAUID3D11Device@@UDeviceResources@Impl@SpriteBatch@DirectX@@$$V@DirectX@@@std@@@std@@@?$_Tree_comp_alloc@V?$_Tmap_traits@PEAUID3D11Device@@V?$weak_ptr@UDeviceResources@Impl@SpriteBatch@DirectX@@@std@@U?$less@PEAUID3D11Device@@@3@V?$allocator@U?$pair@QEAUID3D11Device@@V?$weak_ptr@UDeviceResources@Impl@SpriteBatch@DirectX@@@std@@@std@@@3@$0A@@std@@@std@@QEAAPEAU?$_Tree_node@U?$pair@QEAUID3D11Device@@V?$weak_ptr@UDeviceResources@Impl@SpriteBatch@DirectX@@@std@@@std@@PEAX@1@AEAU?$pair@PEAUID3D11Device@@V?$shared_ptr@UWrappedData@?$SharedResourcePool@PEAUID3D11Device@@UDeviceResources@Impl@SpriteBatch@DirectX@@$$V@DirectX@@@std@@@1@@Z$0 000000014003095d f   DirectXTK:SpriteBatch.obj
 0001:0002f95d       __catch$??$_Buynode@AEAU?$pair@PEAUID3D11Device@@V?$shared_ptr@UWrappedData@?$SharedResourcePool@PEAUID3D11Device@@VImpl@CommonStates@DirectX@@$$V@DirectX@@@std@@@std@@@?$_Tree_comp_alloc@V?$_Tmap_traits@PEAUID3D11Device@@V?$weak_ptr@VImpl@CommonStates@DirectX@@@std@@U?$less@PEAUID3D11Device@@@3@V?$allocator@U?$pair@QEAUID3D11Device@@V?$weak_ptr@VImpl@CommonStates@DirectX@@@std@@@std@@@3@$0A@@std@@@std@@QEAAPEAU?$_Tree_node@U?$pair@QEAUID3D11Device@@V?$weak_ptr@VImpl@CommonStates@DirectX@@@std@@@std@@PEAX@1@AEAU?$pair@PEAUID3D11Device@@V?$shared_ptr@UWrappedData@?$SharedResourcePool@PEAUID3D11Device@@VImpl@CommonStates@DirectX@@$$V@DirectX@@@std@@@1@@Z$0 000000014003095d f   DirectXTK:CommonStates.obj
 0001:0002f980       ?catch$6@?0???$_Emplace_reallocate@AEAPEAUID3D11ShaderResourceView@@@?$vector@V?$ComPtr@UID3D11ShaderResourceView@@@WRL@Microsoft@@V?$allocator@V?$ComPtr@UID3D11ShaderResourceView@@@WRL@Microsoft@@@std@@@std@@QEAAPEAV?$ComPtr@UID3D11ShaderResourceView@@@WRL@Microsoft@@QEAV234@AEAPEAUID3D11ShaderResourceView@@@Z@4HA 0000000140030980 f   DirectXTK:SpriteBatch.obj
 0001:0002f98e       __catch$??$_Emplace_reallocate@AEAPEAUID3D11ShaderResourceView@@@?$vector@V?$ComPtr@UID3D11ShaderResourceView@@@WRL@Microsoft@@V?$allocator@V?$ComPtr@UID3D11ShaderResourceView@@@WRL@Microsoft@@@std@@@std@@QEAAPEAV?$ComPtr@UID3D11ShaderResourceView@@@WRL@Microsoft@@QEAV234@AEAPEAUID3D11ShaderResourceView@@@Z$0 000000014003098e f   DirectXTK:SpriteBatch.obj
 0001:0002f9c0       ?catch$0@?0???$_Emplace_reallocate@AEBF@?$vector@FV?$allocator@F@std@@@std@@QEAAPEAFQEAFAEBF@Z@4HA 00000001400309c0 f   DirectXTK:SpriteBatch.obj
 0001:0002f9c0       ?catch$0@?0???$_Emplace_reallocate@F@?$vector@FV?$allocator@F@std@@@std@@QEAAPEAFQEAF$$QEAF@Z@4HA 00000001400309c0 f   DirectXTK:SpriteBatch.obj
 0001:0002f9cd       __catch$??$_Emplace_reallocate@F@?$vector@FV?$allocator@F@std@@@std@@QEAAPEAFQEAF$$QEAF@Z$0 00000001400309cd f   DirectXTK:SpriteBatch.obj
 0001:0002f9cd       __catch$??$_Emplace_reallocate@AEBF@?$vector@FV?$allocator@F@std@@@std@@QEAAPEAFQEAFAEBF@Z$0 00000001400309cd f   DirectXTK:SpriteBatch.obj
 0001:0002f9f0       ?catch$1@?0???$_Insert_nohint@AEAU?$pair@QEAUID3D11DeviceContext@@V?$weak_ptr@UContextResources@Impl@SpriteBatch@DirectX@@@std@@@std@@PEAU?$_Tree_node@U?$pair@QEAUID3D11DeviceContext@@V?$weak_ptr@UContextResources@Impl@SpriteBatch@DirectX@@@std@@@std@@PEAX@2@@?$_Tree@V?$_Tmap_traits@PEAUID3D11DeviceContext@@V?$weak_ptr@UContextResources@Impl@SpriteBatch@DirectX@@@std@@U?$less@PEAUID3D11DeviceContext@@@3@V?$allocator@U?$pair@QEAUID3D11DeviceContext@@V?$weak_ptr@UContextResources@Impl@SpriteBatch@DirectX@@@std@@@std@@@3@$0A@@std@@@std@@IEAA?AU?$pair@V?$_Tree_iterator@V?$_Tree_val@U?$_Tree_simple_types@U?$pair@QEAUID3D11DeviceContext@@V?$weak_ptr@UContextResources@Impl@SpriteBatch@DirectX@@@std@@@std@@@std@@@std@@@std@@_N@1@_NAEAU?$pair@QEAUID3D11DeviceContext@@V?$weak_ptr@UContextResources@Impl@SpriteBatch@DirectX@@@std@@@1@PEAU?$_Tree_node@U?$pair@QEAUID3D11DeviceContext@@V?$weak_ptr@UContextResources@Impl@SpriteBatch@DirectX@@@std@@@std@@PEAX@1@@Z@4HA 00000001400309f0 f   DirectXTK:SpriteBatch.obj
 0001:0002f9f0       ?catch$1@?0???$_Insert_nohint@AEAU?$pair@QEAUID3D11Device@@V?$weak_ptr@UDeviceResources@Impl@SpriteBatch@DirectX@@@std@@@std@@PEAU?$_Tree_node@U?$pair@QEAUID3D11Device@@V?$weak_ptr@UDeviceResources@Impl@SpriteBatch@DirectX@@@std@@@std@@PEAX@2@@?$_Tree@V?$_Tmap_traits@PEAUID3D11Device@@V?$weak_ptr@UDeviceResources@Impl@SpriteBatch@DirectX@@@std@@U?$less@PEAUID3D11Device@@@3@V?$allocator@U?$pair@QEAUID3D11Device@@V?$weak_ptr@UDeviceResources@Impl@SpriteBatch@DirectX@@@std@@@std@@@3@$0A@@std@@@std@@IEAA?AU?$pair@V?$_Tree_iterator@V?$_Tree_val@U?$_Tree_simple_types@U?$pair@QEAUID3D11Device@@V?$weak_ptr@UDeviceResources@Impl@SpriteBatch@DirectX@@@std@@@std@@@std@@@std@@@std@@_N@1@_NAEAU?$pair@QEAUID3D11Device@@V?$weak_ptr@UDeviceResources@Impl@SpriteBatch@DirectX@@@std@@@1@PEAU?$_Tree_node@U?$pair@QEAUID3D11Device@@V?$weak_ptr@UDeviceResources@Impl@SpriteBatch@DirectX@@@std@@@std@@PEAX@1@@Z@4HA 00000001400309f0 f   DirectXTK:SpriteBatch.obj
 0001:0002f9f0       ?catch$1@?0???$_Insert_nohint@AEAU?$pair@QEAUID3D11Device@@V?$weak_ptr@VImpl@CommonStates@DirectX@@@std@@@std@@PEAU?$_Tree_node@U?$pair@QEAUID3D11Device@@V?$weak_ptr@VImpl@CommonStates@DirectX@@@std@@@std@@PEAX@2@@?$_Tree@V?$_Tmap_traits@PEAUID3D11Device@@V?$weak_ptr@VImpl@CommonStates@DirectX@@@std@@U?$less@PEAUID3D11Device@@@3@V?$allocator@U?$pair@QEAUID3D11Device@@V?$weak_ptr@VImpl@CommonStates@DirectX@@@std@@@std@@@3@$0A@@std@@@std@@IEAA?AU?$pair@V?$_Tree_iterator@V?$_Tree_val@U?$_Tree_simple_types@U?$pair@QEAUID3D11Device@@V?$weak_ptr@VImpl@CommonStates@DirectX@@@std@@@std@@@std@@@std@@@std@@_N@1@_NAEAU?$pair@QEAUID3D11Device@@V?$weak_ptr@VImpl@CommonStates@DirectX@@@std@@@1@PEAU?$_Tree_node@U?$pair@QEAUID3D11Device@@V?$weak_ptr@VImpl@CommonStates@DirectX@@@std@@@std@@PEAX@1@@Z@4HA 00000001400309f0 f   DirectXTK:CommonStates.obj
 0001:0002f9fd       __catch$??$_Insert_nohint@AEAU?$pair@QEAUID3D11Device@@V?$weak_ptr@UDeviceResources@Impl@SpriteBatch@DirectX@@@std@@@std@@PEAU?$_Tree_node@U?$pair@QEAUID3D11Device@@V?$weak_ptr@UDeviceResources@Impl@SpriteBatch@DirectX@@@std@@@std@@PEAX@2@@?$_Tree@V?$_Tmap_traits@PEAUID3D11Device@@V?$weak_ptr@UDeviceResources@Impl@SpriteBatch@DirectX@@@std@@U?$less@PEAUID3D11Device@@@3@V?$allocator@U?$pair@QEAUID3D11Device@@V?$weak_ptr@UDeviceResources@Impl@SpriteBatch@DirectX@@@std@@@std@@@3@$0A@@std@@@std@@IEAA?AU?$pair@V?$_Tree_iterator@V?$_Tree_val@U?$_Tree_simple_types@U?$pair@QEAUID3D11Device@@V?$weak_ptr@UDeviceResources@Impl@SpriteBatch@DirectX@@@std@@@std@@@std@@@std@@@std@@_N@1@_NAEAU?$pair@QEAUID3D11Device@@V?$weak_ptr@UDeviceResources@Impl@SpriteBatch@DirectX@@@std@@@1@PEAU?$_Tree_node@U?$pair@QEAUID3D11Device@@V?$weak_ptr@UDeviceResources@Impl@SpriteBatch@DirectX@@@std@@@std@@PEAX@1@@Z$0 00000001400309fd f   DirectXTK:SpriteBatch.obj
 0001:0002f9fd       __catch$??$_Insert_nohint@AEAU?$pair@QEAUID3D11DeviceContext@@V?$weak_ptr@UContextResources@Impl@SpriteBatch@DirectX@@@std@@@std@@PEAU?$_Tree_node@U?$pair@QEAUID3D11DeviceContext@@V?$weak_ptr@UContextResources@Impl@SpriteBatch@DirectX@@@std@@@std@@PEAX@2@@?$_Tree@V?$_Tmap_traits@PEAUID3D11DeviceContext@@V?$weak_ptr@UContextResources@Impl@SpriteBatch@DirectX@@@std@@U?$less@PEAUID3D11DeviceContext@@@3@V?$allocator@U?$pair@QEAUID3D11DeviceContext@@V?$weak_ptr@UContextResources@Impl@SpriteBatch@DirectX@@@std@@@std@@@3@$0A@@std@@@std@@IEAA?AU?$pair@V?$_Tree_iterator@V?$_Tree_val@U?$_Tree_simple_types@U?$pair@QEAUID3D11DeviceContext@@V?$weak_ptr@UContextResources@Impl@SpriteBatch@DirectX@@@std@@@std@@@std@@@std@@@std@@_N@1@_NAEAU?$pair@QEAUID3D11DeviceContext@@V?$weak_ptr@UContextResources@Impl@SpriteBatch@DirectX@@@std@@@1@PEAU?$_Tree_node@U?$pair@QEAUID3D11DeviceContext@@V?$weak_ptr@UContextResources@Impl@SpriteBatch@DirectX@@@std@@@std@@PEAX@1@@Z$0 00000001400309fd f   DirectXTK:SpriteBatch.obj
 0001:0002f9fd       __catch$??$_Insert_nohint@AEAU?$pair@QEAUID3D11Device@@V?$weak_ptr@VImpl@CommonStates@DirectX@@@std@@@std@@PEAU?$_Tree_node@U?$pair@QEAUID3D11Device@@V?$weak_ptr@VImpl@CommonStates@DirectX@@@std@@@std@@PEAX@2@@?$_Tree@V?$_Tmap_traits@PEAUID3D11Device@@V?$weak_ptr@VImpl@CommonStates@DirectX@@@std@@U?$less@PEAUID3D11Device@@@3@V?$allocator@U?$pair@QEAUID3D11Device@@V?$weak_ptr@VImpl@CommonStates@DirectX@@@std@@@std@@@3@$0A@@std@@@std@@IEAA?AU?$pair@V?$_Tree_iterator@V?$_Tree_val@U?$_Tree_simple_types@U?$pair@QEAUID3D11Device@@V?$weak_ptr@VImpl@CommonStates@DirectX@@@std@@@std@@@std@@@std@@@std@@_N@1@_NAEAU?$pair@QEAUID3D11Device@@V?$weak_ptr@VImpl@CommonStates@DirectX@@@std@@@1@PEAU?$_Tree_node@U?$pair@QEAUID3D11Device@@V?$weak_ptr@VImpl@CommonStates@DirectX@@@std@@@std@@PEAX@1@@Z$0 00000001400309fd f   DirectXTK:CommonStates.obj
 0001:0002fa20       ?catch$0@?0???$_Resize@V<lambda_e8c6c8b564571a11716b943a92ab7d7d>@@@?$vector@PEBUSpriteInfo@Impl@SpriteBatch@DirectX@@V?$allocator@PEBUSpriteInfo@Impl@SpriteBatch@DirectX@@@std@@@std@@AEAAX_KV<lambda_e8c6c8b564571a11716b943a92ab7d7d>@@@Z@4HA 0000000140030a20 f   DirectXTK:SpriteBatch.obj
 0001:0002fa2d       __catch$??$_Resize@V<lambda_e8c6c8b564571a11716b943a92ab7d7d>@@@?$vector@PEBUSpriteInfo@Impl@SpriteBatch@DirectX@@V?$allocator@PEBUSpriteInfo@Impl@SpriteBatch@DirectX@@@std@@@std@@AEAAX_KV<lambda_e8c6c8b564571a11716b943a92ab7d7d>@@@Z$0 0000000140030a2d f   DirectXTK:SpriteBatch.obj
 0001:0002fa50       ?dtor$0@?0???$make_unique@VImpl@SpriteBatch@DirectX@@AEAPEAUID3D11DeviceContext@@$0A@@std@@YA?AV?$unique_ptr@VImpl@SpriteBatch@DirectX@@U?$default_delete@VImpl@SpriteBatch@DirectX@@@std@@@0@AEAPEAUID3D11DeviceContext@@@Z@4HA 0000000140030a50 f   DirectXTK:SpriteBatch.obj
 0001:0002fa60       ?dtor$2@?0???$make_unique@VImpl@SpriteBatch@DirectX@@AEAPEAUID3D11DeviceContext@@$0A@@std@@YA?AV?$unique_ptr@VImpl@SpriteBatch@DirectX@@U?$default_delete@VImpl@SpriteBatch@DirectX@@@std@@@0@AEAPEAUID3D11DeviceContext@@@Z@4HA 0000000140030a60 f   DirectXTK:SpriteBatch.obj
 0001:0002fa70       ?dtor$3@?0???$make_unique@VImpl@SpriteBatch@DirectX@@AEAPEAUID3D11DeviceContext@@$0A@@std@@YA?AV?$unique_ptr@VImpl@SpriteBatch@DirectX@@U?$default_delete@VImpl@SpriteBatch@DirectX@@@std@@@0@AEAPEAUID3D11DeviceContext@@@Z@4HA 0000000140030a70 f   DirectXTK:SpriteBatch.obj
 0001:0002fa80       ?dtor$4@?0???$make_unique@VImpl@SpriteBatch@DirectX@@AEAPEAUID3D11DeviceContext@@$0A@@std@@YA?AV?$unique_ptr@VImpl@SpriteBatch@DirectX@@U?$default_delete@VImpl@SpriteBatch@DirectX@@@std@@@0@AEAPEAUID3D11DeviceContext@@@Z@4HA 0000000140030a80 f   DirectXTK:SpriteBatch.obj
 0001:0002fa90       ?dtor$5@?0???$make_unique@VImpl@SpriteBatch@DirectX@@AEAPEAUID3D11DeviceContext@@$0A@@std@@YA?AV?$unique_ptr@VImpl@SpriteBatch@DirectX@@U?$default_delete@VImpl@SpriteBatch@DirectX@@@std@@@0@AEAPEAUID3D11DeviceContext@@@Z@4HA 0000000140030a90 f   DirectXTK:SpriteBatch.obj
 0001:0002faa0       ?dtor$6@?0???$make_unique@VImpl@SpriteBatch@DirectX@@AEAPEAUID3D11DeviceContext@@$0A@@std@@YA?AV?$unique_ptr@VImpl@SpriteBatch@DirectX@@U?$default_delete@VImpl@SpriteBatch@DirectX@@@std@@@0@AEAPEAUID3D11DeviceContext@@@Z@4HA 0000000140030aa0 f   DirectXTK:SpriteBatch.obj
 0001:0002fab0       ?dtor$7@?0???$make_unique@VImpl@SpriteBatch@DirectX@@AEAPEAUID3D11DeviceContext@@$0A@@std@@YA?AV?$unique_ptr@VImpl@SpriteBatch@DirectX@@U?$default_delete@VImpl@SpriteBatch@DirectX@@@std@@@0@AEAPEAUID3D11DeviceContext@@@Z@4HA 0000000140030ab0 f   DirectXTK:SpriteBatch.obj
 0001:0002fad0       ?dtor$8@?0???$make_unique@VImpl@SpriteBatch@DirectX@@AEAPEAUID3D11DeviceContext@@$0A@@std@@YA?AV?$unique_ptr@VImpl@SpriteBatch@DirectX@@U?$default_delete@VImpl@SpriteBatch@DirectX@@@std@@@0@AEAPEAUID3D11DeviceContext@@@Z@4HA 0000000140030ad0 f   DirectXTK:SpriteBatch.obj
 0001:0002faf0       ?dtor$9@?0???$make_unique@VImpl@SpriteBatch@DirectX@@AEAPEAUID3D11DeviceContext@@$0A@@std@@YA?AV?$unique_ptr@VImpl@SpriteBatch@DirectX@@U?$default_delete@VImpl@SpriteBatch@DirectX@@@std@@@0@AEAPEAUID3D11DeviceContext@@@Z@4HA 0000000140030af0 f   DirectXTK:SpriteBatch.obj
 0001:0002fb10       ?dtor$11@?0???$make_unique@VImpl@SpriteBatch@DirectX@@AEAPEAUID3D11DeviceContext@@$0A@@std@@YA?AV?$unique_ptr@VImpl@SpriteBatch@DirectX@@U?$default_delete@VImpl@SpriteBatch@DirectX@@@std@@@0@AEAPEAUID3D11DeviceContext@@@Z@4HA 0000000140030b10 f   DirectXTK:SpriteBatch.obj
 0001:0002fb30       ?dtor$14@?0???$make_unique@VImpl@SpriteBatch@DirectX@@AEAPEAUID3D11DeviceContext@@$0A@@std@@YA?AV?$unique_ptr@VImpl@SpriteBatch@DirectX@@U?$default_delete@VImpl@SpriteBatch@DirectX@@@std@@@0@AEAPEAUID3D11DeviceContext@@@Z@4HA 0000000140030b30 f   DirectXTK:SpriteBatch.obj
 0001:0002fb60       ?dtor$0@?0???0ContextResources@Impl@SpriteBatch@DirectX@@QEAA@PEAUID3D11DeviceContext@@@Z@4HA 0000000140030b60 f   DirectXTK:SpriteBatch.obj
 0001:0002fb70       ?dtor$1@?0???0ContextResources@Impl@SpriteBatch@DirectX@@QEAA@PEAUID3D11DeviceContext@@@Z@4HA 0000000140030b70 f   DirectXTK:SpriteBatch.obj
 0001:0002fb80       ?dtor$3@?0???0ContextResources@Impl@SpriteBatch@DirectX@@QEAA@PEAUID3D11DeviceContext@@@Z@4HA 0000000140030b80 f   DirectXTK:SpriteBatch.obj
 0001:0002fb90       ?dtor$4@?0???0ContextResources@Impl@SpriteBatch@DirectX@@QEAA@PEAUID3D11DeviceContext@@@Z@4HA 0000000140030b90 f   DirectXTK:SpriteBatch.obj
 0001:0002fbc0       ?dtor$5@?0???0ContextResources@Impl@SpriteBatch@DirectX@@QEAA@PEAUID3D11DeviceContext@@@Z@4HA 0000000140030bc0 f   DirectXTK:SpriteBatch.obj
 0001:0002fbd0       ?dtor$7@?0???0ContextResources@Impl@SpriteBatch@DirectX@@QEAA@PEAUID3D11DeviceContext@@@Z@4HA 0000000140030bd0 f   DirectXTK:SpriteBatch.obj
 0001:0002fc00       ?dtor$0@?0???0DeviceResources@Impl@SpriteBatch@DirectX@@QEAA@PEAUID3D11Device@@@Z@4HA 0000000140030c00 f   DirectXTK:SpriteBatch.obj
 0001:0002fc10       ?dtor$1@?0???0DeviceResources@Impl@SpriteBatch@DirectX@@QEAA@PEAUID3D11Device@@@Z@4HA 0000000140030c10 f   DirectXTK:SpriteBatch.obj
 0001:0002fc20       ?dtor$2@?0???0DeviceResources@Impl@SpriteBatch@DirectX@@QEAA@PEAUID3D11Device@@@Z@4HA 0000000140030c20 f   DirectXTK:SpriteBatch.obj
 0001:0002fc30       ?dtor$3@?0???0DeviceResources@Impl@SpriteBatch@DirectX@@QEAA@PEAUID3D11Device@@@Z@4HA 0000000140030c30 f   DirectXTK:SpriteBatch.obj
 0001:0002fc40       ?dtor$4@?0???0DeviceResources@Impl@SpriteBatch@DirectX@@QEAA@PEAUID3D11Device@@@Z@4HA 0000000140030c40 f   DirectXTK:SpriteBatch.obj
 0001:0002fc50       ?dtor$5@?0???0DeviceResources@Impl@SpriteBatch@DirectX@@QEAA@PEAUID3D11Device@@@Z@4HA 0000000140030c50 f   DirectXTK:SpriteBatch.obj
 0001:0002fc60       ?dtor$1@?0???__E?deviceResourcesPool@Impl@SpriteBatch@DirectX@@0V?$SharedResourcePool@PEAUID3D11Device@@UDeviceResources@Impl@SpriteBatch@DirectX@@$$V@3@A@@YAXXZ@4HA 0000000140030c60 f   DirectXTK:SpriteBatch.obj
 0001:0002fc60       ?dtor$1@?0???__E?contextResourcesPool@Impl@SpriteBatch@DirectX@@0V?$SharedResourcePool@PEAUID3D11DeviceContext@@UContextResources@Impl@SpriteBatch@DirectX@@$$V@3@A@@YAXXZ@4HA 0000000140030c60 f   DirectXTK:SpriteBatch.obj
 0001:0002fc60       ?dtor$1@?0???__E?instancePool@Impl@CommonStates@DirectX@@2V?$SharedResourcePool@PEAUID3D11Device@@VImpl@CommonStates@DirectX@@$$V@3@A@@YAXXZ@4HA 0000000140030c60 f   DirectXTK:CommonStates.obj
 0001:0002fc80       ?dtor$1@?0??Begin@Impl@SpriteBatch@DirectX@@QEAQXW4SpriteSortMode@3@PEAUID3D11BlendState@@PEAUID3D11SamplerState@@PEAUID3D11DepthStencilState@@PEAUID3D11RasterizerState@@AEAV?$function@$$A6AXXZ@std@@UXMMATRIX@3@@Z@4HA 0000000140030c80 f   DirectXTK:SpriteBatch.obj
 0001:0002fc90       ?dtor$0@?0??Begin@SpriteBatch@DirectX@@QEAQXW4SpriteSortMode@2@PEAUID3D11BlendState@@PEAUID3D11SamplerState@@PEAUID3D11DepthStencilState@@PEAUID3D11RasterizerState@@V?$function@$$A6AXXZ@std@@UXMMATRIX@2@@Z@4HA 0000000140030c90 f   DirectXTK:SpriteBatch.obj
 0001:0002fca0       ?dtor$0@?0??CreateIndexValues@DeviceResources@Impl@SpriteBatch@DirectX@@CA?AV?$vector@FV?$allocator@F@std@@@std@@XZ@4HA 0000000140030ca0 f   DirectXTK:SpriteBatch.obj
 0001:0002fcd0       ?dtor$0@?0??DemandCreate@?$SharedResourcePool@PEAUID3D11DeviceContext@@UContextResources@Impl@SpriteBatch@DirectX@@$$V@DirectX@@QEAA?AV?$shared_ptr@UContextResources@Impl@SpriteBatch@DirectX@@@std@@PEAUID3D11DeviceContext@@@Z@4HA 0000000140030cd0 f   DirectXTK:SpriteBatch.obj
 0001:0002fcd0       ?dtor$0@?0??DemandCreate@?$SharedResourcePool@PEAUID3D11Device@@VImpl@CommonStates@DirectX@@$$V@DirectX@@QEAA?AV?$shared_ptr@VImpl@CommonStates@DirectX@@@std@@PEAUID3D11Device@@@Z@4HA 0000000140030cd0 f   DirectXTK:CommonStates.obj
 0001:0002fcd0       ?dtor$0@?0??DemandCreate@?$SharedResourcePool@PEAUID3D11Device@@UDeviceResources@Impl@SpriteBatch@DirectX@@$$V@DirectX@@QEAA?AV?$shared_ptr@UDeviceResources@Impl@SpriteBatch@DirectX@@@std@@PEAUID3D11Device@@@Z@4HA 0000000140030cd0 f   DirectXTK:SpriteBatch.obj
 0001:0002fce0       ?dtor$3@?0??DemandCreate@?$SharedResourcePool@PEAUID3D11DeviceContext@@UContextResources@Impl@SpriteBatch@DirectX@@$$V@DirectX@@QEAA?AV?$shared_ptr@UContextResources@Impl@SpriteBatch@DirectX@@@std@@PEAUID3D11DeviceContext@@@Z@4HA 0000000140030ce0 f   DirectXTK:SpriteBatch.obj
 0001:0002fce0       ?dtor$3@?0??DemandCreate@?$SharedResourcePool@PEAUID3D11Device@@UDeviceResources@Impl@SpriteBatch@DirectX@@$$V@DirectX@@QEAA?AV?$shared_ptr@UDeviceResources@Impl@SpriteBatch@DirectX@@@std@@PEAUID3D11Device@@@Z@4HA 0000000140030ce0 f   DirectXTK:SpriteBatch.obj
 0001:0002fcf0       ?dtor$4@?0??DemandCreate@?$SharedResourcePool@PEAUID3D11DeviceContext@@UContextResources@Impl@SpriteBatch@DirectX@@$$V@DirectX@@QEAA?AV?$shared_ptr@UContextResources@Impl@SpriteBatch@DirectX@@@std@@PEAUID3D11DeviceContext@@@Z@4HA 0000000140030cf0 f   DirectXTK:SpriteBatch.obj
 0001:0002fcf0       ?dtor$4@?0??DemandCreate@?$SharedResourcePool@PEAUID3D11Device@@VImpl@CommonStates@DirectX@@$$V@DirectX@@QEAA?AV?$shared_ptr@VImpl@CommonStates@DirectX@@@std@@PEAUID3D11Device@@@Z@4HA 0000000140030cf0 f   DirectXTK:CommonStates.obj
 0001:0002fcf0       ?dtor$4@?0??DemandCreate@?$SharedResourcePool@PEAUID3D11Device@@UDeviceResources@Impl@SpriteBatch@DirectX@@$$V@DirectX@@QEAA?AV?$shared_ptr@UDeviceResources@Impl@SpriteBatch@DirectX@@@std@@PEAUID3D11Device@@@Z@4HA 0000000140030cf0 f   DirectXTK:SpriteBatch.obj
 0001:0002fd00       ?dtor$7@?0??DemandCreate@?$SharedResourcePool@PEAUID3D11Device@@UDeviceResources@Impl@SpriteBatch@DirectX@@$$V@DirectX@@QEAA?AV?$shared_ptr@UDeviceResources@Impl@SpriteBatch@DirectX@@@std@@PEAUID3D11Device@@@Z@4HA 0000000140030d00 f   DirectXTK:SpriteBatch.obj
 0001:0002fd20       ?dtor$7@?0??DemandCreate@?$SharedResourcePool@PEAUID3D11DeviceContext@@UContextResources@Impl@SpriteBatch@DirectX@@$$V@DirectX@@QEAA?AV?$shared_ptr@UContextResources@Impl@SpriteBatch@DirectX@@@std@@PEAUID3D11DeviceContext@@@Z@4HA 0000000140030d20 f   DirectXTK:SpriteBatch.obj
 0001:0002fd40       ?dtor$0@?0??RenderBatch@Impl@SpriteBatch@DirectX@@AEAAXPEAUID3D11ShaderResourceView@@PEBQEBUSpriteInfo@123@_K@Z@4HA 0000000140030d40 f   DirectXTK:SpriteBatch.obj
 0001:0002fd50       ?dtor$1@?0??RenderBatch@Impl@SpriteBatch@DirectX@@AEAAXPEAUID3D11ShaderResourceView@@PEBQEBUSpriteInfo@123@_K@Z@4HA 0000000140030d50 f   DirectXTK:SpriteBatch.obj
 0001:0002fd60       ?catch$0@?0??_Buyheadnode@?$_Tree_comp_alloc@V?$_Tmap_traits@PEAUID3D11DeviceContext@@V?$weak_ptr@UContextResources@Impl@SpriteBatch@DirectX@@@std@@U?$less@PEAUID3D11DeviceContext@@@3@V?$allocator@U?$pair@QEAUID3D11DeviceContext@@V?$weak_ptr@UContextResources@Impl@SpriteBatch@DirectX@@@std@@@std@@@3@$0A@@std@@@std@@QEAAPEAU?$_Tree_node@U?$pair@QEAUID3D11DeviceContext@@V?$weak_ptr@UContextResources@Impl@SpriteBatch@DirectX@@@std@@@std@@PEAX@2@XZ@4HA 0000000140030d60 f   DirectXTK:SpriteBatch.obj
 0001:0002fd60       ?catch$0@?0??_Buyheadnode@?$_Tree_comp_alloc@V?$_Tmap_traits@PEAUID3D11Device@@V?$weak_ptr@VImpl@CommonStates@DirectX@@@std@@U?$less@PEAUID3D11Device@@@3@V?$allocator@U?$pair@QEAUID3D11Device@@V?$weak_ptr@VImpl@CommonStates@DirectX@@@std@@@std@@@3@$0A@@std@@@std@@QEAAPEAU?$_Tree_node@U?$pair@QEAUID3D11Device@@V?$weak_ptr@VImpl@CommonStates@DirectX@@@std@@@std@@PEAX@2@XZ@4HA 0000000140030d60 f   DirectXTK:CommonStates.obj
 0001:0002fd60       ?catch$0@?0??_Buyheadnode@?$_Tree_comp_alloc@V?$_Tmap_traits@PEAUID3D11Device@@V?$weak_ptr@UDeviceResources@Impl@SpriteBatch@DirectX@@@std@@U?$less@PEAUID3D11Device@@@3@V?$allocator@U?$pair@QEAUID3D11Device@@V?$weak_ptr@UDeviceResources@Impl@SpriteBatch@DirectX@@@std@@@std@@@3@$0A@@std@@@std@@QEAAPEAU?$_Tree_node@U?$pair@QEAUID3D11Device@@V?$weak_ptr@UDeviceResources@Impl@SpriteBatch@DirectX@@@std@@@std@@PEAX@2@XZ@4HA 0000000140030d60 f   DirectXTK:SpriteBatch.obj
 0001:0002fd6d       __catch$?_Buyheadnode@?$_Tree_comp_alloc@V?$_Tmap_traits@PEAUID3D11Device@@V?$weak_ptr@UDeviceResources@Impl@SpriteBatch@DirectX@@@std@@U?$less@PEAUID3D11Device@@@3@V?$allocator@U?$pair@QEAUID3D11Device@@V?$weak_ptr@UDeviceResources@Impl@SpriteBatch@DirectX@@@std@@@std@@@3@$0A@@std@@@std@@QEAAPEAU?$_Tree_node@U?$pair@QEAUID3D11Device@@V?$weak_ptr@UDeviceResources@Impl@SpriteBatch@DirectX@@@std@@@std@@PEAX@2@XZ$0 0000000140030d6d f   DirectXTK:SpriteBatch.obj
 0001:0002fd6d       __catch$?_Buyheadnode@?$_Tree_comp_alloc@V?$_Tmap_traits@PEAUID3D11Device@@V?$weak_ptr@VImpl@CommonStates@DirectX@@@std@@U?$less@PEAUID3D11Device@@@3@V?$allocator@U?$pair@QEAUID3D11Device@@V?$weak_ptr@VImpl@CommonStates@DirectX@@@std@@@std@@@3@$0A@@std@@@std@@QEAAPEAU?$_Tree_node@U?$pair@QEAUID3D11Device@@V?$weak_ptr@VImpl@CommonStates@DirectX@@@std@@@std@@PEAX@2@XZ$0 0000000140030d6d f   DirectXTK:CommonStates.obj
 0001:0002fd6d       __catch$?_Buyheadnode@?$_Tree_comp_alloc@V?$_Tmap_traits@PEAUID3D11DeviceContext@@V?$weak_ptr@UContextResources@Impl@SpriteBatch@DirectX@@@std@@U?$less@PEAUID3D11DeviceContext@@@3@V?$allocator@U?$pair@QEAUID3D11DeviceContext@@V?$weak_ptr@UContextResources@Impl@SpriteBatch@DirectX@@@std@@@std@@@3@$0A@@std@@@std@@QEAAPEAU?$_Tree_node@U?$pair@QEAUID3D11DeviceContext@@V?$weak_ptr@UContextResources@Impl@SpriteBatch@DirectX@@@std@@@std@@PEAX@2@XZ$0 0000000140030d6d f   DirectXTK:SpriteBatch.obj
 0001:0002fd90       ?catch$0@?0??_Buynode0@?$_Tree_comp_alloc@V?$_Tmap_traits@PEAUID3D11Device@@V?$weak_ptr@UDeviceResources@Impl@SpriteBatch@DirectX@@@std@@U?$less@PEAUID3D11Device@@@3@V?$allocator@U?$pair@QEAUID3D11Device@@V?$weak_ptr@UDeviceResources@Impl@SpriteBatch@DirectX@@@std@@@std@@@3@$0A@@std@@@std@@QEAAPEAU?$_Tree_node@U?$pair@QEAUID3D11Device@@V?$weak_ptr@UDeviceResources@Impl@SpriteBatch@DirectX@@@std@@@std@@PEAX@2@XZ@4HA 0000000140030d90 f   DirectXTK:SpriteBatch.obj
 0001:0002fd90       ?catch$0@?0??_Buynode0@?$_Tree_comp_alloc@V?$_Tmap_traits@PEAUID3D11DeviceContext@@V?$weak_ptr@UContextResources@Impl@SpriteBatch@DirectX@@@std@@U?$less@PEAUID3D11DeviceContext@@@3@V?$allocator@U?$pair@QEAUID3D11DeviceContext@@V?$weak_ptr@UContextResources@Impl@SpriteBatch@DirectX@@@std@@@std@@@3@$0A@@std@@@std@@QEAAPEAU?$_Tree_node@U?$pair@QEAUID3D11DeviceContext@@V?$weak_ptr@UContextResources@Impl@SpriteBatch@DirectX@@@std@@@std@@PEAX@2@XZ@4HA 0000000140030d90 f   DirectXTK:SpriteBatch.obj
 0001:0002fd90       ?catch$0@?0??_Buynode0@?$_Tree_comp_alloc@V?$_Tmap_traits@PEAUID3D11Device@@V?$weak_ptr@VImpl@CommonStates@DirectX@@@std@@U?$less@PEAUID3D11Device@@@3@V?$allocator@U?$pair@QEAUID3D11Device@@V?$weak_ptr@VImpl@CommonStates@DirectX@@@std@@@std@@@3@$0A@@std@@@std@@QEAAPEAU?$_Tree_node@U?$pair@QEAUID3D11Device@@V?$weak_ptr@VImpl@CommonStates@DirectX@@@std@@@std@@PEAX@2@XZ@4HA 0000000140030d90 f   DirectXTK:CommonStates.obj
 0001:0002fd9d       __catch$?_Buynode0@?$_Tree_comp_alloc@V?$_Tmap_traits@PEAUID3D11Device@@V?$weak_ptr@VImpl@CommonStates@DirectX@@@std@@U?$less@PEAUID3D11Device@@@3@V?$allocator@U?$pair@QEAUID3D11Device@@V?$weak_ptr@VImpl@CommonStates@DirectX@@@std@@@std@@@3@$0A@@std@@@std@@QEAAPEAU?$_Tree_node@U?$pair@QEAUID3D11Device@@V?$weak_ptr@VImpl@CommonStates@DirectX@@@std@@@std@@PEAX@2@XZ$0 0000000140030d9d f   DirectXTK:CommonStates.obj
 0001:0002fd9d       __catch$?_Buynode0@?$_Tree_comp_alloc@V?$_Tmap_traits@PEAUID3D11DeviceContext@@V?$weak_ptr@UContextResources@Impl@SpriteBatch@DirectX@@@std@@U?$less@PEAUID3D11DeviceContext@@@3@V?$allocator@U?$pair@QEAUID3D11DeviceContext@@V?$weak_ptr@UContextResources@Impl@SpriteBatch@DirectX@@@std@@@std@@@3@$0A@@std@@@std@@QEAAPEAU?$_Tree_node@U?$pair@QEAUID3D11DeviceContext@@V?$weak_ptr@UContextResources@Impl@SpriteBatch@DirectX@@@std@@@std@@PEAX@2@XZ$0 0000000140030d9d f   DirectXTK:SpriteBatch.obj
 0001:0002fd9d       __catch$?_Buynode0@?$_Tree_comp_alloc@V?$_Tmap_traits@PEAUID3D11Device@@V?$weak_ptr@UDeviceResources@Impl@SpriteBatch@DirectX@@@std@@U?$less@PEAUID3D11Device@@@3@V?$allocator@U?$pair@QEAUID3D11Device@@V?$weak_ptr@UDeviceResources@Impl@SpriteBatch@DirectX@@@std@@@std@@@3@$0A@@std@@@std@@QEAAPEAU?$_Tree_node@U?$pair@QEAUID3D11Device@@V?$weak_ptr@UDeviceResources@Impl@SpriteBatch@DirectX@@@std@@@std@@PEAX@2@XZ$0 0000000140030d9d f   DirectXTK:SpriteBatch.obj
 0001:0002fdc0       ?catch$0@?0??_Reallocate_exactly@?$vector@FV?$allocator@F@std@@@std@@AEAAX_K@Z@4HA 0000000140030dc0 f   DirectXTK:SpriteBatch.obj
 0001:0002fdcd       __catch$?_Reallocate_exactly@?$vector@FV?$allocator@F@std@@@std@@AEAAX_K@Z$0 0000000140030dcd f   DirectXTK:SpriteBatch.obj
 0001:0002fdf0       ?dtor$0@?0???0Impl@SpriteFont@DirectX@@QEAA@PEAUID3D11Device@@PEAVBinaryReader@2@_N@Z@4HA 0000000140030df0 f   DirectXTK:SpriteFont.obj
 0001:0002fe00       ?dtor$1@?0???0Impl@SpriteFont@DirectX@@QEAA@PEAUID3D11Device@@PEAVBinaryReader@2@_N@Z@4HA 0000000140030e00 f   DirectXTK:SpriteFont.obj
 0001:0002fe10       ?dtor$2@?0???0Impl@SpriteFont@DirectX@@QEAA@PEAUID3D11Device@@PEAVBinaryReader@2@_N@Z@4HA 0000000140030e10 f   DirectXTK:SpriteFont.obj
 0001:0002fe20       ?dtor$3@?0???0Impl@SpriteFont@DirectX@@QEAA@PEAUID3D11Device@@PEAVBinaryReader@2@_N@Z@4HA 0000000140030e20 f   DirectXTK:SpriteFont.obj
 0001:0002fe30       ?dtor$0@?0???0SpriteFont@DirectX@@QEAA@PEAUID3D11Device@@PEB_W_N@Z@4HA 0000000140030e30 f   DirectXTK:SpriteFont.obj
 0001:0002fe40       ?dtor$1@?0???0SpriteFont@DirectX@@QEAA@PEAUID3D11Device@@PEB_W_N@Z@4HA 0000000140030e40 f   DirectXTK:SpriteFont.obj
 0001:0002fe50       ?dtor$3@?0???0SpriteFont@DirectX@@QEAA@PEAUID3D11Device@@PEB_W_N@Z@4HA 0000000140030e50 f   DirectXTK:SpriteFont.obj
 0001:0002fe70       ?dtor$0@?0??CreateDDSTextureFromFile@DirectX@@YAJPEAUID3D11Device@@PEB_WPEAPEAUID3D11Resource@@PEAPEAUID3D11ShaderResourceView@@_KPEAW4DDS_ALPHA_MODE@1@@Z@4HA 0000000140030e70 f   DirectXTK:DDSTextureLoader.obj
 0001:0002fe80       ?dtor$0@?0??CreateTextureFromDDS@?A0x3c71273c@@YAJPEAUID3D11Device@@PEAUID3D11DeviceContext@@PEBUDDS_HEADER@DirectX@@PEBE_K4W4D3D11_USAGE@@III_NPEAPEAUID3D11Resource@@PEAPEAUID3D11ShaderResourceView@@@Z@4HA 0000000140030e80 f   DirectXTK:DDSTextureLoader.obj
 0001:0002fe90       ?dtor$0@?0??LinearClamp@CommonStates@DirectX@@QEBAPEAUID3D11SamplerState@@XZ@4HA 0000000140030e90 f   DirectXTK:CommonStates.obj
 0001:0002fe90       ?dtor$0@?0??CullCounterClockwise@CommonStates@DirectX@@QEBAPEAUID3D11RasterizerState@@XZ@4HA 0000000140030e90 f   DirectXTK:CommonStates.obj
 0001:0002fe90       ?dtor$0@?0??DepthNone@CommonStates@DirectX@@QEBAPEAUID3D11DepthStencilState@@XZ@4HA 0000000140030e90 f   DirectXTK:CommonStates.obj
 0001:0002fe90       ?dtor$0@?0??AlphaBlend@CommonStates@DirectX@@QEBAPEAUID3D11BlendState@@XZ@4HA 0000000140030e90 f   DirectXTK:CommonStates.obj
 0001:0002fea0       ?dtor$3@?0??DemandCreate@?$SharedResourcePool@PEAUID3D11Device@@VImpl@CommonStates@DirectX@@$$V@DirectX@@QEAA?AV?$shared_ptr@VImpl@CommonStates@DirectX@@@std@@PEAUID3D11Device@@@Z@4HA 0000000140030ea0 f   DirectXTK:CommonStates.obj
 0001:0002feb0       ?dtor$0@?0???0BinaryReader@DirectX@@QEAA@PEB_W@Z@4HA 0000000140030eb0 f   DirectXTK:BinaryReader.obj
 0001:0002fec0       ?dtor$0@?0??ReadEntireFile@BinaryReader@DirectX@@SAJPEB_WAEAV?$unique_ptr@$$BY0A@EU?$default_delete@$$BY0A@E@std@@@std@@PEA_K@Z@4HA 0000000140030ec0 f   DirectXTK:BinaryReader.obj
 0001:0002fecc       ?filt$0@?0??__scrt_common_main_seh@@YAHXZ@4HA 0000000140030ecc f   MSVCRT:exe_winmain.obj
 0001:0002feea       __scrt_is_nonwritable_in_current_image$filt$0 0000000140030eea f   MSVCRT:utility.obj
 0001:0002ff02       ?catch$0@?0???2@YAPEAX_KAEBUnothrow_t@std@@@Z@4HA 0000000140030f02 f   MSVCRT:new_scalar_nothrow.obj
 0001:0002ff0f       __catch$??2@YAPEAX_KAEBUnothrow_t@std@@@Z$0 0000000140030f0f f   MSVCRT:new_scalar_nothrow.obj
 0001:0002ff20       ??__F?contextResourcesPool@Impl@SpriteBatch@DirectX@@0V?$SharedResourcePool@PEAUID3D11DeviceContext@@UContextResources@Impl@SpriteBatch@DirectX@@$$V@3@A@@YAXXZ 0000000140030f20 f   DirectXTK:SpriteBatch.obj
 0001:0002ff70       ??__F?deviceResourcesPool@Impl@SpriteBatch@DirectX@@0V?$SharedResourcePool@PEAUID3D11Device@@UDeviceResources@Impl@SpriteBatch@DirectX@@$$V@3@A@@YAXXZ 0000000140030f70 f   DirectXTK:SpriteBatch.obj
 0001:0002ffc0       ??__F?instancePool@Impl@CommonStates@DirectX@@2V?$SharedResourcePool@PEAUID3D11Device@@VImpl@CommonStates@DirectX@@$$V@3@A@@YAXXZ 0000000140030fc0 f   DirectXTK:CommonStates.obj
 0001:00030010       ??__F_Fac_tidy_reg@std@@YAXXZ 0000000140031010 f   msvcprt:locale0_implib.obj
 0002:00000630       ?pre_cpp_initializer@@3P6AXXZEA 0000000140032630     MSVCRT:exe_winmain.obj
 0002:00000638       ?_Fac_tidy_reg$initializer$@std@@3P6AXXZEA 0000000140032638     msvcprt:locale0_implib.obj
 0002:00000640       ??deviceResourcesPool$initializer$@Impl@SpriteBatch@DirectX@@0P6AXXZEA@@3P6AXXZEA 0000000140032640     DirectXTK:SpriteBatch.obj
 0002:00000648       ??contextResourcesPool$initializer$@Impl@SpriteBatch@DirectX@@0P6AXXZEA@@3P6AXXZEA 0000000140032648     DirectXTK:SpriteBatch.obj
 0002:00000650       ??MatrixIdentity$initializer$@SpriteBatch@DirectX@@0P6AXXZEA@@3P6AXXZEA 0000000140032650     DirectXTK:SpriteBatch.obj
 0002:00000658       ??instancePool$initializer$@Impl@CommonStates@DirectX@@2P6AXXZEA@@3P6AXXZEA 0000000140032658     DirectXTK:CommonStates.obj
 0002:00000660       ?g_WICFormats$initializer$@?A0x045efb5a@@3P6AXXZEA 0000000140032660     WICTextureLoader.obj
 0002:00000668       ?g_WICConvert$initializer$@?A0x045efb5a@@3P6AXXZEA 0000000140032668     WICTextureLoader.obj
 0002:00000680       ?pre_c_initializer@@3P6AHXZEA 0000000140032680     MSVCRT:exe_winmain.obj
 0002:00000688       ?post_pgo_initializer@@3P6AHXZEA 0000000140032688     MSVCRT:exe_winmain.obj
 0002:00000690       ?__scrt_initialize_tss_var@@3P6AHXZEA 0000000140032690     MSVCRT:thread_safe_statics.obj
 0002:00000ae0       ?SpriteEffect_SpriteVertexShader@?A0xb0fc76dd@@3QBEB 0000000140032ae0     DirectXTK:SpriteBatch.obj
 0002:00001000       ?SpriteEffect_SpritePixelShader@?A0xb0fc76dd@@3QBEB 0000000140033000     DirectXTK:SpriteBatch.obj
 0002:00001360       $cppxdata$??1?$lock_guard@Vmutex@std@@@std@@QEAA@XZ 0000000140033360     DirectXTK:SpriteBatch.obj
 0002:00001388       $cppxdata$?Begin@SpriteBatch@DirectX@@QEAQXW4SpriteSortMode@2@PEAUID3D11BlendState@@PEAUID3D11SamplerState@@PEAUID3D11DepthStencilState@@PEAUID3D11RasterizerState@@V?$function@$$A6AXXZ@std@@UXMMATRIX@2@@Z 0000000140033388     DirectXTK:SpriteBatch.obj
 0002:000013b0       $cppxdata$?Begin@Impl@SpriteBatch@DirectX@@QEAQXW4SpriteSortMode@3@PEAUID3D11BlendState@@PEAUID3D11SamplerState@@PEAUID3D11DepthStencilState@@PEAUID3D11RasterizerState@@AEAV?$function@$$A6AXXZ@std@@UXMMATRIX@3@@Z 00000001400333b0     DirectXTK:SpriteBatch.obj
 0002:000013d8       $cppxdata$?RenderBatch@Impl@SpriteBatch@DirectX@@AEAAXPEAUID3D11ShaderResourceView@@PEBQEBUSpriteInfo@123@_K@Z 00000001400333d8     DirectXTK:SpriteBatch.obj
 0002:00001400       $cppxdata$??1?$vector@V?$ComPtr@UID3D11ShaderResourceView@@@WRL@Microsoft@@V?$allocator@V?$ComPtr@UID3D11ShaderResourceView@@@WRL@Microsoft@@@std@@@std@@QEAA@XZ 0000000140033400     DirectXTK:SpriteBatch.obj
 0002:00001428       $cppxdata$??0DeviceResources@Impl@SpriteBatch@DirectX@@QEAA@PEAUID3D11Device@@@Z 0000000140033428     DirectXTK:SpriteBatch.obj
 0002:00001450       $cppxdata$?CreateIndexValues@DeviceResources@Impl@SpriteBatch@DirectX@@CA?AV?$vector@FV?$allocator@F@std@@@std@@XZ 0000000140033450     DirectXTK:SpriteBatch.obj
 0002:00001478       $cppxdata$??1DeviceResources@Impl@SpriteBatch@DirectX@@QEAA@XZ 0000000140033478     DirectXTK:SpriteBatch.obj
 0002:000014a0       $cppxdata$??0ContextResources@Impl@SpriteBatch@DirectX@@QEAA@PEAUID3D11DeviceContext@@@Z 00000001400334a0     DirectXTK:SpriteBatch.obj
 0002:000014c8       $cppxdata$??1?$ConstantBuffer@UXMMATRIX@DirectX@@@DirectX@@QEAA@XZ 00000001400334c8     DirectXTK:SpriteBatch.obj
 0002:000014f0       $cppxdata$??1Impl@SpriteBatch@DirectX@@QEAA@XZ 00000001400334f0     DirectXTK:SpriteBatch.obj
 0002:00001518       $cppxdata$?DemandCreate@?$SharedResourcePool@PEAUID3D11Device@@UDeviceResources@Impl@SpriteBatch@DirectX@@$$V@DirectX@@QEAA?AV?$shared_ptr@UDeviceResources@Impl@SpriteBatch@DirectX@@@std@@PEAUID3D11Device@@@Z 0000000140033518     DirectXTK:SpriteBatch.obj
 0002:00001540       $cppxdata$??__E?deviceResourcesPool@Impl@SpriteBatch@DirectX@@0V?$SharedResourcePool@PEAUID3D11Device@@UDeviceResources@Impl@SpriteBatch@DirectX@@$$V@3@A@@YAXXZ 0000000140033540     DirectXTK:SpriteBatch.obj
 0002:00001568       $cppxdata$?DemandCreate@?$SharedResourcePool@PEAUID3D11DeviceContext@@UContextResources@Impl@SpriteBatch@DirectX@@$$V@DirectX@@QEAA?AV?$shared_ptr@UContextResources@Impl@SpriteBatch@DirectX@@@std@@PEAUID3D11DeviceContext@@@Z 0000000140033568     DirectXTK:SpriteBatch.obj
 0002:00001590       $cppxdata$??__E?contextResourcesPool@Impl@SpriteBatch@DirectX@@0V?$SharedResourcePool@PEAUID3D11DeviceContext@@UContextResources@Impl@SpriteBatch@DirectX@@$$V@3@A@@YAXXZ 0000000140033590     DirectXTK:SpriteBatch.obj
 0002:000015b8       $cppxdata$?_Reallocate_exactly@?$vector@FV?$allocator@F@std@@@std@@AEAAX_K@Z 00000001400335b8     DirectXTK:SpriteBatch.obj
 0002:000015e0       $cppxdata$??$_Emplace_reallocate@AEAPEAUID3D11ShaderResourceView@@@?$vector@V?$ComPtr@UID3D11ShaderResourceView@@@WRL@Microsoft@@V?$allocator@V?$ComPtr@UID3D11ShaderResourceView@@@WRL@Microsoft@@@std@@@std@@QEAAPEAV?$ComPtr@UID3D11ShaderResourceView@@@WRL@Microsoft@@QEAV234@AEAPEAUID3D11ShaderResourceView@@@Z 00000001400335e0     DirectXTK:SpriteBatch.obj
 0002:00001608       $cppxdata$??$make_unique@VImpl@SpriteBatch@DirectX@@AEAPEAUID3D11DeviceContext@@$0A@@std@@YA?AV?$unique_ptr@VImpl@SpriteBatch@DirectX@@U?$default_delete@VImpl@SpriteBatch@DirectX@@@std@@@0@AEAPEAUID3D11DeviceContext@@@Z 0000000140033608     DirectXTK:SpriteBatch.obj
 0002:00001630       $cppxdata$?_Buyheadnode@?$_Tree_comp_alloc@V?$_Tmap_traits@PEAUID3D11DeviceContext@@V?$weak_ptr@UContextResources@Impl@SpriteBatch@DirectX@@@std@@U?$less@PEAUID3D11DeviceContext@@@3@V?$allocator@U?$pair@QEAUID3D11DeviceContext@@V?$weak_ptr@UContextResources@Impl@SpriteBatch@DirectX@@@std@@@std@@@3@$0A@@std@@@std@@QEAAPEAU?$_Tree_node@U?$pair@QEAUID3D11DeviceContext@@V?$weak_ptr@UContextResources@Impl@SpriteBatch@DirectX@@@std@@@std@@PEAX@2@XZ 0000000140033630     DirectXTK:SpriteBatch.obj
 0002:00001630       $cppxdata$?_Buyheadnode@?$_Tree_comp_alloc@V?$_Tmap_traits@PEAUID3D11Device@@V?$weak_ptr@VImpl@CommonStates@DirectX@@@std@@U?$less@PEAUID3D11Device@@@3@V?$allocator@U?$pair@QEAUID3D11Device@@V?$weak_ptr@VImpl@CommonStates@DirectX@@@std@@@std@@@3@$0A@@std@@@std@@QEAAPEAU?$_Tree_node@U?$pair@QEAUID3D11Device@@V?$weak_ptr@VImpl@CommonStates@DirectX@@@std@@@std@@PEAX@2@XZ 0000000140033630     DirectXTK:CommonStates.obj
 0002:00001630       $cppxdata$?_Buyheadnode@?$_Tree_comp_alloc@V?$_Tmap_traits@PEAUID3D11Device@@V?$weak_ptr@UDeviceResources@Impl@SpriteBatch@DirectX@@@std@@U?$less@PEAUID3D11Device@@@3@V?$allocator@U?$pair@QEAUID3D11Device@@V?$weak_ptr@UDeviceResources@Impl@SpriteBatch@DirectX@@@std@@@std@@@3@$0A@@std@@@std@@QEAAPEAU?$_Tree_node@U?$pair@QEAUID3D11Device@@V?$weak_ptr@UDeviceResources@Impl@SpriteBatch@DirectX@@@std@@@std@@PEAX@2@XZ 0000000140033630     DirectXTK:SpriteBatch.obj
 0002:00001658       $cppxdata$?_Buynode0@?$_Tree_comp_alloc@V?$_Tmap_traits@PEAUID3D11DeviceContext@@V?$weak_ptr@UContextResources@Impl@SpriteBatch@DirectX@@@std@@U?$less@PEAUID3D11DeviceContext@@@3@V?$allocator@U?$pair@QEAUID3D11DeviceContext@@V?$weak_ptr@UContextResources@Impl@SpriteBatch@DirectX@@@std@@@std@@@3@$0A@@std@@@std@@QEAAPEAU?$_Tree_node@U?$pair@QEAUID3D11DeviceContext@@V?$weak_ptr@UContextResources@Impl@SpriteBatch@DirectX@@@std@@@std@@PEAX@2@XZ 0000000140033658     DirectXTK:SpriteBatch.obj
 0002:00001658       $cppxdata$?_Buynode0@?$_Tree_comp_alloc@V?$_Tmap_traits@PEAUID3D11Device@@V?$weak_ptr@VImpl@CommonStates@DirectX@@@std@@U?$less@PEAUID3D11Device@@@3@V?$allocator@U?$pair@QEAUID3D11Device@@V?$weak_ptr@VImpl@CommonStates@DirectX@@@std@@@std@@@3@$0A@@std@@@std@@QEAAPEAU?$_Tree_node@U?$pair@QEAUID3D11Device@@V?$weak_ptr@VImpl@CommonStates@DirectX@@@std@@@std@@PEAX@2@XZ 0000000140033658     DirectXTK:CommonStates.obj
 0002:00001658       $cppxdata$?_Buynode0@?$_Tree_comp_alloc@V?$_Tmap_traits@PEAUID3D11Device@@V?$weak_ptr@UDeviceResources@Impl@SpriteBatch@DirectX@@@std@@U?$less@PEAUID3D11Device@@@3@V?$allocator@U?$pair@QEAUID3D11Device@@V?$weak_ptr@UDeviceResources@Impl@SpriteBatch@DirectX@@@std@@@std@@@3@$0A@@std@@@std@@QEAAPEAU?$_Tree_node@U?$pair@QEAUID3D11Device@@V?$weak_ptr@UDeviceResources@Impl@SpriteBatch@DirectX@@@std@@@std@@PEAX@2@XZ 0000000140033658     DirectXTK:SpriteBatch.obj
 0002:00001680       $cppxdata$?erase@?$_Tree@V?$_Tmap_traits@PEAUID3D11Device@@V?$weak_ptr@VImpl@CommonStates@DirectX@@@std@@U?$less@PEAUID3D11Device@@@3@V?$allocator@U?$pair@QEAUID3D11Device@@V?$weak_ptr@VImpl@CommonStates@DirectX@@@std@@@std@@@3@$0A@@std@@@std@@QEAA?AV?$_Tree_iterator@V?$_Tree_val@U?$_Tree_simple_types@U?$pair@QEAUID3D11Device@@V?$weak_ptr@VImpl@CommonStates@DirectX@@@std@@@std@@@std@@@std@@@2@V?$_Tree_const_iterator@V?$_Tree_val@U?$_Tree_simple_types@U?$pair@QEAUID3D11Device@@V?$weak_ptr@VImpl@CommonStates@DirectX@@@std@@@std@@@std@@@std@@@2@0@Z 0000000140033680     DirectXTK:CommonStates.obj
 0002:00001680       $cppxdata$?erase@?$_Tree@V?$_Tmap_traits@PEAUID3D11Device@@V?$weak_ptr@UDeviceResources@Impl@SpriteBatch@DirectX@@@std@@U?$less@PEAUID3D11Device@@@3@V?$allocator@U?$pair@QEAUID3D11Device@@V?$weak_ptr@UDeviceResources@Impl@SpriteBatch@DirectX@@@std@@@std@@@3@$0A@@std@@@std@@QEAA?AV?$_Tree_iterator@V?$_Tree_val@U?$_Tree_simple_types@U?$pair@QEAUID3D11Device@@V?$weak_ptr@UDeviceResources@Impl@SpriteBatch@DirectX@@@std@@@std@@@std@@@std@@@2@V?$_Tree_const_iterator@V?$_Tree_val@U?$_Tree_simple_types@U?$pair@QEAUID3D11Device@@V?$weak_ptr@UDeviceResources@Impl@SpriteBatch@DirectX@@@std@@@std@@@std@@@std@@@2@0@Z 0000000140033680     DirectXTK:SpriteBatch.obj
 0002:00001680       $cppxdata$?erase@?$_Tree@V?$_Tmap_traits@PEAUID3D11DeviceContext@@V?$weak_ptr@UContextResources@Impl@SpriteBatch@DirectX@@@std@@U?$less@PEAUID3D11DeviceContext@@@3@V?$allocator@U?$pair@QEAUID3D11DeviceContext@@V?$weak_ptr@UContextResources@Impl@SpriteBatch@DirectX@@@std@@@std@@@3@$0A@@std@@@std@@QEAA?AV?$_Tree_iterator@V?$_Tree_val@U?$_Tree_simple_types@U?$pair@QEAUID3D11DeviceContext@@V?$weak_ptr@UContextResources@Impl@SpriteBatch@DirectX@@@std@@@std@@@std@@@std@@@2@V?$_Tree_const_iterator@V?$_Tree_val@U?$_Tree_simple_types@U?$pair@QEAUID3D11DeviceContext@@V?$weak_ptr@UContextResources@Impl@SpriteBatch@DirectX@@@std@@@std@@@std@@@std@@@2@0@Z 0000000140033680     DirectXTK:SpriteBatch.obj
 0002:000016a8       $cppxdata$??1WrappedData@?$SharedResourcePool@PEAUID3D11DeviceContext@@UContextResources@Impl@SpriteBatch@DirectX@@$$V@DirectX@@QEAA@XZ 00000001400336a8     DirectXTK:SpriteBatch.obj
 0002:000016d0       $cppxdata$??$_Emplace_reallocate@F@?$vector@FV?$allocator@F@std@@@std@@QEAAPEAFQEAF$$QEAF@Z 00000001400336d0     DirectXTK:SpriteBatch.obj
 0002:000016d0       $cppxdata$??$_Emplace_reallocate@AEBF@?$vector@FV?$allocator@F@std@@@std@@QEAAPEAFQEAFAEBF@Z 00000001400336d0     DirectXTK:SpriteBatch.obj
 0002:000016f8       $cppxdata$??$_Resize@V<lambda_e8c6c8b564571a11716b943a92ab7d7d>@@@?$vector@PEBUSpriteInfo@Impl@SpriteBatch@DirectX@@V?$allocator@PEBUSpriteInfo@Impl@SpriteBatch@DirectX@@@std@@@std@@AEAAX_KV<lambda_e8c6c8b564571a11716b943a92ab7d7d>@@@Z 00000001400336f8     DirectXTK:SpriteBatch.obj
 0002:00001720       $cppxdata$?_Destroy@?$_Ref_count_obj@UResourceMap@?$SharedResourcePool@PEAUID3D11Device@@UDeviceResources@Impl@SpriteBatch@DirectX@@$$V@DirectX@@@std@@EEAAXXZ 0000000140033720     DirectXTK:SpriteBatch.obj
 0002:00001720       $cppxdata$?_Destroy@?$_Ref_count_obj@UResourceMap@?$SharedResourcePool@PEAUID3D11Device@@VImpl@CommonStates@DirectX@@$$V@DirectX@@@std@@EEAAXXZ 0000000140033720     DirectXTK:CommonStates.obj
 0002:00001720       $cppxdata$?_Destroy@?$_Ref_count_obj@UResourceMap@?$SharedResourcePool@PEAUID3D11DeviceContext@@UContextResources@Impl@SpriteBatch@DirectX@@$$V@DirectX@@@std@@EEAAXXZ 0000000140033720     DirectXTK:SpriteBatch.obj
 0002:00001748       $cppxdata$?_Destroy@?$_Ref_count_obj@UWrappedData@?$SharedResourcePool@PEAUID3D11Device@@UDeviceResources@Impl@SpriteBatch@DirectX@@$$V@DirectX@@@std@@EEAAXXZ 0000000140033748     DirectXTK:SpriteBatch.obj
 0002:00001770       $cppxdata$??$_Buynode@AEAU?$pair@PEAUID3D11Device@@V?$shared_ptr@UWrappedData@?$SharedResourcePool@PEAUID3D11Device@@VImpl@CommonStates@DirectX@@$$V@DirectX@@@std@@@std@@@?$_Tree_comp_alloc@V?$_Tmap_traits@PEAUID3D11Device@@V?$weak_ptr@VImpl@CommonStates@DirectX@@@std@@U?$less@PEAUID3D11Device@@@3@V?$allocator@U?$pair@QEAUID3D11Device@@V?$weak_ptr@VImpl@CommonStates@DirectX@@@std@@@std@@@3@$0A@@std@@@std@@QEAAPEAU?$_Tree_node@U?$pair@QEAUID3D11Device@@V?$weak_ptr@VImpl@CommonStates@DirectX@@@std@@@std@@PEAX@1@AEAU?$pair@PEAUID3D11Device@@V?$shared_ptr@UWrappedData@?$SharedResourcePool@PEAUID3D11Device@@VImpl@CommonStates@DirectX@@$$V@DirectX@@@std@@@1@@Z 0000000140033770     DirectXTK:CommonStates.obj
 0002:00001770       $cppxdata$??$_Buynode@AEAU?$pair@PEAUID3D11Device@@V?$shared_ptr@UWrappedData@?$SharedResourcePool@PEAUID3D11Device@@UDeviceResources@Impl@SpriteBatch@DirectX@@$$V@DirectX@@@std@@@std@@@?$_Tree_comp_alloc@V?$_Tmap_traits@PEAUID3D11Device@@V?$weak_ptr@UDeviceResources@Impl@SpriteBatch@DirectX@@@std@@U?$less@PEAUID3D11Device@@@3@V?$allocator@U?$pair@QEAUID3D11Device@@V?$weak_ptr@UDeviceResources@Impl@SpriteBatch@DirectX@@@std@@@std@@@3@$0A@@std@@@std@@QEAAPEAU?$_Tree_node@U?$pair@QEAUID3D11Device@@V?$weak_ptr@UDeviceResources@Impl@SpriteBatch@DirectX@@@std@@@std@@PEAX@1@AEAU?$pair@PEAUID3D11Device@@V?$shared_ptr@UWrappedData@?$SharedResourcePool@PEAUID3D11Device@@UDeviceResources@Impl@SpriteBatch@DirectX@@$$V@DirectX@@@std@@@1@@Z 0000000140033770     DirectXTK:SpriteBatch.obj
 0002:00001770       $cppxdata$??$_Buynode@AEAU?$pair@PEAUID3D11DeviceContext@@V?$shared_ptr@UWrappedData@?$SharedResourcePool@PEAUID3D11DeviceContext@@UContextResources@Impl@SpriteBatch@DirectX@@$$V@DirectX@@@std@@@std@@@?$_Tree_comp_alloc@V?$_Tmap_traits@PEAUID3D11DeviceContext@@V?$weak_ptr@UContextResources@Impl@SpriteBatch@DirectX@@@std@@U?$less@PEAUID3D11DeviceContext@@@3@V?$allocator@U?$pair@QEAUID3D11DeviceContext@@V?$weak_ptr@UContextResources@Impl@SpriteBatch@DirectX@@@std@@@std@@@3@$0A@@std@@@std@@QEAAPEAU?$_Tree_node@U?$pair@QEAUID3D11DeviceContext@@V?$weak_ptr@UContextResources@Impl@SpriteBatch@DirectX@@@std@@@std@@PEAX@1@AEAU?$pair@PEAUID3D11DeviceContext@@V?$shared_ptr@UWrappedData@?$SharedResourcePool@PEAUID3D11DeviceContext@@UContextResources@Impl@SpriteBatch@DirectX@@$$V@DirectX@@@std@@@1@@Z 0000000140033770     DirectXTK:SpriteBatch.obj
 0002:00001798       $cppxdata$??$_Insert_nohint@AEAU?$pair@QEAUID3D11DeviceContext@@V?$weak_ptr@UContextResources@Impl@SpriteBatch@DirectX@@@std@@@std@@PEAU?$_Tree_node@U?$pair@QEAUID3D11DeviceContext@@V?$weak_ptr@UContextResources@Impl@SpriteBatch@DirectX@@@std@@@std@@PEAX@2@@?$_Tree@V?$_Tmap_traits@PEAUID3D11DeviceContext@@V?$weak_ptr@UContextResources@Impl@SpriteBatch@DirectX@@@std@@U?$less@PEAUID3D11DeviceContext@@@3@V?$allocator@U?$pair@QEAUID3D11DeviceContext@@V?$weak_ptr@UContextResources@Impl@SpriteBatch@DirectX@@@std@@@std@@@3@$0A@@std@@@std@@IEAA?AU?$pair@V?$_Tree_iterator@V?$_Tree_val@U?$_Tree_simple_types@U?$pair@QEAUID3D11DeviceContext@@V?$weak_ptr@UContextResources@Impl@SpriteBatch@DirectX@@@std@@@std@@@std@@@std@@@std@@_N@1@_NAEAU?$pair@QEAUID3D11DeviceContext@@V?$weak_ptr@UContextResources@Impl@SpriteBatch@DirectX@@@std@@@1@PEAU?$_Tree_node@U?$pair@QEAUID3D11DeviceContext@@V?$weak_ptr@UContextResources@Impl@SpriteBatch@DirectX@@@std@@@std@@PEAX@1@@Z 0000000140033798     DirectXTK:SpriteBatch.obj
 0002:00001798       $cppxdata$??$_Insert_nohint@AEAU?$pair@QEAUID3D11Device@@V?$weak_ptr@VImpl@CommonStates@DirectX@@@std@@@std@@PEAU?$_Tree_node@U?$pair@QEAUID3D11Device@@V?$weak_ptr@VImpl@CommonStates@DirectX@@@std@@@std@@PEAX@2@@?$_Tree@V?$_Tmap_traits@PEAUID3D11Device@@V?$weak_ptr@VImpl@CommonStates@DirectX@@@std@@U?$less@PEAUID3D11Device@@@3@V?$allocator@U?$pair@QEAUID3D11Device@@V?$weak_ptr@VImpl@CommonStates@DirectX@@@std@@@std@@@3@$0A@@std@@@std@@IEAA?AU?$pair@V?$_Tree_iterator@V?$_Tree_val@U?$_Tree_simple_types@U?$pair@QEAUID3D11Device@@V?$weak_ptr@VImpl@CommonStates@DirectX@@@std@@@std@@@std@@@std@@@std@@_N@1@_NAEAU?$pair@QEAUID3D11Device@@V?$weak_ptr@VImpl@CommonStates@DirectX@@@std@@@1@PEAU?$_Tree_node@U?$pair@QEAUID3D11Device@@V?$weak_ptr@VImpl@CommonStates@DirectX@@@std@@@std@@PEAX@1@@Z 0000000140033798     DirectXTK:CommonStates.obj
 0002:00001798       $cppxdata$??$_Insert_nohint@AEAU?$pair@QEAUID3D11Device@@V?$weak_ptr@UDeviceResources@Impl@SpriteBatch@DirectX@@@std@@@std@@PEAU?$_Tree_node@U?$pair@QEAUID3D11Device@@V?$weak_ptr@UDeviceResources@Impl@SpriteBatch@DirectX@@@std@@@std@@PEAX@2@@?$_Tree@V?$_Tmap_traits@PEAUID3D11Device@@V?$weak_ptr@UDeviceResources@Impl@SpriteBatch@DirectX@@@std@@U?$less@PEAUID3D11Device@@@3@V?$allocator@U?$pair@QEAUID3D11Device@@V?$weak_ptr@UDeviceResources@Impl@SpriteBatch@DirectX@@@std@@@std@@@3@$0A@@std@@@std@@IEAA?AU?$pair@V?$_Tree_iterator@V?$_Tree_val@U?$_Tree_simple_types@U?$pair@QEAUID3D11Device@@V?$weak_ptr@UDeviceResources@Impl@SpriteBatch@DirectX@@@std@@@std@@@std@@@std@@@std@@_N@1@_NAEAU?$pair@QEAUID3D11Device@@V?$weak_ptr@UDeviceResources@Impl@SpriteBatch@DirectX@@@std@@@1@PEAU?$_Tree_node@U?$pair@QEAUID3D11Device@@V?$weak_ptr@UDeviceResources@Impl@SpriteBatch@DirectX@@@std@@@std@@PEAX@1@@Z 0000000140033798     DirectXTK:SpriteBatch.obj
 0002:00001930       ?wholeTexture@?BB@??Draw@Impl@SpriteBatch@DirectX@@QEAQXPEAUID3D11ShaderResourceView@@T__m128@@PEBUtagRECT@@11H@Z@4UXMVECTORF32@4@B 0000000140033930     DirectXTK:SpriteBatch.obj
 0002:00001a60       ?spriteFontMagic@@3QBDB    0000000140033a60     DirectXTK:SpriteFont.obj
 0002:00001a70       $cppxdata$??0SpriteFont@DirectX@@QEAA@PEAUID3D11Device@@PEB_W_N@Z 0000000140033a70     DirectXTK:SpriteFont.obj
 0002:00001a98       $cppxdata$??R?$default_delete@VImpl@SpriteFont@DirectX@@@std@@QEBAXPEAVImpl@SpriteFont@DirectX@@@Z 0000000140033a98     DirectXTK:SpriteFont.obj
 0002:00001ac0       $cppxdata$??0Impl@SpriteFont@DirectX@@QEAA@PEAUID3D11Device@@PEAVBinaryReader@2@_N@Z 0000000140033ac0     DirectXTK:SpriteFont.obj
 0002:00001ba0       $cppxdata$?CreateDDSTextureFromFile@DirectX@@YAJPEAUID3D11Device@@PEB_WPEAPEAUID3D11Resource@@PEAPEAUID3D11ShaderResourceView@@_KPEAW4DDS_ALPHA_MODE@1@@Z 0000000140033ba0     DirectXTK:DDSTextureLoader.obj
 0002:00001bc8       $cppxdata$?CreateTextureFromDDS@?A0x3c71273c@@YAJPEAUID3D11Device@@PEAUID3D11DeviceContext@@PEBUDDS_HEADER@DirectX@@PEBE_K4W4D3D11_USAGE@@III_NPEAPEAUID3D11Resource@@PEAPEAUID3D11ShaderResourceView@@@Z 0000000140033bc8     DirectXTK:DDSTextureLoader.obj
 0002:00001c18       $cppxdata$?AlphaBlend@CommonStates@DirectX@@QEBAPEAUID3D11BlendState@@XZ 0000000140033c18     DirectXTK:CommonStates.obj
 0002:00001c40       $cppxdata$?DepthNone@CommonStates@DirectX@@QEBAPEAUID3D11DepthStencilState@@XZ 0000000140033c40     DirectXTK:CommonStates.obj
 0002:00001c68       $cppxdata$?CullCounterClockwise@CommonStates@DirectX@@QEBAPEAUID3D11RasterizerState@@XZ 0000000140033c68     DirectXTK:CommonStates.obj
 0002:00001c90       $cppxdata$?LinearClamp@CommonStates@DirectX@@QEBAPEAUID3D11SamplerState@@XZ 0000000140033c90     DirectXTK:CommonStates.obj
 0002:00001cb8       $cppxdata$??1Impl@CommonStates@DirectX@@QEAA@XZ 0000000140033cb8     DirectXTK:CommonStates.obj
 0002:00001ce0       $cppxdata$?DemandCreate@?$SharedResourcePool@PEAUID3D11Device@@VImpl@CommonStates@DirectX@@$$V@DirectX@@QEAA?AV?$shared_ptr@VImpl@CommonStates@DirectX@@@std@@PEAUID3D11Device@@@Z 0000000140033ce0     DirectXTK:CommonStates.obj
 0002:00001d08       $cppxdata$??__E?instancePool@Impl@CommonStates@DirectX@@2V?$SharedResourcePool@PEAUID3D11Device@@VImpl@CommonStates@DirectX@@$$V@3@A@@YAXXZ 0000000140033d08     DirectXTK:CommonStates.obj
 0002:00001d30       $cppxdata$?_Destroy@?$_Ref_count_obj@UWrappedData@?$SharedResourcePool@PEAUID3D11Device@@VImpl@CommonStates@DirectX@@$$V@DirectX@@@std@@EEAAXXZ 0000000140033d30     DirectXTK:CommonStates.obj
 0002:00002248       $cppxdata$??0BinaryReader@DirectX@@QEAA@PEB_W@Z 0000000140034248     DirectXTK:BinaryReader.obj
 0002:00002270       $cppxdata$?ReadEntireFile@BinaryReader@DirectX@@SAJPEB_WAEAV?$unique_ptr@$$BY0A@EU?$default_delete@$$BY0A@E@std@@@std@@PEA_K@Z 0000000140034270     DirectXTK:BinaryReader.obj
 0002:000022e0       $cppxdata$??1_Fac_tidy_reg_t@std@@QEAA@XZ 00000001400342e0     msvcprt:locale0_implib.obj
 0002:00002398       $cppxdata$?__scrt_initialize_thread_safe_statics@@YAHXZ 0000000140034398     MSVCRT:thread_safe_statics.obj
 0002:00002488       GS_ExceptionPointers       0000000140034488     MSVCRT:gs_report.obj
 0002:000024c8       $cppxdata$??2@YAPEAX_KAEBUnothrow_t@std@@@Z 00000001400344c8     MSVCRT:new_scalar_nothrow.obj
 0002:00002de0       ??_7?$_Func_impl_no_alloc@V<lambda_ea09a75c222a66dc4a8fd8f581cf195d>@@X$$V@std@@6B@ 0000000140034de0     GameManager.obj
 0002:00002fb8       ??_7?$_Func_impl_no_alloc@V<lambda_d4055856ce15bf5a038765fc22a083fd>@@X$$V@std@@6B@ 0000000140034fb8     MyWindow.obj
 0002:00002ff0       ??_7?$_Func_impl_no_alloc@V<lambda_7ba90ac09ace4fd13a72d7fcbdbe9896>@@X$$V@std@@6B@ 0000000140034ff0     MyWindow.obj
 0002:00003028       ??_7?$_Func_impl_no_alloc@V<lambda_b4a53c077c995d59bbbf64eaab978451>@@X$$V@std@@6B@ 0000000140035028     MyWindow.obj
 0002:00003060       ??_7?$_Func_impl_no_alloc@V<lambda_867072a19d70b98a44a25bc7dba15d51>@@X$$V@std@@6B@ 0000000140035060     MyWindow.obj
 0002:00003098       ??_7?$_Func_impl_no_alloc@V<lambda_316fddc45de15bd5944b69ecaf017b5b>@@X$$V@std@@6B@ 0000000140035098     MyWindow.obj
 0002:000030d0       ??_7?$_Func_impl_no_alloc@V<lambda_f96e08f4b5f6c13e985e24a004212e97>@@X$$V@std@@6B@ 00000001400350d0     MyWindow.obj
 0002:00003108       ??_7?$_Func_impl_no_alloc@V<lambda_9e4ed57b88b9c2c95c2ae8d71a5c4f48>@@X$$V@std@@6B@ 0000000140035108     MyWindow.obj
 0002:00003140       ??_7?$_Func_impl_no_alloc@V<lambda_7515c2ed02c6d150075468e8ebe50eeb>@@X$$V@std@@6B@ 0000000140035140     MyWindow.obj
 0002:00003178       ??_7?$_Func_impl_no_alloc@V<lambda_3775f2d2be3acf40b03245c878d70ee1>@@X$$V@std@@6B@ 0000000140035178     MyWindow.obj
 0002:00003600       ??_7?$_Func_impl_no_alloc@V<lambda_414998facd772942244f71127261ad86>@@X$$V@std@@6B@ 0000000140035600     Shop.obj
 0002:00003638       ??_7?$_Func_impl_no_alloc@V<lambda_e4cb84e2ef1f0348c8ad9af04ceb4c4f>@@X$$V@std@@6B@ 0000000140035638     Shop.obj
 0002:00003670       ??_7?$_Func_impl_no_alloc@V<lambda_3de1022e0e4f3428918652e077d8319b>@@X$$V@std@@6B@ 0000000140035670     Shop.obj
 0002:000036a0       ?piecewise_construct@std@@3Upiecewise_construct_t@1@B 00000001400356a0     Shop.obj
 0002:000036b0       ??_7?$_Func_impl_no_alloc@V<lambda_e15a1fae8d706ca9371bd1c03b271ef7>@@X$$V@std@@6B@ 00000001400356b0     Shop.obj
 0002:000036e8       ??_7?$_Func_impl_no_alloc@V<lambda_d2a719c930d707c67105e86afa12be81>@@X$$V@std@@6B@ 00000001400356e8     Shop.obj
 0002:00003980       $cppxdata$??1?$unique_ptr@V_Facet_base@std@@U?$default_delete@V_Facet_base@std@@@2@@std@@QEAA@XZ 0000000140035980     Animation.obj
 0002:000039a8       $cppxdata$??$use_facet@V?$codecvt@DDU_Mbstatet@@@std@@@std@@YAAEBV?$codecvt@DDU_Mbstatet@@@0@AEBVlocale@0@@Z 00000001400359a8     Animation.obj
 0002:000039d0       $cppxdata$?open@?$basic_filebuf@DU?$char_traits@D@std@@@std@@QEAAPEAV12@PEBDHH@Z 00000001400359d0     Animation.obj
 0002:000039f8       $cppxdata$??1?$basic_filebuf@DU?$char_traits@D@std@@@std@@UEAA@XZ 00000001400359f8     Animation.obj
 0002:00003a20       $cppxdata$?uflow@?$basic_filebuf@DU?$char_traits@D@std@@@std@@MEAAHXZ 0000000140035a20     Animation.obj
 0002:00003a48       $cppxdata$??0?$basic_fstream@DU?$char_traits@D@std@@@std@@QEAA@PEBDHH@Z 0000000140035a48     Animation.obj
 0002:00003a70       $cppxdata$?SetJoints@Animation@@QEAAXM@Z 0000000140035a70     Animation.obj
 0002:00003a98       $cppxdata$?LerpJoints@Animation@@QEAA?AV?$vector@V?$array@Ufloat4@@$03@std@@V?$allocator@V?$array@Ufloat4@@$03@std@@@2@@std@@V23@0M@Z 0000000140035a98     Animation.obj
 0002:00003ac0       $cppxdata$?ReadAnimFile@Animation@@QEAAXPEBDPEAUID3D11Device@@@Z 0000000140035ac0     Animation.obj
 0002:00003ae8       $cppxdata$??0Animation@@QEAA@PEBDPEAUID3D11Device@@@Z 0000000140035ae8     Animation.obj
 0002:00003b10       $cppxdata$?Flatten@Animation@@QEAA?AV?$vector@V?$array@Ufloat4@@$03@std@@V?$allocator@V?$array@Ufloat4@@$03@std@@@2@@std@@V23@V?$vector@HV?$allocator@H@std@@@3@@Z 0000000140035b10     Animation.obj
 0002:00003b38       $cppxdata$??1locale@std@@QEAA@XZ 0000000140035b38     Animation.obj
 0002:00004010       $cppxdata$??0BombEnemy@@QEAA@XZ 0000000140036010     BombEnemy.obj
 0002:00004038       $cppxdata$?Initialize@Bullet@@QEAA_NPEAUID3D11Device@@PEBDUfloat3@@2V?$basic_string@DU?$char_traits@D@std@@V?$allocator@D@2@@std@@M@Z 0000000140036038     Bullet.obj
 0002:00004060       $cppxdata$??0Bullet@@QEAA@M@Z 0000000140036060     Bullet.obj
 0002:00004088       $cppxdata$??0Enemy@@QEAA@XZ 0000000140036088     Enemy.obj
 0002:000040b0       $cppxdata$?Update@EnemyManager@@QEAAXMPEAVPlayer@@V?$vector@PEAVGameObject@@V?$allocator@PEAVGameObject@@@std@@@std@@AEAV?$vector@PEAVBullet@@V?$allocator@PEAVBullet@@@std@@@4@PEAUID3D11Device@@PEAUHWND__@@@Z 00000001400360b0     EnemyManager.obj
 0002:000040d8       $cppxdata$?Initialize@EnemyManager@@QEAAXPEAUID3D11Device@@@Z 00000001400360d8     EnemyManager.obj
 0002:00004100       $cppxdata$??0?$vector@Ukeyframe@@V?$allocator@Ukeyframe@@@std@@@std@@QEAA@AEBV01@@Z 0000000140036100     GameObject.obj
 0002:00004128       $cppxdata$?GetParent@GameObject@@QEAAHHV?$vector@HV?$allocator@H@std@@@std@@@Z 0000000140036128     GameObject.obj
 0002:00004150       $cppxdata$?AddAninimation@GameObject@@QEAAXPEBDPEAUID3D11Device@@H@Z 0000000140036150     GameObject.obj
 0002:00004178       $cppxdata$??0GameObject@@QEAA@XZ 0000000140036178     GameObject.obj
 0002:000041a0       $cppxdata$??1?$function@$$A6AXXZ@std@@QEAA@XZ 00000001400361a0     graphicsclass.obj
 0002:000041a0       $cppxdata$??1?$_Func_class@X$$V@std@@QEAA@XZ 00000001400361a0     graphicsclass.obj
 0002:000041c8       $cppxdata$?Render@Graphics@@QEAA_NPEAVInputManager@@PEAVPlayer@@V?$vector@PEAVBullet@@V?$allocator@PEAVBullet@@@std@@@std@@V?$vector@PEAVEnemy@@V?$allocator@PEAVEnemy@@@std@@@5@V?$vector@PEAVGameObject@@V?$allocator@PEAVGameObject@@@std@@@5@V?$vector@PEAVPickup@@V?$allocator@PEAVPickup@@@std@@@5@@Z 00000001400361c8     graphicsclass.obj
 0002:000041f0       $cppxdata$?Initialize@Graphics@@QEAA_NHHPEAUHWND__@@PEAVInputManager@@@Z 00000001400361f0     graphicsclass.obj
 0002:00004218       $cppxdata$?_Reset_move@?$_Func_class@X$$V@std@@IEAAX$$QEAV12@@Z 0000000140036218     GameManager.obj
 0002:00004240       $cppxdata$??$?4V<lambda_ea09a75c222a66dc4a8fd8f581cf195d>@@X@?$function@$$A6AXXZ@std@@QEAAAEAV01@$$QEAV<lambda_ea09a75c222a66dc4a8fd8f581cf195d>@@@Z 0000000140036240     GameManager.obj
 0002:00004268       $cppxdata$?ShutDown@GameManager@@QEAAXXZ 0000000140036268     GameManager.obj
 0002:00004290       $cppxdata$?Initialize@GameManager@@QEAA_NHHPEAUHWND__@@@Z 0000000140036290     GameManager.obj
 0002:000042b8       $cppxdata$?Render@GameManager@@QEAA_NXZ 00000001400362b8     GameManager.obj
 0002:000042e0       $cppxdata$?Update@GameManager@@QEAAXMM@Z 00000001400362e0     GameManager.obj
 0002:00004308       $cppxdata$?SpawnDamagePickup@GameManager@@QEAAXUfloat3@@@Z 0000000140036308     GameManager.obj
 0002:00004330       $cppxdata$?SpawnHealthPickup@GameManager@@QEAAXUfloat3@@@Z 0000000140036330     GameManager.obj
 0002:00004358       $cppxdata$?ShootBullets@GameManager@@QEAAXXZ 0000000140036358     GameManager.obj
 0002:00004380       $cppxdata$?UpdateDamageTimerText@GameManager@@QEAAXXZ 0000000140036380     GameManager.obj
 0002:000043a8       $cppxdata$?UpdateCurrencyText@GameManager@@QEAAXXZ 00000001400363a8     GameManager.obj
 0002:000043d0       $cppxdata$?UpdateTimerText@GameManager@@QEAAXM@Z 00000001400363d0     GameManager.obj
 0002:000043f8       $cppxdata$?UpdateHealthText@GameManager@@QEAAXXZ 00000001400363f8     GameManager.obj
 0002:00004420       $cppxdata$?UpdateScoreText@GameManager@@QEAAXXZ 0000000140036420     GameManager.obj
 0002:00004448       $cppxdata$??0GameManager@@QEAA@XZ 0000000140036448     GameManager.obj
 0002:00004470       $cppxdata$?ReadMeshFile@Model@@AEAAXPEBDPEAUID3D11Device@@@Z 0000000140036470     Model.obj
 0002:00004498       $cppxdata$??$?HDU?$char_traits@D@std@@V?$allocator@D@1@@std@@YA?AV?$basic_string@DU?$char_traits@D@std@@V?$allocator@D@2@@0@QEBDAEBV10@@Z 0000000140036498     MyWindow.obj
 0002:000044c0       $cppxdata$?Initialize@MyWindow@@QEAA_NXZ 00000001400364c0     MyWindow.obj
 0002:000044e8       $cppxdata$?UpdateVolumeText@MyWindow@@AEAAXXZ 00000001400364e8     MyWindow.obj
 0002:00004510       $cppxdata$?UnlockAllGuns@GameManager@@QEAAXXZ 0000000140036510     MyWindow.obj
 0002:00004538       $cppxdata$?SetSkeletonLines@Player@@QEAA?AV?$vector@V?$array@Ufloat4@@$03@std@@V?$allocator@V?$array@Ufloat4@@$03@std@@@2@@std@@Uanim_clip@@0MM@Z 0000000140036538     Player.obj
 0002:00004560       $cppxdata$?Update@Player@@UEAAXM@Z 0000000140036560     Player.obj
 0002:00004588       $cppxdata$?Attack@RangedEnemy@@QEAAXPEAVPlayer@@AEAV?$vector@PEAVBullet@@V?$allocator@PEAVBullet@@@std@@@std@@PEAUID3D11Device@@PEAUHWND__@@@Z 0000000140036588     RangedEnemy.obj
 0002:000045b0       $cppxdata$??0RangedEnemy@@QEAA@XZ 00000001400365b0     RangedEnemy.obj
 0002:000045d8       $cppxdata$??$_Insert_nohint@AEAU?$pair@$$CBV?$basic_string@DU?$char_traits@D@std@@V?$allocator@D@2@@std@@PEAVUIElement@@@std@@PEAU?$_Tree_node@U?$pair@$$CBV?$basic_string@DU?$char_traits@D@std@@V?$allocator@D@2@@std@@PEAVUIElement@@@std@@PEAX@2@@?$_Tree@V?$_Tmap_traits@V?$basic_string@DU?$char_traits@D@std@@V?$allocator@D@2@@std@@PEAVUIElement@@U?$less@V?$basic_string@DU?$char_traits@D@std@@V?$allocator@D@2@@std@@@2@V?$allocator@U?$pair@$$CBV?$basic_string@DU?$char_traits@D@std@@V?$allocator@D@2@@std@@PEAVUIElement@@@std@@@2@$0A@@std@@@std@@IEAA?AU?$pair@V?$_Tree_iterator@V?$_Tree_val@U?$_Tree_simple_types@U?$pair@$$CBV?$basic_string@DU?$char_traits@D@std@@V?$allocator@D@2@@std@@PEAVUIElement@@@std@@@std@@@std@@@std@@_N@1@_NAEAU?$pair@$$CBV?$basic_string@DU?$char_traits@D@std@@V?$allocator@D@2@@std@@PEAVUIElement@@@1@PEAU?$_Tree_node@U?$pair@$$CBV?$basic_string@DU?$char_traits@D@std@@V?$allocator@D@2@@std@@PEAVUIElement@@@std@@PEAX@1@@Z 00000001400365d8     Shop.obj
 0002:000045d8       $cppxdata$??$_Insert_nohint@AEAU?$pair@$$CBV?$basic_string@DU?$char_traits@D@std@@V?$allocator@D@2@@std@@PEAUItem@Shop@@@std@@PEAU?$_Tree_node@U?$pair@$$CBV?$basic_string@DU?$char_traits@D@std@@V?$allocator@D@2@@std@@PEAUItem@Shop@@@std@@PEAX@2@@?$_Tree@V?$_Tmap_traits@V?$basic_string@DU?$char_traits@D@std@@V?$allocator@D@2@@std@@PEAUItem@Shop@@U?$less@V?$basic_string@DU?$char_traits@D@std@@V?$allocator@D@2@@std@@@2@V?$allocator@U?$pair@$$CBV?$basic_string@DU?$char_traits@D@std@@V?$allocator@D@2@@std@@PEAUItem@Shop@@@std@@@2@$0A@@std@@@std@@IEAA?AU?$pair@V?$_Tree_iterator@V?$_Tree_val@U?$_Tree_simple_types@U?$pair@$$CBV?$basic_string@DU?$char_traits@D@std@@V?$allocator@D@2@@std@@PEAUItem@Shop@@@std@@@std@@@std@@@std@@_N@1@_NAEAU?$pair@$$CBV?$basic_string@DU?$char_traits@D@std@@V?$allocator@D@2@@std@@PEAUItem@Shop@@@1@PEAU?$_Tree_node@U?$pair@$$CBV?$basic_string@DU?$char_traits@D@std@@V?$allocator@D@2@@std@@PEAUItem@Shop@@@std@@PEAX@1@@Z 00000001400365d8     Shop.obj
 0002:00004600       $cppxdata$??$_Insert_hint@AEAU?$pair@$$CBV?$basic_string@DU?$char_traits@D@std@@V?$allocator@D@2@@std@@PEAUItem@Shop@@@std@@PEAU?$_Tree_node@U?$pair@$$CBV?$basic_string@DU?$char_traits@D@std@@V?$allocator@D@2@@std@@PEAUItem@Shop@@@std@@PEAX@2@@?$_Tree@V?$_Tmap_traits@V?$basic_string@DU?$char_traits@D@std@@V?$allocator@D@2@@std@@PEAUItem@Shop@@U?$less@V?$basic_string@DU?$char_traits@D@std@@V?$allocator@D@2@@std@@@2@V?$allocator@U?$pair@$$CBV?$basic_string@DU?$char_traits@D@std@@V?$allocator@D@2@@std@@PEAUItem@Shop@@@std@@@2@$0A@@std@@@std@@IEAA?AV?$_Tree_iterator@V?$_Tree_val@U?$_Tree_simple_types@U?$pair@$$CBV?$basic_string@DU?$char_traits@D@std@@V?$allocator@D@2@@std@@PEAUItem@Shop@@@std@@@std@@@std@@@1@V?$_Tree_const_iterator@V?$_Tree_val@U?$_Tree_simple_types@U?$pair@$$CBV?$basic_string@DU?$char_traits@D@std@@V?$allocator@D@2@@std@@PEAUItem@Shop@@@std@@@std@@@std@@@1@AEAU?$pair@$$CBV?$basic_string@DU?$char_traits@D@std@@V?$allocator@D@2@@std@@PEAUItem@Shop@@@1@PEAU?$_Tree_node@U?$pair@$$CBV?$basic_string@DU?$char_traits@D@std@@V?$allocator@D@2@@std@@PEAUItem@Shop@@@std@@PEAX@1@@Z 0000000140036600     Shop.obj
 0002:00004600       $cppxdata$??$_Insert_hint@AEAU?$pair@$$CBV?$basic_string@DU?$char_traits@D@std@@V?$allocator@D@2@@std@@PEAVUIElement@@@std@@PEAU?$_Tree_node@U?$pair@$$CBV?$basic_string@DU?$char_traits@D@std@@V?$allocator@D@2@@std@@PEAVUIElement@@@std@@PEAX@2@@?$_Tree@V?$_Tmap_traits@V?$basic_string@DU?$char_traits@D@std@@V?$allocator@D@2@@std@@PEAVUIElement@@U?$less@V?$basic_string@DU?$char_traits@D@std@@V?$allocator@D@2@@std@@@2@V?$allocator@U?$pair@$$CBV?$basic_string@DU?$char_traits@D@std@@V?$allocator@D@2@@std@@PEAVUIElement@@@std@@@2@$0A@@std@@@std@@IEAA?AV?$_Tree_iterator@V?$_Tree_val@U?$_Tree_simple_types@U?$pair@$$CBV?$basic_string@DU?$char_traits@D@std@@V?$allocator@D@2@@std@@PEAVUIElement@@@std@@@std@@@std@@@1@V?$_Tree_const_iterator@V?$_Tree_val@U?$_Tree_simple_types@U?$pair@$$CBV?$basic_string@DU?$char_traits@D@std@@V?$allocator@D@2@@std@@PEAVUIElement@@@std@@@std@@@std@@@1@AEAU?$pair@$$CBV?$basic_string@DU?$char_traits@D@std@@V?$allocator@D@2@@std@@PEAVUIElement@@@1@PEAU?$_Tree_node@U?$pair@$$CBV?$basic_string@DU?$char_traits@D@std@@V?$allocator@D@2@@std@@PEAVUIElement@@@std@@PEAX@1@@Z 0000000140036600     Shop.obj
 0002:00004628       $cppxdata$?erase@?$_Tree@V?$_Tmap_traits@V?$basic_string@DU?$char_traits@D@std@@V?$allocator@D@2@@std@@PEAUItem@Shop@@U?$less@V?$basic_string@DU?$char_traits@D@std@@V?$allocator@D@2@@std@@@2@V?$allocator@U?$pair@$$CBV?$basic_string@DU?$char_traits@D@std@@V?$allocator@D@2@@std@@PEAUItem@Shop@@@std@@@2@$0A@@std@@@std@@QEAA?AV?$_Tree_iterator@V?$_Tree_val@U?$_Tree_simple_types@U?$pair@$$CBV?$basic_string@DU?$char_traits@D@std@@V?$allocator@D@2@@std@@PEAUItem@Shop@@@std@@@std@@@std@@@2@V?$_Tree_const_iterator@V?$_Tree_val@U?$_Tree_simple_types@U?$pair@$$CBV?$basic_string@DU?$char_traits@D@std@@V?$allocator@D@2@@std@@PEAUItem@Shop@@@std@@@std@@@std@@@2@0@Z 0000000140036628     Shop.obj
 0002:00004628       $cppxdata$?erase@?$_Tree@V?$_Tmap_traits@V?$basic_string@DU?$char_traits@D@std@@V?$allocator@D@2@@std@@PEAVUIElement@@U?$less@V?$basic_string@DU?$char_traits@D@std@@V?$allocator@D@2@@std@@@2@V?$allocator@U?$pair@$$CBV?$basic_string@DU?$char_traits@D@std@@V?$allocator@D@2@@std@@PEAVUIElement@@@std@@@2@$0A@@std@@@std@@QEAA?AV?$_Tree_iterator@V?$_Tree_val@U?$_Tree_simple_types@U?$pair@$$CBV?$basic_string@DU?$char_traits@D@std@@V?$allocator@D@2@@std@@PEAVUIElement@@@std@@@std@@@std@@@2@V?$_Tree_const_iterator@V?$_Tree_val@U?$_Tree_simple_types@U?$pair@$$CBV?$basic_string@DU?$char_traits@D@std@@V?$allocator@D@2@@std@@PEAVUIElement@@@std@@@std@@@std@@@2@0@Z 0000000140036628     Shop.obj
 0002:00004650       $cppxdata$?ShowMeleStats@Shop@@QEAAXXZ 0000000140036650     Shop.obj
 0002:00004678       $cppxdata$?ShowPistolStats@Shop@@QEAAXXZ 0000000140036678     Shop.obj
 0002:000046a0       $cppxdata$?ShowSMGStats@Shop@@QEAAXXZ 00000001400366a0     Shop.obj
 0002:000046c8       $cppxdata$?ShowARStats@Shop@@QEAAXXZ 00000001400366c8     Shop.obj
 0002:000046f0       $cppxdata$??0Item@Shop@@QEAA@W4WEAPONTYPE@1@MMMMV?$basic_string@DU?$char_traits@D@std@@V?$allocator@D@2@@std@@@Z 00000001400366f0     Shop.obj
 0002:00004718       $cppxdata$??1Shop@@QEAA@XZ 0000000140036718     Shop.obj
 0002:00004740       $cppxdata$?Update@Shop@@QEAAXXZ 0000000140036740     Shop.obj
 0002:00004768       $cppxdata$?Initialize@Shop@@QEAA_NXZ 0000000140036768     Shop.obj
 0002:00004790       $cppxdata$??1_Sentry_base@?$basic_ostream@DU?$char_traits@D@std@@@std@@QEAA@XZ 0000000140036790     SkyboxShader.obj
 0002:000047b8       $cppxdata$??1sentry@?$basic_ostream@DU?$char_traits@D@std@@@std@@QEAA@XZ 00000001400367b8     SkyboxShader.obj
 0002:000047e0       $cppxdata$??$?6U?$char_traits@D@std@@@std@@YAAEAV?$basic_ostream@DU?$char_traits@D@std@@@0@AEAV10@D@Z 00000001400367e0     SkyboxShader.obj
 0002:00004808       $cppxdata$??0?$basic_ofstream@DU?$char_traits@D@std@@@std@@QEAA@XZ 0000000140036808     SkyboxShader.obj
 0002:00004830       $cppxdata$?ProcessShaderErrors@StaticShader@@AEAAXPEAUID3D10Blob@@@Z 0000000140036830     StaticShader.obj
 0002:00004830       $cppxdata$?ProcessShaderErrors@SkyboxShader@@AEAAXPEAUID3D10Blob@@@Z 0000000140036830     SkyboxShader.obj
 0002:00004830       $cppxdata$?ProcessShaderErrors@AnimatedShader@@AEAAXPEAUID3D10Blob@@@Z 0000000140036830     shaderstuff.obj
 0002:00004858       $cppxdata$??0TextElement@@QEAA@UtagRECT@@_N1Ufloat2@@HPEAD@Z 0000000140036858     UIElement.obj
 0002:00004880       $cppxdata$??1UIElement@@QEAA@XZ 0000000140036880     UIElement.obj
 0002:000048a8       $cppxdata$??0Target@@QEAA@XZ 00000001400368a8     Target.obj
 0002:000048d0       $cppxdata$?CreateText@UIManager@@QEAAPEAVUIElement@@UtagRECT@@_N1Ufloat2@@HV?$basic_string@DU?$char_traits@D@std@@V?$allocator@D@2@@std@@@Z 00000001400368d0     UIManager.obj
 0002:000048f8       $cppxdata$?CreateButton@UIManager@@QEAAPEAVUIElement@@UtagRECT@@_N1Ufloat2@@PEAUID3D11Device@@HPEBD@Z 00000001400368f8     UIManager.obj
 0002:00004920       $cppxdata$?CreateImage@UIManager@@QEAAPEAVUIElement@@UtagRECT@@_N1Ufloat2@@PEBDPEAUID3D11Device@@@Z 0000000140036920     UIManager.obj
 0002:00004948       $cppxdata$?CreateText@UIManager@@QEAAPEAVUIElement@@UtagRECT@@_N1Ufloat2@@HPEBD@Z 0000000140036948     UIManager.obj
 0002:00004970       $cppxdata$?CreateWICTextureFromFileEx@DirectX@@YAJPEAUID3D11Device@@PEAUID3D11DeviceContext@@PEB_W_KW4D3D11_USAGE@@IIIIPEAPEAUID3D11Resource@@PEAPEAUID3D11ShaderResourceView@@@Z 0000000140036970     WICTextureLoader.obj
 0002:00004998       $cppxdata$?CreateTextureFromWIC@?A0x045efb5a@@YAJPEAUID3D11Device@@PEAUID3D11DeviceContext@@PEAUIWICBitmapFrameDecode@@_KW4D3D11_USAGE@@IIIIPEAPEAUID3D11Resource@@PEAPEAUID3D11ShaderResourceView@@@Z 0000000140036998     WICTextureLoader.obj
 0002:000049c0       $cppxdata$?_WICBitsPerPixel@?A0x045efb5a@@YA_KAEBU_GUID@@@Z 00000001400369c0     WICTextureLoader.obj
 0002:000049e8       $cppxdata$?UpdateShaderBuffers@AnimatedShader@@AEAA_NPEAUID3D11DeviceContext@@UXMMATRIX@DirectX@@11PEAUID3D11ShaderResourceView@@UXMFLOAT3@4@UXMFLOAT4@4@V?$vector@V?$array@Ufloat4@@$03@std@@V?$allocator@V?$array@Ufloat4@@$03@std@@@2@@std@@QEAU74@64444444_N7@Z 00000001400369e8     shaderstuff.obj
 0002:00005b30       ??_R2?$_Func_impl_no_alloc@V<lambda_ea09a75c222a66dc4a8fd8f581cf195d>@@X$$V@std@@8 0000000140037b30     GameManager.obj
 0002:00005b48       ??_R1A@?0A@EA@?$_Func_impl_no_alloc@V<lambda_ea09a75c222a66dc4a8fd8f581cf195d>@@X$$V@std@@8 0000000140037b48     GameManager.obj
 0002:00005b88       ??_R3?$_Func_impl_no_alloc@V<lambda_ea09a75c222a66dc4a8fd8f581cf195d>@@X$$V@std@@8 0000000140037b88     GameManager.obj
 0002:00005bd8       ??_R4?$_Func_impl_no_alloc@V<lambda_ea09a75c222a66dc4a8fd8f581cf195d>@@X$$V@std@@6B@ 0000000140037bd8     GameManager.obj
 0002:00005c00       ??_R3?$_Func_impl_no_alloc@V<lambda_b4a53c077c995d59bbbf64eaab978451>@@X$$V@std@@8 0000000140037c00     MyWindow.obj
 0002:00005c18       ??_R4?$_Func_impl_no_alloc@V<lambda_7ba90ac09ace4fd13a72d7fcbdbe9896>@@X$$V@std@@6B@ 0000000140037c18     MyWindow.obj
 0002:00005c40       ??_R3?$_Func_impl_no_alloc@V<lambda_316fddc45de15bd5944b69ecaf017b5b>@@X$$V@std@@8 0000000140037c40     MyWindow.obj
 0002:00005c58       ??_R2?$_Func_impl_no_alloc@V<lambda_7ba90ac09ace4fd13a72d7fcbdbe9896>@@X$$V@std@@8 0000000140037c58     MyWindow.obj
 0002:00005c70       ??_R1A@?0A@EA@?$_Func_impl_no_alloc@V<lambda_9e4ed57b88b9c2c95c2ae8d71a5c4f48>@@X$$V@std@@8 0000000140037c70     MyWindow.obj
 0002:00005c98       ??_R1A@?0A@EA@?$_Func_impl_no_alloc@V<lambda_f96e08f4b5f6c13e985e24a004212e97>@@X$$V@std@@8 0000000140037c98     MyWindow.obj
 0002:00005cc0       ??_R1A@?0A@EA@?$_Func_impl_no_alloc@V<lambda_7ba90ac09ace4fd13a72d7fcbdbe9896>@@X$$V@std@@8 0000000140037cc0     MyWindow.obj
 0002:00005ce8       ??_R1A@?0A@EA@?$_Func_impl_no_alloc@V<lambda_d4055856ce15bf5a038765fc22a083fd>@@X$$V@std@@8 0000000140037ce8     MyWindow.obj
 0002:00005d10       ??_R3?$_Func_impl_no_alloc@V<lambda_867072a19d70b98a44a25bc7dba15d51>@@X$$V@std@@8 0000000140037d10     MyWindow.obj
 0002:00005d28       ??_R2?$_Func_impl_no_alloc@V<lambda_3775f2d2be3acf40b03245c878d70ee1>@@X$$V@std@@8 0000000140037d28     MyWindow.obj
 0002:00005d40       ??_R4?$_Func_impl_no_alloc@V<lambda_867072a19d70b98a44a25bc7dba15d51>@@X$$V@std@@6B@ 0000000140037d40     MyWindow.obj
 0002:00005d68       ??_R4?$_Func_impl_no_alloc@V<lambda_9e4ed57b88b9c2c95c2ae8d71a5c4f48>@@X$$V@std@@6B@ 0000000140037d68     MyWindow.obj
 0002:00005d90       ??_R2?$_Func_impl_no_alloc@V<lambda_d4055856ce15bf5a038765fc22a083fd>@@X$$V@std@@8 0000000140037d90     MyWindow.obj
 0002:00005da8       ??_R3?$_Func_impl_no_alloc@V<lambda_3775f2d2be3acf40b03245c878d70ee1>@@X$$V@std@@8 0000000140037da8     MyWindow.obj
 0002:00005dc0       ??_R3?$_Func_impl_no_alloc@V<lambda_9e4ed57b88b9c2c95c2ae8d71a5c4f48>@@X$$V@std@@8 0000000140037dc0     MyWindow.obj
 0002:00005dd8       ??_R2?$_Func_impl_no_alloc@V<lambda_9e4ed57b88b9c2c95c2ae8d71a5c4f48>@@X$$V@std@@8 0000000140037dd8     MyWindow.obj
 0002:00005df0       ??_R4?$_Func_impl_no_alloc@V<lambda_316fddc45de15bd5944b69ecaf017b5b>@@X$$V@std@@6B@ 0000000140037df0     MyWindow.obj
 0002:00005e18       ??_R3?$_Func_impl_no_alloc@V<lambda_7515c2ed02c6d150075468e8ebe50eeb>@@X$$V@std@@8 0000000140037e18     MyWindow.obj
 0002:00005e30       ??_R2?$_Func_impl_no_alloc@V<lambda_f96e08f4b5f6c13e985e24a004212e97>@@X$$V@std@@8 0000000140037e30     MyWindow.obj
 0002:00005e48       ??_R2?$_Func_impl_no_alloc@V<lambda_7515c2ed02c6d150075468e8ebe50eeb>@@X$$V@std@@8 0000000140037e48     MyWindow.obj
 0002:00005e60       ??_R4?$_Func_impl_no_alloc@V<lambda_d4055856ce15bf5a038765fc22a083fd>@@X$$V@std@@6B@ 0000000140037e60     MyWindow.obj
 0002:00005e88       ??_R4?$_Func_impl_no_alloc@V<lambda_f96e08f4b5f6c13e985e24a004212e97>@@X$$V@std@@6B@ 0000000140037e88     MyWindow.obj
 0002:00005eb0       ??_R3?$_Func_impl_no_alloc@V<lambda_f96e08f4b5f6c13e985e24a004212e97>@@X$$V@std@@8 0000000140037eb0     MyWindow.obj
 0002:00005ec8       ??_R3?$_Func_impl_no_alloc@V<lambda_7ba90ac09ace4fd13a72d7fcbdbe9896>@@X$$V@std@@8 0000000140037ec8     MyWindow.obj
 0002:00005ee0       ??_R3?$_Func_impl_no_alloc@V<lambda_d4055856ce15bf5a038765fc22a083fd>@@X$$V@std@@8 0000000140037ee0     MyWindow.obj
 0002:00005ef8       ??_R1A@?0A@EA@?$_Func_impl_no_alloc@V<lambda_316fddc45de15bd5944b69ecaf017b5b>@@X$$V@std@@8 0000000140037ef8     MyWindow.obj
 0002:00005f20       ??_R2?$_Func_impl_no_alloc@V<lambda_316fddc45de15bd5944b69ecaf017b5b>@@X$$V@std@@8 0000000140037f20     MyWindow.obj
 0002:00005f38       ??_R1A@?0A@EA@?$_Func_impl_no_alloc@V<lambda_3775f2d2be3acf40b03245c878d70ee1>@@X$$V@std@@8 0000000140037f38     MyWindow.obj
 0002:00005f60       ??_R4?$_Func_impl_no_alloc@V<lambda_3775f2d2be3acf40b03245c878d70ee1>@@X$$V@std@@6B@ 0000000140037f60     MyWindow.obj
 0002:00005f88       ??_R1A@?0A@EA@?$_Func_impl_no_alloc@V<lambda_b4a53c077c995d59bbbf64eaab978451>@@X$$V@std@@8 0000000140037f88     MyWindow.obj
 0002:00005fb0       ??_R4?$_Func_impl_no_alloc@V<lambda_7515c2ed02c6d150075468e8ebe50eeb>@@X$$V@std@@6B@ 0000000140037fb0     MyWindow.obj
 0002:00005fd8       ??_R2?$_Func_impl_no_alloc@V<lambda_b4a53c077c995d59bbbf64eaab978451>@@X$$V@std@@8 0000000140037fd8     MyWindow.obj
 0002:00005ff0       ??_R1A@?0A@EA@?$_Func_impl_no_alloc@V<lambda_7515c2ed02c6d150075468e8ebe50eeb>@@X$$V@std@@8 0000000140037ff0     MyWindow.obj
 0002:00006018       ??_R4?$_Func_impl_no_alloc@V<lambda_b4a53c077c995d59bbbf64eaab978451>@@X$$V@std@@6B@ 0000000140038018     MyWindow.obj
 0002:00006040       ??_R2?$_Func_impl_no_alloc@V<lambda_867072a19d70b98a44a25bc7dba15d51>@@X$$V@std@@8 0000000140038040     MyWindow.obj
 0002:00006058       ??_R1A@?0A@EA@?$_Func_impl_no_alloc@V<lambda_867072a19d70b98a44a25bc7dba15d51>@@X$$V@std@@8 0000000140038058     MyWindow.obj
 0002:00006208       ??_R4?$_Func_impl_no_alloc@V<lambda_d2a719c930d707c67105e86afa12be81>@@X$$V@std@@6B@ 0000000140038208     Shop.obj
 0002:00006230       ??_R2?$_Func_impl_no_alloc@V<lambda_3de1022e0e4f3428918652e077d8319b>@@X$$V@std@@8 0000000140038230     Shop.obj
 0002:00006248       ??_R3?$_Func_impl_no_alloc@V<lambda_3de1022e0e4f3428918652e077d8319b>@@X$$V@std@@8 0000000140038248     Shop.obj
 0002:00006260       ??_R4?$_Func_impl_no_alloc@V<lambda_3de1022e0e4f3428918652e077d8319b>@@X$$V@std@@6B@ 0000000140038260     Shop.obj
 0002:00006288       ??_R2?$_Func_impl_no_alloc@V<lambda_414998facd772942244f71127261ad86>@@X$$V@std@@8 0000000140038288     Shop.obj
 0002:000062a0       ??_R2?$_Func_impl_no_alloc@V<lambda_e4cb84e2ef1f0348c8ad9af04ceb4c4f>@@X$$V@std@@8 00000001400382a0     Shop.obj
 0002:000062b8       ??_R4?$_Func_impl_no_alloc@V<lambda_414998facd772942244f71127261ad86>@@X$$V@std@@6B@ 00000001400382b8     Shop.obj
 0002:000062e0       ??_R3?$_Func_impl_no_alloc@V<lambda_e15a1fae8d706ca9371bd1c03b271ef7>@@X$$V@std@@8 00000001400382e0     Shop.obj
 0002:000062f8       ??_R4?$_Func_impl_no_alloc@V<lambda_e15a1fae8d706ca9371bd1c03b271ef7>@@X$$V@std@@6B@ 00000001400382f8     Shop.obj
 0002:00006320       ??_R4?$_Func_impl_no_alloc@V<lambda_e4cb84e2ef1f0348c8ad9af04ceb4c4f>@@X$$V@std@@6B@ 0000000140038320     Shop.obj
 0002:00006348       ??_R3?$_Func_impl_no_alloc@V<lambda_e4cb84e2ef1f0348c8ad9af04ceb4c4f>@@X$$V@std@@8 0000000140038348     Shop.obj
 0002:00006360       ??_R2?$_Func_impl_no_alloc@V<lambda_d2a719c930d707c67105e86afa12be81>@@X$$V@std@@8 0000000140038360     Shop.obj
 0002:00006378       ??_R3?$_Func_impl_no_alloc@V<lambda_d2a719c930d707c67105e86afa12be81>@@X$$V@std@@8 0000000140038378     Shop.obj
 0002:00006390       ??_R3?$_Func_impl_no_alloc@V<lambda_414998facd772942244f71127261ad86>@@X$$V@std@@8 0000000140038390     Shop.obj
 0002:000063a8       ??_R1A@?0A@EA@?$_Func_impl_no_alloc@V<lambda_3de1022e0e4f3428918652e077d8319b>@@X$$V@std@@8 00000001400383a8     Shop.obj
 0002:000063d0       ??_R1A@?0A@EA@?$_Func_impl_no_alloc@V<lambda_414998facd772942244f71127261ad86>@@X$$V@std@@8 00000001400383d0     Shop.obj
 0002:000063f8       ??_R2?$_Func_impl_no_alloc@V<lambda_e15a1fae8d706ca9371bd1c03b271ef7>@@X$$V@std@@8 00000001400383f8     Shop.obj
 0002:00006410       ??_R1A@?0A@EA@?$_Func_impl_no_alloc@V<lambda_e15a1fae8d706ca9371bd1c03b271ef7>@@X$$V@std@@8 0000000140038410     Shop.obj
 0002:00006438       ??_R1A@?0A@EA@?$_Func_impl_no_alloc@V<lambda_d2a719c930d707c67105e86afa12be81>@@X$$V@std@@8 0000000140038438     Shop.obj
 0002:00006460       ??_R1A@?0A@EA@?$_Func_impl_no_alloc@V<lambda_e4cb84e2ef1f0348c8ad9af04ceb4c4f>@@X$$V@std@@8 0000000140038460     Shop.obj
 0002:00006c10       $unwind$??0runtime_error@std@@QEAA@AEBV01@@Z 0000000140038c10     DirectXTK:SpriteFont.obj
 0002:00006c10       $unwind$??1CommonStates@DirectX@@UEAA@XZ 0000000140038c10     DirectXTK:CommonStates.obj
 0002:00006c10       $unwind$?PlayWaveFile@Sound@@QEAA_NXZ 0000000140038c10     Sound.obj
 0002:00006c10       $unwind$??$_Buynode@AEBUpiecewise_construct_t@std@@V?$tuple@$$QEAV?$basic_string@DU?$char_traits@D@std@@V?$allocator@D@2@@std@@@2@V?$tuple@$$V@2@@?$_Tree_comp_alloc@V?$_Tmap_traits@V?$basic_string@DU?$char_traits@D@std@@V?$allocator@D@2@@std@@PEAUItem@Shop@@U?$less@V?$basic_string@DU?$char_traits@D@std@@V?$allocator@D@2@@std@@@2@V?$allocator@U?$pair@$$CBV?$basic_string@DU?$char_traits@D@std@@V?$allocator@D@2@@std@@PEAUItem@Shop@@@std@@@2@$0A@@std@@@std@@QEAAPEAU?$_Tree_node@U?$pair@$$CBV?$basic_string@DU?$char_traits@D@std@@V?$allocator@D@2@@std@@PEAUItem@Shop@@@std@@PEAX@1@AEBUpiecewise_construct_t@1@$$QEAV?$tuple@$$QEAV?$basic_string@DU?$char_traits@D@std@@V?$allocator@D@2@@std@@@1@$$QEAV?$tuple@$$V@1@@Z 0000000140038c10     Shop.obj
 0002:00006c10       $unwind$?_Destroy_if_node@?$_Tree@V?$_Tmap_traits@PEAUID3D11DeviceContext@@V?$weak_ptr@UContextResources@Impl@SpriteBatch@DirectX@@@std@@U?$less@PEAUID3D11DeviceContext@@@3@V?$allocator@U?$pair@QEAUID3D11DeviceContext@@V?$weak_ptr@UContextResources@Impl@SpriteBatch@DirectX@@@std@@@std@@@3@$0A@@std@@@std@@IEAAXPEAU?$_Tree_node@U?$pair@QEAUID3D11DeviceContext@@V?$weak_ptr@UContextResources@Impl@SpriteBatch@DirectX@@@std@@@std@@PEAX@2@@Z 0000000140038c10     DirectXTK:SpriteBatch.obj
 0002:00006c10       $unwind$?_Tidy@?$vector@V?$array@Ufloat4@@$03@std@@V?$allocator@V?$array@Ufloat4@@$03@std@@@2@@std@@AEAAXXZ 0000000140038c10     Animation.obj
 0002:00006c10       $unwind$??R<lambda_7515c2ed02c6d150075468e8ebe50eeb>@@QEBAXXZ 0000000140038c10     MyWindow.obj
 0002:00006c10       $unwind$?pre_c_initialization@@YAHXZ 0000000140038c10     MSVCRT:exe_winmain.obj
 0002:00006c10       $unwind$??1?$shared_ptr@UWrappedData@?$SharedResourcePool@PEAUID3D11DeviceContext@@UContextResources@Impl@SpriteBatch@DirectX@@$$V@DirectX@@@std@@QEAA@XZ 0000000140038c10     DirectXTK:SpriteBatch.obj
 0002:00006c10       $unwind$??0exception@std@@QEAA@AEBV01@@Z 0000000140038c10     Animation.obj
 0002:00006c10       $unwind$?_Tidy@?$vector@Ukeyframe@@V?$allocator@Ukeyframe@@@std@@@std@@AEAAXXZ 0000000140038c10     Animation.obj
 0002:00006c10       $unwind$??1?$vector@PEBUSpriteInfo@Impl@SpriteBatch@DirectX@@V?$allocator@PEBUSpriteInfo@Impl@SpriteBatch@DirectX@@@std@@@std@@QEAA@XZ 0000000140038c10     DirectXTK:SpriteBatch.obj
 0002:00006c10       $unwind$??1?$shared_ptr@UWrappedData@?$SharedResourcePool@PEAUID3D11Device@@VImpl@CommonStates@DirectX@@$$V@DirectX@@@std@@QEAA@XZ 0000000140038c10     DirectXTK:CommonStates.obj
 0002:00006c10       $unwind$??1?$pair@PEAUID3D11Device@@V?$shared_ptr@UWrappedData@?$SharedResourcePool@PEAUID3D11Device@@VImpl@CommonStates@DirectX@@$$V@DirectX@@@std@@@std@@QEAA@XZ 0000000140038c10     DirectXTK:CommonStates.obj
 0002:00006c10       $unwind$??_G?$_Ref_count_obj@UWrappedData@?$SharedResourcePool@PEAUID3D11Device@@VImpl@CommonStates@DirectX@@$$V@DirectX@@@std@@UEAAPEAXI@Z 0000000140038c10     DirectXTK:CommonStates.obj
 0002:00006c10       $unwind$??1?$vector@UGlyph@SpriteFont@DirectX@@V?$allocator@UGlyph@SpriteFont@DirectX@@@std@@@std@@QEAA@XZ 0000000140038c10     DirectXTK:SpriteFont.obj
 0002:00006c10       $unwind$??1?$vector@USphere@@V?$allocator@USphere@@@std@@@std@@QEAA@XZ 0000000140038c10     GameObject.obj
 0002:00006c10       $unwind$??1?$pair@PEAUID3D11DeviceContext@@V?$shared_ptr@UWrappedData@?$SharedResourcePool@PEAUID3D11DeviceContext@@UContextResources@Impl@SpriteBatch@DirectX@@$$V@DirectX@@@std@@@std@@QEAA@XZ 0000000140038c10     DirectXTK:SpriteBatch.obj
 0002:00006c10       $unwind$?setbuf@?$basic_filebuf@DU?$char_traits@D@std@@@std@@MEAAPEAV?$basic_streambuf@DU?$char_traits@D@std@@@2@PEAD_J@Z 0000000140038c10     Animation.obj
 0002:00006c10       $unwind$?Update@Bullet@@UEAAXM@Z 0000000140038c10     Bullet.obj
 0002:00006c10       $unwind$??_G?$_Ref_count_obj@UResourceMap@?$SharedResourcePool@PEAUID3D11Device@@VImpl@CommonStates@DirectX@@$$V@DirectX@@@std@@UEAAPEAXI@Z 0000000140038c10     DirectXTK:CommonStates.obj
 0002:00006c10       $unwind$??1?$vector@FV?$allocator@F@std@@@std@@QEAA@XZ 0000000140038c10     DirectXTK:SpriteBatch.obj
 0002:00006c10       $unwind$??_G?$_Ref_count_obj@UWrappedData@?$SharedResourcePool@PEAUID3D11DeviceContext@@UContextResources@Impl@SpriteBatch@DirectX@@$$V@DirectX@@@std@@UEAAPEAXI@Z 0000000140038c10     DirectXTK:SpriteBatch.obj
 0002:00006c10       $unwind$_onexit            0000000140038c10     MSVCRT:utility.obj
 0002:00006c10       $unwind$?_Destroy_if_node@?$_Tree@V?$_Tmap_traits@PEAUID3D11Device@@V?$weak_ptr@UDeviceResources@Impl@SpriteBatch@DirectX@@@std@@U?$less@PEAUID3D11Device@@@3@V?$allocator@U?$pair@QEAUID3D11Device@@V?$weak_ptr@UDeviceResources@Impl@SpriteBatch@DirectX@@@std@@@std@@@3@$0A@@std@@@std@@IEAAXPEAU?$_Tree_node@U?$pair@QEAUID3D11Device@@V?$weak_ptr@UDeviceResources@Impl@SpriteBatch@DirectX@@@std@@@std@@PEAX@2@@Z 0000000140038c10     DirectXTK:SpriteBatch.obj
 0002:00006c10       $unwind$?SetText@TextElement@@QEAAXV?$basic_string@DU?$char_traits@D@std@@V?$allocator@D@2@@std@@@Z 0000000140038c10     GameManager.obj
 0002:00006c10       $unwind$??$_Buynode@AEBUpiecewise_construct_t@std@@V?$tuple@$$QEAV?$basic_string@DU?$char_traits@D@std@@V?$allocator@D@2@@std@@@2@V?$tuple@$$V@2@@?$_Tree_comp_alloc@V?$_Tmap_traits@V?$basic_string@DU?$char_traits@D@std@@V?$allocator@D@2@@std@@PEAVUIElement@@U?$less@V?$basic_string@DU?$char_traits@D@std@@V?$allocator@D@2@@std@@@2@V?$allocator@U?$pair@$$CBV?$basic_string@DU?$char_traits@D@std@@V?$allocator@D@2@@std@@PEAVUIElement@@@std@@@2@$0A@@std@@@std@@QEAAPEAU?$_Tree_node@U?$pair@$$CBV?$basic_string@DU?$char_traits@D@std@@V?$allocator@D@2@@std@@PEAVUIElement@@@std@@PEAX@1@AEBUpiecewise_construct_t@1@$$QEAV?$tuple@$$QEAV?$basic_string@DU?$char_traits@D@std@@V?$allocator@D@2@@std@@@1@$$QEAV?$tuple@$$V@1@@Z 0000000140038c10     Shop.obj
 0002:00006c10       $unwind$_Init_thread_wait  0000000140038c10     MSVCRT:thread_safe_statics.obj
 0002:00006c10       $unwind$??0CommonStates@DirectX@@QEAA@PEAUID3D11Device@@@Z 0000000140038c10     DirectXTK:CommonStates.obj
 0002:00006c10       $unwind$??_D?$basic_ofstream@DU?$char_traits@D@std@@@std@@QEAAXXZ 0000000140038c10     SkyboxShader.obj
 0002:00006c10       $unwind$??0bad_cast@std@@QEAA@AEBV01@@Z 0000000140038c10     Animation.obj
 0002:00006c10       $unwind$?_Tidy@?$vector@PEAVSound@@V?$allocator@PEAVSound@@@std@@@std@@AEAAXXZ 0000000140038c10     EnemyManager.obj
 0002:00006c10       $unwind$??1?$vector@PEAVSound@@V?$allocator@PEAVSound@@@std@@@std@@QEAA@XZ 0000000140038c10     EnemyManager.obj
 0002:00006c10       $unwind$??1?$vector@PEAVEnemy@@V?$allocator@PEAVEnemy@@@std@@@std@@QEAA@XZ 0000000140038c10     EnemyManager.obj
 0002:00006c10       $unwind$?sync@?$basic_filebuf@DU?$char_traits@D@std@@@std@@MEAAHXZ 0000000140038c10     Animation.obj
 0002:00006c10       $unwind$_Init_thread_footer 0000000140038c10     MSVCRT:thread_safe_statics.obj
 0002:00006c10       $unwind$_Init_thread_header 0000000140038c10     MSVCRT:thread_safe_statics.obj
 0002:00006c10       $unwind$__scrt_release_startup_lock 0000000140038c10     MSVCRT:utility.obj
 0002:00006c10       $unwind$?underflow@?$basic_filebuf@DU?$char_traits@D@std@@@std@@MEAAHXZ 0000000140038c10     Animation.obj
 0002:00006c10       $unwind$__scrt_initialize_crt 0000000140038c10     MSVCRT:utility.obj
 0002:00006c10       $unwind$??1?$vector@PEAVGameObject@@V?$allocator@PEAVGameObject@@@std@@@std@@QEAA@XZ 0000000140038c10     EnemyManager.obj
 0002:00006c10       $unwind$__scrt_uninitialize_crt 0000000140038c10     MSVCRT:utility.obj
 0002:00006c10       $unwind$?StartNewRound@EnemyManager@@QEAAXXZ 0000000140038c10     EnemyManager.obj
 0002:00006c10       $unwind$??0overflow_error@std@@QEAA@AEBV01@@Z 0000000140038c10     DirectXTK:SpriteFont.obj
 0002:00006c10       $unwind$??_Gtype_info@@UEAAPEAXI@Z 0000000140038c10     MSVCRT:std_type_info_static.obj
 0002:00006c10       $unwind$?_Destroy_if_node@?$_Tree@V?$_Tmap_traits@V?$basic_string@DU?$char_traits@D@std@@V?$allocator@D@2@@std@@PEAVUIElement@@U?$less@V?$basic_string@DU?$char_traits@D@std@@V?$allocator@D@2@@std@@@2@V?$allocator@U?$pair@$$CBV?$basic_string@DU?$char_traits@D@std@@V?$allocator@D@2@@std@@PEAVUIElement@@@std@@@2@$0A@@std@@@std@@IEAAXPEAU?$_Tree_node@U?$pair@$$CBV?$basic_string@DU?$char_traits@D@std@@V?$allocator@D@2@@std@@PEAVUIElement@@@std@@PEAX@2@@Z 0000000140038c10     Shop.obj
 0002:00006c10       $unwind$?_Buynode0@?$_Tree_comp_alloc@V?$_Tmap_traits@V?$basic_string@DU?$char_traits@D@std@@V?$allocator@D@2@@std@@PEAVUIElement@@U?$less@V?$basic_string@DU?$char_traits@D@std@@V?$allocator@D@2@@std@@@2@V?$allocator@U?$pair@$$CBV?$basic_string@DU?$char_traits@D@std@@V?$allocator@D@2@@std@@PEAVUIElement@@@std@@@2@$0A@@std@@@std@@QEAAPEAU?$_Tree_node@U?$pair@$$CBV?$basic_string@DU?$char_traits@D@std@@V?$allocator@D@2@@std@@PEAVUIElement@@@std@@PEAX@2@XZ 0000000140038c10     Shop.obj
 0002:00006c10       $unwind$??1?$shared_ptr@UWrappedData@?$SharedResourcePool@PEAUID3D11Device@@UDeviceResources@Impl@SpriteBatch@DirectX@@$$V@DirectX@@@std@@QEAA@XZ 0000000140038c10     DirectXTK:SpriteBatch.obj
 0002:00006c10       $unwind$??1?$vector@HV?$allocator@H@std@@@std@@QEAA@XZ 0000000140038c10     Animation.obj
 0002:00006c10       $unwind$??1?$vector@IV?$allocator@I@std@@@std@@QEAA@XZ 0000000140038c10     graphicsclass.obj
 0002:00006c10       $unwind$?_Destroy_if_node@?$_Tree@V?$_Tmap_traits@V?$basic_string@DU?$char_traits@D@std@@V?$allocator@D@2@@std@@PEAUItem@Shop@@U?$less@V?$basic_string@DU?$char_traits@D@std@@V?$allocator@D@2@@std@@@2@V?$allocator@U?$pair@$$CBV?$basic_string@DU?$char_traits@D@std@@V?$allocator@D@2@@std@@PEAUItem@Shop@@@std@@@2@$0A@@std@@@std@@IEAAXPEAU?$_Tree_node@U?$pair@$$CBV?$basic_string@DU?$char_traits@D@std@@V?$allocator@D@2@@std@@PEAUItem@Shop@@@std@@PEAX@2@@Z 0000000140038c10     Shop.obj
 0002:00006c10       $unwind$?_Buynode0@?$_Tree_comp_alloc@V?$_Tmap_traits@V?$basic_string@DU?$char_traits@D@std@@V?$allocator@D@2@@std@@PEAUItem@Shop@@U?$less@V?$basic_string@DU?$char_traits@D@std@@V?$allocator@D@2@@std@@@2@V?$allocator@U?$pair@$$CBV?$basic_string@DU?$char_traits@D@std@@V?$allocator@D@2@@std@@PEAUItem@Shop@@@std@@@2@$0A@@std@@@std@@QEAAPEAU?$_Tree_node@U?$pair@$$CBV?$basic_string@DU?$char_traits@D@std@@V?$allocator@D@2@@std@@PEAUItem@Shop@@@std@@PEAX@2@XZ 0000000140038c10     Shop.obj
 0002:00006c10       $unwind$??__F?contextResourcesPool@Impl@SpriteBatch@DirectX@@0V?$SharedResourcePool@PEAUID3D11DeviceContext@@UContextResources@Impl@SpriteBatch@DirectX@@$$V@3@A@@YAXXZ 0000000140038c10     DirectXTK:SpriteBatch.obj
 0002:00006c10       $unwind$??0bad_alloc@std@@QEAA@AEBV01@@Z 0000000140038c10     DirectXTK:SpriteBatch.obj
 0002:00006c10       $unwind$??1?$vector@V?$array@Ufloat4@@$03@std@@V?$allocator@V?$array@Ufloat4@@$03@std@@@2@@std@@QEAA@XZ 0000000140038c10     Animation.obj
 0002:00006c10       $unwind$__raise_securityfailure 0000000140038c10     MSVCRT:gs_report.obj
 0002:00006c10       $unwind$?_Tidy_deallocate@?$basic_string@DU?$char_traits@D@std@@V?$allocator@D@2@@std@@QEAAXXZ 0000000140038c10     Animation.obj
 0002:00006c10       $unwind$??0bad_array_new_length@std@@QEAA@AEBV01@@Z 0000000140038c10     MSVCRT:throw_bad_alloc.obj
 0002:00006c10       $unwind$?_Facet_Register@std@@YAXPEAV_Facet_base@1@@Z 0000000140038c10     msvcprt:locale0_implib.obj
 0002:00006c10       $unwind$??__F?instancePool@Impl@CommonStates@DirectX@@2V?$SharedResourcePool@PEAUID3D11Device@@VImpl@CommonStates@DirectX@@$$V@3@A@@YAXXZ 0000000140038c10     DirectXTK:CommonStates.obj
 0002:00006c10       $unwind$??__F?deviceResourcesPool@Impl@SpriteBatch@DirectX@@0V?$SharedResourcePool@PEAUID3D11Device@@UDeviceResources@Impl@SpriteBatch@DirectX@@$$V@3@A@@YAXXZ 0000000140038c10     DirectXTK:SpriteBatch.obj
 0002:00006c10       $unwind$??2@YAPEAX_K@Z     0000000140038c10     MSVCRT:new_scalar.obj
 0002:00006c10       $unwind$?_Tidy@?$vector@USphere@@V?$allocator@USphere@@@std@@@std@@AEAAXXZ 0000000140038c10     GameObject.obj
 0002:00006c10       $unwind$??1?$vector@PEAVGun@@V?$allocator@PEAVGun@@@std@@@std@@QEAA@XZ 0000000140038c10     MyWindow.obj
 0002:00006c10       $unwind$??_D?$basic_fstream@DU?$char_traits@D@std@@@std@@QEAAXXZ 0000000140038c10     Animation.obj
 0002:00006c10       $unwind$??1?$vector@PEAVPickup@@V?$allocator@PEAVPickup@@@std@@@std@@QEAA@XZ 0000000140038c10     graphicsclass.obj
 0002:00006c10       $unwind$?GetSounds@GameObject@@QEAA?AV?$vector@PEAVSound@@V?$allocator@PEAVSound@@@std@@@std@@XZ 0000000140038c10     GameManager.obj
 0002:00006c10       $unwind$??_G?$_Ref_count_obj@UResourceMap@?$SharedResourcePool@PEAUID3D11Device@@UDeviceResources@Impl@SpriteBatch@DirectX@@$$V@DirectX@@@std@@UEAAPEAXI@Z 0000000140038c10     DirectXTK:SpriteBatch.obj
 0002:00006c10       $unwind$??1?$pair@PEAUID3D11Device@@V?$shared_ptr@UWrappedData@?$SharedResourcePool@PEAUID3D11Device@@UDeviceResources@Impl@SpriteBatch@DirectX@@$$V@DirectX@@@std@@@std@@QEAA@XZ 0000000140038c10     DirectXTK:SpriteBatch.obj
 0002:00006c10       $unwind$??1?$shared_ptr@UDeviceResources@Impl@SpriteBatch@DirectX@@@std@@QEAA@XZ 0000000140038c10     DirectXTK:SpriteBatch.obj
 0002:00006c10       $unwind$??1?$vector@V?$array@D$0BAE@@std@@V?$allocator@V?$array@D$0BAE@@std@@@2@@std@@QEAA@XZ 0000000140038c10     Model.obj
 0002:00006c10       $unwind$??1?$vector@Umaterial_t@@V?$allocator@Umaterial_t@@@std@@@std@@QEAA@XZ 0000000140038c10     Model.obj
 0002:00006c10       $unwind$??1?$basic_string@DU?$char_traits@D@std@@V?$allocator@D@2@@std@@QEAA@XZ 0000000140038c10     Animation.obj
 0002:00006c10       $unwind$?_Destroy_if_node@?$_Tree@V?$_Tmap_traits@PEAUID3D11Device@@V?$weak_ptr@VImpl@CommonStates@DirectX@@@std@@U?$less@PEAUID3D11Device@@@3@V?$allocator@U?$pair@QEAUID3D11Device@@V?$weak_ptr@VImpl@CommonStates@DirectX@@@std@@@std@@@3@$0A@@std@@@std@@IEAAXPEAU?$_Tree_node@U?$pair@QEAUID3D11Device@@V?$weak_ptr@VImpl@CommonStates@DirectX@@@std@@@std@@PEAX@2@@Z 0000000140038c10     DirectXTK:CommonStates.obj
 0002:00006c10       $unwind$??_G?$_Ref_count_obj@UResourceMap@?$SharedResourcePool@PEAUID3D11DeviceContext@@UContextResources@Impl@SpriteBatch@DirectX@@$$V@DirectX@@@std@@UEAAPEAXI@Z 0000000140038c10     DirectXTK:SpriteBatch.obj
 0002:00006c10       $unwind$??_GPlayer@@QEAAPEAXI@Z 0000000140038c10     GameManager.obj
 0002:00006c10       $unwind$??_G?$_Ref_count_obj@UWrappedData@?$SharedResourcePool@PEAUID3D11Device@@UDeviceResources@Impl@SpriteBatch@DirectX@@$$V@DirectX@@@std@@UEAAPEAXI@Z 0000000140038c10     DirectXTK:SpriteBatch.obj
 0002:00006c10       $unwind$?_Tidy@?$vector@UVertex@@V?$allocator@UVertex@@@std@@@std@@AEAAXXZ 0000000140038c10     Model.obj
 0002:00006c10       $unwind$??1?$vector@PEAVBullet@@V?$allocator@PEAVBullet@@@std@@@std@@QEAA@XZ 0000000140038c10     graphicsclass.obj
 0002:00006c10       $unwind$?Shutdown@Model@@QEAAXXZ 0000000140038c10     Model.obj
 0002:00006c10       $unwind$?GetColliders@GameObject@@QEAA?AV?$vector@USphere@@V?$allocator@USphere@@@std@@@std@@XZ 0000000140038c10     GameManager.obj
 0002:00006c10       $unwind$??1?$vector@PEAVAnimation@@V?$allocator@PEAVAnimation@@@std@@@std@@QEAA@XZ 0000000140038c10     GameObject.obj
 0002:00006c18       $unwind$??_Gcom_exception@DirectX@@UEAAPEAXI@Z 0000000140038c18     DirectXTK:SpriteBatch.obj
 0002:00006c18       $unwind$??_G?$basic_fstream@DU?$char_traits@D@std@@@std@@UEAAPEAXI@Z 0000000140038c18     Animation.obj
 0002:00006c18       $unwind$??_G?$basic_filebuf@DU?$char_traits@D@std@@@std@@UEAAPEAXI@Z 0000000140038c18     Animation.obj
 0002:00006c18       $unwind$?_Buy@?$vector@V?$array@Ufloat4@@$03@std@@V?$allocator@V?$array@Ufloat4@@$03@std@@@2@@std@@AEAA_N_K@Z 0000000140038c18     Animation.obj
 0002:00006c18       $unwind$_RTC_Initialize    0000000140038c18     MSVCRT:initsect.obj
 0002:00006c18       $unwind$_RTC_Terminate     0000000140038c18     MSVCRT:initsect.obj
 0002:00006c18       $unwind$??_Gbad_alloc@std@@UEAAPEAXI@Z 0000000140038c18     DirectXTK:SpriteBatch.obj
 0002:00006c18       $unwind$??0com_exception@DirectX@@QEAA@AEBV01@@Z 0000000140038c18     DirectXTK:SpriteBatch.obj
 0002:00006c18       $unwind$??_Gruntime_error@std@@UEAAPEAXI@Z 0000000140038c18     DirectXTK:SpriteFont.obj
 0002:00006c18       $unwind$??_GSpriteFont@DirectX@@UEAAPEAXI@Z 0000000140038c18     DirectXTK:SpriteFont.obj
 0002:00006c18       $unwind$??_Gbad_cast@std@@UEAAPEAXI@Z 0000000140038c18     Animation.obj
 0002:00006c18       $unwind$??_Gexception@std@@UEAAPEAXI@Z 0000000140038c18     Animation.obj
 0002:00006c18       $unwind$?_Buy@?$vector@UGlyph@SpriteFont@DirectX@@V?$allocator@UGlyph@SpriteFont@DirectX@@@std@@@std@@AEAA_N_K@Z 0000000140038c18     DirectXTK:SpriteFont.obj
 0002:00006c18       $unwind$??_Goverflow_error@std@@UEAAPEAXI@Z 0000000140038c18     DirectXTK:SpriteFont.obj
 0002:00006c18       $unwind$?Restart@XTime@@QEAAXXZ 0000000140038c18     XTime.obj
 0002:00006c18       $unwind$?imbue@?$basic_filebuf@DU?$char_traits@D@std@@@std@@MEAAXAEBVlocale@2@@Z 0000000140038c18     Animation.obj
 0002:00006c18       $unwind$??_G?$basic_ofstream@DU?$char_traits@D@std@@@std@@UEAAPEAXI@Z 0000000140038c18     SkyboxShader.obj
 0002:00006c18       $unwind$??_Gbad_array_new_length@std@@UEAAPEAXI@Z 0000000140038c18     MSVCRT:throw_bad_alloc.obj
 0002:00006c18       $unwind$??4?$basic_string@DU?$char_traits@D@std@@V?$allocator@D@2@@std@@QEAAAEAV01@$$QEAV01@@Z 0000000140038c18     MyWindow.obj
 0002:00006c24       $unwind$??1locale@std@@QEAA@XZ 0000000140038c24     Animation.obj
 0002:00006c38       $ip2state$??1locale@std@@QEAA@XZ 0000000140038c38     Animation.obj
 0002:00006c40       $unwind$?XMVectorSin@DirectX@@YQ?AT__m128@@T2@@Z 0000000140038c40     Animation.obj
 0002:00006c40       $unwind$?XMVectorACos@DirectX@@YQ?AT__m128@@T2@@Z 0000000140038c40     Camera.obj
 0002:00006c4c       $unwind$?XMVectorATan@DirectX@@YQ?AT__m128@@T2@@Z 0000000140038c4c     Animation.obj
 0002:00006c60       $unwind$?XMVectorATan2@DirectX@@YQ?AT__m128@@T2@0@Z 0000000140038c60     Animation.obj
 0002:00006c8c       $unwind$?XMMatrixMultiply@DirectX@@YQ?AUXMMATRIX@1@U21@AEBU21@@Z 0000000140038c8c     Animation.obj
 0002:00006cb4       $unwind$?XMMatrixInverse@DirectX@@YQ?AUXMMATRIX@1@PEAT__m128@@U21@@Z 0000000140038cb4     Animation.obj
 0002:00006ce8       $unwind$?XMQuaternionSlerpV@DirectX@@YQ?AT__m128@@T2@00@Z 0000000140038ce8     Animation.obj
 0002:00006d08       $unwind$?XMQuaternionRotationMatrix@DirectX@@YQ?AT__m128@@UXMMATRIX@1@@Z 0000000140038d08     Animation.obj
 0002:00006d2c       $unwind$??1GameObject@@QEAA@XZ 0000000140038d2c     GameObject.obj
 0002:00006d2c       $unwind$??1anim_clip@@QEAA@XZ 0000000140038d2c     Animation.obj
 0002:00006d2c       $unwind$??_GEnemyManager@@QEAAPEAXI@Z 0000000140038d2c     GameManager.obj
 0002:00006d38       $unwind$?RecursiveJointCalc@Animation@@QEAA?AV?$array@Ufloat4@@$03@std@@IAEAV?$vector@V?$array@Ufloat4@@$03@std@@V?$allocator@V?$array@Ufloat4@@$03@std@@@2@@3@AEAV?$vector@HV?$allocator@H@std@@@3@@Z 0000000140038d38     Animation.obj
 0002:00006d50       $unwind$?Flatten@Animation@@QEAA?AV?$vector@V?$array@Ufloat4@@$03@std@@V?$allocator@V?$array@Ufloat4@@$03@std@@@2@@std@@V23@V?$vector@HV?$allocator@H@std@@@3@@Z 0000000140038d50     Animation.obj
 0002:00006d70       $stateUnwindMap$?Flatten@Animation@@QEAA?AV?$vector@V?$array@Ufloat4@@$03@std@@V?$allocator@V?$array@Ufloat4@@$03@std@@@2@@std@@V23@V?$vector@HV?$allocator@H@std@@@3@@Z 0000000140038d70     Animation.obj
 0002:00006d88       $ip2state$?Flatten@Animation@@QEAA?AV?$vector@V?$array@Ufloat4@@$03@std@@V?$allocator@V?$array@Ufloat4@@$03@std@@@2@@std@@V23@V?$vector@HV?$allocator@H@std@@@3@@Z 0000000140038d88     Animation.obj
 0002:00006da0       $unwind$?dtor$0@?0??CreateImage@UIManager@@QEAAPEAVUIElement@@UtagRECT@@_N1Ufloat2@@PEBDPEAUID3D11Device@@@Z@4HA 0000000140038da0     UIManager.obj
 0002:00006da0       $unwind$?dtor$6@?0??UnlockAllGuns@GameManager@@QEAAXXZ@4HA 0000000140038da0     MyWindow.obj
 0002:00006da0       $unwind$?dtor$0@?0???0?$basic_ofstream@DU?$char_traits@D@std@@@std@@QEAA@XZ@4HA 0000000140038da0     SkyboxShader.obj
 0002:00006da0       $unwind$?dtor$21@?0??Initialize@Shop@@QEAA_NXZ@4HA 0000000140038da0     Shop.obj
 0002:00006da0       $unwind$?dtor$24@?0??Initialize@Shop@@QEAA_NXZ@4HA 0000000140038da0     Shop.obj
 0002:00006da0       $unwind$?dtor$0@?0??SpawnHealthPickup@GameManager@@QEAAXUfloat3@@@Z@4HA 0000000140038da0     GameManager.obj
 0002:00006da0       $unwind$?dtor$0@?0??Attack@RangedEnemy@@QEAAXPEAVPlayer@@AEAV?$vector@PEAVBullet@@V?$allocator@PEAVBullet@@@std@@@std@@PEAUID3D11Device@@PEAUHWND__@@@Z@4HA 0000000140038da0     RangedEnemy.obj
 0002:00006da0       $unwind$?dtor$1@?0???__E?deviceResourcesPool@Impl@SpriteBatch@DirectX@@0V?$SharedResourcePool@PEAUID3D11Device@@UDeviceResources@Impl@SpriteBatch@DirectX@@$$V@3@A@@YAXXZ@4HA 0000000140038da0     DirectXTK:SpriteBatch.obj
 0002:00006da0       $unwind$?dtor$27@?0??Initialize@Shop@@QEAA_NXZ@4HA 0000000140038da0     Shop.obj
 0002:00006da0       $unwind$?dtor$2@?0??SetSkeletonLines@Player@@QEAA?AV?$vector@V?$array@Ufloat4@@$03@std@@V?$allocator@V?$array@Ufloat4@@$03@std@@@2@@std@@Uanim_clip@@0MM@Z@4HA 0000000140038da0     Player.obj
 0002:00006da0       $unwind$?dtor$30@?0??Initialize@Shop@@QEAA_NXZ@4HA 0000000140038da0     Shop.obj
 0002:00006da0       $unwind$?dtor$7@?0??DemandCreate@?$SharedResourcePool@PEAUID3D11Device@@UDeviceResources@Impl@SpriteBatch@DirectX@@$$V@DirectX@@QEAA?AV?$shared_ptr@UDeviceResources@Impl@SpriteBatch@DirectX@@@std@@PEAUID3D11Device@@@Z@4HA 0000000140038da0     DirectXTK:SpriteBatch.obj
 0002:00006da0       $unwind$?filt$0@?0??__scrt_common_main_seh@@YAHXZ@4HA 0000000140038da0     MSVCRT:exe_winmain.obj
 0002:00006da0       $unwind$?dtor$0@?0??CreateIndexValues@DeviceResources@Impl@SpriteBatch@DirectX@@CA?AV?$vector@FV?$allocator@F@std@@@std@@XZ@4HA 0000000140038da0     DirectXTK:SpriteBatch.obj
 0002:00006da0       $unwind$?dtor$33@?0??Initialize@Shop@@QEAA_NXZ@4HA 0000000140038da0     Shop.obj
 0002:00006da0       $unwind$?dtor$1@?0??Update@EnemyManager@@QEAAXMPEAVPlayer@@V?$vector@PEAVGameObject@@V?$allocator@PEAVGameObject@@@std@@@std@@AEAV?$vector@PEAVBullet@@V?$allocator@PEAVBullet@@@std@@@4@PEAUID3D11Device@@PEAUHWND__@@@Z@4HA 0000000140038da0     EnemyManager.obj
 0002:00006da0       $unwind$?dtor$36@?0??Initialize@Shop@@QEAA_NXZ@4HA 0000000140038da0     Shop.obj
 0002:00006da0       $unwind$?dtor$0@?0??ShootBullets@GameManager@@QEAAXXZ@4HA 0000000140038da0     GameManager.obj
 0002:00006da0       $unwind$?dtor$18@?0??Initialize@Shop@@QEAA_NXZ@4HA 0000000140038da0     Shop.obj
 0002:00006da0       $unwind$?dtor$0@?0??Initialize@Shop@@QEAA_NXZ@4HA 0000000140038da0     Shop.obj
 0002:00006da0       $unwind$?dtor$7@?0???0ContextResources@Impl@SpriteBatch@DirectX@@QEAA@PEAUID3D11DeviceContext@@@Z@4HA 0000000140038da0     DirectXTK:SpriteBatch.obj
 0002:00006da0       $unwind$?dtor$2@?0??CreateButton@UIManager@@QEAAPEAVUIElement@@UtagRECT@@_N1Ufloat2@@PEAUID3D11Device@@HPEBD@Z@4HA 0000000140038da0     UIManager.obj
 0002:00006da0       $unwind$?dtor$0@?0??CreateButton@UIManager@@QEAAPEAVUIElement@@UtagRECT@@_N1Ufloat2@@PEAUID3D11Device@@HPEBD@Z@4HA 0000000140038da0     UIManager.obj
 0002:00006da0       $unwind$?dtor$3@?0??Initialize@Shop@@QEAA_NXZ@4HA 0000000140038da0     Shop.obj
 0002:00006da0       $unwind$?dtor$2@?0??Update@EnemyManager@@QEAAXMPEAVPlayer@@V?$vector@PEAVGameObject@@V?$allocator@PEAVGameObject@@@std@@@std@@AEAV?$vector@PEAVBullet@@V?$allocator@PEAVBullet@@@std@@@4@PEAUID3D11Device@@PEAUHWND__@@@Z@4HA 0000000140038da0     EnemyManager.obj
 0002:00006da0       $unwind$?dtor$1@?0???__E?contextResourcesPool@Impl@SpriteBatch@DirectX@@0V?$SharedResourcePool@PEAUID3D11DeviceContext@@UContextResources@Impl@SpriteBatch@DirectX@@$$V@3@A@@YAXXZ@4HA 0000000140038da0     DirectXTK:SpriteBatch.obj
 0002:00006da0       $unwind$?dtor$3@?0??Update@EnemyManager@@QEAAXMPEAVPlayer@@V?$vector@PEAVGameObject@@V?$allocator@PEAVGameObject@@@std@@@std@@AEAV?$vector@PEAVBullet@@V?$allocator@PEAVBullet@@@std@@@4@PEAUID3D11Device@@PEAUHWND__@@@Z@4HA 0000000140038da0     EnemyManager.obj
 0002:00006da0       $unwind$?dtor$6@?0??Initialize@Shop@@QEAA_NXZ@4HA 0000000140038da0     Shop.obj
 0002:00006da0       $unwind$?dtor$7@?0??DemandCreate@?$SharedResourcePool@PEAUID3D11DeviceContext@@UContextResources@Impl@SpriteBatch@DirectX@@$$V@DirectX@@QEAA?AV?$shared_ptr@UContextResources@Impl@SpriteBatch@DirectX@@@std@@PEAUID3D11DeviceContext@@@Z@4HA 0000000140038da0     DirectXTK:SpriteBatch.obj
 0002:00006da0       $unwind$?dtor$12@?0??Initialize@Graphics@@QEAA_NHHPEAUHWND__@@PEAVInputManager@@@Z@4HA 0000000140038da0     graphicsclass.obj
 0002:00006da0       $unwind$?dtor$4@?0???0GameManager@@QEAA@XZ@4HA 0000000140038da0     GameManager.obj
 0002:00006da0       $unwind$?dtor$11@?0??Initialize@Graphics@@QEAA_NHHPEAUHWND__@@PEAVInputManager@@@Z@4HA 0000000140038da0     graphicsclass.obj
 0002:00006da0       $unwind$?dtor$2@?0??Initialize@EnemyManager@@QEAAXPEAUID3D11Device@@@Z@4HA 0000000140038da0     EnemyManager.obj
 0002:00006da0       $unwind$?dtor$10@?0??Initialize@Graphics@@QEAA_NHHPEAUHWND__@@PEAVInputManager@@@Z@4HA 0000000140038da0     graphicsclass.obj
 0002:00006da0       $unwind$?dtor$9@?0??Initialize@Shop@@QEAA_NXZ@4HA 0000000140038da0     Shop.obj
 0002:00006da0       $unwind$?dtor$3@?0??Initialize@Graphics@@QEAA_NHHPEAUHWND__@@PEAVInputManager@@@Z@4HA 0000000140038da0     graphicsclass.obj
 0002:00006da0       $unwind$?dtor$1@?0??Initialize@EnemyManager@@QEAAXPEAUID3D11Device@@@Z@4HA 0000000140038da0     EnemyManager.obj
 0002:00006da0       $unwind$?dtor$2@?0??Initialize@Graphics@@QEAA_NHHPEAUHWND__@@PEAVInputManager@@@Z@4HA 0000000140038da0     graphicsclass.obj
 0002:00006da0       $unwind$?dtor$7@?0??Update@EnemyManager@@QEAAXMPEAVPlayer@@V?$vector@PEAVGameObject@@V?$allocator@PEAVGameObject@@@std@@@std@@AEAV?$vector@PEAVBullet@@V?$allocator@PEAVBullet@@@std@@@4@PEAUID3D11Device@@PEAUHWND__@@@Z@4HA 0000000140038da0     EnemyManager.obj
 0002:00006da0       $unwind$?dtor$1@?0??Initialize@Graphics@@QEAA_NHHPEAUHWND__@@PEAVInputManager@@@Z@4HA 0000000140038da0     graphicsclass.obj
 0002:00006da0       $unwind$?dtor$12@?0??Initialize@Shop@@QEAA_NXZ@4HA 0000000140038da0     Shop.obj
 0002:00006da0       $unwind$?dtor$3@?0??UnlockAllGuns@GameManager@@QEAAXXZ@4HA 0000000140038da0     MyWindow.obj
 0002:00006da0       $unwind$?dtor$1@?0??CreateText@UIManager@@QEAAPEAVUIElement@@UtagRECT@@_N1Ufloat2@@HV?$basic_string@DU?$char_traits@D@std@@V?$allocator@D@2@@std@@@Z@4HA 0000000140038da0     UIManager.obj
 0002:00006da0       $unwind$?dtor$4@?0???0ContextResources@Impl@SpriteBatch@DirectX@@QEAA@PEAUID3D11DeviceContext@@@Z@4HA 0000000140038da0     DirectXTK:SpriteBatch.obj
 0002:00006da0       $unwind$?dtor$2@?0??Flatten@Animation@@QEAA?AV?$vector@V?$array@Ufloat4@@$03@std@@V?$allocator@V?$array@Ufloat4@@$03@std@@@2@@std@@V23@V?$vector@HV?$allocator@H@std@@@3@@Z@4HA 0000000140038da0     Animation.obj
 0002:00006da0       $unwind$?dtor$8@?0??Update@EnemyManager@@QEAAXMPEAVPlayer@@V?$vector@PEAVGameObject@@V?$allocator@PEAVGameObject@@@std@@@std@@AEAV?$vector@PEAVBullet@@V?$allocator@PEAVBullet@@@std@@@4@PEAUID3D11Device@@PEAUHWND__@@@Z@4HA 0000000140038da0     EnemyManager.obj
 0002:00006da0       $unwind$?dtor$0@?0??Initialize@MyWindow@@QEAA_NXZ@4HA 0000000140038da0     MyWindow.obj
 0002:00006da0       $unwind$?dtor$0@?0???0?$basic_fstream@DU?$char_traits@D@std@@@std@@QEAA@PEBDHH@Z@4HA 0000000140038da0     Animation.obj
 0002:00006da0       $unwind$?dtor$0@?0??SpawnDamagePickup@GameManager@@QEAAXUfloat3@@@Z@4HA 0000000140038da0     GameManager.obj
 0002:00006da0       $unwind$?dtor$1@?0??Initialize@GameManager@@QEAA_NHHPEAUHWND__@@@Z@4HA 0000000140038da0     GameManager.obj
 0002:00006da0       $unwind$?dtor$3@?0??Initialize@GameManager@@QEAA_NHHPEAUHWND__@@@Z@4HA 0000000140038da0     GameManager.obj
 0002:00006da0       $unwind$?dtor$4@?0??Initialize@GameManager@@QEAA_NHHPEAUHWND__@@@Z@4HA 0000000140038da0     GameManager.obj
 0002:00006da0       $unwind$?dtor$0@?0??CreateText@UIManager@@QEAAPEAVUIElement@@UtagRECT@@_N1Ufloat2@@HPEBD@Z@4HA 0000000140038da0     UIManager.obj
 0002:00006da0       $unwind$?dtor$0@?0??AddAninimation@GameObject@@QEAAXPEBDPEAUID3D11Device@@H@Z@4HA 0000000140038da0     GameObject.obj
 0002:00006da0       $unwind$?dtor$3@?0???0SpriteFont@DirectX@@QEAA@PEAUID3D11Device@@PEB_W_N@Z@4HA 0000000140038da0     DirectXTK:SpriteFont.obj
 0002:00006da0       $unwind$?dtor$2@?0??LerpJoints@Animation@@QEAA?AV?$vector@V?$array@Ufloat4@@$03@std@@V?$allocator@V?$array@Ufloat4@@$03@std@@@2@@std@@V23@0M@Z@4HA 0000000140038da0     Animation.obj
 0002:00006da0       $unwind$?dtor$15@?0??Initialize@Shop@@QEAA_NXZ@4HA 0000000140038da0     Shop.obj
 0002:00006da0       $unwind$?dtor$1@?0???__E?instancePool@Impl@CommonStates@DirectX@@2V?$SharedResourcePool@PEAUID3D11Device@@VImpl@CommonStates@DirectX@@$$V@3@A@@YAXXZ@4HA 0000000140038da0     DirectXTK:CommonStates.obj
 0002:00006da0       $unwind$?dtor$30@?0??Update@GameManager@@QEAAXMM@Z@4HA 0000000140038da0     GameManager.obj
 0002:00006da0       $unwind$?dtor$14@?0???$make_unique@VImpl@SpriteBatch@DirectX@@AEAPEAUID3D11DeviceContext@@$0A@@std@@YA?AV?$unique_ptr@VImpl@SpriteBatch@DirectX@@U?$default_delete@VImpl@SpriteBatch@DirectX@@@std@@@0@AEAPEAUID3D11DeviceContext@@@Z@4HA 0000000140038da0     DirectXTK:SpriteBatch.obj
 0002:00006da0       $unwind$?dtor$35@?0??Update@GameManager@@QEAAXMM@Z@4HA 0000000140038da0     GameManager.obj
 0002:00006da0       $unwind$?dtor$40@?0??Update@GameManager@@QEAAXMM@Z@4HA 0000000140038da0     GameManager.obj
 0002:00006da0       $unwind$?dtor$0@?0???$?HDU?$char_traits@D@std@@V?$allocator@D@1@@std@@YA?AV?$basic_string@DU?$char_traits@D@std@@V?$allocator@D@2@@0@QEBDAEBV10@@Z@4HA 0000000140038da0     MyWindow.obj
 0002:00006da0       $unwind$?dtor$0@?0??Initialize@EnemyManager@@QEAAXPEAUID3D11Device@@@Z@4HA 0000000140038da0     EnemyManager.obj
 0002:00006da8       $unwind$??0Animation@@QEAA@PEBDPEAUID3D11Device@@@Z 0000000140038da8     Animation.obj
 0002:00006dd0       $stateUnwindMap$??0Animation@@QEAA@PEBDPEAUID3D11Device@@@Z 0000000140038dd0     Animation.obj
 0002:00006e00       $ip2state$??0Animation@@QEAA@PEBDPEAUID3D11Device@@@Z 0000000140038e00     Animation.obj
 0002:00006e40       $unwind$?ReadAnimFile@Animation@@QEAAXPEBDPEAUID3D11Device@@@Z 0000000140038e40     Animation.obj
 0002:00006e90       $stateUnwindMap$?ReadAnimFile@Animation@@QEAAXPEBDPEAUID3D11Device@@@Z 0000000140038e90     Animation.obj
 0002:00006ea0       $ip2state$?ReadAnimFile@Animation@@QEAAXPEBDPEAUID3D11Device@@@Z 0000000140038ea0     Animation.obj
 0002:00006ec8       $unwind$?LerpJoints@Animation@@QEAA?AV?$vector@V?$array@Ufloat4@@$03@std@@V?$allocator@V?$array@Ufloat4@@$03@std@@@2@@std@@V23@0M@Z 0000000140038ec8     Animation.obj
 0002:00006f10       $stateUnwindMap$?LerpJoints@Animation@@QEAA?AV?$vector@V?$array@Ufloat4@@$03@std@@V?$allocator@V?$array@Ufloat4@@$03@std@@@2@@std@@V23@0M@Z 0000000140038f10     Animation.obj
 0002:00006f28       $ip2state$?LerpJoints@Animation@@QEAA?AV?$vector@V?$array@Ufloat4@@$03@std@@V?$allocator@V?$array@Ufloat4@@$03@std@@@2@@std@@V23@0M@Z 0000000140038f28     Animation.obj
 0002:00006f30       $unwind$?SetJoints@Animation@@QEAAXM@Z 0000000140038f30     Animation.obj
 0002:00006f80       $stateUnwindMap$?SetJoints@Animation@@QEAAXM@Z 0000000140038f80     Animation.obj
 0002:00006f90       $ip2state$?SetJoints@Animation@@QEAAXM@Z 0000000140038f90     Animation.obj
 0002:00006fb0       $unwind$??0?$vector@PEAVGun@@V?$allocator@PEAVGun@@@std@@@std@@QEAA@AEBV01@@Z 0000000140038fb0     MyWindow.obj
 0002:00006fb0       $unwind$??0?$vector@PEAVPickup@@V?$allocator@PEAVPickup@@@std@@@std@@QEAA@AEBV01@@Z 0000000140038fb0     GameManager.obj
 0002:00006fb0       $unwind$??0?$vector@PEAVEnemy@@V?$allocator@PEAVEnemy@@@std@@@std@@QEAA@AEBV01@@Z 0000000140038fb0     GameManager.obj
 0002:00006fb0       $unwind$??0?$vector@PEAVBullet@@V?$allocator@PEAVBullet@@@std@@@std@@QEAA@AEBV01@@Z 0000000140038fb0     GameManager.obj
 0002:00006fb0       $unwind$??0?$vector@USphere@@V?$allocator@USphere@@@std@@@std@@QEAA@AEBV01@@Z 0000000140038fb0     GameManager.obj
 0002:00006fb0       $unwind$??0?$vector@PEAVSound@@V?$allocator@PEAVSound@@@std@@@std@@QEAA@AEBV01@@Z 0000000140038fb0     GameManager.obj
 0002:00006fb0       $unwind$??0?$vector@HV?$allocator@H@std@@@std@@QEAA@AEBV01@@Z 0000000140038fb0     Animation.obj
 0002:00006fb0       $unwind$??0?$vector@PEAVGameObject@@V?$allocator@PEAVGameObject@@@std@@@std@@QEAA@AEBV01@@Z 0000000140038fb0     EnemyManager.obj
 0002:00006fb0       $unwind$??0?$vector@IV?$allocator@I@std@@@std@@QEAA@AEBV01@@Z 0000000140038fb0     Model.obj
 0002:00006fbc       $chain$0$??0?$vector@IV?$allocator@I@std@@@std@@QEAA@AEBV01@@Z 0000000140038fbc     Model.obj
 0002:00006fbc       $chain$0$??0?$vector@HV?$allocator@H@std@@@std@@QEAA@AEBV01@@Z 0000000140038fbc     Animation.obj
 0002:00006fd0       $chain$1$??0?$vector@HV?$allocator@H@std@@@std@@QEAA@AEBV01@@Z 0000000140038fd0     Animation.obj
 0002:00006fd0       $chain$1$??0?$vector@IV?$allocator@I@std@@@std@@QEAA@AEBV01@@Z 0000000140038fd0     Model.obj
 0002:00006fe0       $unwind$??0?$vector@V?$array@Ufloat4@@$03@std@@V?$allocator@V?$array@Ufloat4@@$03@std@@@2@@std@@QEAA@AEBV01@@Z 0000000140038fe0     Animation.obj
 0002:00006fec       $chain$0$??0?$vector@V?$array@Ufloat4@@$03@std@@V?$allocator@V?$array@Ufloat4@@$03@std@@@2@@std@@QEAA@AEBV01@@Z 0000000140038fec     Animation.obj
 0002:00007000       $chain$1$??0?$vector@V?$array@Ufloat4@@$03@std@@V?$allocator@V?$array@Ufloat4@@$03@std@@@2@@std@@QEAA@AEBV01@@Z 0000000140039000     Animation.obj
 0002:00007010       $unwind$??0?$basic_fstream@DU?$char_traits@D@std@@@std@@QEAA@PEBDHH@Z 0000000140039010     Animation.obj
 0002:00007028       $stateUnwindMap$??0?$basic_fstream@DU?$char_traits@D@std@@@std@@QEAA@PEBDHH@Z 0000000140039028     Animation.obj
 0002:00007048       $ip2state$??0?$basic_fstream@DU?$char_traits@D@std@@@std@@QEAA@PEBDHH@Z 0000000140039048     Animation.obj
 0002:00007078       $unwind$?seekpos@?$basic_filebuf@DU?$char_traits@D@std@@@std@@MEAA?AV?$fpos@U_Mbstatet@@@2@V32@H@Z 0000000140039078     Animation.obj
 0002:0000708c       $unwind$?seekoff@?$basic_filebuf@DU?$char_traits@D@std@@@std@@MEAA?AV?$fpos@U_Mbstatet@@@2@_JHH@Z 000000014003908c     Animation.obj
 0002:000070a4       $unwind$?xsgetn@?$basic_filebuf@DU?$char_traits@D@std@@@std@@MEAA_JPEAD_J@Z 00000001400390a4     Animation.obj
 0002:000070a4       $unwind$?xsputn@?$basic_filebuf@DU?$char_traits@D@std@@@std@@MEAA_JPEBD_J@Z 00000001400390a4     Animation.obj
 0002:000070bc       $unwind$?uflow@?$basic_filebuf@DU?$char_traits@D@std@@@std@@MEAAHXZ 00000001400390bc     Animation.obj
 0002:000070dc       $stateUnwindMap$?UpdateVolumeText@MyWindow@@AEAAXXZ 00000001400390dc     MyWindow.obj
 0002:000070dc       $stateUnwindMap$?UpdateCurrencyText@GameManager@@QEAAXXZ 00000001400390dc     GameManager.obj
 0002:000070dc       $stateUnwindMap$?uflow@?$basic_filebuf@DU?$char_traits@D@std@@@std@@MEAAHXZ 00000001400390dc     Animation.obj
 0002:000070dc       $stateUnwindMap$?UpdateTimerText@GameManager@@QEAAXM@Z 00000001400390dc     GameManager.obj
 0002:000070dc       $stateUnwindMap$?UpdateDamageTimerText@GameManager@@QEAAXXZ 00000001400390dc     GameManager.obj
 0002:000070e8       $ip2state$?uflow@?$basic_filebuf@DU?$char_traits@D@std@@@std@@MEAAHXZ 00000001400390e8     Animation.obj
 0002:000070f8       $chain$0$?underflow@?$basic_filebuf@DU?$char_traits@D@std@@@std@@MEAAHXZ 00000001400390f8     Animation.obj
 0002:0000710c       $chain$2$?underflow@?$basic_filebuf@DU?$char_traits@D@std@@@std@@MEAAHXZ 000000014003910c     Animation.obj
 0002:00007120       $unwind$?_Erase@?$_Tree@V?$_Tmap_traits@PEAUID3D11DeviceContext@@V?$weak_ptr@UContextResources@Impl@SpriteBatch@DirectX@@@std@@U?$less@PEAUID3D11DeviceContext@@@3@V?$allocator@U?$pair@QEAUID3D11DeviceContext@@V?$weak_ptr@UContextResources@Impl@SpriteBatch@DirectX@@@std@@@std@@@3@$0A@@std@@@std@@IEAAXPEAU?$_Tree_node@U?$pair@QEAUID3D11DeviceContext@@V?$weak_ptr@UContextResources@Impl@SpriteBatch@DirectX@@@std@@@std@@PEAX@2@@Z 0000000140039120     DirectXTK:SpriteBatch.obj
 0002:00007120       $unwind$?erase@?$_Tree@V?$_Tmap_traits@PEAUID3D11Device@@V?$weak_ptr@UDeviceResources@Impl@SpriteBatch@DirectX@@@std@@U?$less@PEAUID3D11Device@@@3@V?$allocator@U?$pair@QEAUID3D11Device@@V?$weak_ptr@UDeviceResources@Impl@SpriteBatch@DirectX@@@std@@@std@@@3@$0A@@std@@@std@@QEAA?AV?$_Tree_iterator@V?$_Tree_val@U?$_Tree_simple_types@U?$pair@QEAUID3D11Device@@V?$weak_ptr@UDeviceResources@Impl@SpriteBatch@DirectX@@@std@@@std@@@std@@@std@@@2@V?$_Tree_const_iterator@V?$_Tree_val@U?$_Tree_simple_types@U?$pair@QEAUID3D11Device@@V?$weak_ptr@UDeviceResources@Impl@SpriteBatch@DirectX@@@std@@@std@@@std@@@std@@@2@@Z 0000000140039120     DirectXTK:SpriteBatch.obj
 0002:00007120       $unwind$?erase@?$_Tree@V?$_Tmap_traits@PEAUID3D11DeviceContext@@V?$weak_ptr@UContextResources@Impl@SpriteBatch@DirectX@@@std@@U?$less@PEAUID3D11DeviceContext@@@3@V?$allocator@U?$pair@QEAUID3D11DeviceContext@@V?$weak_ptr@UContextResources@Impl@SpriteBatch@DirectX@@@std@@@std@@@3@$0A@@std@@@std@@QEAA?AV?$_Tree_iterator@V?$_Tree_val@U?$_Tree_simple_types@U?$pair@QEAUID3D11DeviceContext@@V?$weak_ptr@UContextResources@Impl@SpriteBatch@DirectX@@@std@@@std@@@std@@@std@@@2@V?$_Tree_const_iterator@V?$_Tree_val@U?$_Tree_simple_types@U?$pair@QEAUID3D11DeviceContext@@V?$weak_ptr@UContextResources@Impl@SpriteBatch@DirectX@@@std@@@std@@@std@@@std@@@2@@Z 0000000140039120     DirectXTK:SpriteBatch.obj
 0002:00007120       $unwind$?erase@?$vector@PEAVBullet@@V?$allocator@PEAVBullet@@@std@@@std@@QEAA?AV?$_Vector_iterator@V?$_Vector_val@U?$_Simple_types@PEAVBullet@@@std@@@std@@@2@V?$_Vector_const_iterator@V?$_Vector_val@U?$_Simple_types@PEAVBullet@@@std@@@std@@@2@@Z 0000000140039120     GameManager.obj
 0002:00007120       $unwind$?_Erase@?$_Tree@V?$_Tmap_traits@PEAUID3D11Device@@V?$weak_ptr@UDeviceResources@Impl@SpriteBatch@DirectX@@@std@@U?$less@PEAUID3D11Device@@@3@V?$allocator@U?$pair@QEAUID3D11Device@@V?$weak_ptr@UDeviceResources@Impl@SpriteBatch@DirectX@@@std@@@std@@@3@$0A@@std@@@std@@IEAAXPEAU?$_Tree_node@U?$pair@QEAUID3D11Device@@V?$weak_ptr@UDeviceResources@Impl@SpriteBatch@DirectX@@@std@@@std@@PEAX@2@@Z 0000000140039120     DirectXTK:SpriteBatch.obj
 0002:00007120       $unwind$?_Erase@?$_Tree@V?$_Tmap_traits@PEAUID3D11Device@@V?$weak_ptr@VImpl@CommonStates@DirectX@@@std@@U?$less@PEAUID3D11Device@@@3@V?$allocator@U?$pair@QEAUID3D11Device@@V?$weak_ptr@VImpl@CommonStates@DirectX@@@std@@@std@@@3@$0A@@std@@@std@@IEAAXPEAU?$_Tree_node@U?$pair@QEAUID3D11Device@@V?$weak_ptr@VImpl@CommonStates@DirectX@@@std@@@std@@PEAX@2@@Z 0000000140039120     DirectXTK:CommonStates.obj
 0002:00007120       $unwind$?pbackfail@?$basic_filebuf@DU?$char_traits@D@std@@@std@@MEAAHH@Z 0000000140039120     Animation.obj
 0002:00007120       $unwind$?erase@?$vector@PEAVPickup@@V?$allocator@PEAVPickup@@@std@@@std@@QEAA?AV?$_Vector_iterator@V?$_Vector_val@U?$_Simple_types@PEAVPickup@@@std@@@std@@@2@V?$_Vector_const_iterator@V?$_Vector_val@U?$_Simple_types@PEAVPickup@@@std@@@std@@@2@@Z 0000000140039120     GameManager.obj
 0002:00007120       $unwind$?erase@?$_Tree@V?$_Tmap_traits@PEAUID3D11Device@@V?$weak_ptr@VImpl@CommonStates@DirectX@@@std@@U?$less@PEAUID3D11Device@@@3@V?$allocator@U?$pair@QEAUID3D11Device@@V?$weak_ptr@VImpl@CommonStates@DirectX@@@std@@@std@@@3@$0A@@std@@@std@@QEAA?AV?$_Tree_iterator@V?$_Tree_val@U?$_Tree_simple_types@U?$pair@QEAUID3D11Device@@V?$weak_ptr@VImpl@CommonStates@DirectX@@@std@@@std@@@std@@@std@@@2@V?$_Tree_const_iterator@V?$_Tree_val@U?$_Tree_simple_types@U?$pair@QEAUID3D11Device@@V?$weak_ptr@VImpl@CommonStates@DirectX@@@std@@@std@@@std@@@std@@@2@@Z 0000000140039120     DirectXTK:CommonStates.obj
 0002:00007130       $unwind$?overflow@?$basic_filebuf@DU?$char_traits@D@std@@@std@@MEAAHH@Z 0000000140039130     Animation.obj
 0002:00007144       $chain$0$?overflow@?$basic_filebuf@DU?$char_traits@D@std@@@std@@MEAAHH@Z 0000000140039144     Animation.obj
 0002:00007158       $chain$1$?overflow@?$basic_filebuf@DU?$char_traits@D@std@@@std@@MEAAHH@Z 0000000140039158     Animation.obj
 0002:00007168       $unwind$??1?$basic_filebuf@DU?$char_traits@D@std@@@std@@UEAA@XZ 0000000140039168     Animation.obj
 0002:00007178       $ip2state$??1?$basic_filebuf@DU?$char_traits@D@std@@@std@@UEAA@XZ 0000000140039178     Animation.obj
 0002:00007180       $unwind$?_Endwrite@?$basic_filebuf@DU?$char_traits@D@std@@@std@@IEAA_NXZ 0000000140039180     Animation.obj
 0002:00007194       $unwind$?_Init@?$basic_filebuf@DU?$char_traits@D@std@@@std@@IEAAXPEAU_iobuf@@W4_Initfl@12@@Z 0000000140039194     Animation.obj
 0002:000071ac       $unwind$?close@?$basic_filebuf@DU?$char_traits@D@std@@@std@@QEAAPEAV12@XZ 00000001400391ac     Animation.obj
 0002:000071bc       $unwind$?open@?$basic_filebuf@DU?$char_traits@D@std@@@std@@QEAAPEAV12@PEBDHH@Z 00000001400391bc     Animation.obj
 0002:000071d0       $stateUnwindMap$?open@?$basic_filebuf@DU?$char_traits@D@std@@@std@@QEAAPEAV12@PEBDHH@Z 00000001400391d0     Animation.obj
 0002:000071e0       $ip2state$?open@?$basic_filebuf@DU?$char_traits@D@std@@@std@@QEAAPEAV12@PEBDHH@Z 00000001400391e0     Animation.obj
 0002:00007200       $unwind$?deallocate@?$allocator@U?$_Tree_node@U?$pair@QEAUID3D11DeviceContext@@V?$weak_ptr@UContextResources@Impl@SpriteBatch@DirectX@@@std@@@std@@PEAX@std@@@std@@QEAAXQEAU?$_Tree_node@U?$pair@QEAUID3D11DeviceContext@@V?$weak_ptr@UContextResources@Impl@SpriteBatch@DirectX@@@std@@@std@@PEAX@2@_K@Z 0000000140039200     DirectXTK:SpriteBatch.obj
 0002:00007200       $unwind$?_Xlength@?$vector@PEAVGameObject@@V?$allocator@PEAVGameObject@@@std@@@std@@CAXXZ 0000000140039200     EnemyManager.obj
 0002:00007200       $unwind$?deallocate@?$allocator@U?$_Tree_node@U?$pair@QEAUID3D11Device@@V?$weak_ptr@UDeviceResources@Impl@SpriteBatch@DirectX@@@std@@@std@@PEAX@std@@@std@@QEAAXQEAU?$_Tree_node@U?$pair@QEAUID3D11Device@@V?$weak_ptr@UDeviceResources@Impl@SpriteBatch@DirectX@@@std@@@std@@PEAX@2@_K@Z 0000000140039200     DirectXTK:SpriteBatch.obj
 0002:00007200       $unwind$WinMainCRTStartup  0000000140039200     MSVCRT:exe_winmain.obj
 0002:00007200       $unwind$__scrt_acquire_startup_lock 0000000140039200     MSVCRT:utility.obj
 0002:00007200       $unwind$?_Xlength@?$vector@PEAVSound@@V?$allocator@PEAVSound@@@std@@@std@@CAXXZ 0000000140039200     EnemyManager.obj
 0002:00007200       $unwind$__scrt_is_managed_app 0000000140039200     MSVCRT:utility_desktop.obj
 0002:00007200       $unwind$?_Xlength@?$vector@UVertex@@V?$allocator@UVertex@@@std@@@std@@CAXXZ 0000000140039200     Model.obj
 0002:00007200       $unwind$?_Xlength@?$vector@V?$array@Ufloat4@@$03@std@@V?$allocator@V?$array@Ufloat4@@$03@std@@@2@@std@@CAXXZ 0000000140039200     Animation.obj
 0002:00007200       $unwind$?_Xlength@?$vector@Ukeyframe@@V?$allocator@Ukeyframe@@@std@@@std@@CAXXZ 0000000140039200     Animation.obj
 0002:00007200       $unwind$?_Xlength@?$vector@USphere@@V?$allocator@USphere@@@std@@@std@@CAXXZ 0000000140039200     GameObject.obj
 0002:00007200       $unwind$?_Xlength@?$vector@Umaterial_t@@V?$allocator@Umaterial_t@@@std@@@std@@CAXXZ 0000000140039200     Model.obj
 0002:00007200       $unwind$?_Xlength@?$vector@FV?$allocator@F@std@@@std@@CAXXZ 0000000140039200     DirectXTK:SpriteBatch.obj
 0002:00007200       $unwind$?_Xlength@?$vector@V?$ComPtr@UID3D11ShaderResourceView@@@WRL@Microsoft@@V?$allocator@V?$ComPtr@UID3D11ShaderResourceView@@@WRL@Microsoft@@@std@@@std@@CAXXZ 0000000140039200     DirectXTK:SpriteBatch.obj
 0002:00007200       $unwind$?_Xlength@?$vector@PEAVEnemy@@V?$allocator@PEAVEnemy@@@std@@@std@@CAXXZ 0000000140039200     EnemyManager.obj
 0002:00007200       $unwind$?deallocate@?$allocator@U?$_Tree_node@U?$pair@QEAUID3D11Device@@V?$weak_ptr@VImpl@CommonStates@DirectX@@@std@@@std@@PEAX@std@@@std@@QEAAXQEAU?$_Tree_node@U?$pair@QEAUID3D11Device@@V?$weak_ptr@VImpl@CommonStates@DirectX@@@std@@@std@@PEAX@2@_K@Z 0000000140039200     DirectXTK:CommonStates.obj
 0002:00007200       $unwind$_Init_thread_notify 0000000140039200     MSVCRT:thread_safe_statics.obj
 0002:00007200       $unwind$__scrt_initialize_default_local_stdio_options 0000000140039200     MSVCRT:default_local_stdio_options.obj
 0002:00007200       $unwind$?__scrt_uninitialize_thread_safe_statics@@YAXXZ 0000000140039200     MSVCRT:thread_safe_statics.obj
 0002:00007200       $unwind$?what@com_exception@DirectX@@UEBAPEBDXZ 0000000140039200     DirectXTK:SpriteBatch.obj
 0002:00007200       $unwind$__scrt_unhandled_exception_filter 0000000140039200     MSVCRT:utility_desktop.obj
 0002:00007200       $unwind$?_Xlength@?$vector@V?$array@D$0BAE@@std@@V?$allocator@V?$array@D$0BAE@@std@@@2@@std@@CAXXZ 0000000140039200     Model.obj
 0002:00007200       $unwind$?_Xlen@?$basic_string@DU?$char_traits@D@std@@V?$allocator@D@2@@std@@SAXXZ 0000000140039200     Animation.obj
 0002:00007200       $unwind$?_Xlength@?$vector@PEAVBullet@@V?$allocator@PEAVBullet@@@std@@@std@@CAXXZ 0000000140039200     GameManager.obj
 0002:00007200       $unwind$atexit             0000000140039200     MSVCRT:utility.obj
 0002:00007200       $unwind$?post_pgo_initialization@@YAHXZ 0000000140039200     MSVCRT:exe_winmain.obj
 0002:00007200       $unwind$?_Do_call@?$_Func_impl_no_alloc@V<lambda_867072a19d70b98a44a25bc7dba15d51>@@X$$V@std@@EEAAXXZ 0000000140039200     MyWindow.obj
 0002:00007200       $unwind$?_Xlength@?$vector@PEAVPickup@@V?$allocator@PEAVPickup@@@std@@@std@@CAXXZ 0000000140039200     GameManager.obj
 0002:00007200       $unwind$?pre_cpp_initialization@@YAXXZ 0000000140039200     MSVCRT:exe_winmain.obj
 0002:00007200       $unwind$?_Equal@?$basic_string@DU?$char_traits@D@std@@V?$allocator@D@2@@std@@QEBA_NQEBD@Z 0000000140039200     GameManager.obj
 0002:00007200       $unwind$?_Xlength@?$vector@UGlyph@SpriteFont@DirectX@@V?$allocator@UGlyph@SpriteFont@DirectX@@@std@@@std@@CAXXZ 0000000140039200     DirectXTK:SpriteFont.obj
 0002:00007200       $unwind$?_Xlength@?$vector@HV?$allocator@H@std@@@std@@CAXXZ 0000000140039200     Animation.obj
 0002:00007200       $unwind$?_Xlength@?$vector@IV?$allocator@I@std@@@std@@CAXXZ 0000000140039200     Model.obj
 0002:00007200       $unwind$?deallocate@?$allocator@F@std@@QEAAXQEAF_K@Z 0000000140039200     DirectXTK:SpriteBatch.obj
 0002:00007200       $unwind$?_Xlength@?$vector@PEAVUIElement@@V?$allocator@PEAVUIElement@@@std@@@std@@CAXXZ 0000000140039200     UIManager.obj
 0002:00007200       $unwind$?deallocate@?$allocator@V?$ComPtr@UID3D11ShaderResourceView@@@WRL@Microsoft@@@std@@QEAAXQEAV?$ComPtr@UID3D11ShaderResourceView@@@WRL@Microsoft@@_K@Z 0000000140039200     DirectXTK:SpriteBatch.obj
 0002:00007200       $unwind$?_Xlength@?$vector@PEAVGun@@V?$allocator@PEAVGun@@@std@@@std@@CAXXZ 0000000140039200     GameManager.obj
 0002:00007200       $unwind$?allocate@?$allocator@F@std@@QEAAPEAF_K@Z 0000000140039200     DirectXTK:SpriteBatch.obj
 0002:00007200       $unwind$?_Xlength@?$vector@PEAVAnimation@@V?$allocator@PEAVAnimation@@@std@@@std@@CAXXZ 0000000140039200     GameObject.obj
 0002:00007200       $unwind$__GSHandlerCheck   0000000140039200     MSVCRT:gshandler.obj
 0002:00007200       $unwind$??R<lambda_b4a53c077c995d59bbbf64eaab978451>@@QEBAXXZ 0000000140039200     MyWindow.obj
 0002:00007200       $unwind$?_Buyheadnode@?$_Tree_comp_alloc@V?$_Tmap_traits@V?$basic_string@DU?$char_traits@D@std@@V?$allocator@D@2@@std@@PEAVUIElement@@U?$less@V?$basic_string@DU?$char_traits@D@std@@V?$allocator@D@2@@std@@@2@V?$allocator@U?$pair@$$CBV?$basic_string@DU?$char_traits@D@std@@V?$allocator@D@2@@std@@PEAVUIElement@@@std@@@2@$0A@@std@@@std@@QEAAPEAU?$_Tree_node@U?$pair@$$CBV?$basic_string@DU?$char_traits@D@std@@V?$allocator@D@2@@std@@PEAVUIElement@@@std@@PEAX@2@XZ 0000000140039200     Shop.obj
 0002:00007200       $unwind$?deallocate@?$allocator@PEBUSpriteInfo@Impl@SpriteBatch@DirectX@@@std@@QEAAXQEAPEBUSpriteInfo@Impl@SpriteBatch@DirectX@@_K@Z 0000000140039200     DirectXTK:SpriteBatch.obj
 0002:00007200       $unwind$?_Buyheadnode@?$_Tree_comp_alloc@V?$_Tmap_traits@V?$basic_string@DU?$char_traits@D@std@@V?$allocator@D@2@@std@@PEAUItem@Shop@@U?$less@V?$basic_string@DU?$char_traits@D@std@@V?$allocator@D@2@@std@@@2@V?$allocator@U?$pair@$$CBV?$basic_string@DU?$char_traits@D@std@@V?$allocator@D@2@@std@@PEAUItem@Shop@@@std@@@2@$0A@@std@@@std@@QEAAPEAU?$_Tree_node@U?$pair@$$CBV?$basic_string@DU?$char_traits@D@std@@V?$allocator@D@2@@std@@PEAUItem@Shop@@@std@@PEAX@2@XZ 0000000140039200     Shop.obj
 0002:00007200       $unwind$?_Xlength@?$vector@PEBUSpriteInfo@Impl@SpriteBatch@DirectX@@V?$allocator@PEBUSpriteInfo@Impl@SpriteBatch@DirectX@@@std@@@std@@CAXXZ 0000000140039200     DirectXTK:SpriteBatch.obj
 0002:00007208       $unwind$??$_Emplace_reallocate@H@?$vector@HV?$allocator@H@std@@@std@@QEAAPEAHQEAH$$QEAH@Z 0000000140039208     GameObject.obj
 0002:00007208       $unwind$??$_Emplace_reallocate@PEAVEnemy@@@?$vector@PEAVEnemy@@V?$allocator@PEAVEnemy@@@std@@@std@@QEAAPEAPEAVEnemy@@QEAPEAV2@$$QEAPEAV2@@Z 0000000140039208     EnemyManager.obj
 0002:00007208       $unwind$??$_Emplace_reallocate@PEAVGameObject@@@?$vector@PEAVGameObject@@V?$allocator@PEAVGameObject@@@std@@@std@@QEAAPEAPEAVGameObject@@QEAPEAV2@$$QEAPEAV2@@Z 0000000140039208     GameManager.obj
 0002:00007208       $unwind$??$_Emplace_reallocate@PEAVBullet@@@?$vector@PEAVBullet@@V?$allocator@PEAVBullet@@@std@@@std@@QEAAPEAPEAVBullet@@QEAPEAV2@$$QEAPEAV2@@Z 0000000140039208     GameManager.obj
 0002:00007208       $unwind$??$_Emplace_reallocate@AEBQEAVGun@@@?$vector@PEAVGun@@V?$allocator@PEAVGun@@@std@@@std@@QEAAPEAPEAVGun@@QEAPEAV2@AEBQEAV2@@Z 0000000140039208     GameManager.obj
 0002:00007208       $unwind$??$_Emplace_reallocate@AEBQEAVPickup@@@?$vector@PEAVPickup@@V?$allocator@PEAVPickup@@@std@@@std@@QEAAPEAPEAVPickup@@QEAPEAV2@AEBQEAV2@@Z 0000000140039208     GameManager.obj
 0002:00007208       $unwind$??$_Emplace_reallocate@AEBH@?$vector@HV?$allocator@H@std@@@std@@QEAAPEAHQEAHAEBH@Z 0000000140039208     Animation.obj
 0002:00007208       $unwind$??$_Emplace_reallocate@AEBQEAVUIElement@@@?$vector@PEAVUIElement@@V?$allocator@PEAVUIElement@@@std@@@std@@QEAAPEAPEAVUIElement@@QEAPEAV2@AEBQEAV2@@Z 0000000140039208     UIManager.obj
 0002:00007218       $chain$2$??$_Emplace_reallocate@H@?$vector@HV?$allocator@H@std@@@std@@QEAAPEAHQEAH$$QEAH@Z 0000000140039218     GameObject.obj
 0002:00007218       $chain$2$??$_Emplace_reallocate@AEBH@?$vector@HV?$allocator@H@std@@@std@@QEAAPEAHQEAHAEBH@Z 0000000140039218     Animation.obj
 0002:00007234       $chain$4$??$_Emplace_reallocate@H@?$vector@HV?$allocator@H@std@@@std@@QEAAPEAHQEAH$$QEAH@Z 0000000140039234     GameObject.obj
 0002:00007234       $chain$4$??$_Emplace_reallocate@AEBH@?$vector@HV?$allocator@H@std@@@std@@QEAAPEAHQEAHAEBH@Z 0000000140039234     Animation.obj
 0002:00007250       $chain$5$??$_Emplace_reallocate@AEBH@?$vector@HV?$allocator@H@std@@@std@@QEAAPEAHQEAHAEBH@Z 0000000140039250     Animation.obj
 0002:00007250       $chain$5$??$_Emplace_reallocate@H@?$vector@HV?$allocator@H@std@@@std@@QEAAPEAHQEAH$$QEAH@Z 0000000140039250     GameObject.obj
 0002:00007260       $unwind$??$_Resize@V<lambda_753cb66179afa6340adadd7109f91d2f>@@@?$vector@Ukeyframe@@V?$allocator@Ukeyframe@@@std@@@std@@AEAAX_KV<lambda_753cb66179afa6340adadd7109f91d2f>@@@Z 0000000140039260     Animation.obj
 0002:00007270       $chain$0$??$_Resize@V<lambda_753cb66179afa6340adadd7109f91d2f>@@@?$vector@Ukeyframe@@V?$allocator@Ukeyframe@@@std@@@std@@AEAAX_KV<lambda_753cb66179afa6340adadd7109f91d2f>@@@Z 0000000140039270     Animation.obj
 0002:00007284       $chain$1$??$_Resize@V<lambda_753cb66179afa6340adadd7109f91d2f>@@@?$vector@Ukeyframe@@V?$allocator@Ukeyframe@@@std@@@std@@AEAAX_KV<lambda_753cb66179afa6340adadd7109f91d2f>@@@Z 0000000140039284     Animation.obj
 0002:00007284       $chain$3$??$_Resize@V<lambda_753cb66179afa6340adadd7109f91d2f>@@@?$vector@Ukeyframe@@V?$allocator@Ukeyframe@@@std@@@std@@AEAAX_KV<lambda_753cb66179afa6340adadd7109f91d2f>@@@Z 0000000140039284     Animation.obj
 0002:00007294       $chain$2$??$_Resize@V<lambda_753cb66179afa6340adadd7109f91d2f>@@@?$vector@Ukeyframe@@V?$allocator@Ukeyframe@@@std@@@std@@AEAAX_KV<lambda_753cb66179afa6340adadd7109f91d2f>@@@Z 0000000140039294     Animation.obj
 0002:000072a8       $unwind$??$_Resize@V<lambda_3bf83ccb702bae8a49d568d66998a612>@@@?$vector@V?$array@Ufloat4@@$03@std@@V?$allocator@V?$array@Ufloat4@@$03@std@@@2@@std@@AEAAX_KV<lambda_3bf83ccb702bae8a49d568d66998a612>@@@Z 00000001400392a8     Animation.obj
 0002:000072a8       $unwind$??$_Partition_by_median_guess_unchecked@PEAPEBUSpriteInfo@Impl@SpriteBatch@DirectX@@V<lambda_9b5ae69721589d94e761d5c8d20d011a>@@@std@@YA?AU?$pair@PEAPEBUSpriteInfo@Impl@SpriteBatch@DirectX@@PEAPEBU1234@@0@PEAPEBUSpriteInfo@Impl@SpriteBatch@DirectX@@0V<lambda_9b5ae69721589d94e761d5c8d20d011a>@@@Z 00000001400392a8     DirectXTK:SpriteBatch.obj
 0002:000072a8       $unwind$??$_Partition_by_median_guess_unchecked@PEAPEBUSpriteInfo@Impl@SpriteBatch@DirectX@@V<lambda_c8cd3344139af936846f26b5e655a233>@@@std@@YA?AU?$pair@PEAPEBUSpriteInfo@Impl@SpriteBatch@DirectX@@PEAPEBU1234@@0@PEAPEBUSpriteInfo@Impl@SpriteBatch@DirectX@@0V<lambda_c8cd3344139af936846f26b5e655a233>@@@Z 00000001400392a8     DirectXTK:SpriteBatch.obj
 0002:000072b8       $chain$0$??$_Resize@V<lambda_3bf83ccb702bae8a49d568d66998a612>@@@?$vector@V?$array@Ufloat4@@$03@std@@V?$allocator@V?$array@Ufloat4@@$03@std@@@2@@std@@AEAAX_KV<lambda_3bf83ccb702bae8a49d568d66998a612>@@@Z 00000001400392b8     Animation.obj
 0002:000072cc       $chain$1$??$_Resize@V<lambda_3bf83ccb702bae8a49d568d66998a612>@@@?$vector@V?$array@Ufloat4@@$03@std@@V?$allocator@V?$array@Ufloat4@@$03@std@@@2@@std@@AEAAX_KV<lambda_3bf83ccb702bae8a49d568d66998a612>@@@Z 00000001400392cc     Animation.obj
 0002:000072dc       $unwind$??$_Emplace_reallocate@V?$array@Ufloat4@@$03@std@@@?$vector@V?$array@Ufloat4@@$03@std@@V?$allocator@V?$array@Ufloat4@@$03@std@@@2@@std@@QEAAPEAV?$array@Ufloat4@@$03@1@QEAV21@$$QEAV21@@Z 00000001400392dc     Animation.obj
 0002:000072dc       $unwind$??$_Emplace_reallocate@AEBV?$array@Ufloat4@@$03@std@@@?$vector@V?$array@Ufloat4@@$03@std@@V?$allocator@V?$array@Ufloat4@@$03@std@@@2@@std@@QEAAPEAV?$array@Ufloat4@@$03@1@QEAV21@AEBV21@@Z 00000001400392dc     Animation.obj
 0002:000072ec       $chain$2$??$_Emplace_reallocate@AEBV?$array@Ufloat4@@$03@std@@@?$vector@V?$array@Ufloat4@@$03@std@@V?$allocator@V?$array@Ufloat4@@$03@std@@@2@@std@@QEAAPEAV?$array@Ufloat4@@$03@1@QEAV21@AEBV21@@Z 00000001400392ec     Animation.obj
 0002:000072ec       $chain$2$??$_Emplace_reallocate@V?$array@Ufloat4@@$03@std@@@?$vector@V?$array@Ufloat4@@$03@std@@V?$allocator@V?$array@Ufloat4@@$03@std@@@2@@std@@QEAAPEAV?$array@Ufloat4@@$03@1@QEAV21@$$QEAV21@@Z 00000001400392ec     Animation.obj
 0002:00007308       $chain$3$??$_Emplace_reallocate@V?$array@Ufloat4@@$03@std@@@?$vector@V?$array@Ufloat4@@$03@std@@V?$allocator@V?$array@Ufloat4@@$03@std@@@2@@std@@QEAAPEAV?$array@Ufloat4@@$03@1@QEAV21@$$QEAV21@@Z 0000000140039308     Animation.obj
 0002:00007308       $chain$3$??$_Emplace_reallocate@AEBV?$array@Ufloat4@@$03@std@@@?$vector@V?$array@Ufloat4@@$03@std@@V?$allocator@V?$array@Ufloat4@@$03@std@@@2@@std@@QEAAPEAV?$array@Ufloat4@@$03@1@QEAV21@AEBV21@@Z 0000000140039308     Animation.obj
 0002:00007318       $unwind$??$use_facet@V?$codecvt@DDU_Mbstatet@@@std@@@std@@YAAEBV?$codecvt@DDU_Mbstatet@@@0@AEBVlocale@0@@Z 0000000140039318     Animation.obj
 0002:00007334       $stateUnwindMap$??$use_facet@V?$codecvt@DDU_Mbstatet@@@std@@@std@@YAAEBV?$codecvt@DDU_Mbstatet@@@0@AEBVlocale@0@@Z 0000000140039334     Animation.obj
 0002:00007350       $ip2state$??$use_facet@V?$codecvt@DDU_Mbstatet@@@std@@@std@@YAAEBV?$codecvt@DDU_Mbstatet@@@0@AEBVlocale@0@@Z 0000000140039350     Animation.obj
 0002:00007378       $unwind$??$_Reallocate_grow_by@V<lambda_319d5e083f45f90dcdce5dce53cbb275>@@D@?$basic_string@DU?$char_traits@D@std@@V?$allocator@D@2@@std@@QEAAAEAV01@_KV<lambda_319d5e083f45f90dcdce5dce53cbb275>@@D@Z 0000000140039378     Animation.obj
 0002:00007388       $chain$2$??$_Reallocate_grow_by@V<lambda_319d5e083f45f90dcdce5dce53cbb275>@@D@?$basic_string@DU?$char_traits@D@std@@V?$allocator@D@2@@std@@QEAAAEAV01@_KV<lambda_319d5e083f45f90dcdce5dce53cbb275>@@D@Z 0000000140039388     Animation.obj
 0002:000073a4       $chain$3$??$_Reallocate_grow_by@V<lambda_319d5e083f45f90dcdce5dce53cbb275>@@D@?$basic_string@DU?$char_traits@D@std@@V?$allocator@D@2@@std@@QEAAAEAV01@_KV<lambda_319d5e083f45f90dcdce5dce53cbb275>@@D@Z 00000001400393a4     Animation.obj
 0002:000073b4       $unwind$??$_Destroy_range@V?$allocator@Ukeyframe@@@std@@@std@@YAXPEAUkeyframe@@0AEAV?$allocator@Ukeyframe@@@0@@Z 00000001400393b4     Animation.obj
 0002:000073bc       $chain$1$??$_Destroy_range@V?$allocator@Ukeyframe@@@std@@@std@@YAXPEAUkeyframe@@0AEAV?$allocator@Ukeyframe@@@0@@Z 00000001400393bc     Animation.obj
 0002:000073d4       $chain$2$??$_Destroy_range@V?$allocator@Ukeyframe@@@std@@@std@@YAXPEAUkeyframe@@0AEAV?$allocator@Ukeyframe@@@0@@Z 00000001400393d4     Animation.obj
 0002:000073e4       $chain$3$??$_Destroy_range@V?$allocator@Ukeyframe@@@std@@@std@@YAXPEAUkeyframe@@0AEAV?$allocator@Ukeyframe@@@0@@Z 00000001400393e4     Animation.obj
 0002:000073fc       $unwind$??1?$unique_ptr@V_Facet_base@std@@U?$default_delete@V_Facet_base@std@@@2@@std@@QEAA@XZ 00000001400393fc     Animation.obj
 0002:0000740c       $stateUnwindMap$?_Reset_move@?$_Func_class@X$$V@std@@IEAAX$$QEAV12@@Z 000000014003940c     GameManager.obj
 0002:0000740c       $stateUnwindMap$??1WrappedData@?$SharedResourcePool@PEAUID3D11DeviceContext@@UContextResources@Impl@SpriteBatch@DirectX@@$$V@DirectX@@QEAA@XZ 000000014003940c     DirectXTK:SpriteBatch.obj
 0002:0000740c       $stateUnwindMap$?_Destroy@?$_Ref_count_obj@UResourceMap@?$SharedResourcePool@PEAUID3D11Device@@UDeviceResources@Impl@SpriteBatch@DirectX@@$$V@DirectX@@@std@@EEAAXXZ 000000014003940c     DirectXTK:SpriteBatch.obj
 0002:0000740c       $stateUnwindMap$??1_Fac_tidy_reg_t@std@@QEAA@XZ 000000014003940c     msvcprt:locale0_implib.obj
 0002:0000740c       $stateUnwindMap$??1sentry@?$basic_ostream@DU?$char_traits@D@std@@@std@@QEAA@XZ 000000014003940c     SkyboxShader.obj
 0002:0000740c       $stateUnwindMap$?_Destroy@?$_Ref_count_obj@UResourceMap@?$SharedResourcePool@PEAUID3D11Device@@VImpl@CommonStates@DirectX@@$$V@DirectX@@@std@@EEAAXXZ 000000014003940c     DirectXTK:CommonStates.obj
 0002:0000740c       $stateUnwindMap$??1?$unique_ptr@V_Facet_base@std@@U?$default_delete@V_Facet_base@std@@@2@@std@@QEAA@XZ 000000014003940c     Animation.obj
 0002:0000740c       $stateUnwindMap$??1Shop@@QEAA@XZ 000000014003940c     Shop.obj
 0002:0000740c       $stateUnwindMap$??1UIElement@@QEAA@XZ 000000014003940c     UIElement.obj
 0002:0000740c       $stateUnwindMap$?erase@?$_Tree@V?$_Tmap_traits@V?$basic_string@DU?$char_traits@D@std@@V?$allocator@D@2@@std@@PEAUItem@Shop@@U?$less@V?$basic_string@DU?$char_traits@D@std@@V?$allocator@D@2@@std@@@2@V?$allocator@U?$pair@$$CBV?$basic_string@DU?$char_traits@D@std@@V?$allocator@D@2@@std@@PEAUItem@Shop@@@std@@@2@$0A@@std@@@std@@QEAA?AV?$_Tree_iterator@V?$_Tree_val@U?$_Tree_simple_types@U?$pair@$$CBV?$basic_string@DU?$char_traits@D@std@@V?$allocator@D@2@@std@@PEAUItem@Shop@@@std@@@std@@@std@@@2@V?$_Tree_const_iterator@V?$_Tree_val@U?$_Tree_simple_types@U?$pair@$$CBV?$basic_string@DU?$char_traits@D@std@@V?$allocator@D@2@@std@@PEAUItem@Shop@@@std@@@std@@@std@@@2@0@Z 000000014003940c     Shop.obj
 0002:0000740c       $stateUnwindMap$?erase@?$_Tree@V?$_Tmap_traits@V?$basic_string@DU?$char_traits@D@std@@V?$allocator@D@2@@std@@PEAVUIElement@@U?$less@V?$basic_string@DU?$char_traits@D@std@@V?$allocator@D@2@@std@@@2@V?$allocator@U?$pair@$$CBV?$basic_string@DU?$char_traits@D@std@@V?$allocator@D@2@@std@@PEAVUIElement@@@std@@@2@$0A@@std@@@std@@QEAA?AV?$_Tree_iterator@V?$_Tree_val@U?$_Tree_simple_types@U?$pair@$$CBV?$basic_string@DU?$char_traits@D@std@@V?$allocator@D@2@@std@@PEAVUIElement@@@std@@@std@@@std@@@2@V?$_Tree_const_iterator@V?$_Tree_val@U?$_Tree_simple_types@U?$pair@$$CBV?$basic_string@DU?$char_traits@D@std@@V?$allocator@D@2@@std@@PEAVUIElement@@@std@@@std@@@std@@@2@0@Z 000000014003940c     Shop.obj
 0002:0000740c       $stateUnwindMap$?erase@?$_Tree@V?$_Tmap_traits@PEAUID3D11DeviceContext@@V?$weak_ptr@UContextResources@Impl@SpriteBatch@DirectX@@@std@@U?$less@PEAUID3D11DeviceContext@@@3@V?$allocator@U?$pair@QEAUID3D11DeviceContext@@V?$weak_ptr@UContextResources@Impl@SpriteBatch@DirectX@@@std@@@std@@@3@$0A@@std@@@std@@QEAA?AV?$_Tree_iterator@V?$_Tree_val@U?$_Tree_simple_types@U?$pair@QEAUID3D11DeviceContext@@V?$weak_ptr@UContextResources@Impl@SpriteBatch@DirectX@@@std@@@std@@@std@@@std@@@2@V?$_Tree_const_iterator@V?$_Tree_val@U?$_Tree_simple_types@U?$pair@QEAUID3D11DeviceContext@@V?$weak_ptr@UContextResources@Impl@SpriteBatch@DirectX@@@std@@@std@@@std@@@std@@@2@0@Z 000000014003940c     DirectXTK:SpriteBatch.obj
 0002:0000740c       $stateUnwindMap$??1?$function@$$A6AXXZ@std@@QEAA@XZ 000000014003940c     graphicsclass.obj
 0002:0000740c       $stateUnwindMap$?_Destroy@?$_Ref_count_obj@UResourceMap@?$SharedResourcePool@PEAUID3D11DeviceContext@@UContextResources@Impl@SpriteBatch@DirectX@@$$V@DirectX@@@std@@EEAAXXZ 000000014003940c     DirectXTK:SpriteBatch.obj
 0002:0000740c       $stateUnwindMap$?erase@?$_Tree@V?$_Tmap_traits@PEAUID3D11Device@@V?$weak_ptr@UDeviceResources@Impl@SpriteBatch@DirectX@@@std@@U?$less@PEAUID3D11Device@@@3@V?$allocator@U?$pair@QEAUID3D11Device@@V?$weak_ptr@UDeviceResources@Impl@SpriteBatch@DirectX@@@std@@@std@@@3@$0A@@std@@@std@@QEAA?AV?$_Tree_iterator@V?$_Tree_val@U?$_Tree_simple_types@U?$pair@QEAUID3D11Device@@V?$weak_ptr@UDeviceResources@Impl@SpriteBatch@DirectX@@@std@@@std@@@std@@@std@@@2@V?$_Tree_const_iterator@V?$_Tree_val@U?$_Tree_simple_types@U?$pair@QEAUID3D11Device@@V?$weak_ptr@UDeviceResources@Impl@SpriteBatch@DirectX@@@std@@@std@@@std@@@std@@@2@0@Z 000000014003940c     DirectXTK:SpriteBatch.obj
 0002:0000740c       $stateUnwindMap$?__scrt_initialize_thread_safe_statics@@YAHXZ 000000014003940c     MSVCRT:thread_safe_statics.obj
 0002:0000740c       $stateUnwindMap$?erase@?$_Tree@V?$_Tmap_traits@PEAUID3D11Device@@V?$weak_ptr@VImpl@CommonStates@DirectX@@@std@@U?$less@PEAUID3D11Device@@@3@V?$allocator@U?$pair@QEAUID3D11Device@@V?$weak_ptr@VImpl@CommonStates@DirectX@@@std@@@std@@@3@$0A@@std@@@std@@QEAA?AV?$_Tree_iterator@V?$_Tree_val@U?$_Tree_simple_types@U?$pair@QEAUID3D11Device@@V?$weak_ptr@VImpl@CommonStates@DirectX@@@std@@@std@@@std@@@std@@@2@V?$_Tree_const_iterator@V?$_Tree_val@U?$_Tree_simple_types@U?$pair@QEAUID3D11Device@@V?$weak_ptr@VImpl@CommonStates@DirectX@@@std@@@std@@@std@@@std@@@2@0@Z 000000014003940c     DirectXTK:CommonStates.obj
 0002:0000740c       $stateUnwindMap$?ShutDown@GameManager@@QEAAXXZ 000000014003940c     GameManager.obj
 0002:0000740c       $stateUnwindMap$??1?$_Func_class@X$$V@std@@QEAA@XZ 000000014003940c     graphicsclass.obj
 0002:00007418       $ip2state$??1?$unique_ptr@V_Facet_base@std@@U?$default_delete@V_Facet_base@std@@@2@@std@@QEAA@XZ 0000000140039418     Animation.obj
 0002:00007420       $unwind$?_Change_array@?$vector@FV?$allocator@F@std@@@std@@AEAAXQEAF_K1@Z 0000000140039420     DirectXTK:SpriteBatch.obj
 0002:00007420       $unwind$?Shutdown@GameObject@@UEAAXXZ 0000000140039420     GameObject.obj
 0002:00007420       $unwind$?_Change_array@?$vector@V?$array@Ufloat4@@$03@std@@V?$allocator@V?$array@Ufloat4@@$03@std@@@2@@std@@AEAAXQEAV?$array@Ufloat4@@$03@2@_K1@Z 0000000140039420     Animation.obj
 0002:00007420       $unwind$?_Change_array@?$vector@PEAVSound@@V?$allocator@PEAVSound@@@std@@@std@@AEAAXQEAPEAVSound@@_K1@Z 0000000140039420     EnemyManager.obj
 0002:00007434       $unwind$??$_Assign_range@PEAV?$array@Ufloat4@@$03@std@@@?$vector@V?$array@Ufloat4@@$03@std@@V?$allocator@V?$array@Ufloat4@@$03@std@@@2@@std@@AEAAXPEAV?$array@Ufloat4@@$03@1@0Uforward_iterator_tag@1@@Z 0000000140039434     Animation.obj
 0002:00007448       $unwind$??Dfloat3@@QEBAAEAU0@AEBM@Z 0000000140039448     BombEnemy.obj
 0002:00007448       $unwind$??Gfloat3@@QEBAAEAU0@AEBU0@@Z 0000000140039448     BombEnemy.obj
 0002:00007448       $unwind$?SetSize@UIElement@@QEAAXJJ@Z 0000000140039448     GameManager.obj
 0002:00007450       $unwind$??0BombEnemy@@QEAA@XZ 0000000140039450     BombEnemy.obj
 0002:00007464       $stateUnwindMap$??0Target@@QEAA@XZ 0000000140039464     Target.obj
 0002:00007464       $stateUnwindMap$??0BombEnemy@@QEAA@XZ 0000000140039464     BombEnemy.obj
 0002:00007464       $stateUnwindMap$??0RangedEnemy@@QEAA@XZ 0000000140039464     RangedEnemy.obj
 0002:00007478       $ip2state$??0BombEnemy@@QEAA@XZ 0000000140039478     BombEnemy.obj
 0002:00007490       $unwind$?Initialize@BombEnemy@@UEAA_NPEAUID3D11Device@@PEBDUfloat3@@@Z 0000000140039490     BombEnemy.obj
 0002:00007490       $unwind$?SetMouseOverTexture@ButtonElement@@QEAAXPEBD@Z 0000000140039490     UIElement.obj
 0002:00007490       $unwind$?Update@Graphics@@QEAAXPEAVInputManager@@MPEAVPlayer@@@Z 0000000140039490     graphicsclass.obj
 0002:00007490       $unwind$?SetMouseClickTexture@ButtonElement@@QEAAXPEBD@Z 0000000140039490     UIElement.obj
 0002:0000749c       $unwind$?Update@BombEnemy@@QEAAXMPEAVPlayer@@AEAV?$vector@PEAVBullet@@V?$allocator@PEAVBullet@@@std@@@std@@PEAUID3D11Device@@AEAV?$vector@PEAVEnemy@@V?$allocator@PEAVEnemy@@@std@@@4@PEAUHWND__@@@Z 000000014003949c     BombEnemy.obj
 0002:000074b4       $unwind$?Attack@BombEnemy@@QEAAXPEAVPlayer@@AEAV?$vector@PEAVEnemy@@V?$allocator@PEAVEnemy@@@std@@@std@@PEAUHWND__@@@Z 00000001400394b4     BombEnemy.obj
 0002:000074cc       $chain$3$?Attack@BombEnemy@@QEAAXPEAVPlayer@@AEAV?$vector@PEAVEnemy@@V?$allocator@PEAVEnemy@@@std@@@std@@PEAUHWND__@@@Z 00000001400394cc     BombEnemy.obj
 0002:000074ec       $chain$4$?Attack@BombEnemy@@QEAAXPEAVPlayer@@AEAV?$vector@PEAVEnemy@@V?$allocator@PEAVEnemy@@@std@@@std@@PEAUHWND__@@@Z 00000001400394ec     BombEnemy.obj
 0002:000074fc       $unwind$??0Bullet@@QEAA@M@Z 00000001400394fc     Bullet.obj
 0002:00007514       $stateUnwindMap$??0Bullet@@QEAA@M@Z 0000000140039514     Bullet.obj
 0002:00007528       $ip2state$??0Bullet@@QEAA@M@Z 0000000140039528     Bullet.obj
 0002:00007538       $unwind$?Initialize@Bullet@@QEAA_NPEAUID3D11Device@@PEBDUfloat3@@2V?$basic_string@DU?$char_traits@D@std@@V?$allocator@D@2@@std@@M@Z 0000000140039538     Bullet.obj
 0002:00007554       $stateUnwindMap$?Initialize@Bullet@@QEAA_NPEAUID3D11Device@@PEBDUfloat3@@2V?$basic_string@DU?$char_traits@D@std@@V?$allocator@D@2@@std@@M@Z 0000000140039554     Bullet.obj
 0002:00007560       $ip2state$?Initialize@Bullet@@QEAA_NPEAUID3D11Device@@PEBDUfloat3@@2V?$basic_string@DU?$char_traits@D@std@@V?$allocator@D@2@@std@@M@Z 0000000140039560     Bullet.obj
 0002:00007570       $unwind$??0?$basic_string@DU?$char_traits@D@std@@V?$allocator@D@2@@std@@QEAA@AEBV01@@Z 0000000140039570     Bullet.obj
 0002:00007580       $unwind$?assign@?$basic_string@DU?$char_traits@D@std@@V?$allocator@D@2@@std@@QEAAAEAV12@QEBD_K@Z 0000000140039580     Bullet.obj
 0002:00007590       $chain$0$?assign@?$basic_string@DU?$char_traits@D@std@@V?$allocator@D@2@@std@@QEAAAEAV12@QEBD_K@Z 0000000140039590     Bullet.obj
 0002:000075a4       $chain$2$?assign@?$basic_string@DU?$char_traits@D@std@@V?$allocator@D@2@@std@@QEAAAEAV12@QEBD_K@Z 00000001400395a4     Bullet.obj
 0002:000075b8       $chain$3$?assign@?$basic_string@DU?$char_traits@D@std@@V?$allocator@D@2@@std@@QEAAAEAV12@QEBD_K@Z 00000001400395b8     Bullet.obj
 0002:000075c8       $unwind$?XMVectorSinCos@DirectX@@YQXPEAT__m128@@0T2@@Z 00000001400395c8     DebugCamera.obj
 0002:000075d8       $unwind$?XMMatrixRotationRollPitchYawFromVector@DirectX@@YQ?AUXMMATRIX@1@T__m128@@@Z 00000001400395d8     DebugCamera.obj
 0002:000075e4       $unwind$?XMMatrixLookToLH@DirectX@@YQ?AUXMMATRIX@1@T__m128@@00@Z 00000001400395e4     DebugCamera.obj
 0002:00007600       $unwind$?XMQuaternionRotationRollPitchYawFromVector@DirectX@@YQ?AT__m128@@T2@@Z 0000000140039600     DebugCamera.obj
 0002:00007624       $unwind$?Update@DebugCamera@@QEAAXXZ 0000000140039624     DebugCamera.obj
 0002:00007648       $unwind$??0Enemy@@QEAA@XZ  0000000140039648     Enemy.obj
 0002:0000765c       $stateUnwindMap$??0Enemy@@QEAA@XZ 000000014003965c     Enemy.obj
 0002:00007668       $ip2state$??0Enemy@@QEAA@XZ 0000000140039668     Enemy.obj
 0002:00007678       $unwind$?SphereToAABB@@YA_NUSphere@@UAABB@@@Z 0000000140039678     EnemyManager.obj
 0002:00007688       $unwind$?Initialize@EnemyManager@@QEAAXPEAUID3D11Device@@@Z 0000000140039688     EnemyManager.obj
 0002:000076b8       $stateUnwindMap$?Initialize@EnemyManager@@QEAAXPEAUID3D11Device@@@Z 00000001400396b8     EnemyManager.obj
 0002:000076d0       $ip2state$?Initialize@EnemyManager@@QEAAXPEAUID3D11Device@@@Z 00000001400396d0     EnemyManager.obj
 0002:00007708       $unwind$?Shutdown@EnemyManager@@QEAAXXZ 0000000140039708     EnemyManager.obj
 0002:00007718       $chain$1$?Shutdown@EnemyManager@@QEAAXXZ 0000000140039718     EnemyManager.obj
 0002:00007730       $chain$2$?Shutdown@EnemyManager@@QEAAXXZ 0000000140039730     EnemyManager.obj
 0002:00007740       $unwind$?Update@EnemyManager@@QEAAXMPEAVPlayer@@V?$vector@PEAVGameObject@@V?$allocator@PEAVGameObject@@@std@@@std@@AEAV?$vector@PEAVBullet@@V?$allocator@PEAVBullet@@@std@@@4@PEAUID3D11Device@@PEAUHWND__@@@Z 0000000140039740     EnemyManager.obj
 0002:00007780       $stateUnwindMap$?Update@EnemyManager@@QEAAXMPEAVPlayer@@V?$vector@PEAVGameObject@@V?$allocator@PEAVGameObject@@@std@@@std@@AEAV?$vector@PEAVBullet@@V?$allocator@PEAVBullet@@@std@@@4@PEAUID3D11Device@@PEAUHWND__@@@Z 0000000140039780     EnemyManager.obj
 0002:000077b0       $ip2state$?Update@EnemyManager@@QEAAXMPEAVPlayer@@V?$vector@PEAVGameObject@@V?$allocator@PEAVGameObject@@@std@@@std@@AEAV?$vector@PEAVBullet@@V?$allocator@PEAVBullet@@@std@@@4@PEAUID3D11Device@@PEAUHWND__@@@Z 00000001400397b0     EnemyManager.obj
 0002:00007810       $unwind$?CalculateSeperation@EnemyManager@@QEAA?AUfloat3@@AEAVEnemy@@@Z 0000000140039810     EnemyManager.obj
 0002:00007828       $chain$3$?CalculateSeperation@EnemyManager@@QEAA?AUfloat3@@AEAVEnemy@@@Z 0000000140039828     EnemyManager.obj
 0002:00007848       $chain$6$?CalculateSeperation@EnemyManager@@QEAA?AUfloat3@@AEAVEnemy@@@Z 0000000140039848     EnemyManager.obj
 0002:00007864       $chain$7$?CalculateSeperation@EnemyManager@@QEAA?AUfloat3@@AEAVEnemy@@@Z 0000000140039864     EnemyManager.obj
 0002:00007874       $chain$8$?CalculateSeperation@EnemyManager@@QEAA?AUfloat3@@AEAVEnemy@@@Z 0000000140039874     EnemyManager.obj
 0002:00007884       $unwind$?CalculateObstacleSeperation@EnemyManager@@QEAA?AUfloat3@@AEAVEnemy@@V?$vector@PEAVGameObject@@V?$allocator@PEAVGameObject@@@std@@@std@@@Z 0000000140039884     EnemyManager.obj
 0002:00007890       $chain$6$?CalculateObstacleSeperation@EnemyManager@@QEAA?AUfloat3@@AEAVEnemy@@V?$vector@PEAVGameObject@@V?$allocator@PEAVGameObject@@@std@@@std@@@Z 0000000140039890     EnemyManager.obj
 0002:000078bc       $chain$13$?CalculateObstacleSeperation@EnemyManager@@QEAA?AUfloat3@@AEAVEnemy@@V?$vector@PEAVGameObject@@V?$allocator@PEAVGameObject@@@std@@@std@@@Z 00000001400398bc     EnemyManager.obj
 0002:000078e8       $chain$14$?CalculateObstacleSeperation@EnemyManager@@QEAA?AUfloat3@@AEAVEnemy@@V?$vector@PEAVGameObject@@V?$allocator@PEAVGameObject@@@std@@@std@@@Z 00000001400398e8     EnemyManager.obj
 0002:000078f8       $chain$15$?CalculateObstacleSeperation@EnemyManager@@QEAA?AUfloat3@@AEAVEnemy@@V?$vector@PEAVGameObject@@V?$allocator@PEAVGameObject@@@std@@@std@@@Z 00000001400398f8     EnemyManager.obj
 0002:00007918       $chain$16$?CalculateObstacleSeperation@EnemyManager@@QEAA?AUfloat3@@AEAVEnemy@@V?$vector@PEAVGameObject@@V?$allocator@PEAVGameObject@@@std@@@std@@@Z 0000000140039918     EnemyManager.obj
 0002:00007928       $chain$0$??0?$vector@PEAVEnemy@@V?$allocator@PEAVEnemy@@@std@@@std@@QEAA@AEBV01@@Z 0000000140039928     GameManager.obj
 0002:00007928       $chain$0$??0?$vector@PEAVSound@@V?$allocator@PEAVSound@@@std@@@std@@QEAA@AEBV01@@Z 0000000140039928     GameManager.obj
 0002:00007928       $chain$0$??0?$vector@PEAVGameObject@@V?$allocator@PEAVGameObject@@@std@@@std@@QEAA@AEBV01@@Z 0000000140039928     EnemyManager.obj
 0002:00007928       $chain$0$??0?$vector@PEAVBullet@@V?$allocator@PEAVBullet@@@std@@@std@@QEAA@AEBV01@@Z 0000000140039928     GameManager.obj
 0002:00007928       $chain$0$??0?$vector@PEAVPickup@@V?$allocator@PEAVPickup@@@std@@@std@@QEAA@AEBV01@@Z 0000000140039928     GameManager.obj
 0002:00007928       $chain$0$??0?$vector@PEAVGun@@V?$allocator@PEAVGun@@@std@@@std@@QEAA@AEBV01@@Z 0000000140039928     MyWindow.obj
 0002:0000793c       $chain$1$??0?$vector@PEAVBullet@@V?$allocator@PEAVBullet@@@std@@@std@@QEAA@AEBV01@@Z 000000014003993c     GameManager.obj
 0002:0000793c       $chain$1$??0?$vector@PEAVGameObject@@V?$allocator@PEAVGameObject@@@std@@@std@@QEAA@AEBV01@@Z 000000014003993c     EnemyManager.obj
 0002:0000793c       $chain$1$??0?$vector@PEAVSound@@V?$allocator@PEAVSound@@@std@@@std@@QEAA@AEBV01@@Z 000000014003993c     GameManager.obj
 0002:0000793c       $chain$1$??0?$vector@PEAVGun@@V?$allocator@PEAVGun@@@std@@@std@@QEAA@AEBV01@@Z 000000014003993c     MyWindow.obj
 0002:0000793c       $chain$1$??0?$vector@PEAVPickup@@V?$allocator@PEAVPickup@@@std@@@std@@QEAA@AEBV01@@Z 000000014003993c     GameManager.obj
 0002:0000793c       $chain$1$??0?$vector@PEAVEnemy@@V?$allocator@PEAVEnemy@@@std@@@std@@QEAA@AEBV01@@Z 000000014003993c     GameManager.obj
 0002:0000794c       $chain$2$??$_Emplace_reallocate@PEAVBullet@@@?$vector@PEAVBullet@@V?$allocator@PEAVBullet@@@std@@@std@@QEAAPEAPEAVBullet@@QEAPEAV2@$$QEAPEAV2@@Z 000000014003994c     GameManager.obj
 0002:0000794c       $chain$2$??$_Emplace_reallocate@PEAVGameObject@@@?$vector@PEAVGameObject@@V?$allocator@PEAVGameObject@@@std@@@std@@QEAAPEAPEAVGameObject@@QEAPEAV2@$$QEAPEAV2@@Z 000000014003994c     GameManager.obj
 0002:0000794c       $chain$2$??$_Emplace_reallocate@AEBQEAVGun@@@?$vector@PEAVGun@@V?$allocator@PEAVGun@@@std@@@std@@QEAAPEAPEAVGun@@QEAPEAV2@AEBQEAV2@@Z 000000014003994c     GameManager.obj
 0002:0000794c       $chain$2$??$_Emplace_reallocate@AEBQEAVPickup@@@?$vector@PEAVPickup@@V?$allocator@PEAVPickup@@@std@@@std@@QEAAPEAPEAVPickup@@QEAPEAV2@AEBQEAV2@@Z 000000014003994c     GameManager.obj
 0002:0000794c       $chain$2$??$_Emplace_reallocate@AEBQEAVUIElement@@@?$vector@PEAVUIElement@@V?$allocator@PEAVUIElement@@@std@@@std@@QEAAPEAPEAVUIElement@@QEAPEAV2@AEBQEAV2@@Z 000000014003994c     UIManager.obj
 0002:0000794c       $chain$2$??$_Emplace_reallocate@PEAVEnemy@@@?$vector@PEAVEnemy@@V?$allocator@PEAVEnemy@@@std@@@std@@QEAAPEAPEAVEnemy@@QEAPEAV2@$$QEAPEAV2@@Z 000000014003994c     EnemyManager.obj
 0002:00007968       $chain$4$??$_Emplace_reallocate@AEBQEAVPickup@@@?$vector@PEAVPickup@@V?$allocator@PEAVPickup@@@std@@@std@@QEAAPEAPEAVPickup@@QEAPEAV2@AEBQEAV2@@Z 0000000140039968     GameManager.obj
 0002:00007968       $chain$4$??$_Emplace_reallocate@PEAVGameObject@@@?$vector@PEAVGameObject@@V?$allocator@PEAVGameObject@@@std@@@std@@QEAAPEAPEAVGameObject@@QEAPEAV2@$$QEAPEAV2@@Z 0000000140039968     GameManager.obj
 0002:00007968       $chain$4$??$_Emplace_reallocate@PEAVBullet@@@?$vector@PEAVBullet@@V?$allocator@PEAVBullet@@@std@@@std@@QEAAPEAPEAVBullet@@QEAPEAV2@$$QEAPEAV2@@Z 0000000140039968     GameManager.obj
 0002:00007968       $chain$4$??$_Emplace_reallocate@AEBQEAVUIElement@@@?$vector@PEAVUIElement@@V?$allocator@PEAVUIElement@@@std@@@std@@QEAAPEAPEAVUIElement@@QEAPEAV2@AEBQEAV2@@Z 0000000140039968     UIManager.obj
 0002:00007968       $chain$4$??$_Emplace_reallocate@AEBQEAVGun@@@?$vector@PEAVGun@@V?$allocator@PEAVGun@@@std@@@std@@QEAAPEAPEAVGun@@QEAPEAV2@AEBQEAV2@@Z 0000000140039968     GameManager.obj
 0002:00007968       $chain$4$??$_Emplace_reallocate@PEAVEnemy@@@?$vector@PEAVEnemy@@V?$allocator@PEAVEnemy@@@std@@@std@@QEAAPEAPEAVEnemy@@QEAPEAV2@$$QEAPEAV2@@Z 0000000140039968     EnemyManager.obj
 0002:00007984       $chain$5$??$_Emplace_reallocate@PEAVEnemy@@@?$vector@PEAVEnemy@@V?$allocator@PEAVEnemy@@@std@@@std@@QEAAPEAPEAVEnemy@@QEAPEAV2@$$QEAPEAV2@@Z 0000000140039984     EnemyManager.obj
 0002:00007984       $chain$5$??$_Emplace_reallocate@AEBQEAVUIElement@@@?$vector@PEAVUIElement@@V?$allocator@PEAVUIElement@@@std@@@std@@QEAAPEAPEAVUIElement@@QEAPEAV2@AEBQEAV2@@Z 0000000140039984     UIManager.obj
 0002:00007984       $chain$5$??$_Emplace_reallocate@PEAVGameObject@@@?$vector@PEAVGameObject@@V?$allocator@PEAVGameObject@@@std@@@std@@QEAAPEAPEAVGameObject@@QEAPEAV2@$$QEAPEAV2@@Z 0000000140039984     GameManager.obj
 0002:00007984       $chain$5$??$_Emplace_reallocate@AEBQEAVPickup@@@?$vector@PEAVPickup@@V?$allocator@PEAVPickup@@@std@@@std@@QEAAPEAPEAVPickup@@QEAPEAV2@AEBQEAV2@@Z 0000000140039984     GameManager.obj
 0002:00007984       $chain$5$??$_Emplace_reallocate@PEAVBullet@@@?$vector@PEAVBullet@@V?$allocator@PEAVBullet@@@std@@@std@@QEAAPEAPEAVBullet@@QEAPEAV2@$$QEAPEAV2@@Z 0000000140039984     GameManager.obj
 0002:00007984       $chain$5$??$_Emplace_reallocate@AEBQEAVGun@@@?$vector@PEAVGun@@V?$allocator@PEAVGun@@@std@@@std@@QEAAPEAPEAVGun@@QEAPEAV2@AEBQEAV2@@Z 0000000140039984     GameManager.obj
 0002:00007994       $unwind$??$_Emplace_reallocate@PEAVSound@@@?$vector@PEAVSound@@V?$allocator@PEAVSound@@@std@@@std@@QEAAPEAPEAVSound@@QEAPEAV2@$$QEAPEAV2@@Z 0000000140039994     EnemyManager.obj
 0002:00007994       $unwind$??$_Emplace_reallocate@AEBQEAVSound@@@?$vector@PEAVSound@@V?$allocator@PEAVSound@@@std@@@std@@QEAAPEAPEAVSound@@QEAPEAV2@AEBQEAV2@@Z 0000000140039994     GameManager.obj
 0002:000079a4       $chain$1$??$_Emplace_reallocate@PEAVSound@@@?$vector@PEAVSound@@V?$allocator@PEAVSound@@@std@@@std@@QEAAPEAPEAVSound@@QEAPEAV2@$$QEAPEAV2@@Z 00000001400399a4     EnemyManager.obj
 0002:000079a4       $chain$1$??$_Emplace_reallocate@AEBQEAVSound@@@?$vector@PEAVSound@@V?$allocator@PEAVSound@@@std@@@std@@QEAAPEAPEAVSound@@QEAPEAV2@AEBQEAV2@@Z 00000001400399a4     GameManager.obj
 0002:000079bc       $chain$2$??$_Emplace_reallocate@PEAVSound@@@?$vector@PEAVSound@@V?$allocator@PEAVSound@@@std@@@std@@QEAAPEAPEAVSound@@QEAPEAV2@$$QEAPEAV2@@Z 00000001400399bc     EnemyManager.obj
 0002:000079bc       $chain$2$??$_Emplace_reallocate@AEBQEAVSound@@@?$vector@PEAVSound@@V?$allocator@PEAVSound@@@std@@@std@@QEAAPEAPEAVSound@@QEAPEAV2@AEBQEAV2@@Z 00000001400399bc     GameManager.obj
 0002:000079cc       $unwind$?Construct@Frustum@@QEAAXMUXMMATRIX@DirectX@@0@Z 00000001400399cc     Frustum.obj
 0002:00007a08       $unwind$??0GameObject@@QEAA@XZ 0000000140039a08     GameObject.obj
 0002:00007a20       $stateUnwindMap$??0GameObject@@QEAA@XZ 0000000140039a20     GameObject.obj
 0002:00007a48       $ip2state$??0GameObject@@QEAA@XZ 0000000140039a48     GameObject.obj
 0002:00007a58       $unwind$?GetParent@GameObject@@QEAAHHV?$vector@HV?$allocator@H@std@@@std@@@Z 0000000140039a58     GameObject.obj
 0002:00007a70       $stateUnwindMap$?GetParent@GameObject@@QEAAHHV?$vector@HV?$allocator@H@std@@@std@@@Z 0000000140039a70     GameObject.obj
 0002:00007a78       $ip2state$?GetParent@GameObject@@QEAAHHV?$vector@HV?$allocator@H@std@@@std@@@Z 0000000140039a78     GameObject.obj
 0002:00007a88       $unwind$?Update@GameObject@@UEAAXM@Z 0000000140039a88     GameObject.obj
 0002:00007a94       $unwind$?AddAninimation@GameObject@@QEAAXPEBDPEAUID3D11Device@@H@Z 0000000140039a94     GameObject.obj
 0002:00007ab8       $stateUnwindMap$?AddAninimation@GameObject@@QEAAXPEBDPEAUID3D11Device@@H@Z 0000000140039ab8     GameObject.obj
 0002:00007af0       $ip2state$?AddAninimation@GameObject@@QEAAXPEBDPEAUID3D11Device@@H@Z 0000000140039af0     GameObject.obj
 0002:00007b40       $unwind$??0?$vector@Ukeyframe@@V?$allocator@Ukeyframe@@@std@@@std@@QEAA@AEBV01@@Z 0000000140039b40     GameObject.obj
 0002:00007b5c       $stateUnwindMap$??0?$vector@Ukeyframe@@V?$allocator@Ukeyframe@@@std@@@std@@QEAA@AEBV01@@Z 0000000140039b5c     GameObject.obj
 0002:00007b74       $tryMap$??0?$vector@Ukeyframe@@V?$allocator@Ukeyframe@@@std@@@std@@QEAA@AEBV01@@Z 0000000140039b74     GameObject.obj
 0002:00007b88       $handlerMap$0$??0?$vector@Ukeyframe@@V?$allocator@Ukeyframe@@@std@@@std@@QEAA@AEBV01@@Z 0000000140039b88     GameObject.obj
 0002:00007ba0       $ip2state$??0?$vector@Ukeyframe@@V?$allocator@Ukeyframe@@@std@@@std@@QEAA@AEBV01@@Z 0000000140039ba0     GameObject.obj
 0002:00007bc8       $unwind$?catch$2@?0???0?$vector@Ukeyframe@@V?$allocator@Ukeyframe@@@std@@@std@@QEAA@AEBV01@@Z@4HA 0000000140039bc8     GameObject.obj
 0002:00007bd8       $unwind$??$_Emplace_reallocate@AEBUSphere@@@?$vector@USphere@@V?$allocator@USphere@@@std@@@std@@QEAAPEAUSphere@@QEAU2@AEBU2@@Z 0000000140039bd8     GameObject.obj
 0002:00007be8       $chain$1$??$_Emplace_reallocate@AEBUSphere@@@?$vector@USphere@@V?$allocator@USphere@@@std@@@std@@QEAAPEAUSphere@@QEAU2@AEBU2@@Z 0000000140039be8     GameObject.obj
 0002:00007c00       $chain$3$??$_Emplace_reallocate@AEBUSphere@@@?$vector@USphere@@V?$allocator@USphere@@@std@@@std@@QEAAPEAUSphere@@QEAU2@AEBU2@@Z 0000000140039c00     GameObject.obj
 0002:00007c18       $chain$4$??$_Emplace_reallocate@AEBUSphere@@@?$vector@USphere@@V?$allocator@USphere@@@std@@@std@@QEAAPEAUSphere@@QEAU2@AEBU2@@Z 0000000140039c18     GameObject.obj
 0002:00007c28       $unwind$??$_Resize@V<lambda_5faba587ae6cafb8bb5bc4a9224fce8d>@@@?$vector@PEAVAnimation@@V?$allocator@PEAVAnimation@@@std@@@std@@AEAAX_KV<lambda_5faba587ae6cafb8bb5bc4a9224fce8d>@@@Z 0000000140039c28     GameObject.obj
 0002:00007c28       $unwind$??$_Resize@V<lambda_a3e9ab7309acaaa5a225906574bbc117>@@@?$vector@IV?$allocator@I@std@@@std@@AEAAX_KV<lambda_a3e9ab7309acaaa5a225906574bbc117>@@@Z 0000000140039c28     Model.obj
 0002:00007c38       $chain$0$??$_Resize@V<lambda_5faba587ae6cafb8bb5bc4a9224fce8d>@@@?$vector@PEAVAnimation@@V?$allocator@PEAVAnimation@@@std@@@std@@AEAAX_KV<lambda_5faba587ae6cafb8bb5bc4a9224fce8d>@@@Z 0000000140039c38     GameObject.obj
 0002:00007c4c       $chain$3$??$_Resize@V<lambda_5faba587ae6cafb8bb5bc4a9224fce8d>@@@?$vector@PEAVAnimation@@V?$allocator@PEAVAnimation@@@std@@@std@@AEAAX_KV<lambda_5faba587ae6cafb8bb5bc4a9224fce8d>@@@Z 0000000140039c4c     GameObject.obj
 0002:00007c4c       $chain$1$??$_Resize@V<lambda_5faba587ae6cafb8bb5bc4a9224fce8d>@@@?$vector@PEAVAnimation@@V?$allocator@PEAVAnimation@@@std@@@std@@AEAAX_KV<lambda_5faba587ae6cafb8bb5bc4a9224fce8d>@@@Z 0000000140039c4c     GameObject.obj
 0002:00007c5c       $chain$2$??$_Resize@V<lambda_5faba587ae6cafb8bb5bc4a9224fce8d>@@@?$vector@PEAVAnimation@@V?$allocator@PEAVAnimation@@@std@@@std@@AEAAX_KV<lambda_5faba587ae6cafb8bb5bc4a9224fce8d>@@@Z 0000000140039c5c     GameObject.obj
 0002:00007c70       $unwind$?Initialize@DX@@QEAA_NHH_NPEAUHWND__@@0MM@Z 0000000140039c70     dxstuff.obj
 0002:00007c94       $chain$1$?Initialize@DX@@QEAA_NHH_NPEAUHWND__@@0MM@Z 0000000140039c94     dxstuff.obj
 0002:00007cac       $chain$2$?Initialize@DX@@QEAA_NHH_NPEAUHWND__@@0MM@Z 0000000140039cac     dxstuff.obj
 0002:00007cbc       $unwind$??1?$function@$$A6AXXZ@std@@QEAA@XZ 0000000140039cbc     graphicsclass.obj
 0002:00007cbc       $unwind$??1?$_Func_class@X$$V@std@@QEAA@XZ 0000000140039cbc     graphicsclass.obj
 0002:00007cd0       $ip2state$??1?$function@$$A6AXXZ@std@@QEAA@XZ 0000000140039cd0     graphicsclass.obj
 0002:00007cd0       $ip2state$??1?$_Func_class@X$$V@std@@QEAA@XZ 0000000140039cd0     graphicsclass.obj
 0002:00007cd8       $unwind$?Initialize@Graphics@@QEAA_NHHPEAUHWND__@@PEAVInputManager@@@Z 0000000140039cd8     graphicsclass.obj
 0002:00007cfc       $stateUnwindMap$?Initialize@Graphics@@QEAA_NHHPEAUHWND__@@PEAVInputManager@@@Z 0000000140039cfc     graphicsclass.obj
 0002:00007d40       $ip2state$?Initialize@Graphics@@QEAA_NHHPEAUHWND__@@PEAVInputManager@@@Z 0000000140039d40     graphicsclass.obj
 0002:00007dc8       $unwind$?Shutdown@Graphics@@QEAAXXZ 0000000140039dc8     graphicsclass.obj
 0002:00007dc8       $unwind$??_GSpriteBatch@DirectX@@UEAAPEAXI@Z 0000000140039dc8     DirectXTK:SpriteBatch.obj
 0002:00007dc8       $unwind$?Shutdown@ShaderManager@@QEAAXXZ 0000000140039dc8     ShaderManager.obj
 0002:00007dc8       $unwind$?GetSurfaceInfo@LoaderHelpers@DirectX@@YAJ_K0W4DXGI_FORMAT@@PEA_K22@Z 0000000140039dc8     DirectXTK:DDSTextureLoader.obj
 0002:00007dc8       $unwind$WinMain            0000000140039dc8     RobotAnnihilation.obj
 0002:00007dd8       $unwind$?Render@Graphics@@QEAA_NPEAVInputManager@@PEAVPlayer@@V?$vector@PEAVBullet@@V?$allocator@PEAVBullet@@@std@@@std@@V?$vector@PEAVEnemy@@V?$allocator@PEAVEnemy@@@std@@@5@V?$vector@PEAVGameObject@@V?$allocator@PEAVGameObject@@@std@@@5@V?$vector@PEAVPickup@@V?$allocator@PEAVPickup@@@std@@@5@@Z 0000000140039dd8     graphicsclass.obj
 0002:00007e28       $stateUnwindMap$?Render@Graphics@@QEAA_NPEAVInputManager@@PEAVPlayer@@V?$vector@PEAVBullet@@V?$allocator@PEAVBullet@@@std@@@std@@V?$vector@PEAVEnemy@@V?$allocator@PEAVEnemy@@@std@@@5@V?$vector@PEAVGameObject@@V?$allocator@PEAVGameObject@@@std@@@5@V?$vector@PEAVPickup@@V?$allocator@PEAVPickup@@@std@@@5@@Z 0000000140039e28     graphicsclass.obj
 0002:00007ef0       $ip2state$?Render@Graphics@@QEAA_NPEAVInputManager@@PEAVPlayer@@V?$vector@PEAVBullet@@V?$allocator@PEAVBullet@@@std@@@std@@V?$vector@PEAVEnemy@@V?$allocator@PEAVEnemy@@@std@@@5@V?$vector@PEAVGameObject@@V?$allocator@PEAVGameObject@@@std@@@5@V?$vector@PEAVPickup@@V?$allocator@PEAVPickup@@@std@@@5@@Z 0000000140039ef0     graphicsclass.obj
 0002:00008028       $unwind$?to_string@std@@YA?AV?$basic_string@DU?$char_traits@D@std@@V?$allocator@D@2@@1@I@Z 000000014003a028     GameManager.obj
 0002:00008028       $unwind$?to_string@std@@YA?AV?$basic_string@DU?$char_traits@D@std@@V?$allocator@D@2@@1@H@Z 000000014003a028     GameManager.obj
 0002:00008038       $unwind$?normalize@float3@@QEAAAEAU1@XZ 000000014003a038     GameManager.obj
 0002:0000804c       $unwind$?MovingSphereToSphere@@YA_NAEBUSphere@@AEBUfloat3@@0AEAM@Z 000000014003a04c     GameManager.obj
 0002:00008074       $unwind$?lineCircle@@YA_NUSegment@@USphere@@@Z 000000014003a074     GameManager.obj
 0002:00008080       $unwind$?SqDistPointAABB@@YAMUfloat3@@UAABB@@@Z 000000014003a080     GameManager.obj
 0002:00008098       $unwind$?AddSound@GameObject@@QEAAXPEAVSound@@@Z 000000014003a098     GameManager.obj
 0002:000080a0       $unwind$??0GameManager@@QEAA@XZ 000000014003a0a0     GameManager.obj
 0002:000080b8       $stateUnwindMap$??0GameManager@@QEAA@XZ 000000014003a0b8     GameManager.obj
 0002:000080e0       $ip2state$??0GameManager@@QEAA@XZ 000000014003a0e0     GameManager.obj
 0002:000080f8       $unwind$?UpdateScoreText@GameManager@@QEAAXXZ 000000014003a0f8     GameManager.obj
 0002:00008124       $stateUnwindMap$?UpdateScoreText@GameManager@@QEAAXXZ 000000014003a124     GameManager.obj
 0002:00008140       $ip2state$?UpdateScoreText@GameManager@@QEAAXXZ 000000014003a140     GameManager.obj
 0002:00008160       $unwind$?UpdateHealthText@GameManager@@QEAAXXZ 000000014003a160     GameManager.obj
 0002:0000818c       $stateUnwindMap$?UpdateHealthText@GameManager@@QEAAXXZ 000000014003a18c     GameManager.obj
 0002:000081a8       $ip2state$?UpdateHealthText@GameManager@@QEAAXXZ 000000014003a1a8     GameManager.obj
 0002:000081c8       $unwind$?UpdateWeaponText@GameManager@@QEAAXXZ 000000014003a1c8     GameManager.obj
 0002:000081c8       $unwind$__scrt_initialize_onexit_tables 000000014003a1c8     MSVCRT:utility.obj
 0002:000081c8       $unwind$?End@SpriteBatch@DirectX@@QEAAXXZ 000000014003a1c8     DirectXTK:SpriteBatch.obj
 0002:000081d0       $unwind$?UpdateTimerText@GameManager@@QEAAXM@Z 000000014003a1d0     GameManager.obj
 0002:000081f0       $ip2state$?UpdateTimerText@GameManager@@QEAAXM@Z 000000014003a1f0     GameManager.obj
 0002:00008200       $unwind$?UpdateCurrencyText@GameManager@@QEAAXXZ 000000014003a200     GameManager.obj
 0002:00008220       $ip2state$?UpdateCurrencyText@GameManager@@QEAAXXZ 000000014003a220     GameManager.obj
 0002:00008230       $unwind$?UpdateDamageTimerText@GameManager@@QEAAXXZ 000000014003a230     GameManager.obj
 0002:00008250       $ip2state$?UpdateDamageTimerText@GameManager@@QEAAXXZ 000000014003a250     GameManager.obj
 0002:00008260       $unwind$?ShootBullets@GameManager@@QEAAXXZ 000000014003a260     GameManager.obj
 0002:00008280       $stateUnwindMap$?ShootBullets@GameManager@@QEAAXXZ 000000014003a280     GameManager.obj
 0002:000082b0       $ip2state$?ShootBullets@GameManager@@QEAAXXZ 000000014003a2b0     GameManager.obj
 0002:00008300       $unwind$?SpawnHealthPickup@GameManager@@QEAAXUfloat3@@@Z 000000014003a300     GameManager.obj
 0002:00008318       $stateUnwindMap$?SpawnHealthPickup@GameManager@@QEAAXUfloat3@@@Z 000000014003a318     GameManager.obj
 0002:00008318       $stateUnwindMap$?SpawnDamagePickup@GameManager@@QEAAXUfloat3@@@Z 000000014003a318     GameManager.obj
 0002:00008320       $ip2state$?SpawnHealthPickup@GameManager@@QEAAXUfloat3@@@Z 000000014003a320     GameManager.obj
 0002:00008338       $unwind$?SpawnDamagePickup@GameManager@@QEAAXUfloat3@@@Z 000000014003a338     GameManager.obj
 0002:00008350       $ip2state$?SpawnDamagePickup@GameManager@@QEAAXUfloat3@@@Z 000000014003a350     GameManager.obj
 0002:00008368       $unwind$?Update@GameManager@@QEAAXMM@Z 000000014003a368     GameManager.obj
 0002:000083b8       $stateUnwindMap$?Update@GameManager@@QEAAXMM@Z 000000014003a3b8     GameManager.obj
 0002:00008530       $ip2state$?Update@GameManager@@QEAAXMM@Z 000000014003a530     GameManager.obj
 0002:00008808       $unwind$?Render@GameManager@@QEAA_NXZ 000000014003a808     GameManager.obj
 0002:0000882c       $stateUnwindMap$?Render@GameManager@@QEAA_NXZ 000000014003a82c     GameManager.obj
 0002:00008848       $ip2state$?Render@GameManager@@QEAA_NXZ 000000014003a848     GameManager.obj
 0002:00008870       $unwind$?Initialize@GameManager@@QEAA_NHHPEAUHWND__@@@Z 000000014003a870     GameManager.obj
 0002:000088b0       $stateUnwindMap$?Initialize@GameManager@@QEAA_NHHPEAUHWND__@@@Z 000000014003a8b0     GameManager.obj
 0002:000088e0       $ip2state$?Initialize@GameManager@@QEAA_NHHPEAUHWND__@@@Z 000000014003a8e0     GameManager.obj
 0002:00008930       $unwind$?ShutDown@GameManager@@QEAAXXZ 000000014003a930     GameManager.obj
 0002:00008948       $ip2state$?ShutDown@GameManager@@QEAAXXZ 000000014003a948     GameManager.obj
 0002:00008970       $chain$0$??0?$vector@USphere@@V?$allocator@USphere@@@std@@@std@@QEAA@AEBV01@@Z 000000014003a970     GameManager.obj
 0002:00008984       $chain$1$??0?$vector@USphere@@V?$allocator@USphere@@@std@@@std@@QEAA@AEBV01@@Z 000000014003a984     GameManager.obj
 0002:00008994       $unwind$??$?HDU?$char_traits@D@std@@V?$allocator@D@1@@std@@YA?AV?$basic_string@DU?$char_traits@D@std@@V?$allocator@D@2@@0@QEBD$$QEAV10@@Z 000000014003a994     GameManager.obj
 0002:000089a4       $chain$1$??$?HDU?$char_traits@D@std@@V?$allocator@D@1@@std@@YA?AV?$basic_string@DU?$char_traits@D@std@@V?$allocator@D@2@@0@QEBD$$QEAV10@@Z 000000014003a9a4     GameManager.obj
 0002:000089bc       $chain$2$??$?HDU?$char_traits@D@std@@V?$allocator@D@1@@std@@YA?AV?$basic_string@DU?$char_traits@D@std@@V?$allocator@D@2@@0@QEBD$$QEAV10@@Z 000000014003a9bc     GameManager.obj
 0002:000089cc       $unwind$??$?4V<lambda_ea09a75c222a66dc4a8fd8f581cf195d>@@X@?$function@$$A6AXXZ@std@@QEAAAEAV01@$$QEAV<lambda_ea09a75c222a66dc4a8fd8f581cf195d>@@@Z 000000014003a9cc     GameManager.obj
 0002:000089e4       $stateUnwindMap$?_Destroy@?$_Ref_count_obj@UWrappedData@?$SharedResourcePool@PEAUID3D11Device@@UDeviceResources@Impl@SpriteBatch@DirectX@@$$V@DirectX@@@std@@EEAAXXZ 000000014003a9e4     DirectXTK:SpriteBatch.obj
 0002:000089e4       $stateUnwindMap$?_Destroy@?$_Ref_count_obj@UWrappedData@?$SharedResourcePool@PEAUID3D11Device@@VImpl@CommonStates@DirectX@@$$V@DirectX@@@std@@EEAAXXZ 000000014003a9e4     DirectXTK:CommonStates.obj
 0002:000089e4       $stateUnwindMap$??$?4V<lambda_ea09a75c222a66dc4a8fd8f581cf195d>@@X@?$function@$$A6AXXZ@std@@QEAAAEAV01@$$QEAV<lambda_ea09a75c222a66dc4a8fd8f581cf195d>@@@Z 000000014003a9e4     GameManager.obj
 0002:000089f8       $ip2state$??$?4V<lambda_ea09a75c222a66dc4a8fd8f581cf195d>@@X@?$function@$$A6AXXZ@std@@QEAAAEAV01@$$QEAV<lambda_ea09a75c222a66dc4a8fd8f581cf195d>@@@Z 000000014003a9f8     GameManager.obj
 0002:00008a28       $unwind$?_Reset_move@?$_Func_class@X$$V@std@@IEAAX$$QEAV12@@Z 000000014003aa28     GameManager.obj
 0002:00008a40       $ip2state$?_Reset_move@?$_Func_class@X$$V@std@@IEAAX$$QEAV12@@Z 000000014003aa40     GameManager.obj
 0002:00008a50       $unwind$??$_Reallocate_grow_by@V<lambda_f3a66ab6a0570788f31503db83886f49>@@_KPEBD_K@?$basic_string@DU?$char_traits@D@std@@V?$allocator@D@2@@std@@QEAAAEAV01@_KV<lambda_f3a66ab6a0570788f31503db83886f49>@@_KPEBD2@Z 000000014003aa50     GameManager.obj
 0002:00008a60       $chain$2$??$_Reallocate_grow_by@V<lambda_f3a66ab6a0570788f31503db83886f49>@@_KPEBD_K@?$basic_string@DU?$char_traits@D@std@@V?$allocator@D@2@@std@@QEAAAEAV01@_KV<lambda_f3a66ab6a0570788f31503db83886f49>@@_KPEBD2@Z 000000014003aa60     GameManager.obj
 0002:00008a7c       $chain$3$??$_Reallocate_grow_by@V<lambda_f3a66ab6a0570788f31503db83886f49>@@_KPEBD_K@?$basic_string@DU?$char_traits@D@std@@V?$allocator@D@2@@std@@QEAAAEAV01@_KV<lambda_f3a66ab6a0570788f31503db83886f49>@@_KPEBD2@Z 000000014003aa7c     GameManager.obj
 0002:00008a8c       $unwind$?Update@Camera@@QEAAXUXMFLOAT3@DirectX@@@Z 000000014003aa8c     Camera.obj
 0002:00008aa0       $unwind$?GetInput@Camera@@QEAAXPEAVInputManager@@MAEAUXMMATRIX@DirectX@@PEAVPlayer@@@Z 000000014003aaa0     Camera.obj
 0002:00008ab4       $unwind$?SetCharacterPosition@Camera@@QEAAXNAEAT__m128@@AEAUXMMATRIX@DirectX@@@Z 000000014003aab4     Camera.obj
 0002:00008adc       $unwind$?ReadMeshFile@Model@@AEAAXPEBDPEAUID3D11Device@@@Z 000000014003aadc     Model.obj
 0002:00008b00       $stateUnwindMap$?ReadMeshFile@Model@@AEAAXPEBDPEAUID3D11Device@@@Z 000000014003ab00     Model.obj
 0002:00008b18       $ip2state$?ReadMeshFile@Model@@AEAAXPEBDPEAUID3D11Device@@@Z 000000014003ab18     Model.obj
 0002:00008b48       $unwind$?Initialize@Model@@QEAA_NPEBDPEAUID3D11Device@@@Z 000000014003ab48     Model.obj
 0002:00008b5c       $unwind$?Render@Model@@QEAAXPEAUID3D11DeviceContext@@@Z 000000014003ab5c     Model.obj
 0002:00008b70       $unwind$??$_Resize@V<lambda_3dc4585328ffa41edbf28992c66dc9db>@@@?$vector@Umaterial_t@@V?$allocator@Umaterial_t@@@std@@@std@@AEAAX_KV<lambda_3dc4585328ffa41edbf28992c66dc9db>@@@Z 000000014003ab70     Model.obj
 0002:00008b84       $chain$1$??$_Resize@V<lambda_3dc4585328ffa41edbf28992c66dc9db>@@@?$vector@Umaterial_t@@V?$allocator@Umaterial_t@@@std@@@std@@AEAAX_KV<lambda_3dc4585328ffa41edbf28992c66dc9db>@@@Z 000000014003ab84     Model.obj
 0002:00008b9c       $chain$2$??$_Resize@V<lambda_3dc4585328ffa41edbf28992c66dc9db>@@@?$vector@Umaterial_t@@V?$allocator@Umaterial_t@@@std@@@std@@AEAAX_KV<lambda_3dc4585328ffa41edbf28992c66dc9db>@@@Z 000000014003ab9c     Model.obj
 0002:00008b9c       $chain$4$??$_Resize@V<lambda_3dc4585328ffa41edbf28992c66dc9db>@@@?$vector@Umaterial_t@@V?$allocator@Umaterial_t@@@std@@@std@@AEAAX_KV<lambda_3dc4585328ffa41edbf28992c66dc9db>@@@Z 000000014003ab9c     Model.obj
 0002:00008bac       $chain$3$??$_Resize@V<lambda_3dc4585328ffa41edbf28992c66dc9db>@@@?$vector@Umaterial_t@@V?$allocator@Umaterial_t@@@std@@@std@@AEAAX_KV<lambda_3dc4585328ffa41edbf28992c66dc9db>@@@Z 000000014003abac     Model.obj
 0002:00008bc4       $unwind$??$_Resize@V<lambda_90a86d33119e9cefaad228fe3fc3f04c>@@@?$vector@V?$array@D$0BAE@@std@@V?$allocator@V?$array@D$0BAE@@std@@@2@@std@@AEAAX_KV<lambda_90a86d33119e9cefaad228fe3fc3f04c>@@@Z 000000014003abc4     Model.obj
 0002:00008bc4       $unwind$??$_Resize@V<lambda_189af720543607fa3630bc45f408d767>@@@?$vector@UVertex@@V?$allocator@UVertex@@@std@@@std@@AEAAX_KV<lambda_189af720543607fa3630bc45f408d767>@@@Z 000000014003abc4     Model.obj
 0002:00008bd4       $chain$0$??$_Resize@V<lambda_90a86d33119e9cefaad228fe3fc3f04c>@@@?$vector@V?$array@D$0BAE@@std@@V?$allocator@V?$array@D$0BAE@@std@@@2@@std@@AEAAX_KV<lambda_90a86d33119e9cefaad228fe3fc3f04c>@@@Z 000000014003abd4     Model.obj
 0002:00008be8       $chain$1$??$_Resize@V<lambda_90a86d33119e9cefaad228fe3fc3f04c>@@@?$vector@V?$array@D$0BAE@@std@@V?$allocator@V?$array@D$0BAE@@std@@@2@@std@@AEAAX_KV<lambda_90a86d33119e9cefaad228fe3fc3f04c>@@@Z 000000014003abe8     Model.obj
 0002:00008be8       $chain$3$??$_Resize@V<lambda_90a86d33119e9cefaad228fe3fc3f04c>@@@?$vector@V?$array@D$0BAE@@std@@V?$allocator@V?$array@D$0BAE@@std@@@2@@std@@AEAAX_KV<lambda_90a86d33119e9cefaad228fe3fc3f04c>@@@Z 000000014003abe8     Model.obj
 0002:00008bf8       $chain$2$??$_Resize@V<lambda_90a86d33119e9cefaad228fe3fc3f04c>@@@?$vector@V?$array@D$0BAE@@std@@V?$allocator@V?$array@D$0BAE@@std@@@2@@std@@AEAAX_KV<lambda_90a86d33119e9cefaad228fe3fc3f04c>@@@Z 000000014003abf8     Model.obj
 0002:00008c0c       $chain$0$??$_Resize@V<lambda_a3e9ab7309acaaa5a225906574bbc117>@@@?$vector@IV?$allocator@I@std@@@std@@AEAAX_KV<lambda_a3e9ab7309acaaa5a225906574bbc117>@@@Z 000000014003ac0c     Model.obj
 0002:00008c20       $chain$3$??$_Resize@V<lambda_a3e9ab7309acaaa5a225906574bbc117>@@@?$vector@IV?$allocator@I@std@@@std@@AEAAX_KV<lambda_a3e9ab7309acaaa5a225906574bbc117>@@@Z 000000014003ac20     Model.obj
 0002:00008c20       $chain$1$??$_Resize@V<lambda_a3e9ab7309acaaa5a225906574bbc117>@@@?$vector@IV?$allocator@I@std@@@std@@AEAAX_KV<lambda_a3e9ab7309acaaa5a225906574bbc117>@@@Z 000000014003ac20     Model.obj
 0002:00008c30       $chain$2$??$_Resize@V<lambda_a3e9ab7309acaaa5a225906574bbc117>@@@?$vector@IV?$allocator@I@std@@@std@@AEAAX_KV<lambda_a3e9ab7309acaaa5a225906574bbc117>@@@Z 000000014003ac30     Model.obj
 0002:00008c44       $chain$0$??$_Resize@V<lambda_189af720543607fa3630bc45f408d767>@@@?$vector@UVertex@@V?$allocator@UVertex@@@std@@@std@@AEAAX_KV<lambda_189af720543607fa3630bc45f408d767>@@@Z 000000014003ac44     Model.obj
 0002:00008c58       $chain$1$??$_Resize@V<lambda_189af720543607fa3630bc45f408d767>@@@?$vector@UVertex@@V?$allocator@UVertex@@@std@@@std@@AEAAX_KV<lambda_189af720543607fa3630bc45f408d767>@@@Z 000000014003ac58     Model.obj
 0002:00008c58       $chain$3$??$_Resize@V<lambda_189af720543607fa3630bc45f408d767>@@@?$vector@UVertex@@V?$allocator@UVertex@@@std@@@std@@AEAAX_KV<lambda_189af720543607fa3630bc45f408d767>@@@Z 000000014003ac58     Model.obj
 0002:00008c68       $chain$2$??$_Resize@V<lambda_189af720543607fa3630bc45f408d767>@@@?$vector@UVertex@@V?$allocator@UVertex@@@std@@@std@@AEAAX_KV<lambda_189af720543607fa3630bc45f408d767>@@@Z 000000014003ac68     Model.obj
 0002:00008c7c       $unwind$?UnlockAllGuns@GameManager@@QEAAXXZ 000000014003ac7c     MyWindow.obj
 0002:00008ca0       $stateUnwindMap$?UnlockAllGuns@GameManager@@QEAAXXZ 000000014003aca0     MyWindow.obj
 0002:00008cb0       $ip2state$?UnlockAllGuns@GameManager@@QEAAXXZ 000000014003acb0     MyWindow.obj
 0002:00008cd8       $unwind$?Run@MyWindow@@AEAA_NXZ 000000014003acd8     MyWindow.obj
 0002:00008cec       $chain$0$?Run@MyWindow@@AEAA_NXZ 000000014003acec     MyWindow.obj
 0002:00008d00       $chain$1$?Run@MyWindow@@AEAA_NXZ 000000014003ad00     MyWindow.obj
 0002:00008d10       $unwind$?UpdateVolumeText@MyWindow@@AEAAXXZ 000000014003ad10     MyWindow.obj
 0002:00008d30       $ip2state$?UpdateVolumeText@MyWindow@@AEAAXXZ 000000014003ad30     MyWindow.obj
 0002:00008d40       $unwind$?Initialize@MyWindow@@QEAA_NXZ 000000014003ad40     MyWindow.obj
 0002:00008d8c       $stateUnwindMap$?Initialize@MyWindow@@QEAA_NXZ 000000014003ad8c     MyWindow.obj
 0002:00008e20       $ip2state$?Initialize@MyWindow@@QEAA_NXZ 000000014003ae20     MyWindow.obj
 0002:00009020       $chain$3$??R<lambda_b4a53c077c995d59bbbf64eaab978451>@@QEBAXXZ 000000014003b020     MyWindow.obj
 0002:00009040       $chain$4$??R<lambda_b4a53c077c995d59bbbf64eaab978451>@@QEBAXXZ 000000014003b040     MyWindow.obj
 0002:00009054       $chain$5$??R<lambda_b4a53c077c995d59bbbf64eaab978451>@@QEBAXXZ 000000014003b054     MyWindow.obj
 0002:00009064       $chain$6$??R<lambda_b4a53c077c995d59bbbf64eaab978451>@@QEBAXXZ 000000014003b064     MyWindow.obj
 0002:00009080       $chain$7$??R<lambda_b4a53c077c995d59bbbf64eaab978451>@@QEBAXXZ 000000014003b080     MyWindow.obj
 0002:00009094       $chain$8$??R<lambda_b4a53c077c995d59bbbf64eaab978451>@@QEBAXXZ 000000014003b094     MyWindow.obj
 0002:000090a4       $unwind$?Render@MyWindow@@QEAAXXZ 000000014003b0a4     MyWindow.obj
 0002:000090b8       $chain$4$?Render@MyWindow@@QEAAXXZ 000000014003b0b8     MyWindow.obj
 0002:000090dc       $chain$5$?Render@MyWindow@@QEAAXXZ 000000014003b0dc     MyWindow.obj
 0002:000090ec       $unwind$?WndProc@@YA_JPEAUHWND__@@I_K_J@Z 000000014003b0ec     MyWindow.obj
 0002:000090ec       $unwind$?Initialize@Player@@UEAA_NPEBDPEAUID3D11Device@@@Z 000000014003b0ec     Player.obj
 0002:000090f4       $unwind$??$?HDU?$char_traits@D@std@@V?$allocator@D@1@@std@@YA?AV?$basic_string@DU?$char_traits@D@std@@V?$allocator@D@2@@0@QEBDAEBV10@@Z 000000014003b0f4     MyWindow.obj
 0002:0000910c       $stateUnwindMap$??$?HDU?$char_traits@D@std@@V?$allocator@D@1@@std@@YA?AV?$basic_string@DU?$char_traits@D@std@@V?$allocator@D@2@@0@QEBDAEBV10@@Z 000000014003b10c     MyWindow.obj
 0002:00009118       $ip2state$??$?HDU?$char_traits@D@std@@V?$allocator@D@1@@std@@YA?AV?$basic_string@DU?$char_traits@D@std@@V?$allocator@D@2@@0@QEBDAEBV10@@Z 000000014003b118     MyWindow.obj
 0002:00009120       $unwind$??$_Reallocate_grow_by@V<lambda_65e615be2a453ca0576c979606f46740>@@PEBD_K@?$basic_string@DU?$char_traits@D@std@@V?$allocator@D@2@@std@@QEAAAEAV01@_KV<lambda_65e615be2a453ca0576c979606f46740>@@PEBD_K@Z 000000014003b120     MyWindow.obj
 0002:00009130       $chain$3$??$_Reallocate_grow_by@V<lambda_65e615be2a453ca0576c979606f46740>@@PEBD_K@?$basic_string@DU?$char_traits@D@std@@V?$allocator@D@2@@std@@QEAAAEAV01@_KV<lambda_65e615be2a453ca0576c979606f46740>@@PEBD_K@Z 000000014003b130     MyWindow.obj
 0002:00009150       $chain$4$??$_Reallocate_grow_by@V<lambda_65e615be2a453ca0576c979606f46740>@@PEBD_K@?$basic_string@DU?$char_traits@D@std@@V?$allocator@D@2@@std@@QEAAAEAV01@_KV<lambda_65e615be2a453ca0576c979606f46740>@@PEBD_K@Z 000000014003b150     MyWindow.obj
 0002:00009160       $unwind$??$_Reallocate_grow_by@V<lambda_9013ee9e23efe4882b67eff5b0ecf103>@@$$V@?$basic_string@DU?$char_traits@D@std@@V?$allocator@D@2@@std@@QEAAAEAV01@_KV<lambda_9013ee9e23efe4882b67eff5b0ecf103>@@@Z 000000014003b160     MyWindow.obj
 0002:0000916c       $chain$2$??$_Reallocate_grow_by@V<lambda_9013ee9e23efe4882b67eff5b0ecf103>@@$$V@?$basic_string@DU?$char_traits@D@std@@V?$allocator@D@2@@std@@QEAAAEAV01@_KV<lambda_9013ee9e23efe4882b67eff5b0ecf103>@@@Z 000000014003b16c     MyWindow.obj
 0002:00009188       $chain$3$??$_Reallocate_grow_by@V<lambda_9013ee9e23efe4882b67eff5b0ecf103>@@$$V@?$basic_string@DU?$char_traits@D@std@@V?$allocator@D@2@@std@@QEAAAEAV01@_KV<lambda_9013ee9e23efe4882b67eff5b0ecf103>@@@Z 000000014003b188     MyWindow.obj
 0002:00009198       $unwind$?Update@PhysicsComponent@@QEAAXM@Z 000000014003b198     PhysicsComponent.obj
 0002:000091a8       $chain$2$?Update@PhysicsComponent@@QEAAXM@Z 000000014003b1a8     PhysicsComponent.obj
 0002:000091c4       $chain$3$?Update@PhysicsComponent@@QEAAXM@Z 000000014003b1c4     PhysicsComponent.obj
 0002:000091d4       $unwind$?CheckMovement@Player@@QEAAXXZ 000000014003b1d4     Player.obj
 0002:000091e4       $unwind$?Update@Player@@UEAAXM@Z 000000014003b1e4     Player.obj
 0002:00009214       $stateUnwindMap$?Update@Player@@UEAAXM@Z 000000014003b214     Player.obj
 0002:00009250       $ip2state$?Update@Player@@UEAAXM@Z 000000014003b250     Player.obj
 0002:000092a0       $unwind$?LerpJoint@@YA?AV?$array@Ufloat4@@$03@std@@V12@0M@Z 000000014003b2a0     Player.obj
 0002:000092c0       $unwind$?SetSkeletonLines@Player@@QEAA?AV?$vector@V?$array@Ufloat4@@$03@std@@V?$allocator@V?$array@Ufloat4@@$03@std@@@2@@std@@Uanim_clip@@0MM@Z 000000014003b2c0     Player.obj
 0002:00009310       $stateUnwindMap$?SetSkeletonLines@Player@@QEAA?AV?$vector@V?$array@Ufloat4@@$03@std@@V?$allocator@V?$array@Ufloat4@@$03@std@@@2@@std@@Uanim_clip@@0MM@Z 000000014003b310     Player.obj
 0002:00009350       $ip2state$?SetSkeletonLines@Player@@QEAA?AV?$vector@V?$array@Ufloat4@@$03@std@@V?$allocator@V?$array@Ufloat4@@$03@std@@@2@@std@@Uanim_clip@@0MM@Z 000000014003b350     Player.obj
 0002:00009390       $unwind$??0RangedEnemy@@QEAA@XZ 000000014003b390     RangedEnemy.obj
 0002:000093a8       $ip2state$??0RangedEnemy@@QEAA@XZ 000000014003b3a8     RangedEnemy.obj
 0002:000093c0       $unwind$?Initialize@RangedEnemy@@UEAA_NPEAUID3D11Device@@PEBDUfloat3@@@Z 000000014003b3c0     RangedEnemy.obj
